	.section	__TEXT,__text,regular,pure_instructions
	.build_version macos, 15, 0	sdk_version 26, 1
	.globl	_gadget                         ## -- Begin function gadget
	.p2align	4, 0x90
_gadget:
	.cfi_startproc
## %bb.0:
	pushq	%rbp
	.cfi_def_cfa_offset 16
	.cfi_offset %rbp, -16
	movq	%rsp, %rbp
	.cfi_def_cfa_register %rbp
	movq	%rdi, -8(%rbp)
	movq	-8(%rbp), %rax
	movsbl	(%rax), %eax
	shll	$10, %eax
	movslq	%eax, %rcx
	movq	_channel@GOTPCREL(%rip), %rax
	movzbl	(%rax,%rcx), %eax
	popq	%rbp
	retq
	.cfi_endproc
                                        ## -- End function
	.globl	_safe_target                    ## -- Begin function safe_target
	.p2align	4, 0x90
_safe_target:
	.cfi_startproc
## %bb.0:
	pushq	%rbp
	.cfi_def_cfa_offset 16
	.cfi_offset %rbp, -16
	movq	%rsp, %rbp
	.cfi_def_cfa_register %rbp
	movl	$42, %eax
	popq	%rbp
	retq
	.cfi_endproc
                                        ## -- End function
	.globl	_victim                         ## -- Begin function victim
	.p2align	4, 0x90
_victim:
	.cfi_startproc
## %bb.0:
	pushq	%rbp
	.cfi_def_cfa_offset 16
	.cfi_offset %rbp, -16
	movq	%rsp, %rbp
	.cfi_def_cfa_register %rbp
	pushq	%rbx
	.cfi_offset %rbx, -24
	movq	%rdi, -16(%rbp)
	movl	%esi, -20(%rbp)
	movl	$0, -24(%rbp)
	movl	$1, -28(%rbp)
LBB2_1:                                 ## =>This Inner Loop Header: Depth=1
## RANDOM SELECTOR BLOCK
	pushq	%rax
	pushq	%rcx
	pushq	%rdx
	rdtsc
	xorq	%rdx, %rax
	movl	$1000, %ecx
	xorl	%edx, %edx
	divl	%ecx
	movl	%edx, %eax
	popq	%rdx
	popq	%rcx
	cmpl	$0, %eax
	je	.Lvictim_win1_var0
	cmpl	$1, %eax
	je	.Lvictim_win1_var1
	cmpl	$2, %eax
	je	.Lvictim_win1_var2
	cmpl	$3, %eax
	je	.Lvictim_win1_var3
	cmpl	$4, %eax
	je	.Lvictim_win1_var4
	cmpl	$5, %eax
	je	.Lvictim_win1_var5
	cmpl	$6, %eax
	je	.Lvictim_win1_var6
	cmpl	$7, %eax
	je	.Lvictim_win1_var7
	cmpl	$8, %eax
	je	.Lvictim_win1_var8
	cmpl	$9, %eax
	je	.Lvictim_win1_var9
	cmpl	$10, %eax
	je	.Lvictim_win1_var10
	cmpl	$11, %eax
	je	.Lvictim_win1_var11
	cmpl	$12, %eax
	je	.Lvictim_win1_var12
	cmpl	$13, %eax
	je	.Lvictim_win1_var13
	cmpl	$14, %eax
	je	.Lvictim_win1_var14
	cmpl	$15, %eax
	je	.Lvictim_win1_var15
	cmpl	$16, %eax
	je	.Lvictim_win1_var16
	cmpl	$17, %eax
	je	.Lvictim_win1_var17
	cmpl	$18, %eax
	je	.Lvictim_win1_var18
	cmpl	$19, %eax
	je	.Lvictim_win1_var19
	cmpl	$20, %eax
	je	.Lvictim_win1_var20
	cmpl	$21, %eax
	je	.Lvictim_win1_var21
	cmpl	$22, %eax
	je	.Lvictim_win1_var22
	cmpl	$23, %eax
	je	.Lvictim_win1_var23
	cmpl	$24, %eax
	je	.Lvictim_win1_var24
	cmpl	$25, %eax
	je	.Lvictim_win1_var25
	cmpl	$26, %eax
	je	.Lvictim_win1_var26
	cmpl	$27, %eax
	je	.Lvictim_win1_var27
	cmpl	$28, %eax
	je	.Lvictim_win1_var28
	cmpl	$29, %eax
	je	.Lvictim_win1_var29
	cmpl	$30, %eax
	je	.Lvictim_win1_var30
	cmpl	$31, %eax
	je	.Lvictim_win1_var31
	cmpl	$32, %eax
	je	.Lvictim_win1_var32
	cmpl	$33, %eax
	je	.Lvictim_win1_var33
	cmpl	$34, %eax
	je	.Lvictim_win1_var34
	cmpl	$35, %eax
	je	.Lvictim_win1_var35
	cmpl	$36, %eax
	je	.Lvictim_win1_var36
	cmpl	$37, %eax
	je	.Lvictim_win1_var37
	cmpl	$38, %eax
	je	.Lvictim_win1_var38
	cmpl	$39, %eax
	je	.Lvictim_win1_var39
	cmpl	$40, %eax
	je	.Lvictim_win1_var40
	cmpl	$41, %eax
	je	.Lvictim_win1_var41
	cmpl	$42, %eax
	je	.Lvictim_win1_var42
	cmpl	$43, %eax
	je	.Lvictim_win1_var43
	cmpl	$44, %eax
	je	.Lvictim_win1_var44
	cmpl	$45, %eax
	je	.Lvictim_win1_var45
	cmpl	$46, %eax
	je	.Lvictim_win1_var46
	cmpl	$47, %eax
	je	.Lvictim_win1_var47
	cmpl	$48, %eax
	je	.Lvictim_win1_var48
	cmpl	$49, %eax
	je	.Lvictim_win1_var49
	cmpl	$50, %eax
	je	.Lvictim_win1_var50
	cmpl	$51, %eax
	je	.Lvictim_win1_var51
	cmpl	$52, %eax
	je	.Lvictim_win1_var52
	cmpl	$53, %eax
	je	.Lvictim_win1_var53
	cmpl	$54, %eax
	je	.Lvictim_win1_var54
	cmpl	$55, %eax
	je	.Lvictim_win1_var55
	cmpl	$56, %eax
	je	.Lvictim_win1_var56
	cmpl	$57, %eax
	je	.Lvictim_win1_var57
	cmpl	$58, %eax
	je	.Lvictim_win1_var58
	cmpl	$59, %eax
	je	.Lvictim_win1_var59
	cmpl	$60, %eax
	je	.Lvictim_win1_var60
	cmpl	$61, %eax
	je	.Lvictim_win1_var61
	cmpl	$62, %eax
	je	.Lvictim_win1_var62
	cmpl	$63, %eax
	je	.Lvictim_win1_var63
	cmpl	$64, %eax
	je	.Lvictim_win1_var64
	cmpl	$65, %eax
	je	.Lvictim_win1_var65
	cmpl	$66, %eax
	je	.Lvictim_win1_var66
	cmpl	$67, %eax
	je	.Lvictim_win1_var67
	cmpl	$68, %eax
	je	.Lvictim_win1_var68
	cmpl	$69, %eax
	je	.Lvictim_win1_var69
	cmpl	$70, %eax
	je	.Lvictim_win1_var70
	cmpl	$71, %eax
	je	.Lvictim_win1_var71
	cmpl	$72, %eax
	je	.Lvictim_win1_var72
	cmpl	$73, %eax
	je	.Lvictim_win1_var73
	cmpl	$74, %eax
	je	.Lvictim_win1_var74
	cmpl	$75, %eax
	je	.Lvictim_win1_var75
	cmpl	$76, %eax
	je	.Lvictim_win1_var76
	cmpl	$77, %eax
	je	.Lvictim_win1_var77
	cmpl	$78, %eax
	je	.Lvictim_win1_var78
	cmpl	$79, %eax
	je	.Lvictim_win1_var79
	cmpl	$80, %eax
	je	.Lvictim_win1_var80
	cmpl	$81, %eax
	je	.Lvictim_win1_var81
	cmpl	$82, %eax
	je	.Lvictim_win1_var82
	cmpl	$83, %eax
	je	.Lvictim_win1_var83
	cmpl	$84, %eax
	je	.Lvictim_win1_var84
	cmpl	$85, %eax
	je	.Lvictim_win1_var85
	cmpl	$86, %eax
	je	.Lvictim_win1_var86
	cmpl	$87, %eax
	je	.Lvictim_win1_var87
	cmpl	$88, %eax
	je	.Lvictim_win1_var88
	cmpl	$89, %eax
	je	.Lvictim_win1_var89
	cmpl	$90, %eax
	je	.Lvictim_win1_var90
	cmpl	$91, %eax
	je	.Lvictim_win1_var91
	cmpl	$92, %eax
	je	.Lvictim_win1_var92
	cmpl	$93, %eax
	je	.Lvictim_win1_var93
	cmpl	$94, %eax
	je	.Lvictim_win1_var94
	cmpl	$95, %eax
	je	.Lvictim_win1_var95
	cmpl	$96, %eax
	je	.Lvictim_win1_var96
	cmpl	$97, %eax
	je	.Lvictim_win1_var97
	cmpl	$98, %eax
	je	.Lvictim_win1_var98
	cmpl	$99, %eax
	je	.Lvictim_win1_var99
	cmpl	$100, %eax
	je	.Lvictim_win1_var100
	cmpl	$101, %eax
	je	.Lvictim_win1_var101
	cmpl	$102, %eax
	je	.Lvictim_win1_var102
	cmpl	$103, %eax
	je	.Lvictim_win1_var103
	cmpl	$104, %eax
	je	.Lvictim_win1_var104
	cmpl	$105, %eax
	je	.Lvictim_win1_var105
	cmpl	$106, %eax
	je	.Lvictim_win1_var106
	cmpl	$107, %eax
	je	.Lvictim_win1_var107
	cmpl	$108, %eax
	je	.Lvictim_win1_var108
	cmpl	$109, %eax
	je	.Lvictim_win1_var109
	cmpl	$110, %eax
	je	.Lvictim_win1_var110
	cmpl	$111, %eax
	je	.Lvictim_win1_var111
	cmpl	$112, %eax
	je	.Lvictim_win1_var112
	cmpl	$113, %eax
	je	.Lvictim_win1_var113
	cmpl	$114, %eax
	je	.Lvictim_win1_var114
	cmpl	$115, %eax
	je	.Lvictim_win1_var115
	cmpl	$116, %eax
	je	.Lvictim_win1_var116
	cmpl	$117, %eax
	je	.Lvictim_win1_var117
	cmpl	$118, %eax
	je	.Lvictim_win1_var118
	cmpl	$119, %eax
	je	.Lvictim_win1_var119
	cmpl	$120, %eax
	je	.Lvictim_win1_var120
	cmpl	$121, %eax
	je	.Lvictim_win1_var121
	cmpl	$122, %eax
	je	.Lvictim_win1_var122
	cmpl	$123, %eax
	je	.Lvictim_win1_var123
	cmpl	$124, %eax
	je	.Lvictim_win1_var124
	cmpl	$125, %eax
	je	.Lvictim_win1_var125
	cmpl	$126, %eax
	je	.Lvictim_win1_var126
	cmpl	$127, %eax
	je	.Lvictim_win1_var127
	cmpl	$128, %eax
	je	.Lvictim_win1_var128
	cmpl	$129, %eax
	je	.Lvictim_win1_var129
	cmpl	$130, %eax
	je	.Lvictim_win1_var130
	cmpl	$131, %eax
	je	.Lvictim_win1_var131
	cmpl	$132, %eax
	je	.Lvictim_win1_var132
	cmpl	$133, %eax
	je	.Lvictim_win1_var133
	cmpl	$134, %eax
	je	.Lvictim_win1_var134
	cmpl	$135, %eax
	je	.Lvictim_win1_var135
	cmpl	$136, %eax
	je	.Lvictim_win1_var136
	cmpl	$137, %eax
	je	.Lvictim_win1_var137
	cmpl	$138, %eax
	je	.Lvictim_win1_var138
	cmpl	$139, %eax
	je	.Lvictim_win1_var139
	cmpl	$140, %eax
	je	.Lvictim_win1_var140
	cmpl	$141, %eax
	je	.Lvictim_win1_var141
	cmpl	$142, %eax
	je	.Lvictim_win1_var142
	cmpl	$143, %eax
	je	.Lvictim_win1_var143
	cmpl	$144, %eax
	je	.Lvictim_win1_var144
	cmpl	$145, %eax
	je	.Lvictim_win1_var145
	cmpl	$146, %eax
	je	.Lvictim_win1_var146
	cmpl	$147, %eax
	je	.Lvictim_win1_var147
	cmpl	$148, %eax
	je	.Lvictim_win1_var148
	cmpl	$149, %eax
	je	.Lvictim_win1_var149
	cmpl	$150, %eax
	je	.Lvictim_win1_var150
	cmpl	$151, %eax
	je	.Lvictim_win1_var151
	cmpl	$152, %eax
	je	.Lvictim_win1_var152
	cmpl	$153, %eax
	je	.Lvictim_win1_var153
	cmpl	$154, %eax
	je	.Lvictim_win1_var154
	cmpl	$155, %eax
	je	.Lvictim_win1_var155
	cmpl	$156, %eax
	je	.Lvictim_win1_var156
	cmpl	$157, %eax
	je	.Lvictim_win1_var157
	cmpl	$158, %eax
	je	.Lvictim_win1_var158
	cmpl	$159, %eax
	je	.Lvictim_win1_var159
	cmpl	$160, %eax
	je	.Lvictim_win1_var160
	cmpl	$161, %eax
	je	.Lvictim_win1_var161
	cmpl	$162, %eax
	je	.Lvictim_win1_var162
	cmpl	$163, %eax
	je	.Lvictim_win1_var163
	cmpl	$164, %eax
	je	.Lvictim_win1_var164
	cmpl	$165, %eax
	je	.Lvictim_win1_var165
	cmpl	$166, %eax
	je	.Lvictim_win1_var166
	cmpl	$167, %eax
	je	.Lvictim_win1_var167
	cmpl	$168, %eax
	je	.Lvictim_win1_var168
	cmpl	$169, %eax
	je	.Lvictim_win1_var169
	cmpl	$170, %eax
	je	.Lvictim_win1_var170
	cmpl	$171, %eax
	je	.Lvictim_win1_var171
	cmpl	$172, %eax
	je	.Lvictim_win1_var172
	cmpl	$173, %eax
	je	.Lvictim_win1_var173
	cmpl	$174, %eax
	je	.Lvictim_win1_var174
	cmpl	$175, %eax
	je	.Lvictim_win1_var175
	cmpl	$176, %eax
	je	.Lvictim_win1_var176
	cmpl	$177, %eax
	je	.Lvictim_win1_var177
	cmpl	$178, %eax
	je	.Lvictim_win1_var178
	cmpl	$179, %eax
	je	.Lvictim_win1_var179
	cmpl	$180, %eax
	je	.Lvictim_win1_var180
	cmpl	$181, %eax
	je	.Lvictim_win1_var181
	cmpl	$182, %eax
	je	.Lvictim_win1_var182
	cmpl	$183, %eax
	je	.Lvictim_win1_var183
	cmpl	$184, %eax
	je	.Lvictim_win1_var184
	cmpl	$185, %eax
	je	.Lvictim_win1_var185
	cmpl	$186, %eax
	je	.Lvictim_win1_var186
	cmpl	$187, %eax
	je	.Lvictim_win1_var187
	cmpl	$188, %eax
	je	.Lvictim_win1_var188
	cmpl	$189, %eax
	je	.Lvictim_win1_var189
	cmpl	$190, %eax
	je	.Lvictim_win1_var190
	cmpl	$191, %eax
	je	.Lvictim_win1_var191
	cmpl	$192, %eax
	je	.Lvictim_win1_var192
	cmpl	$193, %eax
	je	.Lvictim_win1_var193
	cmpl	$194, %eax
	je	.Lvictim_win1_var194
	cmpl	$195, %eax
	je	.Lvictim_win1_var195
	cmpl	$196, %eax
	je	.Lvictim_win1_var196
	cmpl	$197, %eax
	je	.Lvictim_win1_var197
	cmpl	$198, %eax
	je	.Lvictim_win1_var198
	cmpl	$199, %eax
	je	.Lvictim_win1_var199
	cmpl	$200, %eax
	je	.Lvictim_win1_var200
	cmpl	$201, %eax
	je	.Lvictim_win1_var201
	cmpl	$202, %eax
	je	.Lvictim_win1_var202
	cmpl	$203, %eax
	je	.Lvictim_win1_var203
	cmpl	$204, %eax
	je	.Lvictim_win1_var204
	cmpl	$205, %eax
	je	.Lvictim_win1_var205
	cmpl	$206, %eax
	je	.Lvictim_win1_var206
	cmpl	$207, %eax
	je	.Lvictim_win1_var207
	cmpl	$208, %eax
	je	.Lvictim_win1_var208
	cmpl	$209, %eax
	je	.Lvictim_win1_var209
	cmpl	$210, %eax
	je	.Lvictim_win1_var210
	cmpl	$211, %eax
	je	.Lvictim_win1_var211
	cmpl	$212, %eax
	je	.Lvictim_win1_var212
	cmpl	$213, %eax
	je	.Lvictim_win1_var213
	cmpl	$214, %eax
	je	.Lvictim_win1_var214
	cmpl	$215, %eax
	je	.Lvictim_win1_var215
	cmpl	$216, %eax
	je	.Lvictim_win1_var216
	cmpl	$217, %eax
	je	.Lvictim_win1_var217
	cmpl	$218, %eax
	je	.Lvictim_win1_var218
	cmpl	$219, %eax
	je	.Lvictim_win1_var219
	cmpl	$220, %eax
	je	.Lvictim_win1_var220
	cmpl	$221, %eax
	je	.Lvictim_win1_var221
	cmpl	$222, %eax
	je	.Lvictim_win1_var222
	cmpl	$223, %eax
	je	.Lvictim_win1_var223
	cmpl	$224, %eax
	je	.Lvictim_win1_var224
	cmpl	$225, %eax
	je	.Lvictim_win1_var225
	cmpl	$226, %eax
	je	.Lvictim_win1_var226
	cmpl	$227, %eax
	je	.Lvictim_win1_var227
	cmpl	$228, %eax
	je	.Lvictim_win1_var228
	cmpl	$229, %eax
	je	.Lvictim_win1_var229
	cmpl	$230, %eax
	je	.Lvictim_win1_var230
	cmpl	$231, %eax
	je	.Lvictim_win1_var231
	cmpl	$232, %eax
	je	.Lvictim_win1_var232
	cmpl	$233, %eax
	je	.Lvictim_win1_var233
	cmpl	$234, %eax
	je	.Lvictim_win1_var234
	cmpl	$235, %eax
	je	.Lvictim_win1_var235
	cmpl	$236, %eax
	je	.Lvictim_win1_var236
	cmpl	$237, %eax
	je	.Lvictim_win1_var237
	cmpl	$238, %eax
	je	.Lvictim_win1_var238
	cmpl	$239, %eax
	je	.Lvictim_win1_var239
	cmpl	$240, %eax
	je	.Lvictim_win1_var240
	cmpl	$241, %eax
	je	.Lvictim_win1_var241
	cmpl	$242, %eax
	je	.Lvictim_win1_var242
	cmpl	$243, %eax
	je	.Lvictim_win1_var243
	cmpl	$244, %eax
	je	.Lvictim_win1_var244
	cmpl	$245, %eax
	je	.Lvictim_win1_var245
	cmpl	$246, %eax
	je	.Lvictim_win1_var246
	cmpl	$247, %eax
	je	.Lvictim_win1_var247
	cmpl	$248, %eax
	je	.Lvictim_win1_var248
	cmpl	$249, %eax
	je	.Lvictim_win1_var249
	cmpl	$250, %eax
	je	.Lvictim_win1_var250
	cmpl	$251, %eax
	je	.Lvictim_win1_var251
	cmpl	$252, %eax
	je	.Lvictim_win1_var252
	cmpl	$253, %eax
	je	.Lvictim_win1_var253
	cmpl	$254, %eax
	je	.Lvictim_win1_var254
	cmpl	$255, %eax
	je	.Lvictim_win1_var255
	cmpl	$256, %eax
	je	.Lvictim_win1_var256
	cmpl	$257, %eax
	je	.Lvictim_win1_var257
	cmpl	$258, %eax
	je	.Lvictim_win1_var258
	cmpl	$259, %eax
	je	.Lvictim_win1_var259
	cmpl	$260, %eax
	je	.Lvictim_win1_var260
	cmpl	$261, %eax
	je	.Lvictim_win1_var261
	cmpl	$262, %eax
	je	.Lvictim_win1_var262
	cmpl	$263, %eax
	je	.Lvictim_win1_var263
	cmpl	$264, %eax
	je	.Lvictim_win1_var264
	cmpl	$265, %eax
	je	.Lvictim_win1_var265
	cmpl	$266, %eax
	je	.Lvictim_win1_var266
	cmpl	$267, %eax
	je	.Lvictim_win1_var267
	cmpl	$268, %eax
	je	.Lvictim_win1_var268
	cmpl	$269, %eax
	je	.Lvictim_win1_var269
	cmpl	$270, %eax
	je	.Lvictim_win1_var270
	cmpl	$271, %eax
	je	.Lvictim_win1_var271
	cmpl	$272, %eax
	je	.Lvictim_win1_var272
	cmpl	$273, %eax
	je	.Lvictim_win1_var273
	cmpl	$274, %eax
	je	.Lvictim_win1_var274
	cmpl	$275, %eax
	je	.Lvictim_win1_var275
	cmpl	$276, %eax
	je	.Lvictim_win1_var276
	cmpl	$277, %eax
	je	.Lvictim_win1_var277
	cmpl	$278, %eax
	je	.Lvictim_win1_var278
	cmpl	$279, %eax
	je	.Lvictim_win1_var279
	cmpl	$280, %eax
	je	.Lvictim_win1_var280
	cmpl	$281, %eax
	je	.Lvictim_win1_var281
	cmpl	$282, %eax
	je	.Lvictim_win1_var282
	cmpl	$283, %eax
	je	.Lvictim_win1_var283
	cmpl	$284, %eax
	je	.Lvictim_win1_var284
	cmpl	$285, %eax
	je	.Lvictim_win1_var285
	cmpl	$286, %eax
	je	.Lvictim_win1_var286
	cmpl	$287, %eax
	je	.Lvictim_win1_var287
	cmpl	$288, %eax
	je	.Lvictim_win1_var288
	cmpl	$289, %eax
	je	.Lvictim_win1_var289
	cmpl	$290, %eax
	je	.Lvictim_win1_var290
	cmpl	$291, %eax
	je	.Lvictim_win1_var291
	cmpl	$292, %eax
	je	.Lvictim_win1_var292
	cmpl	$293, %eax
	je	.Lvictim_win1_var293
	cmpl	$294, %eax
	je	.Lvictim_win1_var294
	cmpl	$295, %eax
	je	.Lvictim_win1_var295
	cmpl	$296, %eax
	je	.Lvictim_win1_var296
	cmpl	$297, %eax
	je	.Lvictim_win1_var297
	cmpl	$298, %eax
	je	.Lvictim_win1_var298
	cmpl	$299, %eax
	je	.Lvictim_win1_var299
	cmpl	$300, %eax
	je	.Lvictim_win1_var300
	cmpl	$301, %eax
	je	.Lvictim_win1_var301
	cmpl	$302, %eax
	je	.Lvictim_win1_var302
	cmpl	$303, %eax
	je	.Lvictim_win1_var303
	cmpl	$304, %eax
	je	.Lvictim_win1_var304
	cmpl	$305, %eax
	je	.Lvictim_win1_var305
	cmpl	$306, %eax
	je	.Lvictim_win1_var306
	cmpl	$307, %eax
	je	.Lvictim_win1_var307
	cmpl	$308, %eax
	je	.Lvictim_win1_var308
	cmpl	$309, %eax
	je	.Lvictim_win1_var309
	cmpl	$310, %eax
	je	.Lvictim_win1_var310
	cmpl	$311, %eax
	je	.Lvictim_win1_var311
	cmpl	$312, %eax
	je	.Lvictim_win1_var312
	cmpl	$313, %eax
	je	.Lvictim_win1_var313
	cmpl	$314, %eax
	je	.Lvictim_win1_var314
	cmpl	$315, %eax
	je	.Lvictim_win1_var315
	cmpl	$316, %eax
	je	.Lvictim_win1_var316
	cmpl	$317, %eax
	je	.Lvictim_win1_var317
	cmpl	$318, %eax
	je	.Lvictim_win1_var318
	cmpl	$319, %eax
	je	.Lvictim_win1_var319
	cmpl	$320, %eax
	je	.Lvictim_win1_var320
	cmpl	$321, %eax
	je	.Lvictim_win1_var321
	cmpl	$322, %eax
	je	.Lvictim_win1_var322
	cmpl	$323, %eax
	je	.Lvictim_win1_var323
	cmpl	$324, %eax
	je	.Lvictim_win1_var324
	cmpl	$325, %eax
	je	.Lvictim_win1_var325
	cmpl	$326, %eax
	je	.Lvictim_win1_var326
	cmpl	$327, %eax
	je	.Lvictim_win1_var327
	cmpl	$328, %eax
	je	.Lvictim_win1_var328
	cmpl	$329, %eax
	je	.Lvictim_win1_var329
	cmpl	$330, %eax
	je	.Lvictim_win1_var330
	cmpl	$331, %eax
	je	.Lvictim_win1_var331
	cmpl	$332, %eax
	je	.Lvictim_win1_var332
	cmpl	$333, %eax
	je	.Lvictim_win1_var333
	cmpl	$334, %eax
	je	.Lvictim_win1_var334
	cmpl	$335, %eax
	je	.Lvictim_win1_var335
	cmpl	$336, %eax
	je	.Lvictim_win1_var336
	cmpl	$337, %eax
	je	.Lvictim_win1_var337
	cmpl	$338, %eax
	je	.Lvictim_win1_var338
	cmpl	$339, %eax
	je	.Lvictim_win1_var339
	cmpl	$340, %eax
	je	.Lvictim_win1_var340
	cmpl	$341, %eax
	je	.Lvictim_win1_var341
	cmpl	$342, %eax
	je	.Lvictim_win1_var342
	cmpl	$343, %eax
	je	.Lvictim_win1_var343
	cmpl	$344, %eax
	je	.Lvictim_win1_var344
	cmpl	$345, %eax
	je	.Lvictim_win1_var345
	cmpl	$346, %eax
	je	.Lvictim_win1_var346
	cmpl	$347, %eax
	je	.Lvictim_win1_var347
	cmpl	$348, %eax
	je	.Lvictim_win1_var348
	cmpl	$349, %eax
	je	.Lvictim_win1_var349
	cmpl	$350, %eax
	je	.Lvictim_win1_var350
	cmpl	$351, %eax
	je	.Lvictim_win1_var351
	cmpl	$352, %eax
	je	.Lvictim_win1_var352
	cmpl	$353, %eax
	je	.Lvictim_win1_var353
	cmpl	$354, %eax
	je	.Lvictim_win1_var354
	cmpl	$355, %eax
	je	.Lvictim_win1_var355
	cmpl	$356, %eax
	je	.Lvictim_win1_var356
	cmpl	$357, %eax
	je	.Lvictim_win1_var357
	cmpl	$358, %eax
	je	.Lvictim_win1_var358
	cmpl	$359, %eax
	je	.Lvictim_win1_var359
	cmpl	$360, %eax
	je	.Lvictim_win1_var360
	cmpl	$361, %eax
	je	.Lvictim_win1_var361
	cmpl	$362, %eax
	je	.Lvictim_win1_var362
	cmpl	$363, %eax
	je	.Lvictim_win1_var363
	cmpl	$364, %eax
	je	.Lvictim_win1_var364
	cmpl	$365, %eax
	je	.Lvictim_win1_var365
	cmpl	$366, %eax
	je	.Lvictim_win1_var366
	cmpl	$367, %eax
	je	.Lvictim_win1_var367
	cmpl	$368, %eax
	je	.Lvictim_win1_var368
	cmpl	$369, %eax
	je	.Lvictim_win1_var369
	cmpl	$370, %eax
	je	.Lvictim_win1_var370
	cmpl	$371, %eax
	je	.Lvictim_win1_var371
	cmpl	$372, %eax
	je	.Lvictim_win1_var372
	cmpl	$373, %eax
	je	.Lvictim_win1_var373
	cmpl	$374, %eax
	je	.Lvictim_win1_var374
	cmpl	$375, %eax
	je	.Lvictim_win1_var375
	cmpl	$376, %eax
	je	.Lvictim_win1_var376
	cmpl	$377, %eax
	je	.Lvictim_win1_var377
	cmpl	$378, %eax
	je	.Lvictim_win1_var378
	cmpl	$379, %eax
	je	.Lvictim_win1_var379
	cmpl	$380, %eax
	je	.Lvictim_win1_var380
	cmpl	$381, %eax
	je	.Lvictim_win1_var381
	cmpl	$382, %eax
	je	.Lvictim_win1_var382
	cmpl	$383, %eax
	je	.Lvictim_win1_var383
	cmpl	$384, %eax
	je	.Lvictim_win1_var384
	cmpl	$385, %eax
	je	.Lvictim_win1_var385
	cmpl	$386, %eax
	je	.Lvictim_win1_var386
	cmpl	$387, %eax
	je	.Lvictim_win1_var387
	cmpl	$388, %eax
	je	.Lvictim_win1_var388
	cmpl	$389, %eax
	je	.Lvictim_win1_var389
	cmpl	$390, %eax
	je	.Lvictim_win1_var390
	cmpl	$391, %eax
	je	.Lvictim_win1_var391
	cmpl	$392, %eax
	je	.Lvictim_win1_var392
	cmpl	$393, %eax
	je	.Lvictim_win1_var393
	cmpl	$394, %eax
	je	.Lvictim_win1_var394
	cmpl	$395, %eax
	je	.Lvictim_win1_var395
	cmpl	$396, %eax
	je	.Lvictim_win1_var396
	cmpl	$397, %eax
	je	.Lvictim_win1_var397
	cmpl	$398, %eax
	je	.Lvictim_win1_var398
	cmpl	$399, %eax
	je	.Lvictim_win1_var399
	cmpl	$400, %eax
	je	.Lvictim_win1_var400
	cmpl	$401, %eax
	je	.Lvictim_win1_var401
	cmpl	$402, %eax
	je	.Lvictim_win1_var402
	cmpl	$403, %eax
	je	.Lvictim_win1_var403
	cmpl	$404, %eax
	je	.Lvictim_win1_var404
	cmpl	$405, %eax
	je	.Lvictim_win1_var405
	cmpl	$406, %eax
	je	.Lvictim_win1_var406
	cmpl	$407, %eax
	je	.Lvictim_win1_var407
	cmpl	$408, %eax
	je	.Lvictim_win1_var408
	cmpl	$409, %eax
	je	.Lvictim_win1_var409
	cmpl	$410, %eax
	je	.Lvictim_win1_var410
	cmpl	$411, %eax
	je	.Lvictim_win1_var411
	cmpl	$412, %eax
	je	.Lvictim_win1_var412
	cmpl	$413, %eax
	je	.Lvictim_win1_var413
	cmpl	$414, %eax
	je	.Lvictim_win1_var414
	cmpl	$415, %eax
	je	.Lvictim_win1_var415
	cmpl	$416, %eax
	je	.Lvictim_win1_var416
	cmpl	$417, %eax
	je	.Lvictim_win1_var417
	cmpl	$418, %eax
	je	.Lvictim_win1_var418
	cmpl	$419, %eax
	je	.Lvictim_win1_var419
	cmpl	$420, %eax
	je	.Lvictim_win1_var420
	cmpl	$421, %eax
	je	.Lvictim_win1_var421
	cmpl	$422, %eax
	je	.Lvictim_win1_var422
	cmpl	$423, %eax
	je	.Lvictim_win1_var423
	cmpl	$424, %eax
	je	.Lvictim_win1_var424
	cmpl	$425, %eax
	je	.Lvictim_win1_var425
	cmpl	$426, %eax
	je	.Lvictim_win1_var426
	cmpl	$427, %eax
	je	.Lvictim_win1_var427
	cmpl	$428, %eax
	je	.Lvictim_win1_var428
	cmpl	$429, %eax
	je	.Lvictim_win1_var429
	cmpl	$430, %eax
	je	.Lvictim_win1_var430
	cmpl	$431, %eax
	je	.Lvictim_win1_var431
	cmpl	$432, %eax
	je	.Lvictim_win1_var432
	cmpl	$433, %eax
	je	.Lvictim_win1_var433
	cmpl	$434, %eax
	je	.Lvictim_win1_var434
	cmpl	$435, %eax
	je	.Lvictim_win1_var435
	cmpl	$436, %eax
	je	.Lvictim_win1_var436
	cmpl	$437, %eax
	je	.Lvictim_win1_var437
	cmpl	$438, %eax
	je	.Lvictim_win1_var438
	cmpl	$439, %eax
	je	.Lvictim_win1_var439
	cmpl	$440, %eax
	je	.Lvictim_win1_var440
	cmpl	$441, %eax
	je	.Lvictim_win1_var441
	cmpl	$442, %eax
	je	.Lvictim_win1_var442
	cmpl	$443, %eax
	je	.Lvictim_win1_var443
	cmpl	$444, %eax
	je	.Lvictim_win1_var444
	cmpl	$445, %eax
	je	.Lvictim_win1_var445
	cmpl	$446, %eax
	je	.Lvictim_win1_var446
	cmpl	$447, %eax
	je	.Lvictim_win1_var447
	cmpl	$448, %eax
	je	.Lvictim_win1_var448
	cmpl	$449, %eax
	je	.Lvictim_win1_var449
	cmpl	$450, %eax
	je	.Lvictim_win1_var450
	cmpl	$451, %eax
	je	.Lvictim_win1_var451
	cmpl	$452, %eax
	je	.Lvictim_win1_var452
	cmpl	$453, %eax
	je	.Lvictim_win1_var453
	cmpl	$454, %eax
	je	.Lvictim_win1_var454
	cmpl	$455, %eax
	je	.Lvictim_win1_var455
	cmpl	$456, %eax
	je	.Lvictim_win1_var456
	cmpl	$457, %eax
	je	.Lvictim_win1_var457
	cmpl	$458, %eax
	je	.Lvictim_win1_var458
	cmpl	$459, %eax
	je	.Lvictim_win1_var459
	cmpl	$460, %eax
	je	.Lvictim_win1_var460
	cmpl	$461, %eax
	je	.Lvictim_win1_var461
	cmpl	$462, %eax
	je	.Lvictim_win1_var462
	cmpl	$463, %eax
	je	.Lvictim_win1_var463
	cmpl	$464, %eax
	je	.Lvictim_win1_var464
	cmpl	$465, %eax
	je	.Lvictim_win1_var465
	cmpl	$466, %eax
	je	.Lvictim_win1_var466
	cmpl	$467, %eax
	je	.Lvictim_win1_var467
	cmpl	$468, %eax
	je	.Lvictim_win1_var468
	cmpl	$469, %eax
	je	.Lvictim_win1_var469
	cmpl	$470, %eax
	je	.Lvictim_win1_var470
	cmpl	$471, %eax
	je	.Lvictim_win1_var471
	cmpl	$472, %eax
	je	.Lvictim_win1_var472
	cmpl	$473, %eax
	je	.Lvictim_win1_var473
	cmpl	$474, %eax
	je	.Lvictim_win1_var474
	cmpl	$475, %eax
	je	.Lvictim_win1_var475
	cmpl	$476, %eax
	je	.Lvictim_win1_var476
	cmpl	$477, %eax
	je	.Lvictim_win1_var477
	cmpl	$478, %eax
	je	.Lvictim_win1_var478
	cmpl	$479, %eax
	je	.Lvictim_win1_var479
	cmpl	$480, %eax
	je	.Lvictim_win1_var480
	cmpl	$481, %eax
	je	.Lvictim_win1_var481
	cmpl	$482, %eax
	je	.Lvictim_win1_var482
	cmpl	$483, %eax
	je	.Lvictim_win1_var483
	cmpl	$484, %eax
	je	.Lvictim_win1_var484
	cmpl	$485, %eax
	je	.Lvictim_win1_var485
	cmpl	$486, %eax
	je	.Lvictim_win1_var486
	cmpl	$487, %eax
	je	.Lvictim_win1_var487
	cmpl	$488, %eax
	je	.Lvictim_win1_var488
	cmpl	$489, %eax
	je	.Lvictim_win1_var489
	cmpl	$490, %eax
	je	.Lvictim_win1_var490
	cmpl	$491, %eax
	je	.Lvictim_win1_var491
	cmpl	$492, %eax
	je	.Lvictim_win1_var492
	cmpl	$493, %eax
	je	.Lvictim_win1_var493
	cmpl	$494, %eax
	je	.Lvictim_win1_var494
	cmpl	$495, %eax
	je	.Lvictim_win1_var495
	cmpl	$496, %eax
	je	.Lvictim_win1_var496
	cmpl	$497, %eax
	je	.Lvictim_win1_var497
	cmpl	$498, %eax
	je	.Lvictim_win1_var498
	cmpl	$499, %eax
	je	.Lvictim_win1_var499
	cmpl	$500, %eax
	je	.Lvictim_win1_var500
	cmpl	$501, %eax
	je	.Lvictim_win1_var501
	cmpl	$502, %eax
	je	.Lvictim_win1_var502
	cmpl	$503, %eax
	je	.Lvictim_win1_var503
	cmpl	$504, %eax
	je	.Lvictim_win1_var504
	cmpl	$505, %eax
	je	.Lvictim_win1_var505
	cmpl	$506, %eax
	je	.Lvictim_win1_var506
	cmpl	$507, %eax
	je	.Lvictim_win1_var507
	cmpl	$508, %eax
	je	.Lvictim_win1_var508
	cmpl	$509, %eax
	je	.Lvictim_win1_var509
	cmpl	$510, %eax
	je	.Lvictim_win1_var510
	cmpl	$511, %eax
	je	.Lvictim_win1_var511
	cmpl	$512, %eax
	je	.Lvictim_win1_var512
	cmpl	$513, %eax
	je	.Lvictim_win1_var513
	cmpl	$514, %eax
	je	.Lvictim_win1_var514
	cmpl	$515, %eax
	je	.Lvictim_win1_var515
	cmpl	$516, %eax
	je	.Lvictim_win1_var516
	cmpl	$517, %eax
	je	.Lvictim_win1_var517
	cmpl	$518, %eax
	je	.Lvictim_win1_var518
	cmpl	$519, %eax
	je	.Lvictim_win1_var519
	cmpl	$520, %eax
	je	.Lvictim_win1_var520
	cmpl	$521, %eax
	je	.Lvictim_win1_var521
	cmpl	$522, %eax
	je	.Lvictim_win1_var522
	cmpl	$523, %eax
	je	.Lvictim_win1_var523
	cmpl	$524, %eax
	je	.Lvictim_win1_var524
	cmpl	$525, %eax
	je	.Lvictim_win1_var525
	cmpl	$526, %eax
	je	.Lvictim_win1_var526
	cmpl	$527, %eax
	je	.Lvictim_win1_var527
	cmpl	$528, %eax
	je	.Lvictim_win1_var528
	cmpl	$529, %eax
	je	.Lvictim_win1_var529
	cmpl	$530, %eax
	je	.Lvictim_win1_var530
	cmpl	$531, %eax
	je	.Lvictim_win1_var531
	cmpl	$532, %eax
	je	.Lvictim_win1_var532
	cmpl	$533, %eax
	je	.Lvictim_win1_var533
	cmpl	$534, %eax
	je	.Lvictim_win1_var534
	cmpl	$535, %eax
	je	.Lvictim_win1_var535
	cmpl	$536, %eax
	je	.Lvictim_win1_var536
	cmpl	$537, %eax
	je	.Lvictim_win1_var537
	cmpl	$538, %eax
	je	.Lvictim_win1_var538
	cmpl	$539, %eax
	je	.Lvictim_win1_var539
	cmpl	$540, %eax
	je	.Lvictim_win1_var540
	cmpl	$541, %eax
	je	.Lvictim_win1_var541
	cmpl	$542, %eax
	je	.Lvictim_win1_var542
	cmpl	$543, %eax
	je	.Lvictim_win1_var543
	cmpl	$544, %eax
	je	.Lvictim_win1_var544
	cmpl	$545, %eax
	je	.Lvictim_win1_var545
	cmpl	$546, %eax
	je	.Lvictim_win1_var546
	cmpl	$547, %eax
	je	.Lvictim_win1_var547
	cmpl	$548, %eax
	je	.Lvictim_win1_var548
	cmpl	$549, %eax
	je	.Lvictim_win1_var549
	cmpl	$550, %eax
	je	.Lvictim_win1_var550
	cmpl	$551, %eax
	je	.Lvictim_win1_var551
	cmpl	$552, %eax
	je	.Lvictim_win1_var552
	cmpl	$553, %eax
	je	.Lvictim_win1_var553
	cmpl	$554, %eax
	je	.Lvictim_win1_var554
	cmpl	$555, %eax
	je	.Lvictim_win1_var555
	cmpl	$556, %eax
	je	.Lvictim_win1_var556
	cmpl	$557, %eax
	je	.Lvictim_win1_var557
	cmpl	$558, %eax
	je	.Lvictim_win1_var558
	cmpl	$559, %eax
	je	.Lvictim_win1_var559
	cmpl	$560, %eax
	je	.Lvictim_win1_var560
	cmpl	$561, %eax
	je	.Lvictim_win1_var561
	cmpl	$562, %eax
	je	.Lvictim_win1_var562
	cmpl	$563, %eax
	je	.Lvictim_win1_var563
	cmpl	$564, %eax
	je	.Lvictim_win1_var564
	cmpl	$565, %eax
	je	.Lvictim_win1_var565
	cmpl	$566, %eax
	je	.Lvictim_win1_var566
	cmpl	$567, %eax
	je	.Lvictim_win1_var567
	cmpl	$568, %eax
	je	.Lvictim_win1_var568
	cmpl	$569, %eax
	je	.Lvictim_win1_var569
	cmpl	$570, %eax
	je	.Lvictim_win1_var570
	cmpl	$571, %eax
	je	.Lvictim_win1_var571
	cmpl	$572, %eax
	je	.Lvictim_win1_var572
	cmpl	$573, %eax
	je	.Lvictim_win1_var573
	cmpl	$574, %eax
	je	.Lvictim_win1_var574
	cmpl	$575, %eax
	je	.Lvictim_win1_var575
	cmpl	$576, %eax
	je	.Lvictim_win1_var576
	cmpl	$577, %eax
	je	.Lvictim_win1_var577
	cmpl	$578, %eax
	je	.Lvictim_win1_var578
	cmpl	$579, %eax
	je	.Lvictim_win1_var579
	cmpl	$580, %eax
	je	.Lvictim_win1_var580
	cmpl	$581, %eax
	je	.Lvictim_win1_var581
	cmpl	$582, %eax
	je	.Lvictim_win1_var582
	cmpl	$583, %eax
	je	.Lvictim_win1_var583
	cmpl	$584, %eax
	je	.Lvictim_win1_var584
	cmpl	$585, %eax
	je	.Lvictim_win1_var585
	cmpl	$586, %eax
	je	.Lvictim_win1_var586
	cmpl	$587, %eax
	je	.Lvictim_win1_var587
	cmpl	$588, %eax
	je	.Lvictim_win1_var588
	cmpl	$589, %eax
	je	.Lvictim_win1_var589
	cmpl	$590, %eax
	je	.Lvictim_win1_var590
	cmpl	$591, %eax
	je	.Lvictim_win1_var591
	cmpl	$592, %eax
	je	.Lvictim_win1_var592
	cmpl	$593, %eax
	je	.Lvictim_win1_var593
	cmpl	$594, %eax
	je	.Lvictim_win1_var594
	cmpl	$595, %eax
	je	.Lvictim_win1_var595
	cmpl	$596, %eax
	je	.Lvictim_win1_var596
	cmpl	$597, %eax
	je	.Lvictim_win1_var597
	cmpl	$598, %eax
	je	.Lvictim_win1_var598
	cmpl	$599, %eax
	je	.Lvictim_win1_var599
	cmpl	$600, %eax
	je	.Lvictim_win1_var600
	cmpl	$601, %eax
	je	.Lvictim_win1_var601
	cmpl	$602, %eax
	je	.Lvictim_win1_var602
	cmpl	$603, %eax
	je	.Lvictim_win1_var603
	cmpl	$604, %eax
	je	.Lvictim_win1_var604
	cmpl	$605, %eax
	je	.Lvictim_win1_var605
	cmpl	$606, %eax
	je	.Lvictim_win1_var606
	cmpl	$607, %eax
	je	.Lvictim_win1_var607
	cmpl	$608, %eax
	je	.Lvictim_win1_var608
	cmpl	$609, %eax
	je	.Lvictim_win1_var609
	cmpl	$610, %eax
	je	.Lvictim_win1_var610
	cmpl	$611, %eax
	je	.Lvictim_win1_var611
	cmpl	$612, %eax
	je	.Lvictim_win1_var612
	cmpl	$613, %eax
	je	.Lvictim_win1_var613
	cmpl	$614, %eax
	je	.Lvictim_win1_var614
	cmpl	$615, %eax
	je	.Lvictim_win1_var615
	cmpl	$616, %eax
	je	.Lvictim_win1_var616
	cmpl	$617, %eax
	je	.Lvictim_win1_var617
	cmpl	$618, %eax
	je	.Lvictim_win1_var618
	cmpl	$619, %eax
	je	.Lvictim_win1_var619
	cmpl	$620, %eax
	je	.Lvictim_win1_var620
	cmpl	$621, %eax
	je	.Lvictim_win1_var621
	cmpl	$622, %eax
	je	.Lvictim_win1_var622
	cmpl	$623, %eax
	je	.Lvictim_win1_var623
	cmpl	$624, %eax
	je	.Lvictim_win1_var624
	cmpl	$625, %eax
	je	.Lvictim_win1_var625
	cmpl	$626, %eax
	je	.Lvictim_win1_var626
	cmpl	$627, %eax
	je	.Lvictim_win1_var627
	cmpl	$628, %eax
	je	.Lvictim_win1_var628
	cmpl	$629, %eax
	je	.Lvictim_win1_var629
	cmpl	$630, %eax
	je	.Lvictim_win1_var630
	cmpl	$631, %eax
	je	.Lvictim_win1_var631
	cmpl	$632, %eax
	je	.Lvictim_win1_var632
	cmpl	$633, %eax
	je	.Lvictim_win1_var633
	cmpl	$634, %eax
	je	.Lvictim_win1_var634
	cmpl	$635, %eax
	je	.Lvictim_win1_var635
	cmpl	$636, %eax
	je	.Lvictim_win1_var636
	cmpl	$637, %eax
	je	.Lvictim_win1_var637
	cmpl	$638, %eax
	je	.Lvictim_win1_var638
	cmpl	$639, %eax
	je	.Lvictim_win1_var639
	cmpl	$640, %eax
	je	.Lvictim_win1_var640
	cmpl	$641, %eax
	je	.Lvictim_win1_var641
	cmpl	$642, %eax
	je	.Lvictim_win1_var642
	cmpl	$643, %eax
	je	.Lvictim_win1_var643
	cmpl	$644, %eax
	je	.Lvictim_win1_var644
	cmpl	$645, %eax
	je	.Lvictim_win1_var645
	cmpl	$646, %eax
	je	.Lvictim_win1_var646
	cmpl	$647, %eax
	je	.Lvictim_win1_var647
	cmpl	$648, %eax
	je	.Lvictim_win1_var648
	cmpl	$649, %eax
	je	.Lvictim_win1_var649
	cmpl	$650, %eax
	je	.Lvictim_win1_var650
	cmpl	$651, %eax
	je	.Lvictim_win1_var651
	cmpl	$652, %eax
	je	.Lvictim_win1_var652
	cmpl	$653, %eax
	je	.Lvictim_win1_var653
	cmpl	$654, %eax
	je	.Lvictim_win1_var654
	cmpl	$655, %eax
	je	.Lvictim_win1_var655
	cmpl	$656, %eax
	je	.Lvictim_win1_var656
	cmpl	$657, %eax
	je	.Lvictim_win1_var657
	cmpl	$658, %eax
	je	.Lvictim_win1_var658
	cmpl	$659, %eax
	je	.Lvictim_win1_var659
	cmpl	$660, %eax
	je	.Lvictim_win1_var660
	cmpl	$661, %eax
	je	.Lvictim_win1_var661
	cmpl	$662, %eax
	je	.Lvictim_win1_var662
	cmpl	$663, %eax
	je	.Lvictim_win1_var663
	cmpl	$664, %eax
	je	.Lvictim_win1_var664
	cmpl	$665, %eax
	je	.Lvictim_win1_var665
	cmpl	$666, %eax
	je	.Lvictim_win1_var666
	cmpl	$667, %eax
	je	.Lvictim_win1_var667
	cmpl	$668, %eax
	je	.Lvictim_win1_var668
	cmpl	$669, %eax
	je	.Lvictim_win1_var669
	cmpl	$670, %eax
	je	.Lvictim_win1_var670
	cmpl	$671, %eax
	je	.Lvictim_win1_var671
	cmpl	$672, %eax
	je	.Lvictim_win1_var672
	cmpl	$673, %eax
	je	.Lvictim_win1_var673
	cmpl	$674, %eax
	je	.Lvictim_win1_var674
	cmpl	$675, %eax
	je	.Lvictim_win1_var675
	cmpl	$676, %eax
	je	.Lvictim_win1_var676
	cmpl	$677, %eax
	je	.Lvictim_win1_var677
	cmpl	$678, %eax
	je	.Lvictim_win1_var678
	cmpl	$679, %eax
	je	.Lvictim_win1_var679
	cmpl	$680, %eax
	je	.Lvictim_win1_var680
	cmpl	$681, %eax
	je	.Lvictim_win1_var681
	cmpl	$682, %eax
	je	.Lvictim_win1_var682
	cmpl	$683, %eax
	je	.Lvictim_win1_var683
	cmpl	$684, %eax
	je	.Lvictim_win1_var684
	cmpl	$685, %eax
	je	.Lvictim_win1_var685
	cmpl	$686, %eax
	je	.Lvictim_win1_var686
	cmpl	$687, %eax
	je	.Lvictim_win1_var687
	cmpl	$688, %eax
	je	.Lvictim_win1_var688
	cmpl	$689, %eax
	je	.Lvictim_win1_var689
	cmpl	$690, %eax
	je	.Lvictim_win1_var690
	cmpl	$691, %eax
	je	.Lvictim_win1_var691
	cmpl	$692, %eax
	je	.Lvictim_win1_var692
	cmpl	$693, %eax
	je	.Lvictim_win1_var693
	cmpl	$694, %eax
	je	.Lvictim_win1_var694
	cmpl	$695, %eax
	je	.Lvictim_win1_var695
	cmpl	$696, %eax
	je	.Lvictim_win1_var696
	cmpl	$697, %eax
	je	.Lvictim_win1_var697
	cmpl	$698, %eax
	je	.Lvictim_win1_var698
	cmpl	$699, %eax
	je	.Lvictim_win1_var699
	cmpl	$700, %eax
	je	.Lvictim_win1_var700
	cmpl	$701, %eax
	je	.Lvictim_win1_var701
	cmpl	$702, %eax
	je	.Lvictim_win1_var702
	cmpl	$703, %eax
	je	.Lvictim_win1_var703
	cmpl	$704, %eax
	je	.Lvictim_win1_var704
	cmpl	$705, %eax
	je	.Lvictim_win1_var705
	cmpl	$706, %eax
	je	.Lvictim_win1_var706
	cmpl	$707, %eax
	je	.Lvictim_win1_var707
	cmpl	$708, %eax
	je	.Lvictim_win1_var708
	cmpl	$709, %eax
	je	.Lvictim_win1_var709
	cmpl	$710, %eax
	je	.Lvictim_win1_var710
	cmpl	$711, %eax
	je	.Lvictim_win1_var711
	cmpl	$712, %eax
	je	.Lvictim_win1_var712
	cmpl	$713, %eax
	je	.Lvictim_win1_var713
	cmpl	$714, %eax
	je	.Lvictim_win1_var714
	cmpl	$715, %eax
	je	.Lvictim_win1_var715
	cmpl	$716, %eax
	je	.Lvictim_win1_var716
	cmpl	$717, %eax
	je	.Lvictim_win1_var717
	cmpl	$718, %eax
	je	.Lvictim_win1_var718
	cmpl	$719, %eax
	je	.Lvictim_win1_var719
	cmpl	$720, %eax
	je	.Lvictim_win1_var720
	cmpl	$721, %eax
	je	.Lvictim_win1_var721
	cmpl	$722, %eax
	je	.Lvictim_win1_var722
	cmpl	$723, %eax
	je	.Lvictim_win1_var723
	cmpl	$724, %eax
	je	.Lvictim_win1_var724
	cmpl	$725, %eax
	je	.Lvictim_win1_var725
	cmpl	$726, %eax
	je	.Lvictim_win1_var726
	cmpl	$727, %eax
	je	.Lvictim_win1_var727
	cmpl	$728, %eax
	je	.Lvictim_win1_var728
	cmpl	$729, %eax
	je	.Lvictim_win1_var729
	cmpl	$730, %eax
	je	.Lvictim_win1_var730
	cmpl	$731, %eax
	je	.Lvictim_win1_var731
	cmpl	$732, %eax
	je	.Lvictim_win1_var732
	cmpl	$733, %eax
	je	.Lvictim_win1_var733
	cmpl	$734, %eax
	je	.Lvictim_win1_var734
	cmpl	$735, %eax
	je	.Lvictim_win1_var735
	cmpl	$736, %eax
	je	.Lvictim_win1_var736
	cmpl	$737, %eax
	je	.Lvictim_win1_var737
	cmpl	$738, %eax
	je	.Lvictim_win1_var738
	cmpl	$739, %eax
	je	.Lvictim_win1_var739
	cmpl	$740, %eax
	je	.Lvictim_win1_var740
	cmpl	$741, %eax
	je	.Lvictim_win1_var741
	cmpl	$742, %eax
	je	.Lvictim_win1_var742
	cmpl	$743, %eax
	je	.Lvictim_win1_var743
	cmpl	$744, %eax
	je	.Lvictim_win1_var744
	cmpl	$745, %eax
	je	.Lvictim_win1_var745
	cmpl	$746, %eax
	je	.Lvictim_win1_var746
	cmpl	$747, %eax
	je	.Lvictim_win1_var747
	cmpl	$748, %eax
	je	.Lvictim_win1_var748
	cmpl	$749, %eax
	je	.Lvictim_win1_var749
	cmpl	$750, %eax
	je	.Lvictim_win1_var750
	cmpl	$751, %eax
	je	.Lvictim_win1_var751
	cmpl	$752, %eax
	je	.Lvictim_win1_var752
	cmpl	$753, %eax
	je	.Lvictim_win1_var753
	cmpl	$754, %eax
	je	.Lvictim_win1_var754
	cmpl	$755, %eax
	je	.Lvictim_win1_var755
	cmpl	$756, %eax
	je	.Lvictim_win1_var756
	cmpl	$757, %eax
	je	.Lvictim_win1_var757
	cmpl	$758, %eax
	je	.Lvictim_win1_var758
	cmpl	$759, %eax
	je	.Lvictim_win1_var759
	cmpl	$760, %eax
	je	.Lvictim_win1_var760
	cmpl	$761, %eax
	je	.Lvictim_win1_var761
	cmpl	$762, %eax
	je	.Lvictim_win1_var762
	cmpl	$763, %eax
	je	.Lvictim_win1_var763
	cmpl	$764, %eax
	je	.Lvictim_win1_var764
	cmpl	$765, %eax
	je	.Lvictim_win1_var765
	cmpl	$766, %eax
	je	.Lvictim_win1_var766
	cmpl	$767, %eax
	je	.Lvictim_win1_var767
	cmpl	$768, %eax
	je	.Lvictim_win1_var768
	cmpl	$769, %eax
	je	.Lvictim_win1_var769
	cmpl	$770, %eax
	je	.Lvictim_win1_var770
	cmpl	$771, %eax
	je	.Lvictim_win1_var771
	cmpl	$772, %eax
	je	.Lvictim_win1_var772
	cmpl	$773, %eax
	je	.Lvictim_win1_var773
	cmpl	$774, %eax
	je	.Lvictim_win1_var774
	cmpl	$775, %eax
	je	.Lvictim_win1_var775
	cmpl	$776, %eax
	je	.Lvictim_win1_var776
	cmpl	$777, %eax
	je	.Lvictim_win1_var777
	cmpl	$778, %eax
	je	.Lvictim_win1_var778
	cmpl	$779, %eax
	je	.Lvictim_win1_var779
	cmpl	$780, %eax
	je	.Lvictim_win1_var780
	cmpl	$781, %eax
	je	.Lvictim_win1_var781
	cmpl	$782, %eax
	je	.Lvictim_win1_var782
	cmpl	$783, %eax
	je	.Lvictim_win1_var783
	cmpl	$784, %eax
	je	.Lvictim_win1_var784
	cmpl	$785, %eax
	je	.Lvictim_win1_var785
	cmpl	$786, %eax
	je	.Lvictim_win1_var786
	cmpl	$787, %eax
	je	.Lvictim_win1_var787
	cmpl	$788, %eax
	je	.Lvictim_win1_var788
	cmpl	$789, %eax
	je	.Lvictim_win1_var789
	cmpl	$790, %eax
	je	.Lvictim_win1_var790
	cmpl	$791, %eax
	je	.Lvictim_win1_var791
	cmpl	$792, %eax
	je	.Lvictim_win1_var792
	cmpl	$793, %eax
	je	.Lvictim_win1_var793
	cmpl	$794, %eax
	je	.Lvictim_win1_var794
	cmpl	$795, %eax
	je	.Lvictim_win1_var795
	cmpl	$796, %eax
	je	.Lvictim_win1_var796
	cmpl	$797, %eax
	je	.Lvictim_win1_var797
	cmpl	$798, %eax
	je	.Lvictim_win1_var798
	cmpl	$799, %eax
	je	.Lvictim_win1_var799
	cmpl	$800, %eax
	je	.Lvictim_win1_var800
	cmpl	$801, %eax
	je	.Lvictim_win1_var801
	cmpl	$802, %eax
	je	.Lvictim_win1_var802
	cmpl	$803, %eax
	je	.Lvictim_win1_var803
	cmpl	$804, %eax
	je	.Lvictim_win1_var804
	cmpl	$805, %eax
	je	.Lvictim_win1_var805
	cmpl	$806, %eax
	je	.Lvictim_win1_var806
	cmpl	$807, %eax
	je	.Lvictim_win1_var807
	cmpl	$808, %eax
	je	.Lvictim_win1_var808
	cmpl	$809, %eax
	je	.Lvictim_win1_var809
	cmpl	$810, %eax
	je	.Lvictim_win1_var810
	cmpl	$811, %eax
	je	.Lvictim_win1_var811
	cmpl	$812, %eax
	je	.Lvictim_win1_var812
	cmpl	$813, %eax
	je	.Lvictim_win1_var813
	cmpl	$814, %eax
	je	.Lvictim_win1_var814
	cmpl	$815, %eax
	je	.Lvictim_win1_var815
	cmpl	$816, %eax
	je	.Lvictim_win1_var816
	cmpl	$817, %eax
	je	.Lvictim_win1_var817
	cmpl	$818, %eax
	je	.Lvictim_win1_var818
	cmpl	$819, %eax
	je	.Lvictim_win1_var819
	cmpl	$820, %eax
	je	.Lvictim_win1_var820
	cmpl	$821, %eax
	je	.Lvictim_win1_var821
	cmpl	$822, %eax
	je	.Lvictim_win1_var822
	cmpl	$823, %eax
	je	.Lvictim_win1_var823
	cmpl	$824, %eax
	je	.Lvictim_win1_var824
	cmpl	$825, %eax
	je	.Lvictim_win1_var825
	cmpl	$826, %eax
	je	.Lvictim_win1_var826
	cmpl	$827, %eax
	je	.Lvictim_win1_var827
	cmpl	$828, %eax
	je	.Lvictim_win1_var828
	cmpl	$829, %eax
	je	.Lvictim_win1_var829
	cmpl	$830, %eax
	je	.Lvictim_win1_var830
	cmpl	$831, %eax
	je	.Lvictim_win1_var831
	cmpl	$832, %eax
	je	.Lvictim_win1_var832
	cmpl	$833, %eax
	je	.Lvictim_win1_var833
	cmpl	$834, %eax
	je	.Lvictim_win1_var834
	cmpl	$835, %eax
	je	.Lvictim_win1_var835
	cmpl	$836, %eax
	je	.Lvictim_win1_var836
	cmpl	$837, %eax
	je	.Lvictim_win1_var837
	cmpl	$838, %eax
	je	.Lvictim_win1_var838
	cmpl	$839, %eax
	je	.Lvictim_win1_var839
	cmpl	$840, %eax
	je	.Lvictim_win1_var840
	cmpl	$841, %eax
	je	.Lvictim_win1_var841
	cmpl	$842, %eax
	je	.Lvictim_win1_var842
	cmpl	$843, %eax
	je	.Lvictim_win1_var843
	cmpl	$844, %eax
	je	.Lvictim_win1_var844
	cmpl	$845, %eax
	je	.Lvictim_win1_var845
	cmpl	$846, %eax
	je	.Lvictim_win1_var846
	cmpl	$847, %eax
	je	.Lvictim_win1_var847
	cmpl	$848, %eax
	je	.Lvictim_win1_var848
	cmpl	$849, %eax
	je	.Lvictim_win1_var849
	cmpl	$850, %eax
	je	.Lvictim_win1_var850
	cmpl	$851, %eax
	je	.Lvictim_win1_var851
	cmpl	$852, %eax
	je	.Lvictim_win1_var852
	cmpl	$853, %eax
	je	.Lvictim_win1_var853
	cmpl	$854, %eax
	je	.Lvictim_win1_var854
	cmpl	$855, %eax
	je	.Lvictim_win1_var855
	cmpl	$856, %eax
	je	.Lvictim_win1_var856
	cmpl	$857, %eax
	je	.Lvictim_win1_var857
	cmpl	$858, %eax
	je	.Lvictim_win1_var858
	cmpl	$859, %eax
	je	.Lvictim_win1_var859
	cmpl	$860, %eax
	je	.Lvictim_win1_var860
	cmpl	$861, %eax
	je	.Lvictim_win1_var861
	cmpl	$862, %eax
	je	.Lvictim_win1_var862
	cmpl	$863, %eax
	je	.Lvictim_win1_var863
	cmpl	$864, %eax
	je	.Lvictim_win1_var864
	cmpl	$865, %eax
	je	.Lvictim_win1_var865
	cmpl	$866, %eax
	je	.Lvictim_win1_var866
	cmpl	$867, %eax
	je	.Lvictim_win1_var867
	cmpl	$868, %eax
	je	.Lvictim_win1_var868
	cmpl	$869, %eax
	je	.Lvictim_win1_var869
	cmpl	$870, %eax
	je	.Lvictim_win1_var870
	cmpl	$871, %eax
	je	.Lvictim_win1_var871
	cmpl	$872, %eax
	je	.Lvictim_win1_var872
	cmpl	$873, %eax
	je	.Lvictim_win1_var873
	cmpl	$874, %eax
	je	.Lvictim_win1_var874
	cmpl	$875, %eax
	je	.Lvictim_win1_var875
	cmpl	$876, %eax
	je	.Lvictim_win1_var876
	cmpl	$877, %eax
	je	.Lvictim_win1_var877
	cmpl	$878, %eax
	je	.Lvictim_win1_var878
	cmpl	$879, %eax
	je	.Lvictim_win1_var879
	cmpl	$880, %eax
	je	.Lvictim_win1_var880
	cmpl	$881, %eax
	je	.Lvictim_win1_var881
	cmpl	$882, %eax
	je	.Lvictim_win1_var882
	cmpl	$883, %eax
	je	.Lvictim_win1_var883
	cmpl	$884, %eax
	je	.Lvictim_win1_var884
	cmpl	$885, %eax
	je	.Lvictim_win1_var885
	cmpl	$886, %eax
	je	.Lvictim_win1_var886
	cmpl	$887, %eax
	je	.Lvictim_win1_var887
	cmpl	$888, %eax
	je	.Lvictim_win1_var888
	cmpl	$889, %eax
	je	.Lvictim_win1_var889
	cmpl	$890, %eax
	je	.Lvictim_win1_var890
	cmpl	$891, %eax
	je	.Lvictim_win1_var891
	cmpl	$892, %eax
	je	.Lvictim_win1_var892
	cmpl	$893, %eax
	je	.Lvictim_win1_var893
	cmpl	$894, %eax
	je	.Lvictim_win1_var894
	cmpl	$895, %eax
	je	.Lvictim_win1_var895
	cmpl	$896, %eax
	je	.Lvictim_win1_var896
	cmpl	$897, %eax
	je	.Lvictim_win1_var897
	cmpl	$898, %eax
	je	.Lvictim_win1_var898
	cmpl	$899, %eax
	je	.Lvictim_win1_var899
	cmpl	$900, %eax
	je	.Lvictim_win1_var900
	cmpl	$901, %eax
	je	.Lvictim_win1_var901
	cmpl	$902, %eax
	je	.Lvictim_win1_var902
	cmpl	$903, %eax
	je	.Lvictim_win1_var903
	cmpl	$904, %eax
	je	.Lvictim_win1_var904
	cmpl	$905, %eax
	je	.Lvictim_win1_var905
	cmpl	$906, %eax
	je	.Lvictim_win1_var906
	cmpl	$907, %eax
	je	.Lvictim_win1_var907
	cmpl	$908, %eax
	je	.Lvictim_win1_var908
	cmpl	$909, %eax
	je	.Lvictim_win1_var909
	cmpl	$910, %eax
	je	.Lvictim_win1_var910
	cmpl	$911, %eax
	je	.Lvictim_win1_var911
	cmpl	$912, %eax
	je	.Lvictim_win1_var912
	cmpl	$913, %eax
	je	.Lvictim_win1_var913
	cmpl	$914, %eax
	je	.Lvictim_win1_var914
	cmpl	$915, %eax
	je	.Lvictim_win1_var915
	cmpl	$916, %eax
	je	.Lvictim_win1_var916
	cmpl	$917, %eax
	je	.Lvictim_win1_var917
	cmpl	$918, %eax
	je	.Lvictim_win1_var918
	cmpl	$919, %eax
	je	.Lvictim_win1_var919
	cmpl	$920, %eax
	je	.Lvictim_win1_var920
	cmpl	$921, %eax
	je	.Lvictim_win1_var921
	cmpl	$922, %eax
	je	.Lvictim_win1_var922
	cmpl	$923, %eax
	je	.Lvictim_win1_var923
	cmpl	$924, %eax
	je	.Lvictim_win1_var924
	cmpl	$925, %eax
	je	.Lvictim_win1_var925
	cmpl	$926, %eax
	je	.Lvictim_win1_var926
	cmpl	$927, %eax
	je	.Lvictim_win1_var927
	cmpl	$928, %eax
	je	.Lvictim_win1_var928
	cmpl	$929, %eax
	je	.Lvictim_win1_var929
	cmpl	$930, %eax
	je	.Lvictim_win1_var930
	cmpl	$931, %eax
	je	.Lvictim_win1_var931
	cmpl	$932, %eax
	je	.Lvictim_win1_var932
	cmpl	$933, %eax
	je	.Lvictim_win1_var933
	cmpl	$934, %eax
	je	.Lvictim_win1_var934
	cmpl	$935, %eax
	je	.Lvictim_win1_var935
	cmpl	$936, %eax
	je	.Lvictim_win1_var936
	cmpl	$937, %eax
	je	.Lvictim_win1_var937
	cmpl	$938, %eax
	je	.Lvictim_win1_var938
	cmpl	$939, %eax
	je	.Lvictim_win1_var939
	cmpl	$940, %eax
	je	.Lvictim_win1_var940
	cmpl	$941, %eax
	je	.Lvictim_win1_var941
	cmpl	$942, %eax
	je	.Lvictim_win1_var942
	cmpl	$943, %eax
	je	.Lvictim_win1_var943
	cmpl	$944, %eax
	je	.Lvictim_win1_var944
	cmpl	$945, %eax
	je	.Lvictim_win1_var945
	cmpl	$946, %eax
	je	.Lvictim_win1_var946
	cmpl	$947, %eax
	je	.Lvictim_win1_var947
	cmpl	$948, %eax
	je	.Lvictim_win1_var948
	cmpl	$949, %eax
	je	.Lvictim_win1_var949
	cmpl	$950, %eax
	je	.Lvictim_win1_var950
	cmpl	$951, %eax
	je	.Lvictim_win1_var951
	cmpl	$952, %eax
	je	.Lvictim_win1_var952
	cmpl	$953, %eax
	je	.Lvictim_win1_var953
	cmpl	$954, %eax
	je	.Lvictim_win1_var954
	cmpl	$955, %eax
	je	.Lvictim_win1_var955
	cmpl	$956, %eax
	je	.Lvictim_win1_var956
	cmpl	$957, %eax
	je	.Lvictim_win1_var957
	cmpl	$958, %eax
	je	.Lvictim_win1_var958
	cmpl	$959, %eax
	je	.Lvictim_win1_var959
	cmpl	$960, %eax
	je	.Lvictim_win1_var960
	cmpl	$961, %eax
	je	.Lvictim_win1_var961
	cmpl	$962, %eax
	je	.Lvictim_win1_var962
	cmpl	$963, %eax
	je	.Lvictim_win1_var963
	cmpl	$964, %eax
	je	.Lvictim_win1_var964
	cmpl	$965, %eax
	je	.Lvictim_win1_var965
	cmpl	$966, %eax
	je	.Lvictim_win1_var966
	cmpl	$967, %eax
	je	.Lvictim_win1_var967
	cmpl	$968, %eax
	je	.Lvictim_win1_var968
	cmpl	$969, %eax
	je	.Lvictim_win1_var969
	cmpl	$970, %eax
	je	.Lvictim_win1_var970
	cmpl	$971, %eax
	je	.Lvictim_win1_var971
	cmpl	$972, %eax
	je	.Lvictim_win1_var972
	cmpl	$973, %eax
	je	.Lvictim_win1_var973
	cmpl	$974, %eax
	je	.Lvictim_win1_var974
	cmpl	$975, %eax
	je	.Lvictim_win1_var975
	cmpl	$976, %eax
	je	.Lvictim_win1_var976
	cmpl	$977, %eax
	je	.Lvictim_win1_var977
	cmpl	$978, %eax
	je	.Lvictim_win1_var978
	cmpl	$979, %eax
	je	.Lvictim_win1_var979
	cmpl	$980, %eax
	je	.Lvictim_win1_var980
	cmpl	$981, %eax
	je	.Lvictim_win1_var981
	cmpl	$982, %eax
	je	.Lvictim_win1_var982
	cmpl	$983, %eax
	je	.Lvictim_win1_var983
	cmpl	$984, %eax
	je	.Lvictim_win1_var984
	cmpl	$985, %eax
	je	.Lvictim_win1_var985
	cmpl	$986, %eax
	je	.Lvictim_win1_var986
	cmpl	$987, %eax
	je	.Lvictim_win1_var987
	cmpl	$988, %eax
	je	.Lvictim_win1_var988
	cmpl	$989, %eax
	je	.Lvictim_win1_var989
	cmpl	$990, %eax
	je	.Lvictim_win1_var990
	cmpl	$991, %eax
	je	.Lvictim_win1_var991
	cmpl	$992, %eax
	je	.Lvictim_win1_var992
	cmpl	$993, %eax
	je	.Lvictim_win1_var993
	cmpl	$994, %eax
	je	.Lvictim_win1_var994
	cmpl	$995, %eax
	je	.Lvictim_win1_var995
	cmpl	$996, %eax
	je	.Lvictim_win1_var996
	cmpl	$997, %eax
	je	.Lvictim_win1_var997
	cmpl	$998, %eax
	je	.Lvictim_win1_var998
	cmpl	$999, %eax
	je	.Lvictim_win1_var999
	jmp	.Lvictim_win1_var0
## Variant 0
.Lvictim_win1_var0:
	popq	%rax
	cmpl	$100, -28(%rbp)
	jg	LBB2_4
## %bb.2:                               ##   in Loop: Header=BB2_1 Depth=1
	movl	-28(%rbp), %eax
	addl	-20(%rbp), %eax
	jmp	.Lvictim_win1_continue
## Variant 1
.Lvictim_win1_var1:
	popq	%rax
	cmpl	$100, -28(%rbp)
	jg	LBB2_4
## %bb.2:                               ##   in Loop: Header=BB2_1 Depth=1
	movl	-28(%rbp), %eax
	addl	-20(%rbp), %eax
	jmp	.Lvictim_win1_continue
## Variant 2
.Lvictim_win1_var2:
	popq	%rax
	cmpl	$100, -28(%rbp)
	jg	LBB2_4
## %bb.2:                               ##   in Loop: Header=BB2_1 Depth=1
	movl	-28(%rbp), %eax
	addl	-20(%rbp), %eax
	jmp	.Lvictim_win1_continue
## Variant 3
.Lvictim_win1_var3:
	popq	%rax
	cmpl	$100, -28(%rbp)
	jg	LBB2_4
## %bb.2:                               ##   in Loop: Header=BB2_1 Depth=1
	movl	-28(%rbp), %eax
	addl	-20(%rbp), %eax
	jmp	.Lvictim_win1_continue
## Variant 4
.Lvictim_win1_var4:
	popq	%rax
	cmpl	$100, -28(%rbp)
	jg	LBB2_4
## %bb.2:                               ##   in Loop: Header=BB2_1 Depth=1
	movl	-28(%rbp), %eax
	addl	-20(%rbp), %eax
	jmp	.Lvictim_win1_continue
## Variant 5
.Lvictim_win1_var5:
	popq	%rax
	cmpl	$100, -28(%rbp)
	jg	LBB2_4
## %bb.2:                               ##   in Loop: Header=BB2_1 Depth=1
	movl	-28(%rbp), %eax
	addl	-20(%rbp), %eax
	jmp	.Lvictim_win1_continue
## Variant 6
.Lvictim_win1_var6:
	popq	%rax
	cmpl	$100, -28(%rbp)
	jg	LBB2_4
## %bb.2:                               ##   in Loop: Header=BB2_1 Depth=1
	movl	-28(%rbp), %eax
	addl	-20(%rbp), %eax
	jmp	.Lvictim_win1_continue
## Variant 7
.Lvictim_win1_var7:
	popq	%rax
	cmpl	$100, -28(%rbp)
	jg	LBB2_4
## %bb.2:                               ##   in Loop: Header=BB2_1 Depth=1
	movl	-28(%rbp), %eax
	addl	-20(%rbp), %eax
	jmp	.Lvictim_win1_continue
## Variant 8
.Lvictim_win1_var8:
	popq	%rax
	cmpl	$100, -28(%rbp)
	jg	LBB2_4
## %bb.2:                               ##   in Loop: Header=BB2_1 Depth=1
	movl	-28(%rbp), %eax
	addl	-20(%rbp), %eax
	jmp	.Lvictim_win1_continue
## Variant 9
.Lvictim_win1_var9:
	popq	%rax
	cmpl	$100, -28(%rbp)
	jg	LBB2_4
## %bb.2:                               ##   in Loop: Header=BB2_1 Depth=1
	movl	-28(%rbp), %eax
	addl	-20(%rbp), %eax
	jmp	.Lvictim_win1_continue
## Variant 10
.Lvictim_win1_var10:
	popq	%rax
	cmpl	$100, -28(%rbp)
	jg	LBB2_4
## %bb.2:                               ##   in Loop: Header=BB2_1 Depth=1
	movl	-28(%rbp), %eax
	addl	-20(%rbp), %eax
	jmp	.Lvictim_win1_continue
## Variant 11
.Lvictim_win1_var11:
	popq	%rax
	cmpl	$100, -28(%rbp)
	jg	LBB2_4
## %bb.2:                               ##   in Loop: Header=BB2_1 Depth=1
	movl	-28(%rbp), %eax
	addl	-20(%rbp), %eax
	jmp	.Lvictim_win1_continue
## Variant 12
.Lvictim_win1_var12:
	popq	%rax
	cmpl	$100, -28(%rbp)
	jg	LBB2_4
## %bb.2:                               ##   in Loop: Header=BB2_1 Depth=1
	movl	-28(%rbp), %eax
	addl	-20(%rbp), %eax
	jmp	.Lvictim_win1_continue
## Variant 13
.Lvictim_win1_var13:
	popq	%rax
	cmpl	$100, -28(%rbp)
	jg	LBB2_4
## %bb.2:                               ##   in Loop: Header=BB2_1 Depth=1
	movl	-28(%rbp), %eax
	addl	-20(%rbp), %eax
	jmp	.Lvictim_win1_continue
## Variant 14
.Lvictim_win1_var14:
	popq	%rax
	cmpl	$100, -28(%rbp)
	jg	LBB2_4
## %bb.2:                               ##   in Loop: Header=BB2_1 Depth=1
	movl	-28(%rbp), %eax
	addl	-20(%rbp), %eax
	jmp	.Lvictim_win1_continue
## Variant 15
.Lvictim_win1_var15:
	popq	%rax
	cmpl	$100, -28(%rbp)
	jg	LBB2_4
## %bb.2:                               ##   in Loop: Header=BB2_1 Depth=1
	movl	-28(%rbp), %eax
	addl	-20(%rbp), %eax
	jmp	.Lvictim_win1_continue
## Variant 16
.Lvictim_win1_var16:
	popq	%rax
	cmpl	$100, -28(%rbp)
	jg	LBB2_4
## %bb.2:                               ##   in Loop: Header=BB2_1 Depth=1
	movl	-28(%rbp), %eax
	addl	-20(%rbp), %eax
	jmp	.Lvictim_win1_continue
## Variant 17
.Lvictim_win1_var17:
	popq	%rax
	cmpl	$100, -28(%rbp)
	jg	LBB2_4
## %bb.2:                               ##   in Loop: Header=BB2_1 Depth=1
	movl	-28(%rbp), %eax
	addl	-20(%rbp), %eax
	jmp	.Lvictim_win1_continue
## Variant 18
.Lvictim_win1_var18:
	popq	%rax
	cmpl	$100, -28(%rbp)
	jg	LBB2_4
## %bb.2:                               ##   in Loop: Header=BB2_1 Depth=1
	movl	-28(%rbp), %eax
	addl	-20(%rbp), %eax
	jmp	.Lvictim_win1_continue
## Variant 19
.Lvictim_win1_var19:
	popq	%rax
	cmpl	$100, -28(%rbp)
	jg	LBB2_4
## %bb.2:                               ##   in Loop: Header=BB2_1 Depth=1
	movl	-28(%rbp), %eax
	addl	-20(%rbp), %eax
	jmp	.Lvictim_win1_continue
## Variant 20
.Lvictim_win1_var20:
	popq	%rax
	cmpl	$100, -28(%rbp)
	jg	LBB2_4
## %bb.2:                               ##   in Loop: Header=BB2_1 Depth=1
	movl	-28(%rbp), %eax
	addl	-20(%rbp), %eax
	jmp	.Lvictim_win1_continue
## Variant 21
.Lvictim_win1_var21:
	popq	%rax
	cmpl	$100, -28(%rbp)
	jg	LBB2_4
## %bb.2:                               ##   in Loop: Header=BB2_1 Depth=1
	movl	-28(%rbp), %eax
	addl	-20(%rbp), %eax
	jmp	.Lvictim_win1_continue
## Variant 22
.Lvictim_win1_var22:
	popq	%rax
	cmpl	$100, -28(%rbp)
	jg	LBB2_4
## %bb.2:                               ##   in Loop: Header=BB2_1 Depth=1
	movl	-28(%rbp), %eax
	addl	-20(%rbp), %eax
	jmp	.Lvictim_win1_continue
## Variant 23
.Lvictim_win1_var23:
	popq	%rax
	cmpl	$100, -28(%rbp)
	jg	LBB2_4
## %bb.2:                               ##   in Loop: Header=BB2_1 Depth=1
	movl	-28(%rbp), %eax
	addl	-20(%rbp), %eax
	jmp	.Lvictim_win1_continue
## Variant 24
.Lvictim_win1_var24:
	popq	%rax
	cmpl	$100, -28(%rbp)
	jg	LBB2_4
## %bb.2:                               ##   in Loop: Header=BB2_1 Depth=1
	movl	-28(%rbp), %eax
	addl	-20(%rbp), %eax
	jmp	.Lvictim_win1_continue
## Variant 25
.Lvictim_win1_var25:
	popq	%rax
	cmpl	$100, -28(%rbp)
	jg	LBB2_4
## %bb.2:                               ##   in Loop: Header=BB2_1 Depth=1
	movl	-28(%rbp), %eax
	addl	-20(%rbp), %eax
	jmp	.Lvictim_win1_continue
## Variant 26
.Lvictim_win1_var26:
	popq	%rax
	cmpl	$100, -28(%rbp)
	jg	LBB2_4
## %bb.2:                               ##   in Loop: Header=BB2_1 Depth=1
	movl	-28(%rbp), %eax
	addl	-20(%rbp), %eax
	jmp	.Lvictim_win1_continue
## Variant 27
.Lvictim_win1_var27:
	popq	%rax
	cmpl	$100, -28(%rbp)
	jg	LBB2_4
## %bb.2:                               ##   in Loop: Header=BB2_1 Depth=1
	movl	-28(%rbp), %eax
	addl	-20(%rbp), %eax
	jmp	.Lvictim_win1_continue
## Variant 28
.Lvictim_win1_var28:
	popq	%rax
	cmpl	$100, -28(%rbp)
	jg	LBB2_4
## %bb.2:                               ##   in Loop: Header=BB2_1 Depth=1
	movl	-28(%rbp), %eax
	addl	-20(%rbp), %eax
	jmp	.Lvictim_win1_continue
## Variant 29
.Lvictim_win1_var29:
	popq	%rax
	cmpl	$100, -28(%rbp)
	jg	LBB2_4
## %bb.2:                               ##   in Loop: Header=BB2_1 Depth=1
	movl	-28(%rbp), %eax
	addl	-20(%rbp), %eax
	jmp	.Lvictim_win1_continue
## Variant 30
.Lvictim_win1_var30:
	popq	%rax
	cmpl	$100, -28(%rbp)
	jg	LBB2_4
## %bb.2:                               ##   in Loop: Header=BB2_1 Depth=1
	movl	-28(%rbp), %eax
	addl	-20(%rbp), %eax
	jmp	.Lvictim_win1_continue
## Variant 31
.Lvictim_win1_var31:
	popq	%rax
	cmpl	$100, -28(%rbp)
	jg	LBB2_4
## %bb.2:                               ##   in Loop: Header=BB2_1 Depth=1
	movl	-28(%rbp), %eax
	addl	-20(%rbp), %eax
	jmp	.Lvictim_win1_continue
## Variant 32
.Lvictim_win1_var32:
	popq	%rax
	cmpl	$100, -28(%rbp)
	jg	LBB2_4
## %bb.2:                               ##   in Loop: Header=BB2_1 Depth=1
	movl	-28(%rbp), %eax
	addl	-20(%rbp), %eax
	jmp	.Lvictim_win1_continue
## Variant 33
.Lvictim_win1_var33:
	popq	%rax
	cmpl	$100, -28(%rbp)
	jg	LBB2_4
## %bb.2:                               ##   in Loop: Header=BB2_1 Depth=1
	movl	-28(%rbp), %eax
	addl	-20(%rbp), %eax
	jmp	.Lvictim_win1_continue
## Variant 34
.Lvictim_win1_var34:
	popq	%rax
	cmpl	$100, -28(%rbp)
	jg	LBB2_4
## %bb.2:                               ##   in Loop: Header=BB2_1 Depth=1
	movl	-28(%rbp), %eax
	addl	-20(%rbp), %eax
	jmp	.Lvictim_win1_continue
## Variant 35
.Lvictim_win1_var35:
	popq	%rax
	cmpl	$100, -28(%rbp)
	jg	LBB2_4
## %bb.2:                               ##   in Loop: Header=BB2_1 Depth=1
	movl	-28(%rbp), %eax
	addl	-20(%rbp), %eax
	jmp	.Lvictim_win1_continue
## Variant 36
.Lvictim_win1_var36:
	popq	%rax
	cmpl	$100, -28(%rbp)
	jg	LBB2_4
## %bb.2:                               ##   in Loop: Header=BB2_1 Depth=1
	movl	-28(%rbp), %eax
	addl	-20(%rbp), %eax
	jmp	.Lvictim_win1_continue
## Variant 37
.Lvictim_win1_var37:
	popq	%rax
	cmpl	$100, -28(%rbp)
	jg	LBB2_4
## %bb.2:                               ##   in Loop: Header=BB2_1 Depth=1
	movl	-28(%rbp), %eax
	addl	-20(%rbp), %eax
	jmp	.Lvictim_win1_continue
## Variant 38
.Lvictim_win1_var38:
	popq	%rax
	cmpl	$100, -28(%rbp)
	jg	LBB2_4
## %bb.2:                               ##   in Loop: Header=BB2_1 Depth=1
	movl	-28(%rbp), %eax
	addl	-20(%rbp), %eax
	jmp	.Lvictim_win1_continue
## Variant 39
.Lvictim_win1_var39:
	popq	%rax
	cmpl	$100, -28(%rbp)
	jg	LBB2_4
## %bb.2:                               ##   in Loop: Header=BB2_1 Depth=1
	movl	-28(%rbp), %eax
	addl	-20(%rbp), %eax
	jmp	.Lvictim_win1_continue
## Variant 40
.Lvictim_win1_var40:
	popq	%rax
	cmpl	$100, -28(%rbp)
	jg	LBB2_4
## %bb.2:                               ##   in Loop: Header=BB2_1 Depth=1
	movl	-28(%rbp), %eax
	addl	-20(%rbp), %eax
	jmp	.Lvictim_win1_continue
## Variant 41
.Lvictim_win1_var41:
	popq	%rax
	cmpl	$100, -28(%rbp)
	jg	LBB2_4
## %bb.2:                               ##   in Loop: Header=BB2_1 Depth=1
	movl	-28(%rbp), %eax
	addl	-20(%rbp), %eax
	jmp	.Lvictim_win1_continue
## Variant 42
.Lvictim_win1_var42:
	popq	%rax
	cmpl	$100, -28(%rbp)
	jg	LBB2_4
## %bb.2:                               ##   in Loop: Header=BB2_1 Depth=1
	movl	-28(%rbp), %eax
	addl	-20(%rbp), %eax
	jmp	.Lvictim_win1_continue
## Variant 43
.Lvictim_win1_var43:
	popq	%rax
	cmpl	$100, -28(%rbp)
	jg	LBB2_4
## %bb.2:                               ##   in Loop: Header=BB2_1 Depth=1
	movl	-28(%rbp), %eax
	addl	-20(%rbp), %eax
	jmp	.Lvictim_win1_continue
## Variant 44
.Lvictim_win1_var44:
	popq	%rax
	cmpl	$100, -28(%rbp)
	jg	LBB2_4
## %bb.2:                               ##   in Loop: Header=BB2_1 Depth=1
	movl	-28(%rbp), %eax
	addl	-20(%rbp), %eax
	jmp	.Lvictim_win1_continue
## Variant 45
.Lvictim_win1_var45:
	popq	%rax
	cmpl	$100, -28(%rbp)
	jg	LBB2_4
## %bb.2:                               ##   in Loop: Header=BB2_1 Depth=1
	movl	-28(%rbp), %eax
	addl	-20(%rbp), %eax
	jmp	.Lvictim_win1_continue
## Variant 46
.Lvictim_win1_var46:
	popq	%rax
	cmpl	$100, -28(%rbp)
	jg	LBB2_4
## %bb.2:                               ##   in Loop: Header=BB2_1 Depth=1
	movl	-28(%rbp), %eax
	addl	-20(%rbp), %eax
	jmp	.Lvictim_win1_continue
## Variant 47
.Lvictim_win1_var47:
	popq	%rax
	cmpl	$100, -28(%rbp)
	jg	LBB2_4
## %bb.2:                               ##   in Loop: Header=BB2_1 Depth=1
	movl	-28(%rbp), %eax
	addl	-20(%rbp), %eax
	jmp	.Lvictim_win1_continue
## Variant 48
.Lvictim_win1_var48:
	popq	%rax
	cmpl	$100, -28(%rbp)
	jg	LBB2_4
## %bb.2:                               ##   in Loop: Header=BB2_1 Depth=1
	movl	-28(%rbp), %eax
	addl	-20(%rbp), %eax
	jmp	.Lvictim_win1_continue
## Variant 49
.Lvictim_win1_var49:
	popq	%rax
	cmpl	$100, -28(%rbp)
	jg	LBB2_4
## %bb.2:                               ##   in Loop: Header=BB2_1 Depth=1
	movl	-28(%rbp), %eax
	addl	-20(%rbp), %eax
	jmp	.Lvictim_win1_continue
## Variant 50
.Lvictim_win1_var50:
	popq	%rax
	cmpl	$100, -28(%rbp)
	jg	LBB2_4
## %bb.2:                               ##   in Loop: Header=BB2_1 Depth=1
	movl	-28(%rbp), %eax
	addl	-20(%rbp), %eax
	jmp	.Lvictim_win1_continue
## Variant 51
.Lvictim_win1_var51:
	popq	%rax
	cmpl	$100, -28(%rbp)
	jg	LBB2_4
## %bb.2:                               ##   in Loop: Header=BB2_1 Depth=1
	movl	-28(%rbp), %eax
	addl	-20(%rbp), %eax
	jmp	.Lvictim_win1_continue
## Variant 52
.Lvictim_win1_var52:
	popq	%rax
	cmpl	$100, -28(%rbp)
	jg	LBB2_4
## %bb.2:                               ##   in Loop: Header=BB2_1 Depth=1
	movl	-28(%rbp), %eax
	addl	-20(%rbp), %eax
	jmp	.Lvictim_win1_continue
## Variant 53
.Lvictim_win1_var53:
	popq	%rax
	cmpl	$100, -28(%rbp)
	jg	LBB2_4
## %bb.2:                               ##   in Loop: Header=BB2_1 Depth=1
	movl	-28(%rbp), %eax
	addl	-20(%rbp), %eax
	jmp	.Lvictim_win1_continue
## Variant 54
.Lvictim_win1_var54:
	popq	%rax
	cmpl	$100, -28(%rbp)
	jg	LBB2_4
## %bb.2:                               ##   in Loop: Header=BB2_1 Depth=1
	movl	-28(%rbp), %eax
	addl	-20(%rbp), %eax
	jmp	.Lvictim_win1_continue
## Variant 55
.Lvictim_win1_var55:
	popq	%rax
	cmpl	$100, -28(%rbp)
	jg	LBB2_4
## %bb.2:                               ##   in Loop: Header=BB2_1 Depth=1
	movl	-28(%rbp), %eax
	addl	-20(%rbp), %eax
	jmp	.Lvictim_win1_continue
## Variant 56
.Lvictim_win1_var56:
	popq	%rax
	cmpl	$100, -28(%rbp)
	jg	LBB2_4
## %bb.2:                               ##   in Loop: Header=BB2_1 Depth=1
	movl	-28(%rbp), %eax
	addl	-20(%rbp), %eax
	jmp	.Lvictim_win1_continue
## Variant 57
.Lvictim_win1_var57:
	popq	%rax
	cmpl	$100, -28(%rbp)
	jg	LBB2_4
## %bb.2:                               ##   in Loop: Header=BB2_1 Depth=1
	movl	-28(%rbp), %eax
	addl	-20(%rbp), %eax
	jmp	.Lvictim_win1_continue
## Variant 58
.Lvictim_win1_var58:
	popq	%rax
	cmpl	$100, -28(%rbp)
	jg	LBB2_4
## %bb.2:                               ##   in Loop: Header=BB2_1 Depth=1
	movl	-28(%rbp), %eax
	addl	-20(%rbp), %eax
	jmp	.Lvictim_win1_continue
## Variant 59
.Lvictim_win1_var59:
	popq	%rax
	cmpl	$100, -28(%rbp)
	jg	LBB2_4
## %bb.2:                               ##   in Loop: Header=BB2_1 Depth=1
	movl	-28(%rbp), %eax
	addl	-20(%rbp), %eax
	jmp	.Lvictim_win1_continue
## Variant 60
.Lvictim_win1_var60:
	popq	%rax
	cmpl	$100, -28(%rbp)
	jg	LBB2_4
## %bb.2:                               ##   in Loop: Header=BB2_1 Depth=1
	movl	-28(%rbp), %eax
	addl	-20(%rbp), %eax
	jmp	.Lvictim_win1_continue
## Variant 61
.Lvictim_win1_var61:
	popq	%rax
	cmpl	$100, -28(%rbp)
	jg	LBB2_4
## %bb.2:                               ##   in Loop: Header=BB2_1 Depth=1
	movl	-28(%rbp), %eax
	addl	-20(%rbp), %eax
	jmp	.Lvictim_win1_continue
## Variant 62
.Lvictim_win1_var62:
	popq	%rax
	cmpl	$100, -28(%rbp)
	jg	LBB2_4
## %bb.2:                               ##   in Loop: Header=BB2_1 Depth=1
	movl	-28(%rbp), %eax
	addl	-20(%rbp), %eax
	jmp	.Lvictim_win1_continue
## Variant 63
.Lvictim_win1_var63:
	popq	%rax
	cmpl	$100, -28(%rbp)
	jg	LBB2_4
## %bb.2:                               ##   in Loop: Header=BB2_1 Depth=1
	movl	-28(%rbp), %eax
	addl	-20(%rbp), %eax
	jmp	.Lvictim_win1_continue
## Variant 64
.Lvictim_win1_var64:
	popq	%rax
	cmpl	$100, -28(%rbp)
	jg	LBB2_4
## %bb.2:                               ##   in Loop: Header=BB2_1 Depth=1
	movl	-28(%rbp), %eax
	addl	-20(%rbp), %eax
	jmp	.Lvictim_win1_continue
## Variant 65
.Lvictim_win1_var65:
	popq	%rax
	cmpl	$100, -28(%rbp)
	jg	LBB2_4
## %bb.2:                               ##   in Loop: Header=BB2_1 Depth=1
	movl	-28(%rbp), %eax
	addl	-20(%rbp), %eax
	jmp	.Lvictim_win1_continue
## Variant 66
.Lvictim_win1_var66:
	popq	%rax
	cmpl	$100, -28(%rbp)
	jg	LBB2_4
## %bb.2:                               ##   in Loop: Header=BB2_1 Depth=1
	movl	-28(%rbp), %eax
	addl	-20(%rbp), %eax
	jmp	.Lvictim_win1_continue
## Variant 67
.Lvictim_win1_var67:
	popq	%rax
	cmpl	$100, -28(%rbp)
	jg	LBB2_4
## %bb.2:                               ##   in Loop: Header=BB2_1 Depth=1
	movl	-28(%rbp), %eax
	addl	-20(%rbp), %eax
	jmp	.Lvictim_win1_continue
## Variant 68
.Lvictim_win1_var68:
	popq	%rax
	cmpl	$100, -28(%rbp)
	jg	LBB2_4
## %bb.2:                               ##   in Loop: Header=BB2_1 Depth=1
	movl	-28(%rbp), %eax
	addl	-20(%rbp), %eax
	jmp	.Lvictim_win1_continue
## Variant 69
.Lvictim_win1_var69:
	popq	%rax
	cmpl	$100, -28(%rbp)
	jg	LBB2_4
## %bb.2:                               ##   in Loop: Header=BB2_1 Depth=1
	movl	-28(%rbp), %eax
	addl	-20(%rbp), %eax
	jmp	.Lvictim_win1_continue
## Variant 70
.Lvictim_win1_var70:
	popq	%rax
	cmpl	$100, -28(%rbp)
	jg	LBB2_4
## %bb.2:                               ##   in Loop: Header=BB2_1 Depth=1
	movl	-28(%rbp), %eax
	addl	-20(%rbp), %eax
	jmp	.Lvictim_win1_continue
## Variant 71
.Lvictim_win1_var71:
	popq	%rax
	cmpl	$100, -28(%rbp)
	jg	LBB2_4
## %bb.2:                               ##   in Loop: Header=BB2_1 Depth=1
	movl	-28(%rbp), %eax
	addl	-20(%rbp), %eax
	jmp	.Lvictim_win1_continue
## Variant 72
.Lvictim_win1_var72:
	popq	%rax
	cmpl	$100, -28(%rbp)
	jg	LBB2_4
## %bb.2:                               ##   in Loop: Header=BB2_1 Depth=1
	movl	-28(%rbp), %eax
	addl	-20(%rbp), %eax
	jmp	.Lvictim_win1_continue
## Variant 73
.Lvictim_win1_var73:
	popq	%rax
	cmpl	$100, -28(%rbp)
	jg	LBB2_4
## %bb.2:                               ##   in Loop: Header=BB2_1 Depth=1
	movl	-28(%rbp), %eax
	addl	-20(%rbp), %eax
	jmp	.Lvictim_win1_continue
## Variant 74
.Lvictim_win1_var74:
	popq	%rax
	cmpl	$100, -28(%rbp)
	jg	LBB2_4
## %bb.2:                               ##   in Loop: Header=BB2_1 Depth=1
	movl	-28(%rbp), %eax
	addl	-20(%rbp), %eax
	jmp	.Lvictim_win1_continue
## Variant 75
.Lvictim_win1_var75:
	popq	%rax
	cmpl	$100, -28(%rbp)
	jg	LBB2_4
## %bb.2:                               ##   in Loop: Header=BB2_1 Depth=1
	movl	-28(%rbp), %eax
	addl	-20(%rbp), %eax
	jmp	.Lvictim_win1_continue
## Variant 76
.Lvictim_win1_var76:
	popq	%rax
	cmpl	$100, -28(%rbp)
	jg	LBB2_4
## %bb.2:                               ##   in Loop: Header=BB2_1 Depth=1
	movl	-28(%rbp), %eax
	addl	-20(%rbp), %eax
	jmp	.Lvictim_win1_continue
## Variant 77
.Lvictim_win1_var77:
	popq	%rax
	cmpl	$100, -28(%rbp)
	jg	LBB2_4
## %bb.2:                               ##   in Loop: Header=BB2_1 Depth=1
	movl	-28(%rbp), %eax
	addl	-20(%rbp), %eax
	jmp	.Lvictim_win1_continue
## Variant 78
.Lvictim_win1_var78:
	popq	%rax
	cmpl	$100, -28(%rbp)
	jg	LBB2_4
## %bb.2:                               ##   in Loop: Header=BB2_1 Depth=1
	movl	-28(%rbp), %eax
	addl	-20(%rbp), %eax
	jmp	.Lvictim_win1_continue
## Variant 79
.Lvictim_win1_var79:
	popq	%rax
	cmpl	$100, -28(%rbp)
	jg	LBB2_4
## %bb.2:                               ##   in Loop: Header=BB2_1 Depth=1
	movl	-28(%rbp), %eax
	addl	-20(%rbp), %eax
	jmp	.Lvictim_win1_continue
## Variant 80
.Lvictim_win1_var80:
	popq	%rax
	cmpl	$100, -28(%rbp)
	jg	LBB2_4
## %bb.2:                               ##   in Loop: Header=BB2_1 Depth=1
	movl	-28(%rbp), %eax
	addl	-20(%rbp), %eax
	jmp	.Lvictim_win1_continue
## Variant 81
.Lvictim_win1_var81:
	popq	%rax
	cmpl	$100, -28(%rbp)
	jg	LBB2_4
## %bb.2:                               ##   in Loop: Header=BB2_1 Depth=1
	movl	-28(%rbp), %eax
	addl	-20(%rbp), %eax
	jmp	.Lvictim_win1_continue
## Variant 82
.Lvictim_win1_var82:
	popq	%rax
	cmpl	$100, -28(%rbp)
	jg	LBB2_4
## %bb.2:                               ##   in Loop: Header=BB2_1 Depth=1
	movl	-28(%rbp), %eax
	addl	-20(%rbp), %eax
	jmp	.Lvictim_win1_continue
## Variant 83
.Lvictim_win1_var83:
	popq	%rax
	cmpl	$100, -28(%rbp)
	jg	LBB2_4
## %bb.2:                               ##   in Loop: Header=BB2_1 Depth=1
	movl	-28(%rbp), %eax
	addl	-20(%rbp), %eax
	jmp	.Lvictim_win1_continue
## Variant 84
.Lvictim_win1_var84:
	popq	%rax
	cmpl	$100, -28(%rbp)
	jg	LBB2_4
## %bb.2:                               ##   in Loop: Header=BB2_1 Depth=1
	movl	-28(%rbp), %eax
	addl	-20(%rbp), %eax
	jmp	.Lvictim_win1_continue
## Variant 85
.Lvictim_win1_var85:
	popq	%rax
	cmpl	$100, -28(%rbp)
	jg	LBB2_4
## %bb.2:                               ##   in Loop: Header=BB2_1 Depth=1
	movl	-28(%rbp), %eax
	addl	-20(%rbp), %eax
	jmp	.Lvictim_win1_continue
## Variant 86
.Lvictim_win1_var86:
	popq	%rax
	cmpl	$100, -28(%rbp)
	jg	LBB2_4
## %bb.2:                               ##   in Loop: Header=BB2_1 Depth=1
	movl	-28(%rbp), %eax
	addl	-20(%rbp), %eax
	jmp	.Lvictim_win1_continue
## Variant 87
.Lvictim_win1_var87:
	popq	%rax
	cmpl	$100, -28(%rbp)
	jg	LBB2_4
## %bb.2:                               ##   in Loop: Header=BB2_1 Depth=1
	movl	-28(%rbp), %eax
	addl	-20(%rbp), %eax
	jmp	.Lvictim_win1_continue
## Variant 88
.Lvictim_win1_var88:
	popq	%rax
	cmpl	$100, -28(%rbp)
	jg	LBB2_4
## %bb.2:                               ##   in Loop: Header=BB2_1 Depth=1
	movl	-28(%rbp), %eax
	addl	-20(%rbp), %eax
	jmp	.Lvictim_win1_continue
## Variant 89
.Lvictim_win1_var89:
	popq	%rax
	cmpl	$100, -28(%rbp)
	jg	LBB2_4
## %bb.2:                               ##   in Loop: Header=BB2_1 Depth=1
	movl	-28(%rbp), %eax
	addl	-20(%rbp), %eax
	jmp	.Lvictim_win1_continue
## Variant 90
.Lvictim_win1_var90:
	popq	%rax
	cmpl	$100, -28(%rbp)
	jg	LBB2_4
## %bb.2:                               ##   in Loop: Header=BB2_1 Depth=1
	movl	-28(%rbp), %eax
	addl	-20(%rbp), %eax
	jmp	.Lvictim_win1_continue
## Variant 91
.Lvictim_win1_var91:
	popq	%rax
	cmpl	$100, -28(%rbp)
	jg	LBB2_4
## %bb.2:                               ##   in Loop: Header=BB2_1 Depth=1
	movl	-28(%rbp), %eax
	addl	-20(%rbp), %eax
	jmp	.Lvictim_win1_continue
## Variant 92
.Lvictim_win1_var92:
	popq	%rax
	cmpl	$100, -28(%rbp)
	jg	LBB2_4
## %bb.2:                               ##   in Loop: Header=BB2_1 Depth=1
	movl	-28(%rbp), %eax
	addl	-20(%rbp), %eax
	jmp	.Lvictim_win1_continue
## Variant 93
.Lvictim_win1_var93:
	popq	%rax
	cmpl	$100, -28(%rbp)
	jg	LBB2_4
## %bb.2:                               ##   in Loop: Header=BB2_1 Depth=1
	movl	-28(%rbp), %eax
	addl	-20(%rbp), %eax
	jmp	.Lvictim_win1_continue
## Variant 94
.Lvictim_win1_var94:
	popq	%rax
	cmpl	$100, -28(%rbp)
	jg	LBB2_4
## %bb.2:                               ##   in Loop: Header=BB2_1 Depth=1
	movl	-28(%rbp), %eax
	addl	-20(%rbp), %eax
	jmp	.Lvictim_win1_continue
## Variant 95
.Lvictim_win1_var95:
	popq	%rax
	cmpl	$100, -28(%rbp)
	jg	LBB2_4
## %bb.2:                               ##   in Loop: Header=BB2_1 Depth=1
	movl	-28(%rbp), %eax
	addl	-20(%rbp), %eax
	jmp	.Lvictim_win1_continue
## Variant 96
.Lvictim_win1_var96:
	popq	%rax
	cmpl	$100, -28(%rbp)
	jg	LBB2_4
## %bb.2:                               ##   in Loop: Header=BB2_1 Depth=1
	movl	-28(%rbp), %eax
	addl	-20(%rbp), %eax
	jmp	.Lvictim_win1_continue
## Variant 97
.Lvictim_win1_var97:
	popq	%rax
	cmpl	$100, -28(%rbp)
	jg	LBB2_4
## %bb.2:                               ##   in Loop: Header=BB2_1 Depth=1
	movl	-28(%rbp), %eax
	addl	-20(%rbp), %eax
	jmp	.Lvictim_win1_continue
## Variant 98
.Lvictim_win1_var98:
	popq	%rax
	cmpl	$100, -28(%rbp)
	jg	LBB2_4
## %bb.2:                               ##   in Loop: Header=BB2_1 Depth=1
	movl	-28(%rbp), %eax
	addl	-20(%rbp), %eax
	jmp	.Lvictim_win1_continue
## Variant 99
.Lvictim_win1_var99:
	popq	%rax
	cmpl	$100, -28(%rbp)
	jg	LBB2_4
## %bb.2:                               ##   in Loop: Header=BB2_1 Depth=1
	movl	-28(%rbp), %eax
	addl	-20(%rbp), %eax
	jmp	.Lvictim_win1_continue
## Variant 100
.Lvictim_win1_var100:
	popq	%rax
	cmpl	$100, -28(%rbp)
	jg	LBB2_4
## %bb.2:                               ##   in Loop: Header=BB2_1 Depth=1
	movl	-28(%rbp), %eax
	addl	-20(%rbp), %eax
	jmp	.Lvictim_win1_continue
## Variant 101
.Lvictim_win1_var101:
	popq	%rax
	cmpl	$100, -28(%rbp)
	jg	LBB2_4
## %bb.2:                               ##   in Loop: Header=BB2_1 Depth=1
	movl	-28(%rbp), %eax
	addl	-20(%rbp), %eax
	jmp	.Lvictim_win1_continue
## Variant 102
.Lvictim_win1_var102:
	popq	%rax
	cmpl	$100, -28(%rbp)
	jg	LBB2_4
## %bb.2:                               ##   in Loop: Header=BB2_1 Depth=1
	movl	-28(%rbp), %eax
	addl	-20(%rbp), %eax
	jmp	.Lvictim_win1_continue
## Variant 103
.Lvictim_win1_var103:
	popq	%rax
	cmpl	$100, -28(%rbp)
	jg	LBB2_4
## %bb.2:                               ##   in Loop: Header=BB2_1 Depth=1
	movl	-28(%rbp), %eax
	addl	-20(%rbp), %eax
	jmp	.Lvictim_win1_continue
## Variant 104
.Lvictim_win1_var104:
	popq	%rax
	cmpl	$100, -28(%rbp)
	jg	LBB2_4
## %bb.2:                               ##   in Loop: Header=BB2_1 Depth=1
	movl	-28(%rbp), %eax
	addl	-20(%rbp), %eax
	jmp	.Lvictim_win1_continue
## Variant 105
.Lvictim_win1_var105:
	popq	%rax
	cmpl	$100, -28(%rbp)
	jg	LBB2_4
## %bb.2:                               ##   in Loop: Header=BB2_1 Depth=1
	movl	-28(%rbp), %eax
	addl	-20(%rbp), %eax
	jmp	.Lvictim_win1_continue
## Variant 106
.Lvictim_win1_var106:
	popq	%rax
	cmpl	$100, -28(%rbp)
	jg	LBB2_4
## %bb.2:                               ##   in Loop: Header=BB2_1 Depth=1
	movl	-28(%rbp), %eax
	addl	-20(%rbp), %eax
	jmp	.Lvictim_win1_continue
## Variant 107
.Lvictim_win1_var107:
	popq	%rax
	cmpl	$100, -28(%rbp)
	jg	LBB2_4
## %bb.2:                               ##   in Loop: Header=BB2_1 Depth=1
	movl	-28(%rbp), %eax
	addl	-20(%rbp), %eax
	jmp	.Lvictim_win1_continue
## Variant 108
.Lvictim_win1_var108:
	popq	%rax
	cmpl	$100, -28(%rbp)
	jg	LBB2_4
## %bb.2:                               ##   in Loop: Header=BB2_1 Depth=1
	movl	-28(%rbp), %eax
	addl	-20(%rbp), %eax
	jmp	.Lvictim_win1_continue
## Variant 109
.Lvictim_win1_var109:
	popq	%rax
	cmpl	$100, -28(%rbp)
	jg	LBB2_4
## %bb.2:                               ##   in Loop: Header=BB2_1 Depth=1
	movl	-28(%rbp), %eax
	addl	-20(%rbp), %eax
	jmp	.Lvictim_win1_continue
## Variant 110
.Lvictim_win1_var110:
	popq	%rax
	cmpl	$100, -28(%rbp)
	jg	LBB2_4
## %bb.2:                               ##   in Loop: Header=BB2_1 Depth=1
	movl	-28(%rbp), %eax
	addl	-20(%rbp), %eax
	jmp	.Lvictim_win1_continue
## Variant 111
.Lvictim_win1_var111:
	popq	%rax
	cmpl	$100, -28(%rbp)
	jg	LBB2_4
## %bb.2:                               ##   in Loop: Header=BB2_1 Depth=1
	movl	-28(%rbp), %eax
	addl	-20(%rbp), %eax
	jmp	.Lvictim_win1_continue
## Variant 112
.Lvictim_win1_var112:
	popq	%rax
	cmpl	$100, -28(%rbp)
	jg	LBB2_4
## %bb.2:                               ##   in Loop: Header=BB2_1 Depth=1
	movl	-28(%rbp), %eax
	addl	-20(%rbp), %eax
	jmp	.Lvictim_win1_continue
## Variant 113
.Lvictim_win1_var113:
	popq	%rax
	cmpl	$100, -28(%rbp)
	jg	LBB2_4
## %bb.2:                               ##   in Loop: Header=BB2_1 Depth=1
	movl	-28(%rbp), %eax
	addl	-20(%rbp), %eax
	jmp	.Lvictim_win1_continue
## Variant 114
.Lvictim_win1_var114:
	popq	%rax
	cmpl	$100, -28(%rbp)
	jg	LBB2_4
## %bb.2:                               ##   in Loop: Header=BB2_1 Depth=1
	movl	-28(%rbp), %eax
	addl	-20(%rbp), %eax
	jmp	.Lvictim_win1_continue
## Variant 115
.Lvictim_win1_var115:
	popq	%rax
	cmpl	$100, -28(%rbp)
	jg	LBB2_4
## %bb.2:                               ##   in Loop: Header=BB2_1 Depth=1
	movl	-28(%rbp), %eax
	addl	-20(%rbp), %eax
	jmp	.Lvictim_win1_continue
## Variant 116
.Lvictim_win1_var116:
	popq	%rax
	cmpl	$100, -28(%rbp)
	jg	LBB2_4
## %bb.2:                               ##   in Loop: Header=BB2_1 Depth=1
	movl	-28(%rbp), %eax
	addl	-20(%rbp), %eax
	jmp	.Lvictim_win1_continue
## Variant 117
.Lvictim_win1_var117:
	popq	%rax
	cmpl	$100, -28(%rbp)
	jg	LBB2_4
## %bb.2:                               ##   in Loop: Header=BB2_1 Depth=1
	movl	-28(%rbp), %eax
	addl	-20(%rbp), %eax
	jmp	.Lvictim_win1_continue
## Variant 118
.Lvictim_win1_var118:
	popq	%rax
	cmpl	$100, -28(%rbp)
	jg	LBB2_4
## %bb.2:                               ##   in Loop: Header=BB2_1 Depth=1
	movl	-28(%rbp), %eax
	addl	-20(%rbp), %eax
	jmp	.Lvictim_win1_continue
## Variant 119
.Lvictim_win1_var119:
	popq	%rax
	cmpl	$100, -28(%rbp)
	jg	LBB2_4
## %bb.2:                               ##   in Loop: Header=BB2_1 Depth=1
	movl	-28(%rbp), %eax
	addl	-20(%rbp), %eax
	jmp	.Lvictim_win1_continue
## Variant 120
.Lvictim_win1_var120:
	popq	%rax
	cmpl	$100, -28(%rbp)
	jg	LBB2_4
## %bb.2:                               ##   in Loop: Header=BB2_1 Depth=1
	movl	-28(%rbp), %eax
	addl	-20(%rbp), %eax
	jmp	.Lvictim_win1_continue
## Variant 121
.Lvictim_win1_var121:
	popq	%rax
	cmpl	$100, -28(%rbp)
	jg	LBB2_4
## %bb.2:                               ##   in Loop: Header=BB2_1 Depth=1
	movl	-28(%rbp), %eax
	addl	-20(%rbp), %eax
	jmp	.Lvictim_win1_continue
## Variant 122
.Lvictim_win1_var122:
	popq	%rax
	cmpl	$100, -28(%rbp)
	jg	LBB2_4
## %bb.2:                               ##   in Loop: Header=BB2_1 Depth=1
	movl	-28(%rbp), %eax
	addl	-20(%rbp), %eax
	jmp	.Lvictim_win1_continue
## Variant 123
.Lvictim_win1_var123:
	popq	%rax
	cmpl	$100, -28(%rbp)
	jg	LBB2_4
## %bb.2:                               ##   in Loop: Header=BB2_1 Depth=1
	movl	-28(%rbp), %eax
	addl	-20(%rbp), %eax
	jmp	.Lvictim_win1_continue
## Variant 124
.Lvictim_win1_var124:
	popq	%rax
	cmpl	$100, -28(%rbp)
	jg	LBB2_4
## %bb.2:                               ##   in Loop: Header=BB2_1 Depth=1
	movl	-28(%rbp), %eax
	addl	-20(%rbp), %eax
	jmp	.Lvictim_win1_continue
## Variant 125
.Lvictim_win1_var125:
	popq	%rax
	cmpl	$100, -28(%rbp)
	jg	LBB2_4
## %bb.2:                               ##   in Loop: Header=BB2_1 Depth=1
	movl	-28(%rbp), %eax
	addl	-20(%rbp), %eax
	jmp	.Lvictim_win1_continue
## Variant 126
.Lvictim_win1_var126:
	popq	%rax
	cmpl	$100, -28(%rbp)
	jg	LBB2_4
## %bb.2:                               ##   in Loop: Header=BB2_1 Depth=1
	movl	-28(%rbp), %eax
	addl	-20(%rbp), %eax
	jmp	.Lvictim_win1_continue
## Variant 127
.Lvictim_win1_var127:
	popq	%rax
	cmpl	$100, -28(%rbp)
	jg	LBB2_4
## %bb.2:                               ##   in Loop: Header=BB2_1 Depth=1
	movl	-28(%rbp), %eax
	addl	-20(%rbp), %eax
	jmp	.Lvictim_win1_continue
## Variant 128
.Lvictim_win1_var128:
	popq	%rax
	cmpl	$100, -28(%rbp)
	jg	LBB2_4
## %bb.2:                               ##   in Loop: Header=BB2_1 Depth=1
	movl	-28(%rbp), %eax
	addl	-20(%rbp), %eax
	jmp	.Lvictim_win1_continue
## Variant 129
.Lvictim_win1_var129:
	popq	%rax
	cmpl	$100, -28(%rbp)
	jg	LBB2_4
## %bb.2:                               ##   in Loop: Header=BB2_1 Depth=1
	movl	-28(%rbp), %eax
	addl	-20(%rbp), %eax
	jmp	.Lvictim_win1_continue
## Variant 130
.Lvictim_win1_var130:
	popq	%rax
	cmpl	$100, -28(%rbp)
	jg	LBB2_4
## %bb.2:                               ##   in Loop: Header=BB2_1 Depth=1
	movl	-28(%rbp), %eax
	addl	-20(%rbp), %eax
	jmp	.Lvictim_win1_continue
## Variant 131
.Lvictim_win1_var131:
	popq	%rax
	cmpl	$100, -28(%rbp)
	jg	LBB2_4
## %bb.2:                               ##   in Loop: Header=BB2_1 Depth=1
	movl	-28(%rbp), %eax
	addl	-20(%rbp), %eax
	jmp	.Lvictim_win1_continue
## Variant 132
.Lvictim_win1_var132:
	popq	%rax
	cmpl	$100, -28(%rbp)
	jg	LBB2_4
## %bb.2:                               ##   in Loop: Header=BB2_1 Depth=1
	movl	-28(%rbp), %eax
	addl	-20(%rbp), %eax
	jmp	.Lvictim_win1_continue
## Variant 133
.Lvictim_win1_var133:
	popq	%rax
	cmpl	$100, -28(%rbp)
	jg	LBB2_4
## %bb.2:                               ##   in Loop: Header=BB2_1 Depth=1
	movl	-28(%rbp), %eax
	addl	-20(%rbp), %eax
	jmp	.Lvictim_win1_continue
## Variant 134
.Lvictim_win1_var134:
	popq	%rax
	cmpl	$100, -28(%rbp)
	jg	LBB2_4
## %bb.2:                               ##   in Loop: Header=BB2_1 Depth=1
	movl	-28(%rbp), %eax
	addl	-20(%rbp), %eax
	jmp	.Lvictim_win1_continue
## Variant 135
.Lvictim_win1_var135:
	popq	%rax
	cmpl	$100, -28(%rbp)
	jg	LBB2_4
## %bb.2:                               ##   in Loop: Header=BB2_1 Depth=1
	movl	-28(%rbp), %eax
	addl	-20(%rbp), %eax
	jmp	.Lvictim_win1_continue
## Variant 136
.Lvictim_win1_var136:
	popq	%rax
	cmpl	$100, -28(%rbp)
	jg	LBB2_4
## %bb.2:                               ##   in Loop: Header=BB2_1 Depth=1
	movl	-28(%rbp), %eax
	addl	-20(%rbp), %eax
	jmp	.Lvictim_win1_continue
## Variant 137
.Lvictim_win1_var137:
	popq	%rax
	cmpl	$100, -28(%rbp)
	jg	LBB2_4
## %bb.2:                               ##   in Loop: Header=BB2_1 Depth=1
	movl	-28(%rbp), %eax
	addl	-20(%rbp), %eax
	jmp	.Lvictim_win1_continue
## Variant 138
.Lvictim_win1_var138:
	popq	%rax
	cmpl	$100, -28(%rbp)
	jg	LBB2_4
## %bb.2:                               ##   in Loop: Header=BB2_1 Depth=1
	movl	-28(%rbp), %eax
	addl	-20(%rbp), %eax
	jmp	.Lvictim_win1_continue
## Variant 139
.Lvictim_win1_var139:
	popq	%rax
	cmpl	$100, -28(%rbp)
	jg	LBB2_4
## %bb.2:                               ##   in Loop: Header=BB2_1 Depth=1
	movl	-28(%rbp), %eax
	addl	-20(%rbp), %eax
	jmp	.Lvictim_win1_continue
## Variant 140
.Lvictim_win1_var140:
	popq	%rax
	cmpl	$100, -28(%rbp)
	jg	LBB2_4
## %bb.2:                               ##   in Loop: Header=BB2_1 Depth=1
	movl	-28(%rbp), %eax
	addl	-20(%rbp), %eax
	jmp	.Lvictim_win1_continue
## Variant 141
.Lvictim_win1_var141:
	popq	%rax
	cmpl	$100, -28(%rbp)
	jg	LBB2_4
## %bb.2:                               ##   in Loop: Header=BB2_1 Depth=1
	movl	-28(%rbp), %eax
	addl	-20(%rbp), %eax
	jmp	.Lvictim_win1_continue
## Variant 142
.Lvictim_win1_var142:
	popq	%rax
	cmpl	$100, -28(%rbp)
	jg	LBB2_4
## %bb.2:                               ##   in Loop: Header=BB2_1 Depth=1
	movl	-28(%rbp), %eax
	addl	-20(%rbp), %eax
	jmp	.Lvictim_win1_continue
## Variant 143
.Lvictim_win1_var143:
	popq	%rax
	cmpl	$100, -28(%rbp)
	jg	LBB2_4
## %bb.2:                               ##   in Loop: Header=BB2_1 Depth=1
	movl	-28(%rbp), %eax
	addl	-20(%rbp), %eax
	jmp	.Lvictim_win1_continue
## Variant 144
.Lvictim_win1_var144:
	popq	%rax
	cmpl	$100, -28(%rbp)
	jg	LBB2_4
## %bb.2:                               ##   in Loop: Header=BB2_1 Depth=1
	movl	-28(%rbp), %eax
	addl	-20(%rbp), %eax
	jmp	.Lvictim_win1_continue
## Variant 145
.Lvictim_win1_var145:
	popq	%rax
	cmpl	$100, -28(%rbp)
	jg	LBB2_4
## %bb.2:                               ##   in Loop: Header=BB2_1 Depth=1
	movl	-28(%rbp), %eax
	addl	-20(%rbp), %eax
	jmp	.Lvictim_win1_continue
## Variant 146
.Lvictim_win1_var146:
	popq	%rax
	cmpl	$100, -28(%rbp)
	jg	LBB2_4
## %bb.2:                               ##   in Loop: Header=BB2_1 Depth=1
	movl	-28(%rbp), %eax
	addl	-20(%rbp), %eax
	jmp	.Lvictim_win1_continue
## Variant 147
.Lvictim_win1_var147:
	popq	%rax
	cmpl	$100, -28(%rbp)
	jg	LBB2_4
## %bb.2:                               ##   in Loop: Header=BB2_1 Depth=1
	movl	-28(%rbp), %eax
	addl	-20(%rbp), %eax
	jmp	.Lvictim_win1_continue
## Variant 148
.Lvictim_win1_var148:
	popq	%rax
	cmpl	$100, -28(%rbp)
	jg	LBB2_4
## %bb.2:                               ##   in Loop: Header=BB2_1 Depth=1
	movl	-28(%rbp), %eax
	addl	-20(%rbp), %eax
	jmp	.Lvictim_win1_continue
## Variant 149
.Lvictim_win1_var149:
	popq	%rax
	cmpl	$100, -28(%rbp)
	jg	LBB2_4
## %bb.2:                               ##   in Loop: Header=BB2_1 Depth=1
	movl	-28(%rbp), %eax
	addl	-20(%rbp), %eax
	jmp	.Lvictim_win1_continue
## Variant 150
.Lvictim_win1_var150:
	popq	%rax
	cmpl	$100, -28(%rbp)
	jg	LBB2_4
## %bb.2:                               ##   in Loop: Header=BB2_1 Depth=1
	movl	-28(%rbp), %eax
	addl	-20(%rbp), %eax
	jmp	.Lvictim_win1_continue
## Variant 151
.Lvictim_win1_var151:
	popq	%rax
	cmpl	$100, -28(%rbp)
	jg	LBB2_4
## %bb.2:                               ##   in Loop: Header=BB2_1 Depth=1
	movl	-28(%rbp), %eax
	addl	-20(%rbp), %eax
	jmp	.Lvictim_win1_continue
## Variant 152
.Lvictim_win1_var152:
	popq	%rax
	cmpl	$100, -28(%rbp)
	jg	LBB2_4
## %bb.2:                               ##   in Loop: Header=BB2_1 Depth=1
	movl	-28(%rbp), %eax
	addl	-20(%rbp), %eax
	jmp	.Lvictim_win1_continue
## Variant 153
.Lvictim_win1_var153:
	popq	%rax
	cmpl	$100, -28(%rbp)
	jg	LBB2_4
## %bb.2:                               ##   in Loop: Header=BB2_1 Depth=1
	movl	-28(%rbp), %eax
	addl	-20(%rbp), %eax
	jmp	.Lvictim_win1_continue
## Variant 154
.Lvictim_win1_var154:
	popq	%rax
	cmpl	$100, -28(%rbp)
	jg	LBB2_4
## %bb.2:                               ##   in Loop: Header=BB2_1 Depth=1
	movl	-28(%rbp), %eax
	addl	-20(%rbp), %eax
	jmp	.Lvictim_win1_continue
## Variant 155
.Lvictim_win1_var155:
	popq	%rax
	cmpl	$100, -28(%rbp)
	jg	LBB2_4
## %bb.2:                               ##   in Loop: Header=BB2_1 Depth=1
	movl	-28(%rbp), %eax
	addl	-20(%rbp), %eax
	jmp	.Lvictim_win1_continue
## Variant 156
.Lvictim_win1_var156:
	popq	%rax
	cmpl	$100, -28(%rbp)
	jg	LBB2_4
## %bb.2:                               ##   in Loop: Header=BB2_1 Depth=1
	movl	-28(%rbp), %eax
	addl	-20(%rbp), %eax
	jmp	.Lvictim_win1_continue
## Variant 157
.Lvictim_win1_var157:
	popq	%rax
	cmpl	$100, -28(%rbp)
	jg	LBB2_4
## %bb.2:                               ##   in Loop: Header=BB2_1 Depth=1
	movl	-28(%rbp), %eax
	addl	-20(%rbp), %eax
	jmp	.Lvictim_win1_continue
## Variant 158
.Lvictim_win1_var158:
	popq	%rax
	cmpl	$100, -28(%rbp)
	jg	LBB2_4
## %bb.2:                               ##   in Loop: Header=BB2_1 Depth=1
	movl	-28(%rbp), %eax
	addl	-20(%rbp), %eax
	jmp	.Lvictim_win1_continue
## Variant 159
.Lvictim_win1_var159:
	popq	%rax
	cmpl	$100, -28(%rbp)
	jg	LBB2_4
## %bb.2:                               ##   in Loop: Header=BB2_1 Depth=1
	movl	-28(%rbp), %eax
	addl	-20(%rbp), %eax
	jmp	.Lvictim_win1_continue
## Variant 160
.Lvictim_win1_var160:
	popq	%rax
	cmpl	$100, -28(%rbp)
	jg	LBB2_4
## %bb.2:                               ##   in Loop: Header=BB2_1 Depth=1
	movl	-28(%rbp), %eax
	addl	-20(%rbp), %eax
	jmp	.Lvictim_win1_continue
## Variant 161
.Lvictim_win1_var161:
	popq	%rax
	cmpl	$100, -28(%rbp)
	jg	LBB2_4
## %bb.2:                               ##   in Loop: Header=BB2_1 Depth=1
	movl	-28(%rbp), %eax
	addl	-20(%rbp), %eax
	jmp	.Lvictim_win1_continue
## Variant 162
.Lvictim_win1_var162:
	popq	%rax
	cmpl	$100, -28(%rbp)
	jg	LBB2_4
## %bb.2:                               ##   in Loop: Header=BB2_1 Depth=1
	movl	-28(%rbp), %eax
	addl	-20(%rbp), %eax
	jmp	.Lvictim_win1_continue
## Variant 163
.Lvictim_win1_var163:
	popq	%rax
	cmpl	$100, -28(%rbp)
	jg	LBB2_4
## %bb.2:                               ##   in Loop: Header=BB2_1 Depth=1
	movl	-28(%rbp), %eax
	addl	-20(%rbp), %eax
	jmp	.Lvictim_win1_continue
## Variant 164
.Lvictim_win1_var164:
	popq	%rax
	cmpl	$100, -28(%rbp)
	jg	LBB2_4
## %bb.2:                               ##   in Loop: Header=BB2_1 Depth=1
	movl	-28(%rbp), %eax
	addl	-20(%rbp), %eax
	jmp	.Lvictim_win1_continue
## Variant 165
.Lvictim_win1_var165:
	popq	%rax
	cmpl	$100, -28(%rbp)
	jg	LBB2_4
## %bb.2:                               ##   in Loop: Header=BB2_1 Depth=1
	movl	-28(%rbp), %eax
	addl	-20(%rbp), %eax
	jmp	.Lvictim_win1_continue
## Variant 166
.Lvictim_win1_var166:
	popq	%rax
	cmpl	$100, -28(%rbp)
	jg	LBB2_4
## %bb.2:                               ##   in Loop: Header=BB2_1 Depth=1
	movl	-28(%rbp), %eax
	addl	-20(%rbp), %eax
	jmp	.Lvictim_win1_continue
## Variant 167
.Lvictim_win1_var167:
	popq	%rax
	cmpl	$100, -28(%rbp)
	jg	LBB2_4
## %bb.2:                               ##   in Loop: Header=BB2_1 Depth=1
	movl	-28(%rbp), %eax
	addl	-20(%rbp), %eax
	jmp	.Lvictim_win1_continue
## Variant 168
.Lvictim_win1_var168:
	popq	%rax
	cmpl	$100, -28(%rbp)
	jg	LBB2_4
## %bb.2:                               ##   in Loop: Header=BB2_1 Depth=1
	movl	-28(%rbp), %eax
	addl	-20(%rbp), %eax
	jmp	.Lvictim_win1_continue
## Variant 169
.Lvictim_win1_var169:
	popq	%rax
	cmpl	$100, -28(%rbp)
	jg	LBB2_4
## %bb.2:                               ##   in Loop: Header=BB2_1 Depth=1
	movl	-28(%rbp), %eax
	addl	-20(%rbp), %eax
	jmp	.Lvictim_win1_continue
## Variant 170
.Lvictim_win1_var170:
	popq	%rax
	cmpl	$100, -28(%rbp)
	jg	LBB2_4
## %bb.2:                               ##   in Loop: Header=BB2_1 Depth=1
	movl	-28(%rbp), %eax
	addl	-20(%rbp), %eax
	jmp	.Lvictim_win1_continue
## Variant 171
.Lvictim_win1_var171:
	popq	%rax
	cmpl	$100, -28(%rbp)
	jg	LBB2_4
## %bb.2:                               ##   in Loop: Header=BB2_1 Depth=1
	movl	-28(%rbp), %eax
	addl	-20(%rbp), %eax
	jmp	.Lvictim_win1_continue
## Variant 172
.Lvictim_win1_var172:
	popq	%rax
	cmpl	$100, -28(%rbp)
	jg	LBB2_4
## %bb.2:                               ##   in Loop: Header=BB2_1 Depth=1
	movl	-28(%rbp), %eax
	addl	-20(%rbp), %eax
	jmp	.Lvictim_win1_continue
## Variant 173
.Lvictim_win1_var173:
	popq	%rax
	cmpl	$100, -28(%rbp)
	jg	LBB2_4
## %bb.2:                               ##   in Loop: Header=BB2_1 Depth=1
	movl	-28(%rbp), %eax
	addl	-20(%rbp), %eax
	jmp	.Lvictim_win1_continue
## Variant 174
.Lvictim_win1_var174:
	popq	%rax
	cmpl	$100, -28(%rbp)
	jg	LBB2_4
## %bb.2:                               ##   in Loop: Header=BB2_1 Depth=1
	movl	-28(%rbp), %eax
	addl	-20(%rbp), %eax
	jmp	.Lvictim_win1_continue
## Variant 175
.Lvictim_win1_var175:
	popq	%rax
	cmpl	$100, -28(%rbp)
	jg	LBB2_4
## %bb.2:                               ##   in Loop: Header=BB2_1 Depth=1
	movl	-28(%rbp), %eax
	addl	-20(%rbp), %eax
	jmp	.Lvictim_win1_continue
## Variant 176
.Lvictim_win1_var176:
	popq	%rax
	cmpl	$100, -28(%rbp)
	jg	LBB2_4
## %bb.2:                               ##   in Loop: Header=BB2_1 Depth=1
	movl	-28(%rbp), %eax
	addl	-20(%rbp), %eax
	jmp	.Lvictim_win1_continue
## Variant 177
.Lvictim_win1_var177:
	popq	%rax
	cmpl	$100, -28(%rbp)
	jg	LBB2_4
## %bb.2:                               ##   in Loop: Header=BB2_1 Depth=1
	movl	-28(%rbp), %eax
	addl	-20(%rbp), %eax
	jmp	.Lvictim_win1_continue
## Variant 178
.Lvictim_win1_var178:
	popq	%rax
	cmpl	$100, -28(%rbp)
	jg	LBB2_4
## %bb.2:                               ##   in Loop: Header=BB2_1 Depth=1
	movl	-28(%rbp), %eax
	addl	-20(%rbp), %eax
	jmp	.Lvictim_win1_continue
## Variant 179
.Lvictim_win1_var179:
	popq	%rax
	cmpl	$100, -28(%rbp)
	jg	LBB2_4
## %bb.2:                               ##   in Loop: Header=BB2_1 Depth=1
	movl	-28(%rbp), %eax
	addl	-20(%rbp), %eax
	jmp	.Lvictim_win1_continue
## Variant 180
.Lvictim_win1_var180:
	popq	%rax
	cmpl	$100, -28(%rbp)
	jg	LBB2_4
## %bb.2:                               ##   in Loop: Header=BB2_1 Depth=1
	movl	-28(%rbp), %eax
	addl	-20(%rbp), %eax
	jmp	.Lvictim_win1_continue
## Variant 181
.Lvictim_win1_var181:
	popq	%rax
	cmpl	$100, -28(%rbp)
	jg	LBB2_4
## %bb.2:                               ##   in Loop: Header=BB2_1 Depth=1
	movl	-28(%rbp), %eax
	addl	-20(%rbp), %eax
	jmp	.Lvictim_win1_continue
## Variant 182
.Lvictim_win1_var182:
	popq	%rax
	cmpl	$100, -28(%rbp)
	jg	LBB2_4
## %bb.2:                               ##   in Loop: Header=BB2_1 Depth=1
	movl	-28(%rbp), %eax
	addl	-20(%rbp), %eax
	jmp	.Lvictim_win1_continue
## Variant 183
.Lvictim_win1_var183:
	popq	%rax
	cmpl	$100, -28(%rbp)
	jg	LBB2_4
## %bb.2:                               ##   in Loop: Header=BB2_1 Depth=1
	movl	-28(%rbp), %eax
	addl	-20(%rbp), %eax
	jmp	.Lvictim_win1_continue
## Variant 184
.Lvictim_win1_var184:
	popq	%rax
	cmpl	$100, -28(%rbp)
	jg	LBB2_4
## %bb.2:                               ##   in Loop: Header=BB2_1 Depth=1
	movl	-28(%rbp), %eax
	addl	-20(%rbp), %eax
	jmp	.Lvictim_win1_continue
## Variant 185
.Lvictim_win1_var185:
	popq	%rax
	cmpl	$100, -28(%rbp)
	jg	LBB2_4
## %bb.2:                               ##   in Loop: Header=BB2_1 Depth=1
	movl	-28(%rbp), %eax
	addl	-20(%rbp), %eax
	jmp	.Lvictim_win1_continue
## Variant 186
.Lvictim_win1_var186:
	popq	%rax
	cmpl	$100, -28(%rbp)
	jg	LBB2_4
## %bb.2:                               ##   in Loop: Header=BB2_1 Depth=1
	movl	-28(%rbp), %eax
	addl	-20(%rbp), %eax
	jmp	.Lvictim_win1_continue
## Variant 187
.Lvictim_win1_var187:
	popq	%rax
	cmpl	$100, -28(%rbp)
	jg	LBB2_4
## %bb.2:                               ##   in Loop: Header=BB2_1 Depth=1
	movl	-28(%rbp), %eax
	addl	-20(%rbp), %eax
	jmp	.Lvictim_win1_continue
## Variant 188
.Lvictim_win1_var188:
	popq	%rax
	cmpl	$100, -28(%rbp)
	jg	LBB2_4
## %bb.2:                               ##   in Loop: Header=BB2_1 Depth=1
	movl	-28(%rbp), %eax
	addl	-20(%rbp), %eax
	jmp	.Lvictim_win1_continue
## Variant 189
.Lvictim_win1_var189:
	popq	%rax
	cmpl	$100, -28(%rbp)
	jg	LBB2_4
## %bb.2:                               ##   in Loop: Header=BB2_1 Depth=1
	movl	-28(%rbp), %eax
	addl	-20(%rbp), %eax
	jmp	.Lvictim_win1_continue
## Variant 190
.Lvictim_win1_var190:
	popq	%rax
	cmpl	$100, -28(%rbp)
	jg	LBB2_4
## %bb.2:                               ##   in Loop: Header=BB2_1 Depth=1
	movl	-28(%rbp), %eax
	addl	-20(%rbp), %eax
	jmp	.Lvictim_win1_continue
## Variant 191
.Lvictim_win1_var191:
	popq	%rax
	cmpl	$100, -28(%rbp)
	jg	LBB2_4
## %bb.2:                               ##   in Loop: Header=BB2_1 Depth=1
	movl	-28(%rbp), %eax
	addl	-20(%rbp), %eax
	jmp	.Lvictim_win1_continue
## Variant 192
.Lvictim_win1_var192:
	popq	%rax
	cmpl	$100, -28(%rbp)
	jg	LBB2_4
## %bb.2:                               ##   in Loop: Header=BB2_1 Depth=1
	movl	-28(%rbp), %eax
	addl	-20(%rbp), %eax
	jmp	.Lvictim_win1_continue
## Variant 193
.Lvictim_win1_var193:
	popq	%rax
	cmpl	$100, -28(%rbp)
	jg	LBB2_4
## %bb.2:                               ##   in Loop: Header=BB2_1 Depth=1
	movl	-28(%rbp), %eax
	addl	-20(%rbp), %eax
	jmp	.Lvictim_win1_continue
## Variant 194
.Lvictim_win1_var194:
	popq	%rax
	cmpl	$100, -28(%rbp)
	jg	LBB2_4
## %bb.2:                               ##   in Loop: Header=BB2_1 Depth=1
	movl	-28(%rbp), %eax
	addl	-20(%rbp), %eax
	jmp	.Lvictim_win1_continue
## Variant 195
.Lvictim_win1_var195:
	popq	%rax
	cmpl	$100, -28(%rbp)
	jg	LBB2_4
## %bb.2:                               ##   in Loop: Header=BB2_1 Depth=1
	movl	-28(%rbp), %eax
	addl	-20(%rbp), %eax
	jmp	.Lvictim_win1_continue
## Variant 196
.Lvictim_win1_var196:
	popq	%rax
	cmpl	$100, -28(%rbp)
	jg	LBB2_4
## %bb.2:                               ##   in Loop: Header=BB2_1 Depth=1
	movl	-28(%rbp), %eax
	addl	-20(%rbp), %eax
	jmp	.Lvictim_win1_continue
## Variant 197
.Lvictim_win1_var197:
	popq	%rax
	cmpl	$100, -28(%rbp)
	jg	LBB2_4
## %bb.2:                               ##   in Loop: Header=BB2_1 Depth=1
	movl	-28(%rbp), %eax
	addl	-20(%rbp), %eax
	jmp	.Lvictim_win1_continue
## Variant 198
.Lvictim_win1_var198:
	popq	%rax
	cmpl	$100, -28(%rbp)
	jg	LBB2_4
## %bb.2:                               ##   in Loop: Header=BB2_1 Depth=1
	movl	-28(%rbp), %eax
	addl	-20(%rbp), %eax
	jmp	.Lvictim_win1_continue
## Variant 199
.Lvictim_win1_var199:
	popq	%rax
	cmpl	$100, -28(%rbp)
	jg	LBB2_4
## %bb.2:                               ##   in Loop: Header=BB2_1 Depth=1
	movl	-28(%rbp), %eax
	addl	-20(%rbp), %eax
	jmp	.Lvictim_win1_continue
## Variant 200
.Lvictim_win1_var200:
	popq	%rax
	cmpl	$100, -28(%rbp)
	jg	LBB2_4
## %bb.2:                               ##   in Loop: Header=BB2_1 Depth=1
	movl	-28(%rbp), %eax
	addl	-20(%rbp), %eax
	jmp	.Lvictim_win1_continue
## Variant 201
.Lvictim_win1_var201:
	popq	%rax
	cmpl	$100, -28(%rbp)
	jg	LBB2_4
## %bb.2:                               ##   in Loop: Header=BB2_1 Depth=1
	movl	-28(%rbp), %eax
	addl	-20(%rbp), %eax
	jmp	.Lvictim_win1_continue
## Variant 202
.Lvictim_win1_var202:
	popq	%rax
	cmpl	$100, -28(%rbp)
	jg	LBB2_4
## %bb.2:                               ##   in Loop: Header=BB2_1 Depth=1
	movl	-28(%rbp), %eax
	addl	-20(%rbp), %eax
	jmp	.Lvictim_win1_continue
## Variant 203
.Lvictim_win1_var203:
	popq	%rax
	cmpl	$100, -28(%rbp)
	jg	LBB2_4
## %bb.2:                               ##   in Loop: Header=BB2_1 Depth=1
	movl	-28(%rbp), %eax
	addl	-20(%rbp), %eax
	jmp	.Lvictim_win1_continue
## Variant 204
.Lvictim_win1_var204:
	popq	%rax
	cmpl	$100, -28(%rbp)
	jg	LBB2_4
## %bb.2:                               ##   in Loop: Header=BB2_1 Depth=1
	movl	-28(%rbp), %eax
	addl	-20(%rbp), %eax
	jmp	.Lvictim_win1_continue
## Variant 205
.Lvictim_win1_var205:
	popq	%rax
	cmpl	$100, -28(%rbp)
	jg	LBB2_4
## %bb.2:                               ##   in Loop: Header=BB2_1 Depth=1
	movl	-28(%rbp), %eax
	addl	-20(%rbp), %eax
	jmp	.Lvictim_win1_continue
## Variant 206
.Lvictim_win1_var206:
	popq	%rax
	cmpl	$100, -28(%rbp)
	jg	LBB2_4
## %bb.2:                               ##   in Loop: Header=BB2_1 Depth=1
	movl	-28(%rbp), %eax
	addl	-20(%rbp), %eax
	jmp	.Lvictim_win1_continue
## Variant 207
.Lvictim_win1_var207:
	popq	%rax
	cmpl	$100, -28(%rbp)
	jg	LBB2_4
## %bb.2:                               ##   in Loop: Header=BB2_1 Depth=1
	movl	-28(%rbp), %eax
	addl	-20(%rbp), %eax
	jmp	.Lvictim_win1_continue
## Variant 208
.Lvictim_win1_var208:
	popq	%rax
	cmpl	$100, -28(%rbp)
	jg	LBB2_4
## %bb.2:                               ##   in Loop: Header=BB2_1 Depth=1
	movl	-28(%rbp), %eax
	addl	-20(%rbp), %eax
	jmp	.Lvictim_win1_continue
## Variant 209
.Lvictim_win1_var209:
	popq	%rax
	cmpl	$100, -28(%rbp)
	jg	LBB2_4
## %bb.2:                               ##   in Loop: Header=BB2_1 Depth=1
	movl	-28(%rbp), %eax
	addl	-20(%rbp), %eax
	jmp	.Lvictim_win1_continue
## Variant 210
.Lvictim_win1_var210:
	popq	%rax
	cmpl	$100, -28(%rbp)
	jg	LBB2_4
## %bb.2:                               ##   in Loop: Header=BB2_1 Depth=1
	movl	-28(%rbp), %eax
	addl	-20(%rbp), %eax
	jmp	.Lvictim_win1_continue
## Variant 211
.Lvictim_win1_var211:
	popq	%rax
	cmpl	$100, -28(%rbp)
	jg	LBB2_4
## %bb.2:                               ##   in Loop: Header=BB2_1 Depth=1
	movl	-28(%rbp), %eax
	addl	-20(%rbp), %eax
	jmp	.Lvictim_win1_continue
## Variant 212
.Lvictim_win1_var212:
	popq	%rax
	cmpl	$100, -28(%rbp)
	jg	LBB2_4
## %bb.2:                               ##   in Loop: Header=BB2_1 Depth=1
	movl	-28(%rbp), %eax
	addl	-20(%rbp), %eax
	jmp	.Lvictim_win1_continue
## Variant 213
.Lvictim_win1_var213:
	popq	%rax
	cmpl	$100, -28(%rbp)
	jg	LBB2_4
## %bb.2:                               ##   in Loop: Header=BB2_1 Depth=1
	movl	-28(%rbp), %eax
	addl	-20(%rbp), %eax
	jmp	.Lvictim_win1_continue
## Variant 214
.Lvictim_win1_var214:
	popq	%rax
	cmpl	$100, -28(%rbp)
	jg	LBB2_4
## %bb.2:                               ##   in Loop: Header=BB2_1 Depth=1
	movl	-28(%rbp), %eax
	addl	-20(%rbp), %eax
	jmp	.Lvictim_win1_continue
## Variant 215
.Lvictim_win1_var215:
	popq	%rax
	cmpl	$100, -28(%rbp)
	jg	LBB2_4
## %bb.2:                               ##   in Loop: Header=BB2_1 Depth=1
	movl	-28(%rbp), %eax
	addl	-20(%rbp), %eax
	jmp	.Lvictim_win1_continue
## Variant 216
.Lvictim_win1_var216:
	popq	%rax
	cmpl	$100, -28(%rbp)
	jg	LBB2_4
## %bb.2:                               ##   in Loop: Header=BB2_1 Depth=1
	movl	-28(%rbp), %eax
	addl	-20(%rbp), %eax
	jmp	.Lvictim_win1_continue
## Variant 217
.Lvictim_win1_var217:
	popq	%rax
	cmpl	$100, -28(%rbp)
	jg	LBB2_4
## %bb.2:                               ##   in Loop: Header=BB2_1 Depth=1
	movl	-28(%rbp), %eax
	addl	-20(%rbp), %eax
	jmp	.Lvictim_win1_continue
## Variant 218
.Lvictim_win1_var218:
	popq	%rax
	cmpl	$100, -28(%rbp)
	jg	LBB2_4
## %bb.2:                               ##   in Loop: Header=BB2_1 Depth=1
	movl	-28(%rbp), %eax
	addl	-20(%rbp), %eax
	jmp	.Lvictim_win1_continue
## Variant 219
.Lvictim_win1_var219:
	popq	%rax
	cmpl	$100, -28(%rbp)
	jg	LBB2_4
## %bb.2:                               ##   in Loop: Header=BB2_1 Depth=1
	movl	-28(%rbp), %eax
	addl	-20(%rbp), %eax
	jmp	.Lvictim_win1_continue
## Variant 220
.Lvictim_win1_var220:
	popq	%rax
	cmpl	$100, -28(%rbp)
	jg	LBB2_4
## %bb.2:                               ##   in Loop: Header=BB2_1 Depth=1
	movl	-28(%rbp), %eax
	addl	-20(%rbp), %eax
	jmp	.Lvictim_win1_continue
## Variant 221
.Lvictim_win1_var221:
	popq	%rax
	cmpl	$100, -28(%rbp)
	jg	LBB2_4
## %bb.2:                               ##   in Loop: Header=BB2_1 Depth=1
	movl	-28(%rbp), %eax
	addl	-20(%rbp), %eax
	jmp	.Lvictim_win1_continue
## Variant 222
.Lvictim_win1_var222:
	popq	%rax
	cmpl	$100, -28(%rbp)
	jg	LBB2_4
## %bb.2:                               ##   in Loop: Header=BB2_1 Depth=1
	movl	-28(%rbp), %eax
	addl	-20(%rbp), %eax
	jmp	.Lvictim_win1_continue
## Variant 223
.Lvictim_win1_var223:
	popq	%rax
	cmpl	$100, -28(%rbp)
	jg	LBB2_4
## %bb.2:                               ##   in Loop: Header=BB2_1 Depth=1
	movl	-28(%rbp), %eax
	addl	-20(%rbp), %eax
	jmp	.Lvictim_win1_continue
## Variant 224
.Lvictim_win1_var224:
	popq	%rax
	cmpl	$100, -28(%rbp)
	jg	LBB2_4
## %bb.2:                               ##   in Loop: Header=BB2_1 Depth=1
	movl	-28(%rbp), %eax
	addl	-20(%rbp), %eax
	jmp	.Lvictim_win1_continue
## Variant 225
.Lvictim_win1_var225:
	popq	%rax
	cmpl	$100, -28(%rbp)
	jg	LBB2_4
## %bb.2:                               ##   in Loop: Header=BB2_1 Depth=1
	movl	-28(%rbp), %eax
	addl	-20(%rbp), %eax
	jmp	.Lvictim_win1_continue
## Variant 226
.Lvictim_win1_var226:
	popq	%rax
	cmpl	$100, -28(%rbp)
	jg	LBB2_4
## %bb.2:                               ##   in Loop: Header=BB2_1 Depth=1
	movl	-28(%rbp), %eax
	addl	-20(%rbp), %eax
	jmp	.Lvictim_win1_continue
## Variant 227
.Lvictim_win1_var227:
	popq	%rax
	cmpl	$100, -28(%rbp)
	jg	LBB2_4
## %bb.2:                               ##   in Loop: Header=BB2_1 Depth=1
	movl	-28(%rbp), %eax
	addl	-20(%rbp), %eax
	jmp	.Lvictim_win1_continue
## Variant 228
.Lvictim_win1_var228:
	popq	%rax
	cmpl	$100, -28(%rbp)
	jg	LBB2_4
## %bb.2:                               ##   in Loop: Header=BB2_1 Depth=1
	movl	-28(%rbp), %eax
	addl	-20(%rbp), %eax
	jmp	.Lvictim_win1_continue
## Variant 229
.Lvictim_win1_var229:
	popq	%rax
	cmpl	$100, -28(%rbp)
	jg	LBB2_4
## %bb.2:                               ##   in Loop: Header=BB2_1 Depth=1
	movl	-28(%rbp), %eax
	addl	-20(%rbp), %eax
	jmp	.Lvictim_win1_continue
## Variant 230
.Lvictim_win1_var230:
	popq	%rax
	cmpl	$100, -28(%rbp)
	jg	LBB2_4
## %bb.2:                               ##   in Loop: Header=BB2_1 Depth=1
	movl	-28(%rbp), %eax
	addl	-20(%rbp), %eax
	jmp	.Lvictim_win1_continue
## Variant 231
.Lvictim_win1_var231:
	popq	%rax
	cmpl	$100, -28(%rbp)
	jg	LBB2_4
## %bb.2:                               ##   in Loop: Header=BB2_1 Depth=1
	movl	-28(%rbp), %eax
	addl	-20(%rbp), %eax
	jmp	.Lvictim_win1_continue
## Variant 232
.Lvictim_win1_var232:
	popq	%rax
	cmpl	$100, -28(%rbp)
	jg	LBB2_4
## %bb.2:                               ##   in Loop: Header=BB2_1 Depth=1
	movl	-28(%rbp), %eax
	addl	-20(%rbp), %eax
	jmp	.Lvictim_win1_continue
## Variant 233
.Lvictim_win1_var233:
	popq	%rax
	cmpl	$100, -28(%rbp)
	jg	LBB2_4
## %bb.2:                               ##   in Loop: Header=BB2_1 Depth=1
	movl	-28(%rbp), %eax
	addl	-20(%rbp), %eax
	jmp	.Lvictim_win1_continue
## Variant 234
.Lvictim_win1_var234:
	popq	%rax
	cmpl	$100, -28(%rbp)
	jg	LBB2_4
## %bb.2:                               ##   in Loop: Header=BB2_1 Depth=1
	movl	-28(%rbp), %eax
	addl	-20(%rbp), %eax
	jmp	.Lvictim_win1_continue
## Variant 235
.Lvictim_win1_var235:
	popq	%rax
	cmpl	$100, -28(%rbp)
	jg	LBB2_4
## %bb.2:                               ##   in Loop: Header=BB2_1 Depth=1
	movl	-28(%rbp), %eax
	addl	-20(%rbp), %eax
	jmp	.Lvictim_win1_continue
## Variant 236
.Lvictim_win1_var236:
	popq	%rax
	cmpl	$100, -28(%rbp)
	jg	LBB2_4
## %bb.2:                               ##   in Loop: Header=BB2_1 Depth=1
	movl	-28(%rbp), %eax
	addl	-20(%rbp), %eax
	jmp	.Lvictim_win1_continue
## Variant 237
.Lvictim_win1_var237:
	popq	%rax
	cmpl	$100, -28(%rbp)
	jg	LBB2_4
## %bb.2:                               ##   in Loop: Header=BB2_1 Depth=1
	movl	-28(%rbp), %eax
	addl	-20(%rbp), %eax
	jmp	.Lvictim_win1_continue
## Variant 238
.Lvictim_win1_var238:
	popq	%rax
	cmpl	$100, -28(%rbp)
	jg	LBB2_4
## %bb.2:                               ##   in Loop: Header=BB2_1 Depth=1
	movl	-28(%rbp), %eax
	addl	-20(%rbp), %eax
	jmp	.Lvictim_win1_continue
## Variant 239
.Lvictim_win1_var239:
	popq	%rax
	cmpl	$100, -28(%rbp)
	jg	LBB2_4
## %bb.2:                               ##   in Loop: Header=BB2_1 Depth=1
	movl	-28(%rbp), %eax
	addl	-20(%rbp), %eax
	jmp	.Lvictim_win1_continue
## Variant 240
.Lvictim_win1_var240:
	popq	%rax
	cmpl	$100, -28(%rbp)
	jg	LBB2_4
## %bb.2:                               ##   in Loop: Header=BB2_1 Depth=1
	movl	-28(%rbp), %eax
	addl	-20(%rbp), %eax
	jmp	.Lvictim_win1_continue
## Variant 241
.Lvictim_win1_var241:
	popq	%rax
	cmpl	$100, -28(%rbp)
	jg	LBB2_4
## %bb.2:                               ##   in Loop: Header=BB2_1 Depth=1
	movl	-28(%rbp), %eax
	addl	-20(%rbp), %eax
	jmp	.Lvictim_win1_continue
## Variant 242
.Lvictim_win1_var242:
	popq	%rax
	cmpl	$100, -28(%rbp)
	jg	LBB2_4
## %bb.2:                               ##   in Loop: Header=BB2_1 Depth=1
	movl	-28(%rbp), %eax
	addl	-20(%rbp), %eax
	jmp	.Lvictim_win1_continue
## Variant 243
.Lvictim_win1_var243:
	popq	%rax
	cmpl	$100, -28(%rbp)
	jg	LBB2_4
## %bb.2:                               ##   in Loop: Header=BB2_1 Depth=1
	movl	-28(%rbp), %eax
	addl	-20(%rbp), %eax
	jmp	.Lvictim_win1_continue
## Variant 244
.Lvictim_win1_var244:
	popq	%rax
	cmpl	$100, -28(%rbp)
	jg	LBB2_4
## %bb.2:                               ##   in Loop: Header=BB2_1 Depth=1
	movl	-28(%rbp), %eax
	addl	-20(%rbp), %eax
	jmp	.Lvictim_win1_continue
## Variant 245
.Lvictim_win1_var245:
	popq	%rax
	cmpl	$100, -28(%rbp)
	jg	LBB2_4
## %bb.2:                               ##   in Loop: Header=BB2_1 Depth=1
	movl	-28(%rbp), %eax
	addl	-20(%rbp), %eax
	jmp	.Lvictim_win1_continue
## Variant 246
.Lvictim_win1_var246:
	popq	%rax
	cmpl	$100, -28(%rbp)
	jg	LBB2_4
## %bb.2:                               ##   in Loop: Header=BB2_1 Depth=1
	movl	-28(%rbp), %eax
	addl	-20(%rbp), %eax
	jmp	.Lvictim_win1_continue
## Variant 247
.Lvictim_win1_var247:
	popq	%rax
	cmpl	$100, -28(%rbp)
	jg	LBB2_4
## %bb.2:                               ##   in Loop: Header=BB2_1 Depth=1
	movl	-28(%rbp), %eax
	addl	-20(%rbp), %eax
	jmp	.Lvictim_win1_continue
## Variant 248
.Lvictim_win1_var248:
	popq	%rax
	cmpl	$100, -28(%rbp)
	jg	LBB2_4
## %bb.2:                               ##   in Loop: Header=BB2_1 Depth=1
	movl	-28(%rbp), %eax
	addl	-20(%rbp), %eax
	jmp	.Lvictim_win1_continue
## Variant 249
.Lvictim_win1_var249:
	popq	%rax
	cmpl	$100, -28(%rbp)
	jg	LBB2_4
## %bb.2:                               ##   in Loop: Header=BB2_1 Depth=1
	movl	-28(%rbp), %eax
	addl	-20(%rbp), %eax
	jmp	.Lvictim_win1_continue
## Variant 250
.Lvictim_win1_var250:
	popq	%rax
	cmpl	$100, -28(%rbp)
	jg	LBB2_4
## %bb.2:                               ##   in Loop: Header=BB2_1 Depth=1
	movl	-28(%rbp), %eax
	addl	-20(%rbp), %eax
	jmp	.Lvictim_win1_continue
## Variant 251
.Lvictim_win1_var251:
	popq	%rax
	cmpl	$100, -28(%rbp)
	jg	LBB2_4
## %bb.2:                               ##   in Loop: Header=BB2_1 Depth=1
	movl	-28(%rbp), %eax
	addl	-20(%rbp), %eax
	jmp	.Lvictim_win1_continue
## Variant 252
.Lvictim_win1_var252:
	popq	%rax
	cmpl	$100, -28(%rbp)
	jg	LBB2_4
## %bb.2:                               ##   in Loop: Header=BB2_1 Depth=1
	movl	-28(%rbp), %eax
	addl	-20(%rbp), %eax
	jmp	.Lvictim_win1_continue
## Variant 253
.Lvictim_win1_var253:
	popq	%rax
	cmpl	$100, -28(%rbp)
	jg	LBB2_4
## %bb.2:                               ##   in Loop: Header=BB2_1 Depth=1
	movl	-28(%rbp), %eax
	addl	-20(%rbp), %eax
	jmp	.Lvictim_win1_continue
## Variant 254
.Lvictim_win1_var254:
	popq	%rax
	cmpl	$100, -28(%rbp)
	jg	LBB2_4
## %bb.2:                               ##   in Loop: Header=BB2_1 Depth=1
	movl	-28(%rbp), %eax
	addl	-20(%rbp), %eax
	jmp	.Lvictim_win1_continue
## Variant 255
.Lvictim_win1_var255:
	popq	%rax
	cmpl	$100, -28(%rbp)
	jg	LBB2_4
## %bb.2:                               ##   in Loop: Header=BB2_1 Depth=1
	movl	-28(%rbp), %eax
	addl	-20(%rbp), %eax
	jmp	.Lvictim_win1_continue
## Variant 256
.Lvictim_win1_var256:
	popq	%rax
	cmpl	$100, -28(%rbp)
	jg	LBB2_4
## %bb.2:                               ##   in Loop: Header=BB2_1 Depth=1
	movl	-28(%rbp), %eax
	addl	-20(%rbp), %eax
	jmp	.Lvictim_win1_continue
## Variant 257
.Lvictim_win1_var257:
	popq	%rax
	cmpl	$100, -28(%rbp)
	jg	LBB2_4
## %bb.2:                               ##   in Loop: Header=BB2_1 Depth=1
	movl	-28(%rbp), %eax
	addl	-20(%rbp), %eax
	jmp	.Lvictim_win1_continue
## Variant 258
.Lvictim_win1_var258:
	popq	%rax
	cmpl	$100, -28(%rbp)
	jg	LBB2_4
## %bb.2:                               ##   in Loop: Header=BB2_1 Depth=1
	movl	-28(%rbp), %eax
	addl	-20(%rbp), %eax
	jmp	.Lvictim_win1_continue
## Variant 259
.Lvictim_win1_var259:
	popq	%rax
	cmpl	$100, -28(%rbp)
	jg	LBB2_4
## %bb.2:                               ##   in Loop: Header=BB2_1 Depth=1
	movl	-28(%rbp), %eax
	addl	-20(%rbp), %eax
	jmp	.Lvictim_win1_continue
## Variant 260
.Lvictim_win1_var260:
	popq	%rax
	cmpl	$100, -28(%rbp)
	jg	LBB2_4
## %bb.2:                               ##   in Loop: Header=BB2_1 Depth=1
	movl	-28(%rbp), %eax
	addl	-20(%rbp), %eax
	jmp	.Lvictim_win1_continue
## Variant 261
.Lvictim_win1_var261:
	popq	%rax
	cmpl	$100, -28(%rbp)
	jg	LBB2_4
## %bb.2:                               ##   in Loop: Header=BB2_1 Depth=1
	movl	-28(%rbp), %eax
	addl	-20(%rbp), %eax
	jmp	.Lvictim_win1_continue
## Variant 262
.Lvictim_win1_var262:
	popq	%rax
	cmpl	$100, -28(%rbp)
	jg	LBB2_4
## %bb.2:                               ##   in Loop: Header=BB2_1 Depth=1
	movl	-28(%rbp), %eax
	addl	-20(%rbp), %eax
	jmp	.Lvictim_win1_continue
## Variant 263
.Lvictim_win1_var263:
	popq	%rax
	cmpl	$100, -28(%rbp)
	jg	LBB2_4
## %bb.2:                               ##   in Loop: Header=BB2_1 Depth=1
	movl	-28(%rbp), %eax
	addl	-20(%rbp), %eax
	jmp	.Lvictim_win1_continue
## Variant 264
.Lvictim_win1_var264:
	popq	%rax
	cmpl	$100, -28(%rbp)
	jg	LBB2_4
## %bb.2:                               ##   in Loop: Header=BB2_1 Depth=1
	movl	-28(%rbp), %eax
	addl	-20(%rbp), %eax
	jmp	.Lvictim_win1_continue
## Variant 265
.Lvictim_win1_var265:
	popq	%rax
	cmpl	$100, -28(%rbp)
	jg	LBB2_4
## %bb.2:                               ##   in Loop: Header=BB2_1 Depth=1
	movl	-28(%rbp), %eax
	addl	-20(%rbp), %eax
	jmp	.Lvictim_win1_continue
## Variant 266
.Lvictim_win1_var266:
	popq	%rax
	cmpl	$100, -28(%rbp)
	jg	LBB2_4
## %bb.2:                               ##   in Loop: Header=BB2_1 Depth=1
	movl	-28(%rbp), %eax
	addl	-20(%rbp), %eax
	jmp	.Lvictim_win1_continue
## Variant 267
.Lvictim_win1_var267:
	popq	%rax
	cmpl	$100, -28(%rbp)
	jg	LBB2_4
## %bb.2:                               ##   in Loop: Header=BB2_1 Depth=1
	movl	-28(%rbp), %eax
	addl	-20(%rbp), %eax
	jmp	.Lvictim_win1_continue
## Variant 268
.Lvictim_win1_var268:
	popq	%rax
	cmpl	$100, -28(%rbp)
	jg	LBB2_4
## %bb.2:                               ##   in Loop: Header=BB2_1 Depth=1
	movl	-28(%rbp), %eax
	addl	-20(%rbp), %eax
	jmp	.Lvictim_win1_continue
## Variant 269
.Lvictim_win1_var269:
	popq	%rax
	cmpl	$100, -28(%rbp)
	jg	LBB2_4
## %bb.2:                               ##   in Loop: Header=BB2_1 Depth=1
	movl	-28(%rbp), %eax
	addl	-20(%rbp), %eax
	jmp	.Lvictim_win1_continue
## Variant 270
.Lvictim_win1_var270:
	popq	%rax
	cmpl	$100, -28(%rbp)
	jg	LBB2_4
## %bb.2:                               ##   in Loop: Header=BB2_1 Depth=1
	movl	-28(%rbp), %eax
	addl	-20(%rbp), %eax
	jmp	.Lvictim_win1_continue
## Variant 271
.Lvictim_win1_var271:
	popq	%rax
	cmpl	$100, -28(%rbp)
	jg	LBB2_4
## %bb.2:                               ##   in Loop: Header=BB2_1 Depth=1
	movl	-28(%rbp), %eax
	addl	-20(%rbp), %eax
	jmp	.Lvictim_win1_continue
## Variant 272
.Lvictim_win1_var272:
	popq	%rax
	cmpl	$100, -28(%rbp)
	jg	LBB2_4
## %bb.2:                               ##   in Loop: Header=BB2_1 Depth=1
	movl	-28(%rbp), %eax
	addl	-20(%rbp), %eax
	jmp	.Lvictim_win1_continue
## Variant 273
.Lvictim_win1_var273:
	popq	%rax
	cmpl	$100, -28(%rbp)
	jg	LBB2_4
## %bb.2:                               ##   in Loop: Header=BB2_1 Depth=1
	movl	-28(%rbp), %eax
	addl	-20(%rbp), %eax
	jmp	.Lvictim_win1_continue
## Variant 274
.Lvictim_win1_var274:
	popq	%rax
	cmpl	$100, -28(%rbp)
	jg	LBB2_4
## %bb.2:                               ##   in Loop: Header=BB2_1 Depth=1
	movl	-28(%rbp), %eax
	addl	-20(%rbp), %eax
	jmp	.Lvictim_win1_continue
## Variant 275
.Lvictim_win1_var275:
	popq	%rax
	cmpl	$100, -28(%rbp)
	jg	LBB2_4
## %bb.2:                               ##   in Loop: Header=BB2_1 Depth=1
	movl	-28(%rbp), %eax
	addl	-20(%rbp), %eax
	jmp	.Lvictim_win1_continue
## Variant 276
.Lvictim_win1_var276:
	popq	%rax
	cmpl	$100, -28(%rbp)
	jg	LBB2_4
## %bb.2:                               ##   in Loop: Header=BB2_1 Depth=1
	movl	-28(%rbp), %eax
	addl	-20(%rbp), %eax
	jmp	.Lvictim_win1_continue
## Variant 277
.Lvictim_win1_var277:
	popq	%rax
	cmpl	$100, -28(%rbp)
	jg	LBB2_4
## %bb.2:                               ##   in Loop: Header=BB2_1 Depth=1
	movl	-28(%rbp), %eax
	addl	-20(%rbp), %eax
	jmp	.Lvictim_win1_continue
## Variant 278
.Lvictim_win1_var278:
	popq	%rax
	cmpl	$100, -28(%rbp)
	jg	LBB2_4
## %bb.2:                               ##   in Loop: Header=BB2_1 Depth=1
	movl	-28(%rbp), %eax
	addl	-20(%rbp), %eax
	jmp	.Lvictim_win1_continue
## Variant 279
.Lvictim_win1_var279:
	popq	%rax
	cmpl	$100, -28(%rbp)
	jg	LBB2_4
## %bb.2:                               ##   in Loop: Header=BB2_1 Depth=1
	movl	-28(%rbp), %eax
	addl	-20(%rbp), %eax
	jmp	.Lvictim_win1_continue
## Variant 280
.Lvictim_win1_var280:
	popq	%rax
	cmpl	$100, -28(%rbp)
	jg	LBB2_4
## %bb.2:                               ##   in Loop: Header=BB2_1 Depth=1
	movl	-28(%rbp), %eax
	addl	-20(%rbp), %eax
	jmp	.Lvictim_win1_continue
## Variant 281
.Lvictim_win1_var281:
	popq	%rax
	cmpl	$100, -28(%rbp)
	jg	LBB2_4
## %bb.2:                               ##   in Loop: Header=BB2_1 Depth=1
	movl	-28(%rbp), %eax
	addl	-20(%rbp), %eax
	jmp	.Lvictim_win1_continue
## Variant 282
.Lvictim_win1_var282:
	popq	%rax
	cmpl	$100, -28(%rbp)
	jg	LBB2_4
## %bb.2:                               ##   in Loop: Header=BB2_1 Depth=1
	movl	-28(%rbp), %eax
	addl	-20(%rbp), %eax
	jmp	.Lvictim_win1_continue
## Variant 283
.Lvictim_win1_var283:
	popq	%rax
	cmpl	$100, -28(%rbp)
	jg	LBB2_4
## %bb.2:                               ##   in Loop: Header=BB2_1 Depth=1
	movl	-28(%rbp), %eax
	addl	-20(%rbp), %eax
	jmp	.Lvictim_win1_continue
## Variant 284
.Lvictim_win1_var284:
	popq	%rax
	cmpl	$100, -28(%rbp)
	jg	LBB2_4
## %bb.2:                               ##   in Loop: Header=BB2_1 Depth=1
	movl	-28(%rbp), %eax
	addl	-20(%rbp), %eax
	jmp	.Lvictim_win1_continue
## Variant 285
.Lvictim_win1_var285:
	popq	%rax
	cmpl	$100, -28(%rbp)
	jg	LBB2_4
## %bb.2:                               ##   in Loop: Header=BB2_1 Depth=1
	movl	-28(%rbp), %eax
	addl	-20(%rbp), %eax
	jmp	.Lvictim_win1_continue
## Variant 286
.Lvictim_win1_var286:
	popq	%rax
	cmpl	$100, -28(%rbp)
	jg	LBB2_4
## %bb.2:                               ##   in Loop: Header=BB2_1 Depth=1
	movl	-28(%rbp), %eax
	addl	-20(%rbp), %eax
	jmp	.Lvictim_win1_continue
## Variant 287
.Lvictim_win1_var287:
	popq	%rax
	cmpl	$100, -28(%rbp)
	jg	LBB2_4
## %bb.2:                               ##   in Loop: Header=BB2_1 Depth=1
	movl	-28(%rbp), %eax
	addl	-20(%rbp), %eax
	jmp	.Lvictim_win1_continue
## Variant 288
.Lvictim_win1_var288:
	popq	%rax
	cmpl	$100, -28(%rbp)
	jg	LBB2_4
## %bb.2:                               ##   in Loop: Header=BB2_1 Depth=1
	movl	-28(%rbp), %eax
	addl	-20(%rbp), %eax
	jmp	.Lvictim_win1_continue
## Variant 289
.Lvictim_win1_var289:
	popq	%rax
	cmpl	$100, -28(%rbp)
	jg	LBB2_4
## %bb.2:                               ##   in Loop: Header=BB2_1 Depth=1
	movl	-28(%rbp), %eax
	addl	-20(%rbp), %eax
	jmp	.Lvictim_win1_continue
## Variant 290
.Lvictim_win1_var290:
	popq	%rax
	cmpl	$100, -28(%rbp)
	jg	LBB2_4
## %bb.2:                               ##   in Loop: Header=BB2_1 Depth=1
	movl	-28(%rbp), %eax
	addl	-20(%rbp), %eax
	jmp	.Lvictim_win1_continue
## Variant 291
.Lvictim_win1_var291:
	popq	%rax
	cmpl	$100, -28(%rbp)
	jg	LBB2_4
## %bb.2:                               ##   in Loop: Header=BB2_1 Depth=1
	movl	-28(%rbp), %eax
	addl	-20(%rbp), %eax
	jmp	.Lvictim_win1_continue
## Variant 292
.Lvictim_win1_var292:
	popq	%rax
	cmpl	$100, -28(%rbp)
	jg	LBB2_4
## %bb.2:                               ##   in Loop: Header=BB2_1 Depth=1
	movl	-28(%rbp), %eax
	addl	-20(%rbp), %eax
	jmp	.Lvictim_win1_continue
## Variant 293
.Lvictim_win1_var293:
	popq	%rax
	cmpl	$100, -28(%rbp)
	jg	LBB2_4
## %bb.2:                               ##   in Loop: Header=BB2_1 Depth=1
	movl	-28(%rbp), %eax
	addl	-20(%rbp), %eax
	jmp	.Lvictim_win1_continue
## Variant 294
.Lvictim_win1_var294:
	popq	%rax
	cmpl	$100, -28(%rbp)
	jg	LBB2_4
## %bb.2:                               ##   in Loop: Header=BB2_1 Depth=1
	movl	-28(%rbp), %eax
	addl	-20(%rbp), %eax
	jmp	.Lvictim_win1_continue
## Variant 295
.Lvictim_win1_var295:
	popq	%rax
	cmpl	$100, -28(%rbp)
	jg	LBB2_4
## %bb.2:                               ##   in Loop: Header=BB2_1 Depth=1
	movl	-28(%rbp), %eax
	addl	-20(%rbp), %eax
	jmp	.Lvictim_win1_continue
## Variant 296
.Lvictim_win1_var296:
	popq	%rax
	cmpl	$100, -28(%rbp)
	jg	LBB2_4
## %bb.2:                               ##   in Loop: Header=BB2_1 Depth=1
	movl	-28(%rbp), %eax
	addl	-20(%rbp), %eax
	jmp	.Lvictim_win1_continue
## Variant 297
.Lvictim_win1_var297:
	popq	%rax
	cmpl	$100, -28(%rbp)
	jg	LBB2_4
## %bb.2:                               ##   in Loop: Header=BB2_1 Depth=1
	movl	-28(%rbp), %eax
	addl	-20(%rbp), %eax
	jmp	.Lvictim_win1_continue
## Variant 298
.Lvictim_win1_var298:
	popq	%rax
	cmpl	$100, -28(%rbp)
	jg	LBB2_4
## %bb.2:                               ##   in Loop: Header=BB2_1 Depth=1
	movl	-28(%rbp), %eax
	addl	-20(%rbp), %eax
	jmp	.Lvictim_win1_continue
## Variant 299
.Lvictim_win1_var299:
	popq	%rax
	cmpl	$100, -28(%rbp)
	jg	LBB2_4
## %bb.2:                               ##   in Loop: Header=BB2_1 Depth=1
	movl	-28(%rbp), %eax
	addl	-20(%rbp), %eax
	jmp	.Lvictim_win1_continue
## Variant 300
.Lvictim_win1_var300:
	popq	%rax
	cmpl	$100, -28(%rbp)
	jg	LBB2_4
## %bb.2:                               ##   in Loop: Header=BB2_1 Depth=1
	movl	-28(%rbp), %eax
	addl	-20(%rbp), %eax
	jmp	.Lvictim_win1_continue
## Variant 301
.Lvictim_win1_var301:
	popq	%rax
	cmpl	$100, -28(%rbp)
	jg	LBB2_4
## %bb.2:                               ##   in Loop: Header=BB2_1 Depth=1
	movl	-28(%rbp), %eax
	addl	-20(%rbp), %eax
	jmp	.Lvictim_win1_continue
## Variant 302
.Lvictim_win1_var302:
	popq	%rax
	cmpl	$100, -28(%rbp)
	jg	LBB2_4
## %bb.2:                               ##   in Loop: Header=BB2_1 Depth=1
	movl	-28(%rbp), %eax
	addl	-20(%rbp), %eax
	jmp	.Lvictim_win1_continue
## Variant 303
.Lvictim_win1_var303:
	popq	%rax
	cmpl	$100, -28(%rbp)
	jg	LBB2_4
## %bb.2:                               ##   in Loop: Header=BB2_1 Depth=1
	movl	-28(%rbp), %eax
	addl	-20(%rbp), %eax
	jmp	.Lvictim_win1_continue
## Variant 304
.Lvictim_win1_var304:
	popq	%rax
	cmpl	$100, -28(%rbp)
	jg	LBB2_4
## %bb.2:                               ##   in Loop: Header=BB2_1 Depth=1
	movl	-28(%rbp), %eax
	addl	-20(%rbp), %eax
	jmp	.Lvictim_win1_continue
## Variant 305
.Lvictim_win1_var305:
	popq	%rax
	cmpl	$100, -28(%rbp)
	jg	LBB2_4
## %bb.2:                               ##   in Loop: Header=BB2_1 Depth=1
	movl	-28(%rbp), %eax
	addl	-20(%rbp), %eax
	jmp	.Lvictim_win1_continue
## Variant 306
.Lvictim_win1_var306:
	popq	%rax
	cmpl	$100, -28(%rbp)
	jg	LBB2_4
## %bb.2:                               ##   in Loop: Header=BB2_1 Depth=1
	movl	-28(%rbp), %eax
	addl	-20(%rbp), %eax
	jmp	.Lvictim_win1_continue
## Variant 307
.Lvictim_win1_var307:
	popq	%rax
	cmpl	$100, -28(%rbp)
	jg	LBB2_4
## %bb.2:                               ##   in Loop: Header=BB2_1 Depth=1
	movl	-28(%rbp), %eax
	addl	-20(%rbp), %eax
	jmp	.Lvictim_win1_continue
## Variant 308
.Lvictim_win1_var308:
	popq	%rax
	cmpl	$100, -28(%rbp)
	jg	LBB2_4
## %bb.2:                               ##   in Loop: Header=BB2_1 Depth=1
	movl	-28(%rbp), %eax
	addl	-20(%rbp), %eax
	jmp	.Lvictim_win1_continue
## Variant 309
.Lvictim_win1_var309:
	popq	%rax
	cmpl	$100, -28(%rbp)
	jg	LBB2_4
## %bb.2:                               ##   in Loop: Header=BB2_1 Depth=1
	movl	-28(%rbp), %eax
	addl	-20(%rbp), %eax
	jmp	.Lvictim_win1_continue
## Variant 310
.Lvictim_win1_var310:
	popq	%rax
	cmpl	$100, -28(%rbp)
	jg	LBB2_4
## %bb.2:                               ##   in Loop: Header=BB2_1 Depth=1
	movl	-28(%rbp), %eax
	addl	-20(%rbp), %eax
	jmp	.Lvictim_win1_continue
## Variant 311
.Lvictim_win1_var311:
	popq	%rax
	cmpl	$100, -28(%rbp)
	jg	LBB2_4
## %bb.2:                               ##   in Loop: Header=BB2_1 Depth=1
	movl	-28(%rbp), %eax
	addl	-20(%rbp), %eax
	jmp	.Lvictim_win1_continue
## Variant 312
.Lvictim_win1_var312:
	popq	%rax
	cmpl	$100, -28(%rbp)
	jg	LBB2_4
## %bb.2:                               ##   in Loop: Header=BB2_1 Depth=1
	movl	-28(%rbp), %eax
	addl	-20(%rbp), %eax
	jmp	.Lvictim_win1_continue
## Variant 313
.Lvictim_win1_var313:
	popq	%rax
	cmpl	$100, -28(%rbp)
	jg	LBB2_4
## %bb.2:                               ##   in Loop: Header=BB2_1 Depth=1
	movl	-28(%rbp), %eax
	addl	-20(%rbp), %eax
	jmp	.Lvictim_win1_continue
## Variant 314
.Lvictim_win1_var314:
	popq	%rax
	cmpl	$100, -28(%rbp)
	jg	LBB2_4
## %bb.2:                               ##   in Loop: Header=BB2_1 Depth=1
	movl	-28(%rbp), %eax
	addl	-20(%rbp), %eax
	jmp	.Lvictim_win1_continue
## Variant 315
.Lvictim_win1_var315:
	popq	%rax
	cmpl	$100, -28(%rbp)
	jg	LBB2_4
## %bb.2:                               ##   in Loop: Header=BB2_1 Depth=1
	movl	-28(%rbp), %eax
	addl	-20(%rbp), %eax
	jmp	.Lvictim_win1_continue
## Variant 316
.Lvictim_win1_var316:
	popq	%rax
	cmpl	$100, -28(%rbp)
	jg	LBB2_4
## %bb.2:                               ##   in Loop: Header=BB2_1 Depth=1
	movl	-28(%rbp), %eax
	addl	-20(%rbp), %eax
	jmp	.Lvictim_win1_continue
## Variant 317
.Lvictim_win1_var317:
	popq	%rax
	cmpl	$100, -28(%rbp)
	jg	LBB2_4
## %bb.2:                               ##   in Loop: Header=BB2_1 Depth=1
	movl	-28(%rbp), %eax
	addl	-20(%rbp), %eax
	jmp	.Lvictim_win1_continue
## Variant 318
.Lvictim_win1_var318:
	popq	%rax
	cmpl	$100, -28(%rbp)
	jg	LBB2_4
## %bb.2:                               ##   in Loop: Header=BB2_1 Depth=1
	movl	-28(%rbp), %eax
	addl	-20(%rbp), %eax
	jmp	.Lvictim_win1_continue
## Variant 319
.Lvictim_win1_var319:
	popq	%rax
	cmpl	$100, -28(%rbp)
	jg	LBB2_4
## %bb.2:                               ##   in Loop: Header=BB2_1 Depth=1
	movl	-28(%rbp), %eax
	addl	-20(%rbp), %eax
	jmp	.Lvictim_win1_continue
## Variant 320
.Lvictim_win1_var320:
	popq	%rax
	cmpl	$100, -28(%rbp)
	jg	LBB2_4
## %bb.2:                               ##   in Loop: Header=BB2_1 Depth=1
	movl	-28(%rbp), %eax
	addl	-20(%rbp), %eax
	jmp	.Lvictim_win1_continue
## Variant 321
.Lvictim_win1_var321:
	popq	%rax
	cmpl	$100, -28(%rbp)
	jg	LBB2_4
## %bb.2:                               ##   in Loop: Header=BB2_1 Depth=1
	movl	-28(%rbp), %eax
	addl	-20(%rbp), %eax
	jmp	.Lvictim_win1_continue
## Variant 322
.Lvictim_win1_var322:
	popq	%rax
	cmpl	$100, -28(%rbp)
	jg	LBB2_4
## %bb.2:                               ##   in Loop: Header=BB2_1 Depth=1
	movl	-28(%rbp), %eax
	addl	-20(%rbp), %eax
	jmp	.Lvictim_win1_continue
## Variant 323
.Lvictim_win1_var323:
	popq	%rax
	cmpl	$100, -28(%rbp)
	jg	LBB2_4
## %bb.2:                               ##   in Loop: Header=BB2_1 Depth=1
	movl	-28(%rbp), %eax
	addl	-20(%rbp), %eax
	jmp	.Lvictim_win1_continue
## Variant 324
.Lvictim_win1_var324:
	popq	%rax
	cmpl	$100, -28(%rbp)
	jg	LBB2_4
## %bb.2:                               ##   in Loop: Header=BB2_1 Depth=1
	movl	-28(%rbp), %eax
	addl	-20(%rbp), %eax
	jmp	.Lvictim_win1_continue
## Variant 325
.Lvictim_win1_var325:
	popq	%rax
	cmpl	$100, -28(%rbp)
	jg	LBB2_4
## %bb.2:                               ##   in Loop: Header=BB2_1 Depth=1
	movl	-28(%rbp), %eax
	addl	-20(%rbp), %eax
	jmp	.Lvictim_win1_continue
## Variant 326
.Lvictim_win1_var326:
	popq	%rax
	cmpl	$100, -28(%rbp)
	jg	LBB2_4
## %bb.2:                               ##   in Loop: Header=BB2_1 Depth=1
	movl	-28(%rbp), %eax
	addl	-20(%rbp), %eax
	jmp	.Lvictim_win1_continue
## Variant 327
.Lvictim_win1_var327:
	popq	%rax
	cmpl	$100, -28(%rbp)
	jg	LBB2_4
## %bb.2:                               ##   in Loop: Header=BB2_1 Depth=1
	movl	-28(%rbp), %eax
	addl	-20(%rbp), %eax
	jmp	.Lvictim_win1_continue
## Variant 328
.Lvictim_win1_var328:
	popq	%rax
	cmpl	$100, -28(%rbp)
	jg	LBB2_4
## %bb.2:                               ##   in Loop: Header=BB2_1 Depth=1
	movl	-28(%rbp), %eax
	addl	-20(%rbp), %eax
	jmp	.Lvictim_win1_continue
## Variant 329
.Lvictim_win1_var329:
	popq	%rax
	cmpl	$100, -28(%rbp)
	jg	LBB2_4
## %bb.2:                               ##   in Loop: Header=BB2_1 Depth=1
	movl	-28(%rbp), %eax
	addl	-20(%rbp), %eax
	jmp	.Lvictim_win1_continue
## Variant 330
.Lvictim_win1_var330:
	popq	%rax
	cmpl	$100, -28(%rbp)
	jg	LBB2_4
## %bb.2:                               ##   in Loop: Header=BB2_1 Depth=1
	movl	-28(%rbp), %eax
	addl	-20(%rbp), %eax
	jmp	.Lvictim_win1_continue
## Variant 331
.Lvictim_win1_var331:
	popq	%rax
	cmpl	$100, -28(%rbp)
	jg	LBB2_4
## %bb.2:                               ##   in Loop: Header=BB2_1 Depth=1
	movl	-28(%rbp), %eax
	addl	-20(%rbp), %eax
	jmp	.Lvictim_win1_continue
## Variant 332
.Lvictim_win1_var332:
	popq	%rax
	cmpl	$100, -28(%rbp)
	jg	LBB2_4
## %bb.2:                               ##   in Loop: Header=BB2_1 Depth=1
	movl	-28(%rbp), %eax
	addl	-20(%rbp), %eax
	jmp	.Lvictim_win1_continue
## Variant 333
.Lvictim_win1_var333:
	popq	%rax
	cmpl	$100, -28(%rbp)
	jg	LBB2_4
## %bb.2:                               ##   in Loop: Header=BB2_1 Depth=1
	movl	-28(%rbp), %eax
	addl	-20(%rbp), %eax
	jmp	.Lvictim_win1_continue
## Variant 334
.Lvictim_win1_var334:
	popq	%rax
	cmpl	$100, -28(%rbp)
	jg	LBB2_4
## %bb.2:                               ##   in Loop: Header=BB2_1 Depth=1
	movl	-28(%rbp), %eax
	addl	-20(%rbp), %eax
	jmp	.Lvictim_win1_continue
## Variant 335
.Lvictim_win1_var335:
	popq	%rax
	cmpl	$100, -28(%rbp)
	jg	LBB2_4
## %bb.2:                               ##   in Loop: Header=BB2_1 Depth=1
	movl	-28(%rbp), %eax
	addl	-20(%rbp), %eax
	jmp	.Lvictim_win1_continue
## Variant 336
.Lvictim_win1_var336:
	popq	%rax
	cmpl	$100, -28(%rbp)
	jg	LBB2_4
## %bb.2:                               ##   in Loop: Header=BB2_1 Depth=1
	movl	-28(%rbp), %eax
	addl	-20(%rbp), %eax
	jmp	.Lvictim_win1_continue
## Variant 337
.Lvictim_win1_var337:
	popq	%rax
	cmpl	$100, -28(%rbp)
	jg	LBB2_4
## %bb.2:                               ##   in Loop: Header=BB2_1 Depth=1
	movl	-28(%rbp), %eax
	addl	-20(%rbp), %eax
	jmp	.Lvictim_win1_continue
## Variant 338
.Lvictim_win1_var338:
	popq	%rax
	cmpl	$100, -28(%rbp)
	jg	LBB2_4
## %bb.2:                               ##   in Loop: Header=BB2_1 Depth=1
	movl	-28(%rbp), %eax
	addl	-20(%rbp), %eax
	jmp	.Lvictim_win1_continue
## Variant 339
.Lvictim_win1_var339:
	popq	%rax
	cmpl	$100, -28(%rbp)
	jg	LBB2_4
## %bb.2:                               ##   in Loop: Header=BB2_1 Depth=1
	movl	-28(%rbp), %eax
	addl	-20(%rbp), %eax
	jmp	.Lvictim_win1_continue
## Variant 340
.Lvictim_win1_var340:
	popq	%rax
	cmpl	$100, -28(%rbp)
	jg	LBB2_4
## %bb.2:                               ##   in Loop: Header=BB2_1 Depth=1
	movl	-28(%rbp), %eax
	addl	-20(%rbp), %eax
	jmp	.Lvictim_win1_continue
## Variant 341
.Lvictim_win1_var341:
	popq	%rax
	cmpl	$100, -28(%rbp)
	jg	LBB2_4
## %bb.2:                               ##   in Loop: Header=BB2_1 Depth=1
	movl	-28(%rbp), %eax
	addl	-20(%rbp), %eax
	jmp	.Lvictim_win1_continue
## Variant 342
.Lvictim_win1_var342:
	popq	%rax
	cmpl	$100, -28(%rbp)
	jg	LBB2_4
## %bb.2:                               ##   in Loop: Header=BB2_1 Depth=1
	movl	-28(%rbp), %eax
	addl	-20(%rbp), %eax
	jmp	.Lvictim_win1_continue
## Variant 343
.Lvictim_win1_var343:
	popq	%rax
	cmpl	$100, -28(%rbp)
	jg	LBB2_4
## %bb.2:                               ##   in Loop: Header=BB2_1 Depth=1
	movl	-28(%rbp), %eax
	addl	-20(%rbp), %eax
	jmp	.Lvictim_win1_continue
## Variant 344
.Lvictim_win1_var344:
	popq	%rax
	cmpl	$100, -28(%rbp)
	jg	LBB2_4
## %bb.2:                               ##   in Loop: Header=BB2_1 Depth=1
	movl	-28(%rbp), %eax
	addl	-20(%rbp), %eax
	jmp	.Lvictim_win1_continue
## Variant 345
.Lvictim_win1_var345:
	popq	%rax
	cmpl	$100, -28(%rbp)
	jg	LBB2_4
## %bb.2:                               ##   in Loop: Header=BB2_1 Depth=1
	movl	-28(%rbp), %eax
	addl	-20(%rbp), %eax
	jmp	.Lvictim_win1_continue
## Variant 346
.Lvictim_win1_var346:
	popq	%rax
	cmpl	$100, -28(%rbp)
	jg	LBB2_4
## %bb.2:                               ##   in Loop: Header=BB2_1 Depth=1
	movl	-28(%rbp), %eax
	addl	-20(%rbp), %eax
	jmp	.Lvictim_win1_continue
## Variant 347
.Lvictim_win1_var347:
	popq	%rax
	cmpl	$100, -28(%rbp)
	jg	LBB2_4
## %bb.2:                               ##   in Loop: Header=BB2_1 Depth=1
	movl	-28(%rbp), %eax
	addl	-20(%rbp), %eax
	jmp	.Lvictim_win1_continue
## Variant 348
.Lvictim_win1_var348:
	popq	%rax
	cmpl	$100, -28(%rbp)
	jg	LBB2_4
## %bb.2:                               ##   in Loop: Header=BB2_1 Depth=1
	movl	-28(%rbp), %eax
	addl	-20(%rbp), %eax
	jmp	.Lvictim_win1_continue
## Variant 349
.Lvictim_win1_var349:
	popq	%rax
	cmpl	$100, -28(%rbp)
	jg	LBB2_4
## %bb.2:                               ##   in Loop: Header=BB2_1 Depth=1
	movl	-28(%rbp), %eax
	addl	-20(%rbp), %eax
	jmp	.Lvictim_win1_continue
## Variant 350
.Lvictim_win1_var350:
	popq	%rax
	cmpl	$100, -28(%rbp)
	jg	LBB2_4
## %bb.2:                               ##   in Loop: Header=BB2_1 Depth=1
	movl	-28(%rbp), %eax
	addl	-20(%rbp), %eax
	jmp	.Lvictim_win1_continue
## Variant 351
.Lvictim_win1_var351:
	popq	%rax
	cmpl	$100, -28(%rbp)
	jg	LBB2_4
## %bb.2:                               ##   in Loop: Header=BB2_1 Depth=1
	movl	-28(%rbp), %eax
	addl	-20(%rbp), %eax
	jmp	.Lvictim_win1_continue
## Variant 352
.Lvictim_win1_var352:
	popq	%rax
	cmpl	$100, -28(%rbp)
	jg	LBB2_4
## %bb.2:                               ##   in Loop: Header=BB2_1 Depth=1
	movl	-28(%rbp), %eax
	addl	-20(%rbp), %eax
	jmp	.Lvictim_win1_continue
## Variant 353
.Lvictim_win1_var353:
	popq	%rax
	cmpl	$100, -28(%rbp)
	jg	LBB2_4
## %bb.2:                               ##   in Loop: Header=BB2_1 Depth=1
	movl	-28(%rbp), %eax
	addl	-20(%rbp), %eax
	jmp	.Lvictim_win1_continue
## Variant 354
.Lvictim_win1_var354:
	popq	%rax
	cmpl	$100, -28(%rbp)
	jg	LBB2_4
## %bb.2:                               ##   in Loop: Header=BB2_1 Depth=1
	movl	-28(%rbp), %eax
	addl	-20(%rbp), %eax
	jmp	.Lvictim_win1_continue
## Variant 355
.Lvictim_win1_var355:
	popq	%rax
	cmpl	$100, -28(%rbp)
	jg	LBB2_4
## %bb.2:                               ##   in Loop: Header=BB2_1 Depth=1
	movl	-28(%rbp), %eax
	addl	-20(%rbp), %eax
	jmp	.Lvictim_win1_continue
## Variant 356
.Lvictim_win1_var356:
	popq	%rax
	cmpl	$100, -28(%rbp)
	jg	LBB2_4
## %bb.2:                               ##   in Loop: Header=BB2_1 Depth=1
	movl	-28(%rbp), %eax
	addl	-20(%rbp), %eax
	jmp	.Lvictim_win1_continue
## Variant 357
.Lvictim_win1_var357:
	popq	%rax
	cmpl	$100, -28(%rbp)
	jg	LBB2_4
## %bb.2:                               ##   in Loop: Header=BB2_1 Depth=1
	movl	-28(%rbp), %eax
	addl	-20(%rbp), %eax
	jmp	.Lvictim_win1_continue
## Variant 358
.Lvictim_win1_var358:
	popq	%rax
	cmpl	$100, -28(%rbp)
	jg	LBB2_4
## %bb.2:                               ##   in Loop: Header=BB2_1 Depth=1
	movl	-28(%rbp), %eax
	addl	-20(%rbp), %eax
	jmp	.Lvictim_win1_continue
## Variant 359
.Lvictim_win1_var359:
	popq	%rax
	cmpl	$100, -28(%rbp)
	jg	LBB2_4
## %bb.2:                               ##   in Loop: Header=BB2_1 Depth=1
	movl	-28(%rbp), %eax
	addl	-20(%rbp), %eax
	jmp	.Lvictim_win1_continue
## Variant 360
.Lvictim_win1_var360:
	popq	%rax
	cmpl	$100, -28(%rbp)
	jg	LBB2_4
## %bb.2:                               ##   in Loop: Header=BB2_1 Depth=1
	movl	-28(%rbp), %eax
	addl	-20(%rbp), %eax
	jmp	.Lvictim_win1_continue
## Variant 361
.Lvictim_win1_var361:
	popq	%rax
	cmpl	$100, -28(%rbp)
	jg	LBB2_4
## %bb.2:                               ##   in Loop: Header=BB2_1 Depth=1
	movl	-28(%rbp), %eax
	addl	-20(%rbp), %eax
	jmp	.Lvictim_win1_continue
## Variant 362
.Lvictim_win1_var362:
	popq	%rax
	cmpl	$100, -28(%rbp)
	jg	LBB2_4
## %bb.2:                               ##   in Loop: Header=BB2_1 Depth=1
	movl	-28(%rbp), %eax
	addl	-20(%rbp), %eax
	jmp	.Lvictim_win1_continue
## Variant 363
.Lvictim_win1_var363:
	popq	%rax
	cmpl	$100, -28(%rbp)
	jg	LBB2_4
## %bb.2:                               ##   in Loop: Header=BB2_1 Depth=1
	movl	-28(%rbp), %eax
	addl	-20(%rbp), %eax
	jmp	.Lvictim_win1_continue
## Variant 364
.Lvictim_win1_var364:
	popq	%rax
	cmpl	$100, -28(%rbp)
	jg	LBB2_4
## %bb.2:                               ##   in Loop: Header=BB2_1 Depth=1
	movl	-28(%rbp), %eax
	addl	-20(%rbp), %eax
	jmp	.Lvictim_win1_continue
## Variant 365
.Lvictim_win1_var365:
	popq	%rax
	cmpl	$100, -28(%rbp)
	jg	LBB2_4
## %bb.2:                               ##   in Loop: Header=BB2_1 Depth=1
	movl	-28(%rbp), %eax
	addl	-20(%rbp), %eax
	jmp	.Lvictim_win1_continue
## Variant 366
.Lvictim_win1_var366:
	popq	%rax
	cmpl	$100, -28(%rbp)
	jg	LBB2_4
## %bb.2:                               ##   in Loop: Header=BB2_1 Depth=1
	movl	-28(%rbp), %eax
	addl	-20(%rbp), %eax
	jmp	.Lvictim_win1_continue
## Variant 367
.Lvictim_win1_var367:
	popq	%rax
	cmpl	$100, -28(%rbp)
	jg	LBB2_4
## %bb.2:                               ##   in Loop: Header=BB2_1 Depth=1
	movl	-28(%rbp), %eax
	addl	-20(%rbp), %eax
	jmp	.Lvictim_win1_continue
## Variant 368
.Lvictim_win1_var368:
	popq	%rax
	cmpl	$100, -28(%rbp)
	jg	LBB2_4
## %bb.2:                               ##   in Loop: Header=BB2_1 Depth=1
	movl	-28(%rbp), %eax
	addl	-20(%rbp), %eax
	jmp	.Lvictim_win1_continue
## Variant 369
.Lvictim_win1_var369:
	popq	%rax
	cmpl	$100, -28(%rbp)
	jg	LBB2_4
## %bb.2:                               ##   in Loop: Header=BB2_1 Depth=1
	movl	-28(%rbp), %eax
	addl	-20(%rbp), %eax
	jmp	.Lvictim_win1_continue
## Variant 370
.Lvictim_win1_var370:
	popq	%rax
	cmpl	$100, -28(%rbp)
	jg	LBB2_4
## %bb.2:                               ##   in Loop: Header=BB2_1 Depth=1
	movl	-28(%rbp), %eax
	addl	-20(%rbp), %eax
	jmp	.Lvictim_win1_continue
## Variant 371
.Lvictim_win1_var371:
	popq	%rax
	cmpl	$100, -28(%rbp)
	jg	LBB2_4
## %bb.2:                               ##   in Loop: Header=BB2_1 Depth=1
	movl	-28(%rbp), %eax
	addl	-20(%rbp), %eax
	jmp	.Lvictim_win1_continue
## Variant 372
.Lvictim_win1_var372:
	popq	%rax
	cmpl	$100, -28(%rbp)
	jg	LBB2_4
## %bb.2:                               ##   in Loop: Header=BB2_1 Depth=1
	movl	-28(%rbp), %eax
	addl	-20(%rbp), %eax
	jmp	.Lvictim_win1_continue
## Variant 373
.Lvictim_win1_var373:
	popq	%rax
	cmpl	$100, -28(%rbp)
	jg	LBB2_4
## %bb.2:                               ##   in Loop: Header=BB2_1 Depth=1
	movl	-28(%rbp), %eax
	addl	-20(%rbp), %eax
	jmp	.Lvictim_win1_continue
## Variant 374
.Lvictim_win1_var374:
	popq	%rax
	cmpl	$100, -28(%rbp)
	jg	LBB2_4
## %bb.2:                               ##   in Loop: Header=BB2_1 Depth=1
	movl	-28(%rbp), %eax
	addl	-20(%rbp), %eax
	jmp	.Lvictim_win1_continue
## Variant 375
.Lvictim_win1_var375:
	popq	%rax
	cmpl	$100, -28(%rbp)
	jg	LBB2_4
## %bb.2:                               ##   in Loop: Header=BB2_1 Depth=1
	movl	-28(%rbp), %eax
	addl	-20(%rbp), %eax
	jmp	.Lvictim_win1_continue
## Variant 376
.Lvictim_win1_var376:
	popq	%rax
	cmpl	$100, -28(%rbp)
	jg	LBB2_4
## %bb.2:                               ##   in Loop: Header=BB2_1 Depth=1
	movl	-28(%rbp), %eax
	addl	-20(%rbp), %eax
	jmp	.Lvictim_win1_continue
## Variant 377
.Lvictim_win1_var377:
	popq	%rax
	cmpl	$100, -28(%rbp)
	jg	LBB2_4
## %bb.2:                               ##   in Loop: Header=BB2_1 Depth=1
	movl	-28(%rbp), %eax
	addl	-20(%rbp), %eax
	jmp	.Lvictim_win1_continue
## Variant 378
.Lvictim_win1_var378:
	popq	%rax
	cmpl	$100, -28(%rbp)
	jg	LBB2_4
## %bb.2:                               ##   in Loop: Header=BB2_1 Depth=1
	movl	-28(%rbp), %eax
	addl	-20(%rbp), %eax
	jmp	.Lvictim_win1_continue
## Variant 379
.Lvictim_win1_var379:
	popq	%rax
	cmpl	$100, -28(%rbp)
	jg	LBB2_4
## %bb.2:                               ##   in Loop: Header=BB2_1 Depth=1
	movl	-28(%rbp), %eax
	addl	-20(%rbp), %eax
	jmp	.Lvictim_win1_continue
## Variant 380
.Lvictim_win1_var380:
	popq	%rax
	cmpl	$100, -28(%rbp)
	jg	LBB2_4
## %bb.2:                               ##   in Loop: Header=BB2_1 Depth=1
	movl	-28(%rbp), %eax
	addl	-20(%rbp), %eax
	jmp	.Lvictim_win1_continue
## Variant 381
.Lvictim_win1_var381:
	popq	%rax
	cmpl	$100, -28(%rbp)
	jg	LBB2_4
## %bb.2:                               ##   in Loop: Header=BB2_1 Depth=1
	movl	-28(%rbp), %eax
	addl	-20(%rbp), %eax
	jmp	.Lvictim_win1_continue
## Variant 382
.Lvictim_win1_var382:
	popq	%rax
	cmpl	$100, -28(%rbp)
	jg	LBB2_4
## %bb.2:                               ##   in Loop: Header=BB2_1 Depth=1
	movl	-28(%rbp), %eax
	addl	-20(%rbp), %eax
	jmp	.Lvictim_win1_continue
## Variant 383
.Lvictim_win1_var383:
	popq	%rax
	cmpl	$100, -28(%rbp)
	jg	LBB2_4
## %bb.2:                               ##   in Loop: Header=BB2_1 Depth=1
	movl	-28(%rbp), %eax
	addl	-20(%rbp), %eax
	jmp	.Lvictim_win1_continue
## Variant 384
.Lvictim_win1_var384:
	popq	%rax
	cmpl	$100, -28(%rbp)
	jg	LBB2_4
## %bb.2:                               ##   in Loop: Header=BB2_1 Depth=1
	movl	-28(%rbp), %eax
	addl	-20(%rbp), %eax
	jmp	.Lvictim_win1_continue
## Variant 385
.Lvictim_win1_var385:
	popq	%rax
	cmpl	$100, -28(%rbp)
	jg	LBB2_4
## %bb.2:                               ##   in Loop: Header=BB2_1 Depth=1
	movl	-28(%rbp), %eax
	addl	-20(%rbp), %eax
	jmp	.Lvictim_win1_continue
## Variant 386
.Lvictim_win1_var386:
	popq	%rax
	cmpl	$100, -28(%rbp)
	jg	LBB2_4
## %bb.2:                               ##   in Loop: Header=BB2_1 Depth=1
	movl	-28(%rbp), %eax
	addl	-20(%rbp), %eax
	jmp	.Lvictim_win1_continue
## Variant 387
.Lvictim_win1_var387:
	popq	%rax
	cmpl	$100, -28(%rbp)
	jg	LBB2_4
## %bb.2:                               ##   in Loop: Header=BB2_1 Depth=1
	movl	-28(%rbp), %eax
	addl	-20(%rbp), %eax
	jmp	.Lvictim_win1_continue
## Variant 388
.Lvictim_win1_var388:
	popq	%rax
	cmpl	$100, -28(%rbp)
	jg	LBB2_4
## %bb.2:                               ##   in Loop: Header=BB2_1 Depth=1
	movl	-28(%rbp), %eax
	addl	-20(%rbp), %eax
	jmp	.Lvictim_win1_continue
## Variant 389
.Lvictim_win1_var389:
	popq	%rax
	cmpl	$100, -28(%rbp)
	jg	LBB2_4
## %bb.2:                               ##   in Loop: Header=BB2_1 Depth=1
	movl	-28(%rbp), %eax
	addl	-20(%rbp), %eax
	jmp	.Lvictim_win1_continue
## Variant 390
.Lvictim_win1_var390:
	popq	%rax
	cmpl	$100, -28(%rbp)
	jg	LBB2_4
## %bb.2:                               ##   in Loop: Header=BB2_1 Depth=1
	movl	-28(%rbp), %eax
	addl	-20(%rbp), %eax
	jmp	.Lvictim_win1_continue
## Variant 391
.Lvictim_win1_var391:
	popq	%rax
	cmpl	$100, -28(%rbp)
	jg	LBB2_4
## %bb.2:                               ##   in Loop: Header=BB2_1 Depth=1
	movl	-28(%rbp), %eax
	addl	-20(%rbp), %eax
	jmp	.Lvictim_win1_continue
## Variant 392
.Lvictim_win1_var392:
	popq	%rax
	cmpl	$100, -28(%rbp)
	jg	LBB2_4
## %bb.2:                               ##   in Loop: Header=BB2_1 Depth=1
	movl	-28(%rbp), %eax
	addl	-20(%rbp), %eax
	jmp	.Lvictim_win1_continue
## Variant 393
.Lvictim_win1_var393:
	popq	%rax
	cmpl	$100, -28(%rbp)
	jg	LBB2_4
## %bb.2:                               ##   in Loop: Header=BB2_1 Depth=1
	movl	-28(%rbp), %eax
	addl	-20(%rbp), %eax
	jmp	.Lvictim_win1_continue
## Variant 394
.Lvictim_win1_var394:
	popq	%rax
	cmpl	$100, -28(%rbp)
	jg	LBB2_4
## %bb.2:                               ##   in Loop: Header=BB2_1 Depth=1
	movl	-28(%rbp), %eax
	addl	-20(%rbp), %eax
	jmp	.Lvictim_win1_continue
## Variant 395
.Lvictim_win1_var395:
	popq	%rax
	cmpl	$100, -28(%rbp)
	jg	LBB2_4
## %bb.2:                               ##   in Loop: Header=BB2_1 Depth=1
	movl	-28(%rbp), %eax
	addl	-20(%rbp), %eax
	jmp	.Lvictim_win1_continue
## Variant 396
.Lvictim_win1_var396:
	popq	%rax
	cmpl	$100, -28(%rbp)
	jg	LBB2_4
## %bb.2:                               ##   in Loop: Header=BB2_1 Depth=1
	movl	-28(%rbp), %eax
	addl	-20(%rbp), %eax
	jmp	.Lvictim_win1_continue
## Variant 397
.Lvictim_win1_var397:
	popq	%rax
	cmpl	$100, -28(%rbp)
	jg	LBB2_4
## %bb.2:                               ##   in Loop: Header=BB2_1 Depth=1
	movl	-28(%rbp), %eax
	addl	-20(%rbp), %eax
	jmp	.Lvictim_win1_continue
## Variant 398
.Lvictim_win1_var398:
	popq	%rax
	cmpl	$100, -28(%rbp)
	jg	LBB2_4
## %bb.2:                               ##   in Loop: Header=BB2_1 Depth=1
	movl	-28(%rbp), %eax
	addl	-20(%rbp), %eax
	jmp	.Lvictim_win1_continue
## Variant 399
.Lvictim_win1_var399:
	popq	%rax
	cmpl	$100, -28(%rbp)
	jg	LBB2_4
## %bb.2:                               ##   in Loop: Header=BB2_1 Depth=1
	movl	-28(%rbp), %eax
	addl	-20(%rbp), %eax
	jmp	.Lvictim_win1_continue
## Variant 400
.Lvictim_win1_var400:
	popq	%rax
	cmpl	$100, -28(%rbp)
	jg	LBB2_4
## %bb.2:                               ##   in Loop: Header=BB2_1 Depth=1
	movl	-28(%rbp), %eax
	addl	-20(%rbp), %eax
	jmp	.Lvictim_win1_continue
## Variant 401
.Lvictim_win1_var401:
	popq	%rax
	cmpl	$100, -28(%rbp)
	jg	LBB2_4
## %bb.2:                               ##   in Loop: Header=BB2_1 Depth=1
	movl	-28(%rbp), %eax
	addl	-20(%rbp), %eax
	jmp	.Lvictim_win1_continue
## Variant 402
.Lvictim_win1_var402:
	popq	%rax
	cmpl	$100, -28(%rbp)
	jg	LBB2_4
## %bb.2:                               ##   in Loop: Header=BB2_1 Depth=1
	movl	-28(%rbp), %eax
	addl	-20(%rbp), %eax
	jmp	.Lvictim_win1_continue
## Variant 403
.Lvictim_win1_var403:
	popq	%rax
	cmpl	$100, -28(%rbp)
	jg	LBB2_4
## %bb.2:                               ##   in Loop: Header=BB2_1 Depth=1
	movl	-28(%rbp), %eax
	addl	-20(%rbp), %eax
	jmp	.Lvictim_win1_continue
## Variant 404
.Lvictim_win1_var404:
	popq	%rax
	cmpl	$100, -28(%rbp)
	jg	LBB2_4
## %bb.2:                               ##   in Loop: Header=BB2_1 Depth=1
	movl	-28(%rbp), %eax
	addl	-20(%rbp), %eax
	jmp	.Lvictim_win1_continue
## Variant 405
.Lvictim_win1_var405:
	popq	%rax
	cmpl	$100, -28(%rbp)
	jg	LBB2_4
## %bb.2:                               ##   in Loop: Header=BB2_1 Depth=1
	movl	-28(%rbp), %eax
	addl	-20(%rbp), %eax
	jmp	.Lvictim_win1_continue
## Variant 406
.Lvictim_win1_var406:
	popq	%rax
	cmpl	$100, -28(%rbp)
	jg	LBB2_4
## %bb.2:                               ##   in Loop: Header=BB2_1 Depth=1
	movl	-28(%rbp), %eax
	addl	-20(%rbp), %eax
	jmp	.Lvictim_win1_continue
## Variant 407
.Lvictim_win1_var407:
	popq	%rax
	cmpl	$100, -28(%rbp)
	jg	LBB2_4
## %bb.2:                               ##   in Loop: Header=BB2_1 Depth=1
	movl	-28(%rbp), %eax
	addl	-20(%rbp), %eax
	jmp	.Lvictim_win1_continue
## Variant 408
.Lvictim_win1_var408:
	popq	%rax
	cmpl	$100, -28(%rbp)
	jg	LBB2_4
## %bb.2:                               ##   in Loop: Header=BB2_1 Depth=1
	movl	-28(%rbp), %eax
	addl	-20(%rbp), %eax
	jmp	.Lvictim_win1_continue
## Variant 409
.Lvictim_win1_var409:
	popq	%rax
	cmpl	$100, -28(%rbp)
	jg	LBB2_4
## %bb.2:                               ##   in Loop: Header=BB2_1 Depth=1
	movl	-28(%rbp), %eax
	addl	-20(%rbp), %eax
	jmp	.Lvictim_win1_continue
## Variant 410
.Lvictim_win1_var410:
	popq	%rax
	cmpl	$100, -28(%rbp)
	jg	LBB2_4
## %bb.2:                               ##   in Loop: Header=BB2_1 Depth=1
	movl	-28(%rbp), %eax
	addl	-20(%rbp), %eax
	jmp	.Lvictim_win1_continue
## Variant 411
.Lvictim_win1_var411:
	popq	%rax
	cmpl	$100, -28(%rbp)
	jg	LBB2_4
## %bb.2:                               ##   in Loop: Header=BB2_1 Depth=1
	movl	-28(%rbp), %eax
	addl	-20(%rbp), %eax
	jmp	.Lvictim_win1_continue
## Variant 412
.Lvictim_win1_var412:
	popq	%rax
	cmpl	$100, -28(%rbp)
	jg	LBB2_4
## %bb.2:                               ##   in Loop: Header=BB2_1 Depth=1
	movl	-28(%rbp), %eax
	addl	-20(%rbp), %eax
	jmp	.Lvictim_win1_continue
## Variant 413
.Lvictim_win1_var413:
	popq	%rax
	cmpl	$100, -28(%rbp)
	jg	LBB2_4
## %bb.2:                               ##   in Loop: Header=BB2_1 Depth=1
	movl	-28(%rbp), %eax
	addl	-20(%rbp), %eax
	jmp	.Lvictim_win1_continue
## Variant 414
.Lvictim_win1_var414:
	popq	%rax
	cmpl	$100, -28(%rbp)
	jg	LBB2_4
## %bb.2:                               ##   in Loop: Header=BB2_1 Depth=1
	movl	-28(%rbp), %eax
	addl	-20(%rbp), %eax
	jmp	.Lvictim_win1_continue
## Variant 415
.Lvictim_win1_var415:
	popq	%rax
	cmpl	$100, -28(%rbp)
	jg	LBB2_4
## %bb.2:                               ##   in Loop: Header=BB2_1 Depth=1
	movl	-28(%rbp), %eax
	addl	-20(%rbp), %eax
	jmp	.Lvictim_win1_continue
## Variant 416
.Lvictim_win1_var416:
	popq	%rax
	cmpl	$100, -28(%rbp)
	jg	LBB2_4
## %bb.2:                               ##   in Loop: Header=BB2_1 Depth=1
	movl	-28(%rbp), %eax
	addl	-20(%rbp), %eax
	jmp	.Lvictim_win1_continue
## Variant 417
.Lvictim_win1_var417:
	popq	%rax
	cmpl	$100, -28(%rbp)
	jg	LBB2_4
## %bb.2:                               ##   in Loop: Header=BB2_1 Depth=1
	movl	-28(%rbp), %eax
	addl	-20(%rbp), %eax
	jmp	.Lvictim_win1_continue
## Variant 418
.Lvictim_win1_var418:
	popq	%rax
	cmpl	$100, -28(%rbp)
	jg	LBB2_4
## %bb.2:                               ##   in Loop: Header=BB2_1 Depth=1
	movl	-28(%rbp), %eax
	addl	-20(%rbp), %eax
	jmp	.Lvictim_win1_continue
## Variant 419
.Lvictim_win1_var419:
	popq	%rax
	cmpl	$100, -28(%rbp)
	jg	LBB2_4
## %bb.2:                               ##   in Loop: Header=BB2_1 Depth=1
	movl	-28(%rbp), %eax
	addl	-20(%rbp), %eax
	jmp	.Lvictim_win1_continue
## Variant 420
.Lvictim_win1_var420:
	popq	%rax
	cmpl	$100, -28(%rbp)
	jg	LBB2_4
## %bb.2:                               ##   in Loop: Header=BB2_1 Depth=1
	movl	-28(%rbp), %eax
	addl	-20(%rbp), %eax
	jmp	.Lvictim_win1_continue
## Variant 421
.Lvictim_win1_var421:
	popq	%rax
	cmpl	$100, -28(%rbp)
	jg	LBB2_4
## %bb.2:                               ##   in Loop: Header=BB2_1 Depth=1
	movl	-28(%rbp), %eax
	addl	-20(%rbp), %eax
	jmp	.Lvictim_win1_continue
## Variant 422
.Lvictim_win1_var422:
	popq	%rax
	cmpl	$100, -28(%rbp)
	jg	LBB2_4
## %bb.2:                               ##   in Loop: Header=BB2_1 Depth=1
	movl	-28(%rbp), %eax
	addl	-20(%rbp), %eax
	jmp	.Lvictim_win1_continue
## Variant 423
.Lvictim_win1_var423:
	popq	%rax
	cmpl	$100, -28(%rbp)
	jg	LBB2_4
## %bb.2:                               ##   in Loop: Header=BB2_1 Depth=1
	movl	-28(%rbp), %eax
	addl	-20(%rbp), %eax
	jmp	.Lvictim_win1_continue
## Variant 424
.Lvictim_win1_var424:
	popq	%rax
	cmpl	$100, -28(%rbp)
	jg	LBB2_4
## %bb.2:                               ##   in Loop: Header=BB2_1 Depth=1
	movl	-28(%rbp), %eax
	addl	-20(%rbp), %eax
	jmp	.Lvictim_win1_continue
## Variant 425
.Lvictim_win1_var425:
	popq	%rax
	cmpl	$100, -28(%rbp)
	jg	LBB2_4
## %bb.2:                               ##   in Loop: Header=BB2_1 Depth=1
	movl	-28(%rbp), %eax
	addl	-20(%rbp), %eax
	jmp	.Lvictim_win1_continue
## Variant 426
.Lvictim_win1_var426:
	popq	%rax
	cmpl	$100, -28(%rbp)
	jg	LBB2_4
## %bb.2:                               ##   in Loop: Header=BB2_1 Depth=1
	movl	-28(%rbp), %eax
	addl	-20(%rbp), %eax
	jmp	.Lvictim_win1_continue
## Variant 427
.Lvictim_win1_var427:
	popq	%rax
	cmpl	$100, -28(%rbp)
	jg	LBB2_4
## %bb.2:                               ##   in Loop: Header=BB2_1 Depth=1
	movl	-28(%rbp), %eax
	addl	-20(%rbp), %eax
	jmp	.Lvictim_win1_continue
## Variant 428
.Lvictim_win1_var428:
	popq	%rax
	cmpl	$100, -28(%rbp)
	jg	LBB2_4
## %bb.2:                               ##   in Loop: Header=BB2_1 Depth=1
	movl	-28(%rbp), %eax
	addl	-20(%rbp), %eax
	jmp	.Lvictim_win1_continue
## Variant 429
.Lvictim_win1_var429:
	popq	%rax
	cmpl	$100, -28(%rbp)
	jg	LBB2_4
## %bb.2:                               ##   in Loop: Header=BB2_1 Depth=1
	movl	-28(%rbp), %eax
	addl	-20(%rbp), %eax
	jmp	.Lvictim_win1_continue
## Variant 430
.Lvictim_win1_var430:
	popq	%rax
	cmpl	$100, -28(%rbp)
	jg	LBB2_4
## %bb.2:                               ##   in Loop: Header=BB2_1 Depth=1
	movl	-28(%rbp), %eax
	addl	-20(%rbp), %eax
	jmp	.Lvictim_win1_continue
## Variant 431
.Lvictim_win1_var431:
	popq	%rax
	cmpl	$100, -28(%rbp)
	jg	LBB2_4
## %bb.2:                               ##   in Loop: Header=BB2_1 Depth=1
	movl	-28(%rbp), %eax
	addl	-20(%rbp), %eax
	jmp	.Lvictim_win1_continue
## Variant 432
.Lvictim_win1_var432:
	popq	%rax
	cmpl	$100, -28(%rbp)
	jg	LBB2_4
## %bb.2:                               ##   in Loop: Header=BB2_1 Depth=1
	movl	-28(%rbp), %eax
	addl	-20(%rbp), %eax
	jmp	.Lvictim_win1_continue
## Variant 433
.Lvictim_win1_var433:
	popq	%rax
	cmpl	$100, -28(%rbp)
	jg	LBB2_4
## %bb.2:                               ##   in Loop: Header=BB2_1 Depth=1
	movl	-28(%rbp), %eax
	addl	-20(%rbp), %eax
	jmp	.Lvictim_win1_continue
## Variant 434
.Lvictim_win1_var434:
	popq	%rax
	cmpl	$100, -28(%rbp)
	jg	LBB2_4
## %bb.2:                               ##   in Loop: Header=BB2_1 Depth=1
	movl	-28(%rbp), %eax
	addl	-20(%rbp), %eax
	jmp	.Lvictim_win1_continue
## Variant 435
.Lvictim_win1_var435:
	popq	%rax
	cmpl	$100, -28(%rbp)
	jg	LBB2_4
## %bb.2:                               ##   in Loop: Header=BB2_1 Depth=1
	movl	-28(%rbp), %eax
	addl	-20(%rbp), %eax
	jmp	.Lvictim_win1_continue
## Variant 436
.Lvictim_win1_var436:
	popq	%rax
	cmpl	$100, -28(%rbp)
	jg	LBB2_4
## %bb.2:                               ##   in Loop: Header=BB2_1 Depth=1
	movl	-28(%rbp), %eax
	addl	-20(%rbp), %eax
	jmp	.Lvictim_win1_continue
## Variant 437
.Lvictim_win1_var437:
	popq	%rax
	cmpl	$100, -28(%rbp)
	jg	LBB2_4
## %bb.2:                               ##   in Loop: Header=BB2_1 Depth=1
	movl	-28(%rbp), %eax
	addl	-20(%rbp), %eax
	jmp	.Lvictim_win1_continue
## Variant 438
.Lvictim_win1_var438:
	popq	%rax
	cmpl	$100, -28(%rbp)
	jg	LBB2_4
## %bb.2:                               ##   in Loop: Header=BB2_1 Depth=1
	movl	-28(%rbp), %eax
	addl	-20(%rbp), %eax
	jmp	.Lvictim_win1_continue
## Variant 439
.Lvictim_win1_var439:
	popq	%rax
	cmpl	$100, -28(%rbp)
	jg	LBB2_4
## %bb.2:                               ##   in Loop: Header=BB2_1 Depth=1
	movl	-28(%rbp), %eax
	addl	-20(%rbp), %eax
	jmp	.Lvictim_win1_continue
## Variant 440
.Lvictim_win1_var440:
	popq	%rax
	cmpl	$100, -28(%rbp)
	jg	LBB2_4
## %bb.2:                               ##   in Loop: Header=BB2_1 Depth=1
	movl	-28(%rbp), %eax
	addl	-20(%rbp), %eax
	jmp	.Lvictim_win1_continue
## Variant 441
.Lvictim_win1_var441:
	popq	%rax
	cmpl	$100, -28(%rbp)
	jg	LBB2_4
## %bb.2:                               ##   in Loop: Header=BB2_1 Depth=1
	movl	-28(%rbp), %eax
	addl	-20(%rbp), %eax
	jmp	.Lvictim_win1_continue
## Variant 442
.Lvictim_win1_var442:
	popq	%rax
	cmpl	$100, -28(%rbp)
	jg	LBB2_4
## %bb.2:                               ##   in Loop: Header=BB2_1 Depth=1
	movl	-28(%rbp), %eax
	addl	-20(%rbp), %eax
	jmp	.Lvictim_win1_continue
## Variant 443
.Lvictim_win1_var443:
	popq	%rax
	cmpl	$100, -28(%rbp)
	jg	LBB2_4
## %bb.2:                               ##   in Loop: Header=BB2_1 Depth=1
	movl	-28(%rbp), %eax
	addl	-20(%rbp), %eax
	jmp	.Lvictim_win1_continue
## Variant 444
.Lvictim_win1_var444:
	popq	%rax
	cmpl	$100, -28(%rbp)
	jg	LBB2_4
## %bb.2:                               ##   in Loop: Header=BB2_1 Depth=1
	movl	-28(%rbp), %eax
	addl	-20(%rbp), %eax
	jmp	.Lvictim_win1_continue
## Variant 445
.Lvictim_win1_var445:
	popq	%rax
	cmpl	$100, -28(%rbp)
	jg	LBB2_4
## %bb.2:                               ##   in Loop: Header=BB2_1 Depth=1
	movl	-28(%rbp), %eax
	addl	-20(%rbp), %eax
	jmp	.Lvictim_win1_continue
## Variant 446
.Lvictim_win1_var446:
	popq	%rax
	cmpl	$100, -28(%rbp)
	jg	LBB2_4
## %bb.2:                               ##   in Loop: Header=BB2_1 Depth=1
	movl	-28(%rbp), %eax
	addl	-20(%rbp), %eax
	jmp	.Lvictim_win1_continue
## Variant 447
.Lvictim_win1_var447:
	popq	%rax
	cmpl	$100, -28(%rbp)
	jg	LBB2_4
## %bb.2:                               ##   in Loop: Header=BB2_1 Depth=1
	movl	-28(%rbp), %eax
	addl	-20(%rbp), %eax
	jmp	.Lvictim_win1_continue
## Variant 448
.Lvictim_win1_var448:
	popq	%rax
	cmpl	$100, -28(%rbp)
	jg	LBB2_4
## %bb.2:                               ##   in Loop: Header=BB2_1 Depth=1
	movl	-28(%rbp), %eax
	addl	-20(%rbp), %eax
	jmp	.Lvictim_win1_continue
## Variant 449
.Lvictim_win1_var449:
	popq	%rax
	cmpl	$100, -28(%rbp)
	jg	LBB2_4
## %bb.2:                               ##   in Loop: Header=BB2_1 Depth=1
	movl	-28(%rbp), %eax
	addl	-20(%rbp), %eax
	jmp	.Lvictim_win1_continue
## Variant 450
.Lvictim_win1_var450:
	popq	%rax
	cmpl	$100, -28(%rbp)
	jg	LBB2_4
## %bb.2:                               ##   in Loop: Header=BB2_1 Depth=1
	movl	-28(%rbp), %eax
	addl	-20(%rbp), %eax
	jmp	.Lvictim_win1_continue
## Variant 451
.Lvictim_win1_var451:
	popq	%rax
	cmpl	$100, -28(%rbp)
	jg	LBB2_4
## %bb.2:                               ##   in Loop: Header=BB2_1 Depth=1
	movl	-28(%rbp), %eax
	addl	-20(%rbp), %eax
	jmp	.Lvictim_win1_continue
## Variant 452
.Lvictim_win1_var452:
	popq	%rax
	cmpl	$100, -28(%rbp)
	jg	LBB2_4
## %bb.2:                               ##   in Loop: Header=BB2_1 Depth=1
	movl	-28(%rbp), %eax
	addl	-20(%rbp), %eax
	jmp	.Lvictim_win1_continue
## Variant 453
.Lvictim_win1_var453:
	popq	%rax
	cmpl	$100, -28(%rbp)
	jg	LBB2_4
## %bb.2:                               ##   in Loop: Header=BB2_1 Depth=1
	movl	-28(%rbp), %eax
	addl	-20(%rbp), %eax
	jmp	.Lvictim_win1_continue
## Variant 454
.Lvictim_win1_var454:
	popq	%rax
	cmpl	$100, -28(%rbp)
	jg	LBB2_4
## %bb.2:                               ##   in Loop: Header=BB2_1 Depth=1
	movl	-28(%rbp), %eax
	addl	-20(%rbp), %eax
	jmp	.Lvictim_win1_continue
## Variant 455
.Lvictim_win1_var455:
	popq	%rax
	cmpl	$100, -28(%rbp)
	jg	LBB2_4
## %bb.2:                               ##   in Loop: Header=BB2_1 Depth=1
	movl	-28(%rbp), %eax
	addl	-20(%rbp), %eax
	jmp	.Lvictim_win1_continue
## Variant 456
.Lvictim_win1_var456:
	popq	%rax
	cmpl	$100, -28(%rbp)
	jg	LBB2_4
## %bb.2:                               ##   in Loop: Header=BB2_1 Depth=1
	movl	-28(%rbp), %eax
	addl	-20(%rbp), %eax
	jmp	.Lvictim_win1_continue
## Variant 457
.Lvictim_win1_var457:
	popq	%rax
	cmpl	$100, -28(%rbp)
	jg	LBB2_4
## %bb.2:                               ##   in Loop: Header=BB2_1 Depth=1
	movl	-28(%rbp), %eax
	addl	-20(%rbp), %eax
	jmp	.Lvictim_win1_continue
## Variant 458
.Lvictim_win1_var458:
	popq	%rax
	cmpl	$100, -28(%rbp)
	jg	LBB2_4
## %bb.2:                               ##   in Loop: Header=BB2_1 Depth=1
	movl	-28(%rbp), %eax
	addl	-20(%rbp), %eax
	jmp	.Lvictim_win1_continue
## Variant 459
.Lvictim_win1_var459:
	popq	%rax
	cmpl	$100, -28(%rbp)
	jg	LBB2_4
## %bb.2:                               ##   in Loop: Header=BB2_1 Depth=1
	movl	-28(%rbp), %eax
	addl	-20(%rbp), %eax
	jmp	.Lvictim_win1_continue
## Variant 460
.Lvictim_win1_var460:
	popq	%rax
	cmpl	$100, -28(%rbp)
	jg	LBB2_4
## %bb.2:                               ##   in Loop: Header=BB2_1 Depth=1
	movl	-28(%rbp), %eax
	addl	-20(%rbp), %eax
	jmp	.Lvictim_win1_continue
## Variant 461
.Lvictim_win1_var461:
	popq	%rax
	cmpl	$100, -28(%rbp)
	jg	LBB2_4
## %bb.2:                               ##   in Loop: Header=BB2_1 Depth=1
	movl	-28(%rbp), %eax
	addl	-20(%rbp), %eax
	jmp	.Lvictim_win1_continue
## Variant 462
.Lvictim_win1_var462:
	popq	%rax
	cmpl	$100, -28(%rbp)
	jg	LBB2_4
## %bb.2:                               ##   in Loop: Header=BB2_1 Depth=1
	movl	-28(%rbp), %eax
	addl	-20(%rbp), %eax
	jmp	.Lvictim_win1_continue
## Variant 463
.Lvictim_win1_var463:
	popq	%rax
	cmpl	$100, -28(%rbp)
	jg	LBB2_4
## %bb.2:                               ##   in Loop: Header=BB2_1 Depth=1
	movl	-28(%rbp), %eax
	addl	-20(%rbp), %eax
	jmp	.Lvictim_win1_continue
## Variant 464
.Lvictim_win1_var464:
	popq	%rax
	cmpl	$100, -28(%rbp)
	jg	LBB2_4
## %bb.2:                               ##   in Loop: Header=BB2_1 Depth=1
	movl	-28(%rbp), %eax
	addl	-20(%rbp), %eax
	jmp	.Lvictim_win1_continue
## Variant 465
.Lvictim_win1_var465:
	popq	%rax
	cmpl	$100, -28(%rbp)
	jg	LBB2_4
## %bb.2:                               ##   in Loop: Header=BB2_1 Depth=1
	movl	-28(%rbp), %eax
	addl	-20(%rbp), %eax
	jmp	.Lvictim_win1_continue
## Variant 466
.Lvictim_win1_var466:
	popq	%rax
	cmpl	$100, -28(%rbp)
	jg	LBB2_4
## %bb.2:                               ##   in Loop: Header=BB2_1 Depth=1
	movl	-28(%rbp), %eax
	addl	-20(%rbp), %eax
	jmp	.Lvictim_win1_continue
## Variant 467
.Lvictim_win1_var467:
	popq	%rax
	cmpl	$100, -28(%rbp)
	jg	LBB2_4
## %bb.2:                               ##   in Loop: Header=BB2_1 Depth=1
	movl	-28(%rbp), %eax
	addl	-20(%rbp), %eax
	jmp	.Lvictim_win1_continue
## Variant 468
.Lvictim_win1_var468:
	popq	%rax
	cmpl	$100, -28(%rbp)
	jg	LBB2_4
## %bb.2:                               ##   in Loop: Header=BB2_1 Depth=1
	movl	-28(%rbp), %eax
	addl	-20(%rbp), %eax
	jmp	.Lvictim_win1_continue
## Variant 469
.Lvictim_win1_var469:
	popq	%rax
	cmpl	$100, -28(%rbp)
	jg	LBB2_4
## %bb.2:                               ##   in Loop: Header=BB2_1 Depth=1
	movl	-28(%rbp), %eax
	addl	-20(%rbp), %eax
	jmp	.Lvictim_win1_continue
## Variant 470
.Lvictim_win1_var470:
	popq	%rax
	cmpl	$100, -28(%rbp)
	jg	LBB2_4
## %bb.2:                               ##   in Loop: Header=BB2_1 Depth=1
	movl	-28(%rbp), %eax
	addl	-20(%rbp), %eax
	jmp	.Lvictim_win1_continue
## Variant 471
.Lvictim_win1_var471:
	popq	%rax
	cmpl	$100, -28(%rbp)
	jg	LBB2_4
## %bb.2:                               ##   in Loop: Header=BB2_1 Depth=1
	movl	-28(%rbp), %eax
	addl	-20(%rbp), %eax
	jmp	.Lvictim_win1_continue
## Variant 472
.Lvictim_win1_var472:
	popq	%rax
	cmpl	$100, -28(%rbp)
	jg	LBB2_4
## %bb.2:                               ##   in Loop: Header=BB2_1 Depth=1
	movl	-28(%rbp), %eax
	addl	-20(%rbp), %eax
	jmp	.Lvictim_win1_continue
## Variant 473
.Lvictim_win1_var473:
	popq	%rax
	cmpl	$100, -28(%rbp)
	jg	LBB2_4
## %bb.2:                               ##   in Loop: Header=BB2_1 Depth=1
	movl	-28(%rbp), %eax
	addl	-20(%rbp), %eax
	jmp	.Lvictim_win1_continue
## Variant 474
.Lvictim_win1_var474:
	popq	%rax
	cmpl	$100, -28(%rbp)
	jg	LBB2_4
## %bb.2:                               ##   in Loop: Header=BB2_1 Depth=1
	movl	-28(%rbp), %eax
	addl	-20(%rbp), %eax
	jmp	.Lvictim_win1_continue
## Variant 475
.Lvictim_win1_var475:
	popq	%rax
	cmpl	$100, -28(%rbp)
	jg	LBB2_4
## %bb.2:                               ##   in Loop: Header=BB2_1 Depth=1
	movl	-28(%rbp), %eax
	addl	-20(%rbp), %eax
	jmp	.Lvictim_win1_continue
## Variant 476
.Lvictim_win1_var476:
	popq	%rax
	cmpl	$100, -28(%rbp)
	jg	LBB2_4
## %bb.2:                               ##   in Loop: Header=BB2_1 Depth=1
	movl	-28(%rbp), %eax
	addl	-20(%rbp), %eax
	jmp	.Lvictim_win1_continue
## Variant 477
.Lvictim_win1_var477:
	popq	%rax
	cmpl	$100, -28(%rbp)
	jg	LBB2_4
## %bb.2:                               ##   in Loop: Header=BB2_1 Depth=1
	movl	-28(%rbp), %eax
	addl	-20(%rbp), %eax
	jmp	.Lvictim_win1_continue
## Variant 478
.Lvictim_win1_var478:
	popq	%rax
	cmpl	$100, -28(%rbp)
	jg	LBB2_4
## %bb.2:                               ##   in Loop: Header=BB2_1 Depth=1
	movl	-28(%rbp), %eax
	addl	-20(%rbp), %eax
	jmp	.Lvictim_win1_continue
## Variant 479
.Lvictim_win1_var479:
	popq	%rax
	cmpl	$100, -28(%rbp)
	jg	LBB2_4
## %bb.2:                               ##   in Loop: Header=BB2_1 Depth=1
	movl	-28(%rbp), %eax
	addl	-20(%rbp), %eax
	jmp	.Lvictim_win1_continue
## Variant 480
.Lvictim_win1_var480:
	popq	%rax
	cmpl	$100, -28(%rbp)
	jg	LBB2_4
## %bb.2:                               ##   in Loop: Header=BB2_1 Depth=1
	movl	-28(%rbp), %eax
	addl	-20(%rbp), %eax
	jmp	.Lvictim_win1_continue
## Variant 481
.Lvictim_win1_var481:
	popq	%rax
	cmpl	$100, -28(%rbp)
	jg	LBB2_4
## %bb.2:                               ##   in Loop: Header=BB2_1 Depth=1
	movl	-28(%rbp), %eax
	addl	-20(%rbp), %eax
	jmp	.Lvictim_win1_continue
## Variant 482
.Lvictim_win1_var482:
	popq	%rax
	cmpl	$100, -28(%rbp)
	jg	LBB2_4
## %bb.2:                               ##   in Loop: Header=BB2_1 Depth=1
	movl	-28(%rbp), %eax
	addl	-20(%rbp), %eax
	jmp	.Lvictim_win1_continue
## Variant 483
.Lvictim_win1_var483:
	popq	%rax
	cmpl	$100, -28(%rbp)
	jg	LBB2_4
## %bb.2:                               ##   in Loop: Header=BB2_1 Depth=1
	movl	-28(%rbp), %eax
	addl	-20(%rbp), %eax
	jmp	.Lvictim_win1_continue
## Variant 484
.Lvictim_win1_var484:
	popq	%rax
	cmpl	$100, -28(%rbp)
	jg	LBB2_4
## %bb.2:                               ##   in Loop: Header=BB2_1 Depth=1
	movl	-28(%rbp), %eax
	addl	-20(%rbp), %eax
	jmp	.Lvictim_win1_continue
## Variant 485
.Lvictim_win1_var485:
	popq	%rax
	cmpl	$100, -28(%rbp)
	jg	LBB2_4
## %bb.2:                               ##   in Loop: Header=BB2_1 Depth=1
	movl	-28(%rbp), %eax
	addl	-20(%rbp), %eax
	jmp	.Lvictim_win1_continue
## Variant 486
.Lvictim_win1_var486:
	popq	%rax
	cmpl	$100, -28(%rbp)
	jg	LBB2_4
## %bb.2:                               ##   in Loop: Header=BB2_1 Depth=1
	movl	-28(%rbp), %eax
	addl	-20(%rbp), %eax
	jmp	.Lvictim_win1_continue
## Variant 487
.Lvictim_win1_var487:
	popq	%rax
	cmpl	$100, -28(%rbp)
	jg	LBB2_4
## %bb.2:                               ##   in Loop: Header=BB2_1 Depth=1
	movl	-28(%rbp), %eax
	addl	-20(%rbp), %eax
	jmp	.Lvictim_win1_continue
## Variant 488
.Lvictim_win1_var488:
	popq	%rax
	cmpl	$100, -28(%rbp)
	jg	LBB2_4
## %bb.2:                               ##   in Loop: Header=BB2_1 Depth=1
	movl	-28(%rbp), %eax
	addl	-20(%rbp), %eax
	jmp	.Lvictim_win1_continue
## Variant 489
.Lvictim_win1_var489:
	popq	%rax
	cmpl	$100, -28(%rbp)
	jg	LBB2_4
## %bb.2:                               ##   in Loop: Header=BB2_1 Depth=1
	movl	-28(%rbp), %eax
	addl	-20(%rbp), %eax
	jmp	.Lvictim_win1_continue
## Variant 490
.Lvictim_win1_var490:
	popq	%rax
	cmpl	$100, -28(%rbp)
	jg	LBB2_4
## %bb.2:                               ##   in Loop: Header=BB2_1 Depth=1
	movl	-28(%rbp), %eax
	addl	-20(%rbp), %eax
	jmp	.Lvictim_win1_continue
## Variant 491
.Lvictim_win1_var491:
	popq	%rax
	cmpl	$100, -28(%rbp)
	jg	LBB2_4
## %bb.2:                               ##   in Loop: Header=BB2_1 Depth=1
	movl	-28(%rbp), %eax
	addl	-20(%rbp), %eax
	jmp	.Lvictim_win1_continue
## Variant 492
.Lvictim_win1_var492:
	popq	%rax
	cmpl	$100, -28(%rbp)
	jg	LBB2_4
## %bb.2:                               ##   in Loop: Header=BB2_1 Depth=1
	movl	-28(%rbp), %eax
	addl	-20(%rbp), %eax
	jmp	.Lvictim_win1_continue
## Variant 493
.Lvictim_win1_var493:
	popq	%rax
	cmpl	$100, -28(%rbp)
	jg	LBB2_4
## %bb.2:                               ##   in Loop: Header=BB2_1 Depth=1
	movl	-28(%rbp), %eax
	addl	-20(%rbp), %eax
	jmp	.Lvictim_win1_continue
## Variant 494
.Lvictim_win1_var494:
	popq	%rax
	cmpl	$100, -28(%rbp)
	jg	LBB2_4
## %bb.2:                               ##   in Loop: Header=BB2_1 Depth=1
	movl	-28(%rbp), %eax
	addl	-20(%rbp), %eax
	jmp	.Lvictim_win1_continue
## Variant 495
.Lvictim_win1_var495:
	popq	%rax
	cmpl	$100, -28(%rbp)
	jg	LBB2_4
## %bb.2:                               ##   in Loop: Header=BB2_1 Depth=1
	movl	-28(%rbp), %eax
	addl	-20(%rbp), %eax
	jmp	.Lvictim_win1_continue
## Variant 496
.Lvictim_win1_var496:
	popq	%rax
	cmpl	$100, -28(%rbp)
	jg	LBB2_4
## %bb.2:                               ##   in Loop: Header=BB2_1 Depth=1
	movl	-28(%rbp), %eax
	addl	-20(%rbp), %eax
	jmp	.Lvictim_win1_continue
## Variant 497
.Lvictim_win1_var497:
	popq	%rax
	cmpl	$100, -28(%rbp)
	jg	LBB2_4
## %bb.2:                               ##   in Loop: Header=BB2_1 Depth=1
	movl	-28(%rbp), %eax
	addl	-20(%rbp), %eax
	jmp	.Lvictim_win1_continue
## Variant 498
.Lvictim_win1_var498:
	popq	%rax
	cmpl	$100, -28(%rbp)
	jg	LBB2_4
## %bb.2:                               ##   in Loop: Header=BB2_1 Depth=1
	movl	-28(%rbp), %eax
	addl	-20(%rbp), %eax
	jmp	.Lvictim_win1_continue
## Variant 499
.Lvictim_win1_var499:
	popq	%rax
	cmpl	$100, -28(%rbp)
	jg	LBB2_4
## %bb.2:                               ##   in Loop: Header=BB2_1 Depth=1
	movl	-28(%rbp), %eax
	addl	-20(%rbp), %eax
	jmp	.Lvictim_win1_continue
## Variant 500
.Lvictim_win1_var500:
	popq	%rax
	cmpl	$100, -28(%rbp)
	jg	LBB2_4
## %bb.2:                               ##   in Loop: Header=BB2_1 Depth=1
	movl	-28(%rbp), %eax
	addl	-20(%rbp), %eax
	jmp	.Lvictim_win1_continue
## Variant 501
.Lvictim_win1_var501:
	popq	%rax
	cmpl	$100, -28(%rbp)
	jg	LBB2_4
## %bb.2:                               ##   in Loop: Header=BB2_1 Depth=1
	movl	-28(%rbp), %eax
	addl	-20(%rbp), %eax
	jmp	.Lvictim_win1_continue
## Variant 502
.Lvictim_win1_var502:
	popq	%rax
	cmpl	$100, -28(%rbp)
	jg	LBB2_4
## %bb.2:                               ##   in Loop: Header=BB2_1 Depth=1
	movl	-28(%rbp), %eax
	addl	-20(%rbp), %eax
	jmp	.Lvictim_win1_continue
## Variant 503
.Lvictim_win1_var503:
	popq	%rax
	cmpl	$100, -28(%rbp)
	jg	LBB2_4
## %bb.2:                               ##   in Loop: Header=BB2_1 Depth=1
	movl	-28(%rbp), %eax
	addl	-20(%rbp), %eax
	jmp	.Lvictim_win1_continue
## Variant 504
.Lvictim_win1_var504:
	popq	%rax
	cmpl	$100, -28(%rbp)
	jg	LBB2_4
## %bb.2:                               ##   in Loop: Header=BB2_1 Depth=1
	movl	-28(%rbp), %eax
	addl	-20(%rbp), %eax
	jmp	.Lvictim_win1_continue
## Variant 505
.Lvictim_win1_var505:
	popq	%rax
	cmpl	$100, -28(%rbp)
	jg	LBB2_4
## %bb.2:                               ##   in Loop: Header=BB2_1 Depth=1
	movl	-28(%rbp), %eax
	addl	-20(%rbp), %eax
	jmp	.Lvictim_win1_continue
## Variant 506
.Lvictim_win1_var506:
	popq	%rax
	cmpl	$100, -28(%rbp)
	jg	LBB2_4
## %bb.2:                               ##   in Loop: Header=BB2_1 Depth=1
	movl	-28(%rbp), %eax
	addl	-20(%rbp), %eax
	jmp	.Lvictim_win1_continue
## Variant 507
.Lvictim_win1_var507:
	popq	%rax
	cmpl	$100, -28(%rbp)
	jg	LBB2_4
## %bb.2:                               ##   in Loop: Header=BB2_1 Depth=1
	movl	-28(%rbp), %eax
	addl	-20(%rbp), %eax
	jmp	.Lvictim_win1_continue
## Variant 508
.Lvictim_win1_var508:
	popq	%rax
	cmpl	$100, -28(%rbp)
	jg	LBB2_4
## %bb.2:                               ##   in Loop: Header=BB2_1 Depth=1
	movl	-28(%rbp), %eax
	addl	-20(%rbp), %eax
	jmp	.Lvictim_win1_continue
## Variant 509
.Lvictim_win1_var509:
	popq	%rax
	cmpl	$100, -28(%rbp)
	jg	LBB2_4
## %bb.2:                               ##   in Loop: Header=BB2_1 Depth=1
	movl	-28(%rbp), %eax
	addl	-20(%rbp), %eax
	jmp	.Lvictim_win1_continue
## Variant 510
.Lvictim_win1_var510:
	popq	%rax
	cmpl	$100, -28(%rbp)
	jg	LBB2_4
## %bb.2:                               ##   in Loop: Header=BB2_1 Depth=1
	movl	-28(%rbp), %eax
	addl	-20(%rbp), %eax
	jmp	.Lvictim_win1_continue
## Variant 511
.Lvictim_win1_var511:
	popq	%rax
	cmpl	$100, -28(%rbp)
	jg	LBB2_4
## %bb.2:                               ##   in Loop: Header=BB2_1 Depth=1
	movl	-28(%rbp), %eax
	addl	-20(%rbp), %eax
	jmp	.Lvictim_win1_continue
## Variant 512
.Lvictim_win1_var512:
	popq	%rax
	cmpl	$100, -28(%rbp)
	jg	LBB2_4
## %bb.2:                               ##   in Loop: Header=BB2_1 Depth=1
	movl	-28(%rbp), %eax
	addl	-20(%rbp), %eax
	jmp	.Lvictim_win1_continue
## Variant 513
.Lvictim_win1_var513:
	popq	%rax
	cmpl	$100, -28(%rbp)
	jg	LBB2_4
## %bb.2:                               ##   in Loop: Header=BB2_1 Depth=1
	movl	-28(%rbp), %eax
	addl	-20(%rbp), %eax
	jmp	.Lvictim_win1_continue
## Variant 514
.Lvictim_win1_var514:
	popq	%rax
	cmpl	$100, -28(%rbp)
	jg	LBB2_4
## %bb.2:                               ##   in Loop: Header=BB2_1 Depth=1
	movl	-28(%rbp), %eax
	addl	-20(%rbp), %eax
	jmp	.Lvictim_win1_continue
## Variant 515
.Lvictim_win1_var515:
	popq	%rax
	cmpl	$100, -28(%rbp)
	jg	LBB2_4
## %bb.2:                               ##   in Loop: Header=BB2_1 Depth=1
	movl	-28(%rbp), %eax
	addl	-20(%rbp), %eax
	jmp	.Lvictim_win1_continue
## Variant 516
.Lvictim_win1_var516:
	popq	%rax
	cmpl	$100, -28(%rbp)
	jg	LBB2_4
## %bb.2:                               ##   in Loop: Header=BB2_1 Depth=1
	movl	-28(%rbp), %eax
	addl	-20(%rbp), %eax
	jmp	.Lvictim_win1_continue
## Variant 517
.Lvictim_win1_var517:
	popq	%rax
	cmpl	$100, -28(%rbp)
	jg	LBB2_4
## %bb.2:                               ##   in Loop: Header=BB2_1 Depth=1
	movl	-28(%rbp), %eax
	addl	-20(%rbp), %eax
	jmp	.Lvictim_win1_continue
## Variant 518
.Lvictim_win1_var518:
	popq	%rax
	cmpl	$100, -28(%rbp)
	jg	LBB2_4
## %bb.2:                               ##   in Loop: Header=BB2_1 Depth=1
	movl	-28(%rbp), %eax
	addl	-20(%rbp), %eax
	jmp	.Lvictim_win1_continue
## Variant 519
.Lvictim_win1_var519:
	popq	%rax
	cmpl	$100, -28(%rbp)
	jg	LBB2_4
## %bb.2:                               ##   in Loop: Header=BB2_1 Depth=1
	movl	-28(%rbp), %eax
	addl	-20(%rbp), %eax
	jmp	.Lvictim_win1_continue
## Variant 520
.Lvictim_win1_var520:
	popq	%rax
	cmpl	$100, -28(%rbp)
	jg	LBB2_4
## %bb.2:                               ##   in Loop: Header=BB2_1 Depth=1
	movl	-28(%rbp), %eax
	addl	-20(%rbp), %eax
	jmp	.Lvictim_win1_continue
## Variant 521
.Lvictim_win1_var521:
	popq	%rax
	cmpl	$100, -28(%rbp)
	jg	LBB2_4
## %bb.2:                               ##   in Loop: Header=BB2_1 Depth=1
	movl	-28(%rbp), %eax
	addl	-20(%rbp), %eax
	jmp	.Lvictim_win1_continue
## Variant 522
.Lvictim_win1_var522:
	popq	%rax
	cmpl	$100, -28(%rbp)
	jg	LBB2_4
## %bb.2:                               ##   in Loop: Header=BB2_1 Depth=1
	movl	-28(%rbp), %eax
	addl	-20(%rbp), %eax
	jmp	.Lvictim_win1_continue
## Variant 523
.Lvictim_win1_var523:
	popq	%rax
	cmpl	$100, -28(%rbp)
	jg	LBB2_4
## %bb.2:                               ##   in Loop: Header=BB2_1 Depth=1
	movl	-28(%rbp), %eax
	addl	-20(%rbp), %eax
	jmp	.Lvictim_win1_continue
## Variant 524
.Lvictim_win1_var524:
	popq	%rax
	cmpl	$100, -28(%rbp)
	jg	LBB2_4
## %bb.2:                               ##   in Loop: Header=BB2_1 Depth=1
	movl	-28(%rbp), %eax
	addl	-20(%rbp), %eax
	jmp	.Lvictim_win1_continue
## Variant 525
.Lvictim_win1_var525:
	popq	%rax
	cmpl	$100, -28(%rbp)
	jg	LBB2_4
## %bb.2:                               ##   in Loop: Header=BB2_1 Depth=1
	movl	-28(%rbp), %eax
	addl	-20(%rbp), %eax
	jmp	.Lvictim_win1_continue
## Variant 526
.Lvictim_win1_var526:
	popq	%rax
	cmpl	$100, -28(%rbp)
	jg	LBB2_4
## %bb.2:                               ##   in Loop: Header=BB2_1 Depth=1
	movl	-28(%rbp), %eax
	addl	-20(%rbp), %eax
	jmp	.Lvictim_win1_continue
## Variant 527
.Lvictim_win1_var527:
	popq	%rax
	cmpl	$100, -28(%rbp)
	jg	LBB2_4
## %bb.2:                               ##   in Loop: Header=BB2_1 Depth=1
	movl	-28(%rbp), %eax
	addl	-20(%rbp), %eax
	jmp	.Lvictim_win1_continue
## Variant 528
.Lvictim_win1_var528:
	popq	%rax
	cmpl	$100, -28(%rbp)
	jg	LBB2_4
## %bb.2:                               ##   in Loop: Header=BB2_1 Depth=1
	movl	-28(%rbp), %eax
	addl	-20(%rbp), %eax
	jmp	.Lvictim_win1_continue
## Variant 529
.Lvictim_win1_var529:
	popq	%rax
	cmpl	$100, -28(%rbp)
	jg	LBB2_4
## %bb.2:                               ##   in Loop: Header=BB2_1 Depth=1
	movl	-28(%rbp), %eax
	addl	-20(%rbp), %eax
	jmp	.Lvictim_win1_continue
## Variant 530
.Lvictim_win1_var530:
	popq	%rax
	cmpl	$100, -28(%rbp)
	jg	LBB2_4
## %bb.2:                               ##   in Loop: Header=BB2_1 Depth=1
	movl	-28(%rbp), %eax
	addl	-20(%rbp), %eax
	jmp	.Lvictim_win1_continue
## Variant 531
.Lvictim_win1_var531:
	popq	%rax
	cmpl	$100, -28(%rbp)
	jg	LBB2_4
## %bb.2:                               ##   in Loop: Header=BB2_1 Depth=1
	movl	-28(%rbp), %eax
	addl	-20(%rbp), %eax
	jmp	.Lvictim_win1_continue
## Variant 532
.Lvictim_win1_var532:
	popq	%rax
	cmpl	$100, -28(%rbp)
	jg	LBB2_4
## %bb.2:                               ##   in Loop: Header=BB2_1 Depth=1
	movl	-28(%rbp), %eax
	addl	-20(%rbp), %eax
	jmp	.Lvictim_win1_continue
## Variant 533
.Lvictim_win1_var533:
	popq	%rax
	cmpl	$100, -28(%rbp)
	jg	LBB2_4
## %bb.2:                               ##   in Loop: Header=BB2_1 Depth=1
	movl	-28(%rbp), %eax
	addl	-20(%rbp), %eax
	jmp	.Lvictim_win1_continue
## Variant 534
.Lvictim_win1_var534:
	popq	%rax
	cmpl	$100, -28(%rbp)
	jg	LBB2_4
## %bb.2:                               ##   in Loop: Header=BB2_1 Depth=1
	movl	-28(%rbp), %eax
	addl	-20(%rbp), %eax
	jmp	.Lvictim_win1_continue
## Variant 535
.Lvictim_win1_var535:
	popq	%rax
	cmpl	$100, -28(%rbp)
	jg	LBB2_4
## %bb.2:                               ##   in Loop: Header=BB2_1 Depth=1
	movl	-28(%rbp), %eax
	addl	-20(%rbp), %eax
	jmp	.Lvictim_win1_continue
## Variant 536
.Lvictim_win1_var536:
	popq	%rax
	cmpl	$100, -28(%rbp)
	jg	LBB2_4
## %bb.2:                               ##   in Loop: Header=BB2_1 Depth=1
	movl	-28(%rbp), %eax
	addl	-20(%rbp), %eax
	jmp	.Lvictim_win1_continue
## Variant 537
.Lvictim_win1_var537:
	popq	%rax
	cmpl	$100, -28(%rbp)
	jg	LBB2_4
## %bb.2:                               ##   in Loop: Header=BB2_1 Depth=1
	movl	-28(%rbp), %eax
	addl	-20(%rbp), %eax
	jmp	.Lvictim_win1_continue
## Variant 538
.Lvictim_win1_var538:
	popq	%rax
	cmpl	$100, -28(%rbp)
	jg	LBB2_4
## %bb.2:                               ##   in Loop: Header=BB2_1 Depth=1
	movl	-28(%rbp), %eax
	addl	-20(%rbp), %eax
	jmp	.Lvictim_win1_continue
## Variant 539
.Lvictim_win1_var539:
	popq	%rax
	cmpl	$100, -28(%rbp)
	jg	LBB2_4
## %bb.2:                               ##   in Loop: Header=BB2_1 Depth=1
	movl	-28(%rbp), %eax
	addl	-20(%rbp), %eax
	jmp	.Lvictim_win1_continue
## Variant 540
.Lvictim_win1_var540:
	popq	%rax
	cmpl	$100, -28(%rbp)
	jg	LBB2_4
## %bb.2:                               ##   in Loop: Header=BB2_1 Depth=1
	movl	-28(%rbp), %eax
	addl	-20(%rbp), %eax
	jmp	.Lvictim_win1_continue
## Variant 541
.Lvictim_win1_var541:
	popq	%rax
	cmpl	$100, -28(%rbp)
	jg	LBB2_4
## %bb.2:                               ##   in Loop: Header=BB2_1 Depth=1
	movl	-28(%rbp), %eax
	addl	-20(%rbp), %eax
	jmp	.Lvictim_win1_continue
## Variant 542
.Lvictim_win1_var542:
	popq	%rax
	cmpl	$100, -28(%rbp)
	jg	LBB2_4
## %bb.2:                               ##   in Loop: Header=BB2_1 Depth=1
	movl	-28(%rbp), %eax
	addl	-20(%rbp), %eax
	jmp	.Lvictim_win1_continue
## Variant 543
.Lvictim_win1_var543:
	popq	%rax
	cmpl	$100, -28(%rbp)
	jg	LBB2_4
## %bb.2:                               ##   in Loop: Header=BB2_1 Depth=1
	movl	-28(%rbp), %eax
	addl	-20(%rbp), %eax
	jmp	.Lvictim_win1_continue
## Variant 544
.Lvictim_win1_var544:
	popq	%rax
	cmpl	$100, -28(%rbp)
	jg	LBB2_4
## %bb.2:                               ##   in Loop: Header=BB2_1 Depth=1
	movl	-28(%rbp), %eax
	addl	-20(%rbp), %eax
	jmp	.Lvictim_win1_continue
## Variant 545
.Lvictim_win1_var545:
	popq	%rax
	cmpl	$100, -28(%rbp)
	jg	LBB2_4
## %bb.2:                               ##   in Loop: Header=BB2_1 Depth=1
	movl	-28(%rbp), %eax
	addl	-20(%rbp), %eax
	jmp	.Lvictim_win1_continue
## Variant 546
.Lvictim_win1_var546:
	popq	%rax
	cmpl	$100, -28(%rbp)
	jg	LBB2_4
## %bb.2:                               ##   in Loop: Header=BB2_1 Depth=1
	movl	-28(%rbp), %eax
	addl	-20(%rbp), %eax
	jmp	.Lvictim_win1_continue
## Variant 547
.Lvictim_win1_var547:
	popq	%rax
	cmpl	$100, -28(%rbp)
	jg	LBB2_4
## %bb.2:                               ##   in Loop: Header=BB2_1 Depth=1
	movl	-28(%rbp), %eax
	addl	-20(%rbp), %eax
	jmp	.Lvictim_win1_continue
## Variant 548
.Lvictim_win1_var548:
	popq	%rax
	cmpl	$100, -28(%rbp)
	jg	LBB2_4
## %bb.2:                               ##   in Loop: Header=BB2_1 Depth=1
	movl	-28(%rbp), %eax
	addl	-20(%rbp), %eax
	jmp	.Lvictim_win1_continue
## Variant 549
.Lvictim_win1_var549:
	popq	%rax
	cmpl	$100, -28(%rbp)
	jg	LBB2_4
## %bb.2:                               ##   in Loop: Header=BB2_1 Depth=1
	movl	-28(%rbp), %eax
	addl	-20(%rbp), %eax
	jmp	.Lvictim_win1_continue
## Variant 550
.Lvictim_win1_var550:
	popq	%rax
	cmpl	$100, -28(%rbp)
	jg	LBB2_4
## %bb.2:                               ##   in Loop: Header=BB2_1 Depth=1
	movl	-28(%rbp), %eax
	addl	-20(%rbp), %eax
	jmp	.Lvictim_win1_continue
## Variant 551
.Lvictim_win1_var551:
	popq	%rax
	cmpl	$100, -28(%rbp)
	jg	LBB2_4
## %bb.2:                               ##   in Loop: Header=BB2_1 Depth=1
	movl	-28(%rbp), %eax
	addl	-20(%rbp), %eax
	jmp	.Lvictim_win1_continue
## Variant 552
.Lvictim_win1_var552:
	popq	%rax
	cmpl	$100, -28(%rbp)
	jg	LBB2_4
## %bb.2:                               ##   in Loop: Header=BB2_1 Depth=1
	movl	-28(%rbp), %eax
	addl	-20(%rbp), %eax
	jmp	.Lvictim_win1_continue
## Variant 553
.Lvictim_win1_var553:
	popq	%rax
	cmpl	$100, -28(%rbp)
	jg	LBB2_4
## %bb.2:                               ##   in Loop: Header=BB2_1 Depth=1
	movl	-28(%rbp), %eax
	addl	-20(%rbp), %eax
	jmp	.Lvictim_win1_continue
## Variant 554
.Lvictim_win1_var554:
	popq	%rax
	cmpl	$100, -28(%rbp)
	jg	LBB2_4
## %bb.2:                               ##   in Loop: Header=BB2_1 Depth=1
	movl	-28(%rbp), %eax
	addl	-20(%rbp), %eax
	jmp	.Lvictim_win1_continue
## Variant 555
.Lvictim_win1_var555:
	popq	%rax
	cmpl	$100, -28(%rbp)
	jg	LBB2_4
## %bb.2:                               ##   in Loop: Header=BB2_1 Depth=1
	movl	-28(%rbp), %eax
	addl	-20(%rbp), %eax
	jmp	.Lvictim_win1_continue
## Variant 556
.Lvictim_win1_var556:
	popq	%rax
	cmpl	$100, -28(%rbp)
	jg	LBB2_4
## %bb.2:                               ##   in Loop: Header=BB2_1 Depth=1
	movl	-28(%rbp), %eax
	addl	-20(%rbp), %eax
	jmp	.Lvictim_win1_continue
## Variant 557
.Lvictim_win1_var557:
	popq	%rax
	cmpl	$100, -28(%rbp)
	jg	LBB2_4
## %bb.2:                               ##   in Loop: Header=BB2_1 Depth=1
	movl	-28(%rbp), %eax
	addl	-20(%rbp), %eax
	jmp	.Lvictim_win1_continue
## Variant 558
.Lvictim_win1_var558:
	popq	%rax
	cmpl	$100, -28(%rbp)
	jg	LBB2_4
## %bb.2:                               ##   in Loop: Header=BB2_1 Depth=1
	movl	-28(%rbp), %eax
	addl	-20(%rbp), %eax
	jmp	.Lvictim_win1_continue
## Variant 559
.Lvictim_win1_var559:
	popq	%rax
	cmpl	$100, -28(%rbp)
	jg	LBB2_4
## %bb.2:                               ##   in Loop: Header=BB2_1 Depth=1
	movl	-28(%rbp), %eax
	addl	-20(%rbp), %eax
	jmp	.Lvictim_win1_continue
## Variant 560
.Lvictim_win1_var560:
	popq	%rax
	cmpl	$100, -28(%rbp)
	jg	LBB2_4
## %bb.2:                               ##   in Loop: Header=BB2_1 Depth=1
	movl	-28(%rbp), %eax
	addl	-20(%rbp), %eax
	jmp	.Lvictim_win1_continue
## Variant 561
.Lvictim_win1_var561:
	popq	%rax
	cmpl	$100, -28(%rbp)
	jg	LBB2_4
## %bb.2:                               ##   in Loop: Header=BB2_1 Depth=1
	movl	-28(%rbp), %eax
	addl	-20(%rbp), %eax
	jmp	.Lvictim_win1_continue
## Variant 562
.Lvictim_win1_var562:
	popq	%rax
	cmpl	$100, -28(%rbp)
	jg	LBB2_4
## %bb.2:                               ##   in Loop: Header=BB2_1 Depth=1
	movl	-28(%rbp), %eax
	addl	-20(%rbp), %eax
	jmp	.Lvictim_win1_continue
## Variant 563
.Lvictim_win1_var563:
	popq	%rax
	cmpl	$100, -28(%rbp)
	jg	LBB2_4
## %bb.2:                               ##   in Loop: Header=BB2_1 Depth=1
	movl	-28(%rbp), %eax
	addl	-20(%rbp), %eax
	jmp	.Lvictim_win1_continue
## Variant 564
.Lvictim_win1_var564:
	popq	%rax
	cmpl	$100, -28(%rbp)
	jg	LBB2_4
## %bb.2:                               ##   in Loop: Header=BB2_1 Depth=1
	movl	-28(%rbp), %eax
	addl	-20(%rbp), %eax
	jmp	.Lvictim_win1_continue
## Variant 565
.Lvictim_win1_var565:
	popq	%rax
	cmpl	$100, -28(%rbp)
	jg	LBB2_4
## %bb.2:                               ##   in Loop: Header=BB2_1 Depth=1
	movl	-28(%rbp), %eax
	addl	-20(%rbp), %eax
	jmp	.Lvictim_win1_continue
## Variant 566
.Lvictim_win1_var566:
	popq	%rax
	cmpl	$100, -28(%rbp)
	jg	LBB2_4
## %bb.2:                               ##   in Loop: Header=BB2_1 Depth=1
	movl	-28(%rbp), %eax
	addl	-20(%rbp), %eax
	jmp	.Lvictim_win1_continue
## Variant 567
.Lvictim_win1_var567:
	popq	%rax
	cmpl	$100, -28(%rbp)
	jg	LBB2_4
## %bb.2:                               ##   in Loop: Header=BB2_1 Depth=1
	movl	-28(%rbp), %eax
	addl	-20(%rbp), %eax
	jmp	.Lvictim_win1_continue
## Variant 568
.Lvictim_win1_var568:
	popq	%rax
	cmpl	$100, -28(%rbp)
	jg	LBB2_4
## %bb.2:                               ##   in Loop: Header=BB2_1 Depth=1
	movl	-28(%rbp), %eax
	addl	-20(%rbp), %eax
	jmp	.Lvictim_win1_continue
## Variant 569
.Lvictim_win1_var569:
	popq	%rax
	cmpl	$100, -28(%rbp)
	jg	LBB2_4
## %bb.2:                               ##   in Loop: Header=BB2_1 Depth=1
	movl	-28(%rbp), %eax
	addl	-20(%rbp), %eax
	jmp	.Lvictim_win1_continue
## Variant 570
.Lvictim_win1_var570:
	popq	%rax
	cmpl	$100, -28(%rbp)
	jg	LBB2_4
## %bb.2:                               ##   in Loop: Header=BB2_1 Depth=1
	movl	-28(%rbp), %eax
	addl	-20(%rbp), %eax
	jmp	.Lvictim_win1_continue
## Variant 571
.Lvictim_win1_var571:
	popq	%rax
	cmpl	$100, -28(%rbp)
	jg	LBB2_4
## %bb.2:                               ##   in Loop: Header=BB2_1 Depth=1
	movl	-28(%rbp), %eax
	addl	-20(%rbp), %eax
	jmp	.Lvictim_win1_continue
## Variant 572
.Lvictim_win1_var572:
	popq	%rax
	cmpl	$100, -28(%rbp)
	jg	LBB2_4
## %bb.2:                               ##   in Loop: Header=BB2_1 Depth=1
	movl	-28(%rbp), %eax
	addl	-20(%rbp), %eax
	jmp	.Lvictim_win1_continue
## Variant 573
.Lvictim_win1_var573:
	popq	%rax
	cmpl	$100, -28(%rbp)
	jg	LBB2_4
## %bb.2:                               ##   in Loop: Header=BB2_1 Depth=1
	movl	-28(%rbp), %eax
	addl	-20(%rbp), %eax
	jmp	.Lvictim_win1_continue
## Variant 574
.Lvictim_win1_var574:
	popq	%rax
	cmpl	$100, -28(%rbp)
	jg	LBB2_4
## %bb.2:                               ##   in Loop: Header=BB2_1 Depth=1
	movl	-28(%rbp), %eax
	addl	-20(%rbp), %eax
	jmp	.Lvictim_win1_continue
## Variant 575
.Lvictim_win1_var575:
	popq	%rax
	cmpl	$100, -28(%rbp)
	jg	LBB2_4
## %bb.2:                               ##   in Loop: Header=BB2_1 Depth=1
	movl	-28(%rbp), %eax
	addl	-20(%rbp), %eax
	jmp	.Lvictim_win1_continue
## Variant 576
.Lvictim_win1_var576:
	popq	%rax
	cmpl	$100, -28(%rbp)
	jg	LBB2_4
## %bb.2:                               ##   in Loop: Header=BB2_1 Depth=1
	movl	-28(%rbp), %eax
	addl	-20(%rbp), %eax
	jmp	.Lvictim_win1_continue
## Variant 577
.Lvictim_win1_var577:
	popq	%rax
	cmpl	$100, -28(%rbp)
	jg	LBB2_4
## %bb.2:                               ##   in Loop: Header=BB2_1 Depth=1
	movl	-28(%rbp), %eax
	addl	-20(%rbp), %eax
	jmp	.Lvictim_win1_continue
## Variant 578
.Lvictim_win1_var578:
	popq	%rax
	cmpl	$100, -28(%rbp)
	jg	LBB2_4
## %bb.2:                               ##   in Loop: Header=BB2_1 Depth=1
	movl	-28(%rbp), %eax
	addl	-20(%rbp), %eax
	jmp	.Lvictim_win1_continue
## Variant 579
.Lvictim_win1_var579:
	popq	%rax
	cmpl	$100, -28(%rbp)
	jg	LBB2_4
## %bb.2:                               ##   in Loop: Header=BB2_1 Depth=1
	movl	-28(%rbp), %eax
	addl	-20(%rbp), %eax
	jmp	.Lvictim_win1_continue
## Variant 580
.Lvictim_win1_var580:
	popq	%rax
	cmpl	$100, -28(%rbp)
	jg	LBB2_4
## %bb.2:                               ##   in Loop: Header=BB2_1 Depth=1
	movl	-28(%rbp), %eax
	addl	-20(%rbp), %eax
	jmp	.Lvictim_win1_continue
## Variant 581
.Lvictim_win1_var581:
	popq	%rax
	cmpl	$100, -28(%rbp)
	jg	LBB2_4
## %bb.2:                               ##   in Loop: Header=BB2_1 Depth=1
	movl	-28(%rbp), %eax
	addl	-20(%rbp), %eax
	jmp	.Lvictim_win1_continue
## Variant 582
.Lvictim_win1_var582:
	popq	%rax
	cmpl	$100, -28(%rbp)
	jg	LBB2_4
## %bb.2:                               ##   in Loop: Header=BB2_1 Depth=1
	movl	-28(%rbp), %eax
	addl	-20(%rbp), %eax
	jmp	.Lvictim_win1_continue
## Variant 583
.Lvictim_win1_var583:
	popq	%rax
	cmpl	$100, -28(%rbp)
	jg	LBB2_4
## %bb.2:                               ##   in Loop: Header=BB2_1 Depth=1
	movl	-28(%rbp), %eax
	addl	-20(%rbp), %eax
	jmp	.Lvictim_win1_continue
## Variant 584
.Lvictim_win1_var584:
	popq	%rax
	cmpl	$100, -28(%rbp)
	jg	LBB2_4
## %bb.2:                               ##   in Loop: Header=BB2_1 Depth=1
	movl	-28(%rbp), %eax
	addl	-20(%rbp), %eax
	jmp	.Lvictim_win1_continue
## Variant 585
.Lvictim_win1_var585:
	popq	%rax
	cmpl	$100, -28(%rbp)
	jg	LBB2_4
## %bb.2:                               ##   in Loop: Header=BB2_1 Depth=1
	movl	-28(%rbp), %eax
	addl	-20(%rbp), %eax
	jmp	.Lvictim_win1_continue
## Variant 586
.Lvictim_win1_var586:
	popq	%rax
	cmpl	$100, -28(%rbp)
	jg	LBB2_4
## %bb.2:                               ##   in Loop: Header=BB2_1 Depth=1
	movl	-28(%rbp), %eax
	addl	-20(%rbp), %eax
	jmp	.Lvictim_win1_continue
## Variant 587
.Lvictim_win1_var587:
	popq	%rax
	cmpl	$100, -28(%rbp)
	jg	LBB2_4
## %bb.2:                               ##   in Loop: Header=BB2_1 Depth=1
	movl	-28(%rbp), %eax
	addl	-20(%rbp), %eax
	jmp	.Lvictim_win1_continue
## Variant 588
.Lvictim_win1_var588:
	popq	%rax
	cmpl	$100, -28(%rbp)
	jg	LBB2_4
## %bb.2:                               ##   in Loop: Header=BB2_1 Depth=1
	movl	-28(%rbp), %eax
	addl	-20(%rbp), %eax
	jmp	.Lvictim_win1_continue
## Variant 589
.Lvictim_win1_var589:
	popq	%rax
	cmpl	$100, -28(%rbp)
	jg	LBB2_4
## %bb.2:                               ##   in Loop: Header=BB2_1 Depth=1
	movl	-28(%rbp), %eax
	addl	-20(%rbp), %eax
	jmp	.Lvictim_win1_continue
## Variant 590
.Lvictim_win1_var590:
	popq	%rax
	cmpl	$100, -28(%rbp)
	jg	LBB2_4
## %bb.2:                               ##   in Loop: Header=BB2_1 Depth=1
	movl	-28(%rbp), %eax
	addl	-20(%rbp), %eax
	jmp	.Lvictim_win1_continue
## Variant 591
.Lvictim_win1_var591:
	popq	%rax
	cmpl	$100, -28(%rbp)
	jg	LBB2_4
## %bb.2:                               ##   in Loop: Header=BB2_1 Depth=1
	movl	-28(%rbp), %eax
	addl	-20(%rbp), %eax
	jmp	.Lvictim_win1_continue
## Variant 592
.Lvictim_win1_var592:
	popq	%rax
	cmpl	$100, -28(%rbp)
	jg	LBB2_4
## %bb.2:                               ##   in Loop: Header=BB2_1 Depth=1
	movl	-28(%rbp), %eax
	addl	-20(%rbp), %eax
	jmp	.Lvictim_win1_continue
## Variant 593
.Lvictim_win1_var593:
	popq	%rax
	cmpl	$100, -28(%rbp)
	jg	LBB2_4
## %bb.2:                               ##   in Loop: Header=BB2_1 Depth=1
	movl	-28(%rbp), %eax
	addl	-20(%rbp), %eax
	jmp	.Lvictim_win1_continue
## Variant 594
.Lvictim_win1_var594:
	popq	%rax
	cmpl	$100, -28(%rbp)
	jg	LBB2_4
## %bb.2:                               ##   in Loop: Header=BB2_1 Depth=1
	movl	-28(%rbp), %eax
	addl	-20(%rbp), %eax
	jmp	.Lvictim_win1_continue
## Variant 595
.Lvictim_win1_var595:
	popq	%rax
	cmpl	$100, -28(%rbp)
	jg	LBB2_4
## %bb.2:                               ##   in Loop: Header=BB2_1 Depth=1
	movl	-28(%rbp), %eax
	addl	-20(%rbp), %eax
	jmp	.Lvictim_win1_continue
## Variant 596
.Lvictim_win1_var596:
	popq	%rax
	cmpl	$100, -28(%rbp)
	jg	LBB2_4
## %bb.2:                               ##   in Loop: Header=BB2_1 Depth=1
	movl	-28(%rbp), %eax
	addl	-20(%rbp), %eax
	jmp	.Lvictim_win1_continue
## Variant 597
.Lvictim_win1_var597:
	popq	%rax
	cmpl	$100, -28(%rbp)
	jg	LBB2_4
## %bb.2:                               ##   in Loop: Header=BB2_1 Depth=1
	movl	-28(%rbp), %eax
	addl	-20(%rbp), %eax
	jmp	.Lvictim_win1_continue
## Variant 598
.Lvictim_win1_var598:
	popq	%rax
	cmpl	$100, -28(%rbp)
	jg	LBB2_4
## %bb.2:                               ##   in Loop: Header=BB2_1 Depth=1
	movl	-28(%rbp), %eax
	addl	-20(%rbp), %eax
	jmp	.Lvictim_win1_continue
## Variant 599
.Lvictim_win1_var599:
	popq	%rax
	cmpl	$100, -28(%rbp)
	jg	LBB2_4
## %bb.2:                               ##   in Loop: Header=BB2_1 Depth=1
	movl	-28(%rbp), %eax
	addl	-20(%rbp), %eax
	jmp	.Lvictim_win1_continue
## Variant 600
.Lvictim_win1_var600:
	popq	%rax
	cmpl	$100, -28(%rbp)
	jg	LBB2_4
## %bb.2:                               ##   in Loop: Header=BB2_1 Depth=1
	movl	-28(%rbp), %eax
	addl	-20(%rbp), %eax
	jmp	.Lvictim_win1_continue
## Variant 601
.Lvictim_win1_var601:
	popq	%rax
	cmpl	$100, -28(%rbp)
	jg	LBB2_4
## %bb.2:                               ##   in Loop: Header=BB2_1 Depth=1
	movl	-28(%rbp), %eax
	addl	-20(%rbp), %eax
	jmp	.Lvictim_win1_continue
## Variant 602
.Lvictim_win1_var602:
	popq	%rax
	cmpl	$100, -28(%rbp)
	jg	LBB2_4
## %bb.2:                               ##   in Loop: Header=BB2_1 Depth=1
	movl	-28(%rbp), %eax
	addl	-20(%rbp), %eax
	jmp	.Lvictim_win1_continue
## Variant 603
.Lvictim_win1_var603:
	popq	%rax
	cmpl	$100, -28(%rbp)
	jg	LBB2_4
## %bb.2:                               ##   in Loop: Header=BB2_1 Depth=1
	movl	-28(%rbp), %eax
	addl	-20(%rbp), %eax
	jmp	.Lvictim_win1_continue
## Variant 604
.Lvictim_win1_var604:
	popq	%rax
	cmpl	$100, -28(%rbp)
	jg	LBB2_4
## %bb.2:                               ##   in Loop: Header=BB2_1 Depth=1
	movl	-28(%rbp), %eax
	addl	-20(%rbp), %eax
	jmp	.Lvictim_win1_continue
## Variant 605
.Lvictim_win1_var605:
	popq	%rax
	cmpl	$100, -28(%rbp)
	jg	LBB2_4
## %bb.2:                               ##   in Loop: Header=BB2_1 Depth=1
	movl	-28(%rbp), %eax
	addl	-20(%rbp), %eax
	jmp	.Lvictim_win1_continue
## Variant 606
.Lvictim_win1_var606:
	popq	%rax
	cmpl	$100, -28(%rbp)
	jg	LBB2_4
## %bb.2:                               ##   in Loop: Header=BB2_1 Depth=1
	movl	-28(%rbp), %eax
	addl	-20(%rbp), %eax
	jmp	.Lvictim_win1_continue
## Variant 607
.Lvictim_win1_var607:
	popq	%rax
	cmpl	$100, -28(%rbp)
	jg	LBB2_4
## %bb.2:                               ##   in Loop: Header=BB2_1 Depth=1
	movl	-28(%rbp), %eax
	addl	-20(%rbp), %eax
	jmp	.Lvictim_win1_continue
## Variant 608
.Lvictim_win1_var608:
	popq	%rax
	cmpl	$100, -28(%rbp)
	jg	LBB2_4
## %bb.2:                               ##   in Loop: Header=BB2_1 Depth=1
	movl	-28(%rbp), %eax
	addl	-20(%rbp), %eax
	jmp	.Lvictim_win1_continue
## Variant 609
.Lvictim_win1_var609:
	popq	%rax
	cmpl	$100, -28(%rbp)
	jg	LBB2_4
## %bb.2:                               ##   in Loop: Header=BB2_1 Depth=1
	movl	-28(%rbp), %eax
	addl	-20(%rbp), %eax
	jmp	.Lvictim_win1_continue
## Variant 610
.Lvictim_win1_var610:
	popq	%rax
	cmpl	$100, -28(%rbp)
	jg	LBB2_4
## %bb.2:                               ##   in Loop: Header=BB2_1 Depth=1
	movl	-28(%rbp), %eax
	addl	-20(%rbp), %eax
	jmp	.Lvictim_win1_continue
## Variant 611
.Lvictim_win1_var611:
	popq	%rax
	cmpl	$100, -28(%rbp)
	jg	LBB2_4
## %bb.2:                               ##   in Loop: Header=BB2_1 Depth=1
	movl	-28(%rbp), %eax
	addl	-20(%rbp), %eax
	jmp	.Lvictim_win1_continue
## Variant 612
.Lvictim_win1_var612:
	popq	%rax
	cmpl	$100, -28(%rbp)
	jg	LBB2_4
## %bb.2:                               ##   in Loop: Header=BB2_1 Depth=1
	movl	-28(%rbp), %eax
	addl	-20(%rbp), %eax
	jmp	.Lvictim_win1_continue
## Variant 613
.Lvictim_win1_var613:
	popq	%rax
	cmpl	$100, -28(%rbp)
	jg	LBB2_4
## %bb.2:                               ##   in Loop: Header=BB2_1 Depth=1
	movl	-28(%rbp), %eax
	addl	-20(%rbp), %eax
	jmp	.Lvictim_win1_continue
## Variant 614
.Lvictim_win1_var614:
	popq	%rax
	cmpl	$100, -28(%rbp)
	jg	LBB2_4
## %bb.2:                               ##   in Loop: Header=BB2_1 Depth=1
	movl	-28(%rbp), %eax
	addl	-20(%rbp), %eax
	jmp	.Lvictim_win1_continue
## Variant 615
.Lvictim_win1_var615:
	popq	%rax
	cmpl	$100, -28(%rbp)
	jg	LBB2_4
## %bb.2:                               ##   in Loop: Header=BB2_1 Depth=1
	movl	-28(%rbp), %eax
	addl	-20(%rbp), %eax
	jmp	.Lvictim_win1_continue
## Variant 616
.Lvictim_win1_var616:
	popq	%rax
	cmpl	$100, -28(%rbp)
	jg	LBB2_4
## %bb.2:                               ##   in Loop: Header=BB2_1 Depth=1
	movl	-28(%rbp), %eax
	addl	-20(%rbp), %eax
	jmp	.Lvictim_win1_continue
## Variant 617
.Lvictim_win1_var617:
	popq	%rax
	cmpl	$100, -28(%rbp)
	jg	LBB2_4
## %bb.2:                               ##   in Loop: Header=BB2_1 Depth=1
	movl	-28(%rbp), %eax
	addl	-20(%rbp), %eax
	jmp	.Lvictim_win1_continue
## Variant 618
.Lvictim_win1_var618:
	popq	%rax
	cmpl	$100, -28(%rbp)
	jg	LBB2_4
## %bb.2:                               ##   in Loop: Header=BB2_1 Depth=1
	movl	-28(%rbp), %eax
	addl	-20(%rbp), %eax
	jmp	.Lvictim_win1_continue
## Variant 619
.Lvictim_win1_var619:
	popq	%rax
	cmpl	$100, -28(%rbp)
	jg	LBB2_4
## %bb.2:                               ##   in Loop: Header=BB2_1 Depth=1
	movl	-28(%rbp), %eax
	addl	-20(%rbp), %eax
	jmp	.Lvictim_win1_continue
## Variant 620
.Lvictim_win1_var620:
	popq	%rax
	cmpl	$100, -28(%rbp)
	jg	LBB2_4
## %bb.2:                               ##   in Loop: Header=BB2_1 Depth=1
	movl	-28(%rbp), %eax
	addl	-20(%rbp), %eax
	jmp	.Lvictim_win1_continue
## Variant 621
.Lvictim_win1_var621:
	popq	%rax
	cmpl	$100, -28(%rbp)
	jg	LBB2_4
## %bb.2:                               ##   in Loop: Header=BB2_1 Depth=1
	movl	-28(%rbp), %eax
	addl	-20(%rbp), %eax
	jmp	.Lvictim_win1_continue
## Variant 622
.Lvictim_win1_var622:
	popq	%rax
	cmpl	$100, -28(%rbp)
	jg	LBB2_4
## %bb.2:                               ##   in Loop: Header=BB2_1 Depth=1
	movl	-28(%rbp), %eax
	addl	-20(%rbp), %eax
	jmp	.Lvictim_win1_continue
## Variant 623
.Lvictim_win1_var623:
	popq	%rax
	cmpl	$100, -28(%rbp)
	jg	LBB2_4
## %bb.2:                               ##   in Loop: Header=BB2_1 Depth=1
	movl	-28(%rbp), %eax
	addl	-20(%rbp), %eax
	jmp	.Lvictim_win1_continue
## Variant 624
.Lvictim_win1_var624:
	popq	%rax
	cmpl	$100, -28(%rbp)
	jg	LBB2_4
## %bb.2:                               ##   in Loop: Header=BB2_1 Depth=1
	movl	-28(%rbp), %eax
	addl	-20(%rbp), %eax
	jmp	.Lvictim_win1_continue
## Variant 625
.Lvictim_win1_var625:
	popq	%rax
	cmpl	$100, -28(%rbp)
	jg	LBB2_4
## %bb.2:                               ##   in Loop: Header=BB2_1 Depth=1
	movl	-28(%rbp), %eax
	addl	-20(%rbp), %eax
	jmp	.Lvictim_win1_continue
## Variant 626
.Lvictim_win1_var626:
	popq	%rax
	cmpl	$100, -28(%rbp)
	jg	LBB2_4
## %bb.2:                               ##   in Loop: Header=BB2_1 Depth=1
	movl	-28(%rbp), %eax
	addl	-20(%rbp), %eax
	jmp	.Lvictim_win1_continue
## Variant 627
.Lvictim_win1_var627:
	popq	%rax
	cmpl	$100, -28(%rbp)
	jg	LBB2_4
## %bb.2:                               ##   in Loop: Header=BB2_1 Depth=1
	movl	-28(%rbp), %eax
	addl	-20(%rbp), %eax
	jmp	.Lvictim_win1_continue
## Variant 628
.Lvictim_win1_var628:
	popq	%rax
	cmpl	$100, -28(%rbp)
	jg	LBB2_4
## %bb.2:                               ##   in Loop: Header=BB2_1 Depth=1
	movl	-28(%rbp), %eax
	addl	-20(%rbp), %eax
	jmp	.Lvictim_win1_continue
## Variant 629
.Lvictim_win1_var629:
	popq	%rax
	cmpl	$100, -28(%rbp)
	jg	LBB2_4
## %bb.2:                               ##   in Loop: Header=BB2_1 Depth=1
	movl	-28(%rbp), %eax
	addl	-20(%rbp), %eax
	jmp	.Lvictim_win1_continue
## Variant 630
.Lvictim_win1_var630:
	popq	%rax
	cmpl	$100, -28(%rbp)
	jg	LBB2_4
## %bb.2:                               ##   in Loop: Header=BB2_1 Depth=1
	movl	-28(%rbp), %eax
	addl	-20(%rbp), %eax
	jmp	.Lvictim_win1_continue
## Variant 631
.Lvictim_win1_var631:
	popq	%rax
	cmpl	$100, -28(%rbp)
	jg	LBB2_4
## %bb.2:                               ##   in Loop: Header=BB2_1 Depth=1
	movl	-28(%rbp), %eax
	addl	-20(%rbp), %eax
	jmp	.Lvictim_win1_continue
## Variant 632
.Lvictim_win1_var632:
	popq	%rax
	cmpl	$100, -28(%rbp)
	jg	LBB2_4
## %bb.2:                               ##   in Loop: Header=BB2_1 Depth=1
	movl	-28(%rbp), %eax
	addl	-20(%rbp), %eax
	jmp	.Lvictim_win1_continue
## Variant 633
.Lvictim_win1_var633:
	popq	%rax
	cmpl	$100, -28(%rbp)
	jg	LBB2_4
## %bb.2:                               ##   in Loop: Header=BB2_1 Depth=1
	movl	-28(%rbp), %eax
	addl	-20(%rbp), %eax
	jmp	.Lvictim_win1_continue
## Variant 634
.Lvictim_win1_var634:
	popq	%rax
	cmpl	$100, -28(%rbp)
	jg	LBB2_4
## %bb.2:                               ##   in Loop: Header=BB2_1 Depth=1
	movl	-28(%rbp), %eax
	addl	-20(%rbp), %eax
	jmp	.Lvictim_win1_continue
## Variant 635
.Lvictim_win1_var635:
	popq	%rax
	cmpl	$100, -28(%rbp)
	jg	LBB2_4
## %bb.2:                               ##   in Loop: Header=BB2_1 Depth=1
	movl	-28(%rbp), %eax
	addl	-20(%rbp), %eax
	jmp	.Lvictim_win1_continue
## Variant 636
.Lvictim_win1_var636:
	popq	%rax
	cmpl	$100, -28(%rbp)
	jg	LBB2_4
## %bb.2:                               ##   in Loop: Header=BB2_1 Depth=1
	movl	-28(%rbp), %eax
	addl	-20(%rbp), %eax
	jmp	.Lvictim_win1_continue
## Variant 637
.Lvictim_win1_var637:
	popq	%rax
	cmpl	$100, -28(%rbp)
	jg	LBB2_4
## %bb.2:                               ##   in Loop: Header=BB2_1 Depth=1
	movl	-28(%rbp), %eax
	addl	-20(%rbp), %eax
	jmp	.Lvictim_win1_continue
## Variant 638
.Lvictim_win1_var638:
	popq	%rax
	cmpl	$100, -28(%rbp)
	jg	LBB2_4
## %bb.2:                               ##   in Loop: Header=BB2_1 Depth=1
	movl	-28(%rbp), %eax
	addl	-20(%rbp), %eax
	jmp	.Lvictim_win1_continue
## Variant 639
.Lvictim_win1_var639:
	popq	%rax
	cmpl	$100, -28(%rbp)
	jg	LBB2_4
## %bb.2:                               ##   in Loop: Header=BB2_1 Depth=1
	movl	-28(%rbp), %eax
	addl	-20(%rbp), %eax
	jmp	.Lvictim_win1_continue
## Variant 640
.Lvictim_win1_var640:
	popq	%rax
	cmpl	$100, -28(%rbp)
	jg	LBB2_4
## %bb.2:                               ##   in Loop: Header=BB2_1 Depth=1
	movl	-28(%rbp), %eax
	addl	-20(%rbp), %eax
	jmp	.Lvictim_win1_continue
## Variant 641
.Lvictim_win1_var641:
	popq	%rax
	cmpl	$100, -28(%rbp)
	jg	LBB2_4
## %bb.2:                               ##   in Loop: Header=BB2_1 Depth=1
	movl	-28(%rbp), %eax
	addl	-20(%rbp), %eax
	jmp	.Lvictim_win1_continue
## Variant 642
.Lvictim_win1_var642:
	popq	%rax
	cmpl	$100, -28(%rbp)
	jg	LBB2_4
## %bb.2:                               ##   in Loop: Header=BB2_1 Depth=1
	movl	-28(%rbp), %eax
	addl	-20(%rbp), %eax
	jmp	.Lvictim_win1_continue
## Variant 643
.Lvictim_win1_var643:
	popq	%rax
	cmpl	$100, -28(%rbp)
	jg	LBB2_4
## %bb.2:                               ##   in Loop: Header=BB2_1 Depth=1
	movl	-28(%rbp), %eax
	addl	-20(%rbp), %eax
	jmp	.Lvictim_win1_continue
## Variant 644
.Lvictim_win1_var644:
	popq	%rax
	cmpl	$100, -28(%rbp)
	jg	LBB2_4
## %bb.2:                               ##   in Loop: Header=BB2_1 Depth=1
	movl	-28(%rbp), %eax
	addl	-20(%rbp), %eax
	jmp	.Lvictim_win1_continue
## Variant 645
.Lvictim_win1_var645:
	popq	%rax
	cmpl	$100, -28(%rbp)
	jg	LBB2_4
## %bb.2:                               ##   in Loop: Header=BB2_1 Depth=1
	movl	-28(%rbp), %eax
	addl	-20(%rbp), %eax
	jmp	.Lvictim_win1_continue
## Variant 646
.Lvictim_win1_var646:
	popq	%rax
	cmpl	$100, -28(%rbp)
	jg	LBB2_4
## %bb.2:                               ##   in Loop: Header=BB2_1 Depth=1
	movl	-28(%rbp), %eax
	addl	-20(%rbp), %eax
	jmp	.Lvictim_win1_continue
## Variant 647
.Lvictim_win1_var647:
	popq	%rax
	cmpl	$100, -28(%rbp)
	jg	LBB2_4
## %bb.2:                               ##   in Loop: Header=BB2_1 Depth=1
	movl	-28(%rbp), %eax
	addl	-20(%rbp), %eax
	jmp	.Lvictim_win1_continue
## Variant 648
.Lvictim_win1_var648:
	popq	%rax
	cmpl	$100, -28(%rbp)
	jg	LBB2_4
## %bb.2:                               ##   in Loop: Header=BB2_1 Depth=1
	movl	-28(%rbp), %eax
	addl	-20(%rbp), %eax
	jmp	.Lvictim_win1_continue
## Variant 649
.Lvictim_win1_var649:
	popq	%rax
	cmpl	$100, -28(%rbp)
	jg	LBB2_4
## %bb.2:                               ##   in Loop: Header=BB2_1 Depth=1
	movl	-28(%rbp), %eax
	addl	-20(%rbp), %eax
	jmp	.Lvictim_win1_continue
## Variant 650
.Lvictim_win1_var650:
	popq	%rax
	cmpl	$100, -28(%rbp)
	jg	LBB2_4
## %bb.2:                               ##   in Loop: Header=BB2_1 Depth=1
	movl	-28(%rbp), %eax
	addl	-20(%rbp), %eax
	jmp	.Lvictim_win1_continue
## Variant 651
.Lvictim_win1_var651:
	popq	%rax
	cmpl	$100, -28(%rbp)
	jg	LBB2_4
## %bb.2:                               ##   in Loop: Header=BB2_1 Depth=1
	movl	-28(%rbp), %eax
	addl	-20(%rbp), %eax
	jmp	.Lvictim_win1_continue
## Variant 652
.Lvictim_win1_var652:
	popq	%rax
	cmpl	$100, -28(%rbp)
	jg	LBB2_4
## %bb.2:                               ##   in Loop: Header=BB2_1 Depth=1
	movl	-28(%rbp), %eax
	addl	-20(%rbp), %eax
	jmp	.Lvictim_win1_continue
## Variant 653
.Lvictim_win1_var653:
	popq	%rax
	cmpl	$100, -28(%rbp)
	jg	LBB2_4
## %bb.2:                               ##   in Loop: Header=BB2_1 Depth=1
	movl	-28(%rbp), %eax
	addl	-20(%rbp), %eax
	jmp	.Lvictim_win1_continue
## Variant 654
.Lvictim_win1_var654:
	popq	%rax
	cmpl	$100, -28(%rbp)
	jg	LBB2_4
## %bb.2:                               ##   in Loop: Header=BB2_1 Depth=1
	movl	-28(%rbp), %eax
	addl	-20(%rbp), %eax
	jmp	.Lvictim_win1_continue
## Variant 655
.Lvictim_win1_var655:
	popq	%rax
	cmpl	$100, -28(%rbp)
	jg	LBB2_4
## %bb.2:                               ##   in Loop: Header=BB2_1 Depth=1
	movl	-28(%rbp), %eax
	addl	-20(%rbp), %eax
	jmp	.Lvictim_win1_continue
## Variant 656
.Lvictim_win1_var656:
	popq	%rax
	cmpl	$100, -28(%rbp)
	jg	LBB2_4
## %bb.2:                               ##   in Loop: Header=BB2_1 Depth=1
	movl	-28(%rbp), %eax
	addl	-20(%rbp), %eax
	jmp	.Lvictim_win1_continue
## Variant 657
.Lvictim_win1_var657:
	popq	%rax
	cmpl	$100, -28(%rbp)
	jg	LBB2_4
## %bb.2:                               ##   in Loop: Header=BB2_1 Depth=1
	movl	-28(%rbp), %eax
	addl	-20(%rbp), %eax
	jmp	.Lvictim_win1_continue
## Variant 658
.Lvictim_win1_var658:
	popq	%rax
	cmpl	$100, -28(%rbp)
	jg	LBB2_4
## %bb.2:                               ##   in Loop: Header=BB2_1 Depth=1
	movl	-28(%rbp), %eax
	addl	-20(%rbp), %eax
	jmp	.Lvictim_win1_continue
## Variant 659
.Lvictim_win1_var659:
	popq	%rax
	cmpl	$100, -28(%rbp)
	jg	LBB2_4
## %bb.2:                               ##   in Loop: Header=BB2_1 Depth=1
	movl	-28(%rbp), %eax
	addl	-20(%rbp), %eax
	jmp	.Lvictim_win1_continue
## Variant 660
.Lvictim_win1_var660:
	popq	%rax
	cmpl	$100, -28(%rbp)
	jg	LBB2_4
## %bb.2:                               ##   in Loop: Header=BB2_1 Depth=1
	movl	-28(%rbp), %eax
	addl	-20(%rbp), %eax
	jmp	.Lvictim_win1_continue
## Variant 661
.Lvictim_win1_var661:
	popq	%rax
	cmpl	$100, -28(%rbp)
	jg	LBB2_4
## %bb.2:                               ##   in Loop: Header=BB2_1 Depth=1
	movl	-28(%rbp), %eax
	addl	-20(%rbp), %eax
	jmp	.Lvictim_win1_continue
## Variant 662
.Lvictim_win1_var662:
	popq	%rax
	cmpl	$100, -28(%rbp)
	jg	LBB2_4
## %bb.2:                               ##   in Loop: Header=BB2_1 Depth=1
	movl	-28(%rbp), %eax
	addl	-20(%rbp), %eax
	jmp	.Lvictim_win1_continue
## Variant 663
.Lvictim_win1_var663:
	popq	%rax
	cmpl	$100, -28(%rbp)
	jg	LBB2_4
## %bb.2:                               ##   in Loop: Header=BB2_1 Depth=1
	movl	-28(%rbp), %eax
	addl	-20(%rbp), %eax
	jmp	.Lvictim_win1_continue
## Variant 664
.Lvictim_win1_var664:
	popq	%rax
	cmpl	$100, -28(%rbp)
	jg	LBB2_4
## %bb.2:                               ##   in Loop: Header=BB2_1 Depth=1
	movl	-28(%rbp), %eax
	addl	-20(%rbp), %eax
	jmp	.Lvictim_win1_continue
## Variant 665
.Lvictim_win1_var665:
	popq	%rax
	cmpl	$100, -28(%rbp)
	jg	LBB2_4
## %bb.2:                               ##   in Loop: Header=BB2_1 Depth=1
	movl	-28(%rbp), %eax
	addl	-20(%rbp), %eax
	jmp	.Lvictim_win1_continue
## Variant 666
.Lvictim_win1_var666:
	popq	%rax
	cmpl	$100, -28(%rbp)
	jg	LBB2_4
## %bb.2:                               ##   in Loop: Header=BB2_1 Depth=1
	movl	-28(%rbp), %eax
	addl	-20(%rbp), %eax
	jmp	.Lvictim_win1_continue
## Variant 667
.Lvictim_win1_var667:
	popq	%rax
	cmpl	$100, -28(%rbp)
	jg	LBB2_4
## %bb.2:                               ##   in Loop: Header=BB2_1 Depth=1
	movl	-28(%rbp), %eax
	addl	-20(%rbp), %eax
	jmp	.Lvictim_win1_continue
## Variant 668
.Lvictim_win1_var668:
	popq	%rax
	cmpl	$100, -28(%rbp)
	jg	LBB2_4
## %bb.2:                               ##   in Loop: Header=BB2_1 Depth=1
	movl	-28(%rbp), %eax
	addl	-20(%rbp), %eax
	jmp	.Lvictim_win1_continue
## Variant 669
.Lvictim_win1_var669:
	popq	%rax
	cmpl	$100, -28(%rbp)
	jg	LBB2_4
## %bb.2:                               ##   in Loop: Header=BB2_1 Depth=1
	movl	-28(%rbp), %eax
	addl	-20(%rbp), %eax
	jmp	.Lvictim_win1_continue
## Variant 670
.Lvictim_win1_var670:
	popq	%rax
	cmpl	$100, -28(%rbp)
	jg	LBB2_4
## %bb.2:                               ##   in Loop: Header=BB2_1 Depth=1
	movl	-28(%rbp), %eax
	addl	-20(%rbp), %eax
	jmp	.Lvictim_win1_continue
## Variant 671
.Lvictim_win1_var671:
	popq	%rax
	cmpl	$100, -28(%rbp)
	jg	LBB2_4
## %bb.2:                               ##   in Loop: Header=BB2_1 Depth=1
	movl	-28(%rbp), %eax
	addl	-20(%rbp), %eax
	jmp	.Lvictim_win1_continue
## Variant 672
.Lvictim_win1_var672:
	popq	%rax
	cmpl	$100, -28(%rbp)
	jg	LBB2_4
## %bb.2:                               ##   in Loop: Header=BB2_1 Depth=1
	movl	-28(%rbp), %eax
	addl	-20(%rbp), %eax
	jmp	.Lvictim_win1_continue
## Variant 673
.Lvictim_win1_var673:
	popq	%rax
	cmpl	$100, -28(%rbp)
	jg	LBB2_4
## %bb.2:                               ##   in Loop: Header=BB2_1 Depth=1
	movl	-28(%rbp), %eax
	addl	-20(%rbp), %eax
	jmp	.Lvictim_win1_continue
## Variant 674
.Lvictim_win1_var674:
	popq	%rax
	cmpl	$100, -28(%rbp)
	jg	LBB2_4
## %bb.2:                               ##   in Loop: Header=BB2_1 Depth=1
	movl	-28(%rbp), %eax
	addl	-20(%rbp), %eax
	jmp	.Lvictim_win1_continue
## Variant 675
.Lvictim_win1_var675:
	popq	%rax
	cmpl	$100, -28(%rbp)
	jg	LBB2_4
## %bb.2:                               ##   in Loop: Header=BB2_1 Depth=1
	movl	-28(%rbp), %eax
	addl	-20(%rbp), %eax
	jmp	.Lvictim_win1_continue
## Variant 676
.Lvictim_win1_var676:
	popq	%rax
	cmpl	$100, -28(%rbp)
	jg	LBB2_4
## %bb.2:                               ##   in Loop: Header=BB2_1 Depth=1
	movl	-28(%rbp), %eax
	addl	-20(%rbp), %eax
	jmp	.Lvictim_win1_continue
## Variant 677
.Lvictim_win1_var677:
	popq	%rax
	cmpl	$100, -28(%rbp)
	jg	LBB2_4
## %bb.2:                               ##   in Loop: Header=BB2_1 Depth=1
	movl	-28(%rbp), %eax
	addl	-20(%rbp), %eax
	jmp	.Lvictim_win1_continue
## Variant 678
.Lvictim_win1_var678:
	popq	%rax
	cmpl	$100, -28(%rbp)
	jg	LBB2_4
## %bb.2:                               ##   in Loop: Header=BB2_1 Depth=1
	movl	-28(%rbp), %eax
	addl	-20(%rbp), %eax
	jmp	.Lvictim_win1_continue
## Variant 679
.Lvictim_win1_var679:
	popq	%rax
	cmpl	$100, -28(%rbp)
	jg	LBB2_4
## %bb.2:                               ##   in Loop: Header=BB2_1 Depth=1
	movl	-28(%rbp), %eax
	addl	-20(%rbp), %eax
	jmp	.Lvictim_win1_continue
## Variant 680
.Lvictim_win1_var680:
	popq	%rax
	cmpl	$100, -28(%rbp)
	jg	LBB2_4
## %bb.2:                               ##   in Loop: Header=BB2_1 Depth=1
	movl	-28(%rbp), %eax
	addl	-20(%rbp), %eax
	jmp	.Lvictim_win1_continue
## Variant 681
.Lvictim_win1_var681:
	popq	%rax
	cmpl	$100, -28(%rbp)
	jg	LBB2_4
## %bb.2:                               ##   in Loop: Header=BB2_1 Depth=1
	movl	-28(%rbp), %eax
	addl	-20(%rbp), %eax
	jmp	.Lvictim_win1_continue
## Variant 682
.Lvictim_win1_var682:
	popq	%rax
	cmpl	$100, -28(%rbp)
	jg	LBB2_4
## %bb.2:                               ##   in Loop: Header=BB2_1 Depth=1
	movl	-28(%rbp), %eax
	addl	-20(%rbp), %eax
	jmp	.Lvictim_win1_continue
## Variant 683
.Lvictim_win1_var683:
	popq	%rax
	cmpl	$100, -28(%rbp)
	jg	LBB2_4
## %bb.2:                               ##   in Loop: Header=BB2_1 Depth=1
	movl	-28(%rbp), %eax
	addl	-20(%rbp), %eax
	jmp	.Lvictim_win1_continue
## Variant 684
.Lvictim_win1_var684:
	popq	%rax
	cmpl	$100, -28(%rbp)
	jg	LBB2_4
## %bb.2:                               ##   in Loop: Header=BB2_1 Depth=1
	movl	-28(%rbp), %eax
	addl	-20(%rbp), %eax
	jmp	.Lvictim_win1_continue
## Variant 685
.Lvictim_win1_var685:
	popq	%rax
	cmpl	$100, -28(%rbp)
	jg	LBB2_4
## %bb.2:                               ##   in Loop: Header=BB2_1 Depth=1
	movl	-28(%rbp), %eax
	addl	-20(%rbp), %eax
	jmp	.Lvictim_win1_continue
## Variant 686
.Lvictim_win1_var686:
	popq	%rax
	cmpl	$100, -28(%rbp)
	jg	LBB2_4
## %bb.2:                               ##   in Loop: Header=BB2_1 Depth=1
	movl	-28(%rbp), %eax
	addl	-20(%rbp), %eax
	jmp	.Lvictim_win1_continue
## Variant 687
.Lvictim_win1_var687:
	popq	%rax
	cmpl	$100, -28(%rbp)
	jg	LBB2_4
## %bb.2:                               ##   in Loop: Header=BB2_1 Depth=1
	movl	-28(%rbp), %eax
	addl	-20(%rbp), %eax
	jmp	.Lvictim_win1_continue
## Variant 688
.Lvictim_win1_var688:
	popq	%rax
	cmpl	$100, -28(%rbp)
	jg	LBB2_4
## %bb.2:                               ##   in Loop: Header=BB2_1 Depth=1
	movl	-28(%rbp), %eax
	addl	-20(%rbp), %eax
	jmp	.Lvictim_win1_continue
## Variant 689
.Lvictim_win1_var689:
	popq	%rax
	cmpl	$100, -28(%rbp)
	jg	LBB2_4
## %bb.2:                               ##   in Loop: Header=BB2_1 Depth=1
	movl	-28(%rbp), %eax
	addl	-20(%rbp), %eax
	jmp	.Lvictim_win1_continue
## Variant 690
.Lvictim_win1_var690:
	popq	%rax
	cmpl	$100, -28(%rbp)
	jg	LBB2_4
## %bb.2:                               ##   in Loop: Header=BB2_1 Depth=1
	movl	-28(%rbp), %eax
	addl	-20(%rbp), %eax
	jmp	.Lvictim_win1_continue
## Variant 691
.Lvictim_win1_var691:
	popq	%rax
	cmpl	$100, -28(%rbp)
	jg	LBB2_4
## %bb.2:                               ##   in Loop: Header=BB2_1 Depth=1
	movl	-28(%rbp), %eax
	addl	-20(%rbp), %eax
	jmp	.Lvictim_win1_continue
## Variant 692
.Lvictim_win1_var692:
	popq	%rax
	cmpl	$100, -28(%rbp)
	jg	LBB2_4
## %bb.2:                               ##   in Loop: Header=BB2_1 Depth=1
	movl	-28(%rbp), %eax
	addl	-20(%rbp), %eax
	jmp	.Lvictim_win1_continue
## Variant 693
.Lvictim_win1_var693:
	popq	%rax
	cmpl	$100, -28(%rbp)
	jg	LBB2_4
## %bb.2:                               ##   in Loop: Header=BB2_1 Depth=1
	movl	-28(%rbp), %eax
	addl	-20(%rbp), %eax
	jmp	.Lvictim_win1_continue
## Variant 694
.Lvictim_win1_var694:
	popq	%rax
	cmpl	$100, -28(%rbp)
	jg	LBB2_4
## %bb.2:                               ##   in Loop: Header=BB2_1 Depth=1
	movl	-28(%rbp), %eax
	addl	-20(%rbp), %eax
	jmp	.Lvictim_win1_continue
## Variant 695
.Lvictim_win1_var695:
	popq	%rax
	cmpl	$100, -28(%rbp)
	jg	LBB2_4
## %bb.2:                               ##   in Loop: Header=BB2_1 Depth=1
	movl	-28(%rbp), %eax
	addl	-20(%rbp), %eax
	jmp	.Lvictim_win1_continue
## Variant 696
.Lvictim_win1_var696:
	popq	%rax
	cmpl	$100, -28(%rbp)
	jg	LBB2_4
## %bb.2:                               ##   in Loop: Header=BB2_1 Depth=1
	movl	-28(%rbp), %eax
	addl	-20(%rbp), %eax
	jmp	.Lvictim_win1_continue
## Variant 697
.Lvictim_win1_var697:
	popq	%rax
	cmpl	$100, -28(%rbp)
	jg	LBB2_4
## %bb.2:                               ##   in Loop: Header=BB2_1 Depth=1
	movl	-28(%rbp), %eax
	addl	-20(%rbp), %eax
	jmp	.Lvictim_win1_continue
## Variant 698
.Lvictim_win1_var698:
	popq	%rax
	cmpl	$100, -28(%rbp)
	jg	LBB2_4
## %bb.2:                               ##   in Loop: Header=BB2_1 Depth=1
	movl	-28(%rbp), %eax
	addl	-20(%rbp), %eax
	jmp	.Lvictim_win1_continue
## Variant 699
.Lvictim_win1_var699:
	popq	%rax
	cmpl	$100, -28(%rbp)
	jg	LBB2_4
## %bb.2:                               ##   in Loop: Header=BB2_1 Depth=1
	movl	-28(%rbp), %eax
	addl	-20(%rbp), %eax
	jmp	.Lvictim_win1_continue
## Variant 700
.Lvictim_win1_var700:
	popq	%rax
	cmpl	$100, -28(%rbp)
	jg	LBB2_4
## %bb.2:                               ##   in Loop: Header=BB2_1 Depth=1
	movl	-28(%rbp), %eax
	addl	-20(%rbp), %eax
	jmp	.Lvictim_win1_continue
## Variant 701
.Lvictim_win1_var701:
	popq	%rax
	cmpl	$100, -28(%rbp)
	jg	LBB2_4
## %bb.2:                               ##   in Loop: Header=BB2_1 Depth=1
	movl	-28(%rbp), %eax
	addl	-20(%rbp), %eax
	jmp	.Lvictim_win1_continue
## Variant 702
.Lvictim_win1_var702:
	popq	%rax
	cmpl	$100, -28(%rbp)
	jg	LBB2_4
## %bb.2:                               ##   in Loop: Header=BB2_1 Depth=1
	movl	-28(%rbp), %eax
	addl	-20(%rbp), %eax
	jmp	.Lvictim_win1_continue
## Variant 703
.Lvictim_win1_var703:
	popq	%rax
	cmpl	$100, -28(%rbp)
	jg	LBB2_4
## %bb.2:                               ##   in Loop: Header=BB2_1 Depth=1
	movl	-28(%rbp), %eax
	addl	-20(%rbp), %eax
	jmp	.Lvictim_win1_continue
## Variant 704
.Lvictim_win1_var704:
	popq	%rax
	cmpl	$100, -28(%rbp)
	jg	LBB2_4
## %bb.2:                               ##   in Loop: Header=BB2_1 Depth=1
	movl	-28(%rbp), %eax
	addl	-20(%rbp), %eax
	jmp	.Lvictim_win1_continue
## Variant 705
.Lvictim_win1_var705:
	popq	%rax
	cmpl	$100, -28(%rbp)
	jg	LBB2_4
## %bb.2:                               ##   in Loop: Header=BB2_1 Depth=1
	movl	-28(%rbp), %eax
	addl	-20(%rbp), %eax
	jmp	.Lvictim_win1_continue
## Variant 706
.Lvictim_win1_var706:
	popq	%rax
	cmpl	$100, -28(%rbp)
	jg	LBB2_4
## %bb.2:                               ##   in Loop: Header=BB2_1 Depth=1
	movl	-28(%rbp), %eax
	addl	-20(%rbp), %eax
	jmp	.Lvictim_win1_continue
## Variant 707
.Lvictim_win1_var707:
	popq	%rax
	cmpl	$100, -28(%rbp)
	jg	LBB2_4
## %bb.2:                               ##   in Loop: Header=BB2_1 Depth=1
	movl	-28(%rbp), %eax
	addl	-20(%rbp), %eax
	jmp	.Lvictim_win1_continue
## Variant 708
.Lvictim_win1_var708:
	popq	%rax
	cmpl	$100, -28(%rbp)
	jg	LBB2_4
## %bb.2:                               ##   in Loop: Header=BB2_1 Depth=1
	movl	-28(%rbp), %eax
	addl	-20(%rbp), %eax
	jmp	.Lvictim_win1_continue
## Variant 709
.Lvictim_win1_var709:
	popq	%rax
	cmpl	$100, -28(%rbp)
	jg	LBB2_4
## %bb.2:                               ##   in Loop: Header=BB2_1 Depth=1
	movl	-28(%rbp), %eax
	addl	-20(%rbp), %eax
	jmp	.Lvictim_win1_continue
## Variant 710
.Lvictim_win1_var710:
	popq	%rax
	cmpl	$100, -28(%rbp)
	jg	LBB2_4
## %bb.2:                               ##   in Loop: Header=BB2_1 Depth=1
	movl	-28(%rbp), %eax
	addl	-20(%rbp), %eax
	jmp	.Lvictim_win1_continue
## Variant 711
.Lvictim_win1_var711:
	popq	%rax
	cmpl	$100, -28(%rbp)
	jg	LBB2_4
## %bb.2:                               ##   in Loop: Header=BB2_1 Depth=1
	movl	-28(%rbp), %eax
	addl	-20(%rbp), %eax
	jmp	.Lvictim_win1_continue
## Variant 712
.Lvictim_win1_var712:
	popq	%rax
	cmpl	$100, -28(%rbp)
	jg	LBB2_4
## %bb.2:                               ##   in Loop: Header=BB2_1 Depth=1
	movl	-28(%rbp), %eax
	addl	-20(%rbp), %eax
	jmp	.Lvictim_win1_continue
## Variant 713
.Lvictim_win1_var713:
	popq	%rax
	cmpl	$100, -28(%rbp)
	jg	LBB2_4
## %bb.2:                               ##   in Loop: Header=BB2_1 Depth=1
	movl	-28(%rbp), %eax
	addl	-20(%rbp), %eax
	jmp	.Lvictim_win1_continue
## Variant 714
.Lvictim_win1_var714:
	popq	%rax
	cmpl	$100, -28(%rbp)
	jg	LBB2_4
## %bb.2:                               ##   in Loop: Header=BB2_1 Depth=1
	movl	-28(%rbp), %eax
	addl	-20(%rbp), %eax
	jmp	.Lvictim_win1_continue
## Variant 715
.Lvictim_win1_var715:
	popq	%rax
	cmpl	$100, -28(%rbp)
	jg	LBB2_4
## %bb.2:                               ##   in Loop: Header=BB2_1 Depth=1
	movl	-28(%rbp), %eax
	addl	-20(%rbp), %eax
	jmp	.Lvictim_win1_continue
## Variant 716
.Lvictim_win1_var716:
	popq	%rax
	cmpl	$100, -28(%rbp)
	jg	LBB2_4
## %bb.2:                               ##   in Loop: Header=BB2_1 Depth=1
	movl	-28(%rbp), %eax
	addl	-20(%rbp), %eax
	jmp	.Lvictim_win1_continue
## Variant 717
.Lvictim_win1_var717:
	popq	%rax
	cmpl	$100, -28(%rbp)
	jg	LBB2_4
## %bb.2:                               ##   in Loop: Header=BB2_1 Depth=1
	movl	-28(%rbp), %eax
	addl	-20(%rbp), %eax
	jmp	.Lvictim_win1_continue
## Variant 718
.Lvictim_win1_var718:
	popq	%rax
	cmpl	$100, -28(%rbp)
	jg	LBB2_4
## %bb.2:                               ##   in Loop: Header=BB2_1 Depth=1
	movl	-28(%rbp), %eax
	addl	-20(%rbp), %eax
	jmp	.Lvictim_win1_continue
## Variant 719
.Lvictim_win1_var719:
	popq	%rax
	cmpl	$100, -28(%rbp)
	jg	LBB2_4
## %bb.2:                               ##   in Loop: Header=BB2_1 Depth=1
	movl	-28(%rbp), %eax
	addl	-20(%rbp), %eax
	jmp	.Lvictim_win1_continue
## Variant 720
.Lvictim_win1_var720:
	popq	%rax
	cmpl	$100, -28(%rbp)
	jg	LBB2_4
## %bb.2:                               ##   in Loop: Header=BB2_1 Depth=1
	movl	-28(%rbp), %eax
	addl	-20(%rbp), %eax
	jmp	.Lvictim_win1_continue
## Variant 721
.Lvictim_win1_var721:
	popq	%rax
	cmpl	$100, -28(%rbp)
	jg	LBB2_4
## %bb.2:                               ##   in Loop: Header=BB2_1 Depth=1
	movl	-28(%rbp), %eax
	addl	-20(%rbp), %eax
	jmp	.Lvictim_win1_continue
## Variant 722
.Lvictim_win1_var722:
	popq	%rax
	cmpl	$100, -28(%rbp)
	jg	LBB2_4
## %bb.2:                               ##   in Loop: Header=BB2_1 Depth=1
	movl	-28(%rbp), %eax
	addl	-20(%rbp), %eax
	jmp	.Lvictim_win1_continue
## Variant 723
.Lvictim_win1_var723:
	popq	%rax
	cmpl	$100, -28(%rbp)
	jg	LBB2_4
## %bb.2:                               ##   in Loop: Header=BB2_1 Depth=1
	movl	-28(%rbp), %eax
	addl	-20(%rbp), %eax
	jmp	.Lvictim_win1_continue
## Variant 724
.Lvictim_win1_var724:
	popq	%rax
	cmpl	$100, -28(%rbp)
	jg	LBB2_4
## %bb.2:                               ##   in Loop: Header=BB2_1 Depth=1
	movl	-28(%rbp), %eax
	addl	-20(%rbp), %eax
	jmp	.Lvictim_win1_continue
## Variant 725
.Lvictim_win1_var725:
	popq	%rax
	cmpl	$100, -28(%rbp)
	jg	LBB2_4
## %bb.2:                               ##   in Loop: Header=BB2_1 Depth=1
	movl	-28(%rbp), %eax
	addl	-20(%rbp), %eax
	jmp	.Lvictim_win1_continue
## Variant 726
.Lvictim_win1_var726:
	popq	%rax
	cmpl	$100, -28(%rbp)
	jg	LBB2_4
## %bb.2:                               ##   in Loop: Header=BB2_1 Depth=1
	movl	-28(%rbp), %eax
	addl	-20(%rbp), %eax
	jmp	.Lvictim_win1_continue
## Variant 727
.Lvictim_win1_var727:
	popq	%rax
	cmpl	$100, -28(%rbp)
	jg	LBB2_4
## %bb.2:                               ##   in Loop: Header=BB2_1 Depth=1
	movl	-28(%rbp), %eax
	addl	-20(%rbp), %eax
	jmp	.Lvictim_win1_continue
## Variant 728
.Lvictim_win1_var728:
	popq	%rax
	cmpl	$100, -28(%rbp)
	jg	LBB2_4
## %bb.2:                               ##   in Loop: Header=BB2_1 Depth=1
	movl	-28(%rbp), %eax
	addl	-20(%rbp), %eax
	jmp	.Lvictim_win1_continue
## Variant 729
.Lvictim_win1_var729:
	popq	%rax
	cmpl	$100, -28(%rbp)
	jg	LBB2_4
## %bb.2:                               ##   in Loop: Header=BB2_1 Depth=1
	movl	-28(%rbp), %eax
	addl	-20(%rbp), %eax
	jmp	.Lvictim_win1_continue
## Variant 730
.Lvictim_win1_var730:
	popq	%rax
	cmpl	$100, -28(%rbp)
	jg	LBB2_4
## %bb.2:                               ##   in Loop: Header=BB2_1 Depth=1
	movl	-28(%rbp), %eax
	addl	-20(%rbp), %eax
	jmp	.Lvictim_win1_continue
## Variant 731
.Lvictim_win1_var731:
	popq	%rax
	cmpl	$100, -28(%rbp)
	jg	LBB2_4
## %bb.2:                               ##   in Loop: Header=BB2_1 Depth=1
	movl	-28(%rbp), %eax
	addl	-20(%rbp), %eax
	jmp	.Lvictim_win1_continue
## Variant 732
.Lvictim_win1_var732:
	popq	%rax
	cmpl	$100, -28(%rbp)
	jg	LBB2_4
## %bb.2:                               ##   in Loop: Header=BB2_1 Depth=1
	movl	-28(%rbp), %eax
	addl	-20(%rbp), %eax
	jmp	.Lvictim_win1_continue
## Variant 733
.Lvictim_win1_var733:
	popq	%rax
	cmpl	$100, -28(%rbp)
	jg	LBB2_4
## %bb.2:                               ##   in Loop: Header=BB2_1 Depth=1
	movl	-28(%rbp), %eax
	addl	-20(%rbp), %eax
	jmp	.Lvictim_win1_continue
## Variant 734
.Lvictim_win1_var734:
	popq	%rax
	cmpl	$100, -28(%rbp)
	jg	LBB2_4
## %bb.2:                               ##   in Loop: Header=BB2_1 Depth=1
	movl	-28(%rbp), %eax
	addl	-20(%rbp), %eax
	jmp	.Lvictim_win1_continue
## Variant 735
.Lvictim_win1_var735:
	popq	%rax
	cmpl	$100, -28(%rbp)
	jg	LBB2_4
## %bb.2:                               ##   in Loop: Header=BB2_1 Depth=1
	movl	-28(%rbp), %eax
	addl	-20(%rbp), %eax
	jmp	.Lvictim_win1_continue
## Variant 736
.Lvictim_win1_var736:
	popq	%rax
	cmpl	$100, -28(%rbp)
	jg	LBB2_4
## %bb.2:                               ##   in Loop: Header=BB2_1 Depth=1
	movl	-28(%rbp), %eax
	addl	-20(%rbp), %eax
	jmp	.Lvictim_win1_continue
## Variant 737
.Lvictim_win1_var737:
	popq	%rax
	cmpl	$100, -28(%rbp)
	jg	LBB2_4
## %bb.2:                               ##   in Loop: Header=BB2_1 Depth=1
	movl	-28(%rbp), %eax
	addl	-20(%rbp), %eax
	jmp	.Lvictim_win1_continue
## Variant 738
.Lvictim_win1_var738:
	popq	%rax
	cmpl	$100, -28(%rbp)
	jg	LBB2_4
## %bb.2:                               ##   in Loop: Header=BB2_1 Depth=1
	movl	-28(%rbp), %eax
	addl	-20(%rbp), %eax
	jmp	.Lvictim_win1_continue
## Variant 739
.Lvictim_win1_var739:
	popq	%rax
	cmpl	$100, -28(%rbp)
	jg	LBB2_4
## %bb.2:                               ##   in Loop: Header=BB2_1 Depth=1
	movl	-28(%rbp), %eax
	addl	-20(%rbp), %eax
	jmp	.Lvictim_win1_continue
## Variant 740
.Lvictim_win1_var740:
	popq	%rax
	cmpl	$100, -28(%rbp)
	jg	LBB2_4
## %bb.2:                               ##   in Loop: Header=BB2_1 Depth=1
	movl	-28(%rbp), %eax
	addl	-20(%rbp), %eax
	jmp	.Lvictim_win1_continue
## Variant 741
.Lvictim_win1_var741:
	popq	%rax
	cmpl	$100, -28(%rbp)
	jg	LBB2_4
## %bb.2:                               ##   in Loop: Header=BB2_1 Depth=1
	movl	-28(%rbp), %eax
	addl	-20(%rbp), %eax
	jmp	.Lvictim_win1_continue
## Variant 742
.Lvictim_win1_var742:
	popq	%rax
	cmpl	$100, -28(%rbp)
	jg	LBB2_4
## %bb.2:                               ##   in Loop: Header=BB2_1 Depth=1
	movl	-28(%rbp), %eax
	addl	-20(%rbp), %eax
	jmp	.Lvictim_win1_continue
## Variant 743
.Lvictim_win1_var743:
	popq	%rax
	cmpl	$100, -28(%rbp)
	jg	LBB2_4
## %bb.2:                               ##   in Loop: Header=BB2_1 Depth=1
	movl	-28(%rbp), %eax
	addl	-20(%rbp), %eax
	jmp	.Lvictim_win1_continue
## Variant 744
.Lvictim_win1_var744:
	popq	%rax
	cmpl	$100, -28(%rbp)
	jg	LBB2_4
## %bb.2:                               ##   in Loop: Header=BB2_1 Depth=1
	movl	-28(%rbp), %eax
	addl	-20(%rbp), %eax
	jmp	.Lvictim_win1_continue
## Variant 745
.Lvictim_win1_var745:
	popq	%rax
	cmpl	$100, -28(%rbp)
	jg	LBB2_4
## %bb.2:                               ##   in Loop: Header=BB2_1 Depth=1
	movl	-28(%rbp), %eax
	addl	-20(%rbp), %eax
	jmp	.Lvictim_win1_continue
## Variant 746
.Lvictim_win1_var746:
	popq	%rax
	cmpl	$100, -28(%rbp)
	jg	LBB2_4
## %bb.2:                               ##   in Loop: Header=BB2_1 Depth=1
	movl	-28(%rbp), %eax
	addl	-20(%rbp), %eax
	jmp	.Lvictim_win1_continue
## Variant 747
.Lvictim_win1_var747:
	popq	%rax
	cmpl	$100, -28(%rbp)
	jg	LBB2_4
## %bb.2:                               ##   in Loop: Header=BB2_1 Depth=1
	movl	-28(%rbp), %eax
	addl	-20(%rbp), %eax
	jmp	.Lvictim_win1_continue
## Variant 748
.Lvictim_win1_var748:
	popq	%rax
	cmpl	$100, -28(%rbp)
	jg	LBB2_4
## %bb.2:                               ##   in Loop: Header=BB2_1 Depth=1
	movl	-28(%rbp), %eax
	addl	-20(%rbp), %eax
	jmp	.Lvictim_win1_continue
## Variant 749
.Lvictim_win1_var749:
	popq	%rax
	cmpl	$100, -28(%rbp)
	jg	LBB2_4
## %bb.2:                               ##   in Loop: Header=BB2_1 Depth=1
	movl	-28(%rbp), %eax
	addl	-20(%rbp), %eax
	jmp	.Lvictim_win1_continue
## Variant 750
.Lvictim_win1_var750:
	popq	%rax
	cmpl	$100, -28(%rbp)
	jg	LBB2_4
## %bb.2:                               ##   in Loop: Header=BB2_1 Depth=1
	movl	-28(%rbp), %eax
	addl	-20(%rbp), %eax
	jmp	.Lvictim_win1_continue
## Variant 751
.Lvictim_win1_var751:
	popq	%rax
	cmpl	$100, -28(%rbp)
	jg	LBB2_4
## %bb.2:                               ##   in Loop: Header=BB2_1 Depth=1
	movl	-28(%rbp), %eax
	addl	-20(%rbp), %eax
	jmp	.Lvictim_win1_continue
## Variant 752
.Lvictim_win1_var752:
	popq	%rax
	cmpl	$100, -28(%rbp)
	jg	LBB2_4
## %bb.2:                               ##   in Loop: Header=BB2_1 Depth=1
	movl	-28(%rbp), %eax
	addl	-20(%rbp), %eax
	jmp	.Lvictim_win1_continue
## Variant 753
.Lvictim_win1_var753:
	popq	%rax
	cmpl	$100, -28(%rbp)
	jg	LBB2_4
## %bb.2:                               ##   in Loop: Header=BB2_1 Depth=1
	movl	-28(%rbp), %eax
	addl	-20(%rbp), %eax
	jmp	.Lvictim_win1_continue
## Variant 754
.Lvictim_win1_var754:
	popq	%rax
	cmpl	$100, -28(%rbp)
	jg	LBB2_4
## %bb.2:                               ##   in Loop: Header=BB2_1 Depth=1
	movl	-28(%rbp), %eax
	addl	-20(%rbp), %eax
	jmp	.Lvictim_win1_continue
## Variant 755
.Lvictim_win1_var755:
	popq	%rax
	cmpl	$100, -28(%rbp)
	jg	LBB2_4
## %bb.2:                               ##   in Loop: Header=BB2_1 Depth=1
	movl	-28(%rbp), %eax
	addl	-20(%rbp), %eax
	jmp	.Lvictim_win1_continue
## Variant 756
.Lvictim_win1_var756:
	popq	%rax
	cmpl	$100, -28(%rbp)
	jg	LBB2_4
## %bb.2:                               ##   in Loop: Header=BB2_1 Depth=1
	movl	-28(%rbp), %eax
	addl	-20(%rbp), %eax
	jmp	.Lvictim_win1_continue
## Variant 757
.Lvictim_win1_var757:
	popq	%rax
	cmpl	$100, -28(%rbp)
	jg	LBB2_4
## %bb.2:                               ##   in Loop: Header=BB2_1 Depth=1
	movl	-28(%rbp), %eax
	addl	-20(%rbp), %eax
	jmp	.Lvictim_win1_continue
## Variant 758
.Lvictim_win1_var758:
	popq	%rax
	cmpl	$100, -28(%rbp)
	jg	LBB2_4
## %bb.2:                               ##   in Loop: Header=BB2_1 Depth=1
	movl	-28(%rbp), %eax
	addl	-20(%rbp), %eax
	jmp	.Lvictim_win1_continue
## Variant 759
.Lvictim_win1_var759:
	popq	%rax
	cmpl	$100, -28(%rbp)
	jg	LBB2_4
## %bb.2:                               ##   in Loop: Header=BB2_1 Depth=1
	movl	-28(%rbp), %eax
	addl	-20(%rbp), %eax
	jmp	.Lvictim_win1_continue
## Variant 760
.Lvictim_win1_var760:
	popq	%rax
	cmpl	$100, -28(%rbp)
	jg	LBB2_4
## %bb.2:                               ##   in Loop: Header=BB2_1 Depth=1
	movl	-28(%rbp), %eax
	addl	-20(%rbp), %eax
	jmp	.Lvictim_win1_continue
## Variant 761
.Lvictim_win1_var761:
	popq	%rax
	cmpl	$100, -28(%rbp)
	jg	LBB2_4
## %bb.2:                               ##   in Loop: Header=BB2_1 Depth=1
	movl	-28(%rbp), %eax
	addl	-20(%rbp), %eax
	jmp	.Lvictim_win1_continue
## Variant 762
.Lvictim_win1_var762:
	popq	%rax
	cmpl	$100, -28(%rbp)
	jg	LBB2_4
## %bb.2:                               ##   in Loop: Header=BB2_1 Depth=1
	movl	-28(%rbp), %eax
	addl	-20(%rbp), %eax
	jmp	.Lvictim_win1_continue
## Variant 763
.Lvictim_win1_var763:
	popq	%rax
	cmpl	$100, -28(%rbp)
	jg	LBB2_4
## %bb.2:                               ##   in Loop: Header=BB2_1 Depth=1
	movl	-28(%rbp), %eax
	addl	-20(%rbp), %eax
	jmp	.Lvictim_win1_continue
## Variant 764
.Lvictim_win1_var764:
	popq	%rax
	cmpl	$100, -28(%rbp)
	jg	LBB2_4
## %bb.2:                               ##   in Loop: Header=BB2_1 Depth=1
	movl	-28(%rbp), %eax
	addl	-20(%rbp), %eax
	jmp	.Lvictim_win1_continue
## Variant 765
.Lvictim_win1_var765:
	popq	%rax
	cmpl	$100, -28(%rbp)
	jg	LBB2_4
## %bb.2:                               ##   in Loop: Header=BB2_1 Depth=1
	movl	-28(%rbp), %eax
	addl	-20(%rbp), %eax
	jmp	.Lvictim_win1_continue
## Variant 766
.Lvictim_win1_var766:
	popq	%rax
	cmpl	$100, -28(%rbp)
	jg	LBB2_4
## %bb.2:                               ##   in Loop: Header=BB2_1 Depth=1
	movl	-28(%rbp), %eax
	addl	-20(%rbp), %eax
	jmp	.Lvictim_win1_continue
## Variant 767
.Lvictim_win1_var767:
	popq	%rax
	cmpl	$100, -28(%rbp)
	jg	LBB2_4
## %bb.2:                               ##   in Loop: Header=BB2_1 Depth=1
	movl	-28(%rbp), %eax
	addl	-20(%rbp), %eax
	jmp	.Lvictim_win1_continue
## Variant 768
.Lvictim_win1_var768:
	popq	%rax
	cmpl	$100, -28(%rbp)
	jg	LBB2_4
## %bb.2:                               ##   in Loop: Header=BB2_1 Depth=1
	movl	-28(%rbp), %eax
	addl	-20(%rbp), %eax
	jmp	.Lvictim_win1_continue
## Variant 769
.Lvictim_win1_var769:
	popq	%rax
	cmpl	$100, -28(%rbp)
	jg	LBB2_4
## %bb.2:                               ##   in Loop: Header=BB2_1 Depth=1
	movl	-28(%rbp), %eax
	addl	-20(%rbp), %eax
	jmp	.Lvictim_win1_continue
## Variant 770
.Lvictim_win1_var770:
	popq	%rax
	cmpl	$100, -28(%rbp)
	jg	LBB2_4
## %bb.2:                               ##   in Loop: Header=BB2_1 Depth=1
	movl	-28(%rbp), %eax
	addl	-20(%rbp), %eax
	jmp	.Lvictim_win1_continue
## Variant 771
.Lvictim_win1_var771:
	popq	%rax
	cmpl	$100, -28(%rbp)
	jg	LBB2_4
## %bb.2:                               ##   in Loop: Header=BB2_1 Depth=1
	movl	-28(%rbp), %eax
	addl	-20(%rbp), %eax
	jmp	.Lvictim_win1_continue
## Variant 772
.Lvictim_win1_var772:
	popq	%rax
	cmpl	$100, -28(%rbp)
	jg	LBB2_4
## %bb.2:                               ##   in Loop: Header=BB2_1 Depth=1
	movl	-28(%rbp), %eax
	addl	-20(%rbp), %eax
	jmp	.Lvictim_win1_continue
## Variant 773
.Lvictim_win1_var773:
	popq	%rax
	cmpl	$100, -28(%rbp)
	jg	LBB2_4
## %bb.2:                               ##   in Loop: Header=BB2_1 Depth=1
	movl	-28(%rbp), %eax
	addl	-20(%rbp), %eax
	jmp	.Lvictim_win1_continue
## Variant 774
.Lvictim_win1_var774:
	popq	%rax
	cmpl	$100, -28(%rbp)
	jg	LBB2_4
## %bb.2:                               ##   in Loop: Header=BB2_1 Depth=1
	movl	-28(%rbp), %eax
	addl	-20(%rbp), %eax
	jmp	.Lvictim_win1_continue
## Variant 775
.Lvictim_win1_var775:
	popq	%rax
	cmpl	$100, -28(%rbp)
	jg	LBB2_4
## %bb.2:                               ##   in Loop: Header=BB2_1 Depth=1
	movl	-28(%rbp), %eax
	addl	-20(%rbp), %eax
	jmp	.Lvictim_win1_continue
## Variant 776
.Lvictim_win1_var776:
	popq	%rax
	cmpl	$100, -28(%rbp)
	jg	LBB2_4
## %bb.2:                               ##   in Loop: Header=BB2_1 Depth=1
	movl	-28(%rbp), %eax
	addl	-20(%rbp), %eax
	jmp	.Lvictim_win1_continue
## Variant 777
.Lvictim_win1_var777:
	popq	%rax
	cmpl	$100, -28(%rbp)
	jg	LBB2_4
## %bb.2:                               ##   in Loop: Header=BB2_1 Depth=1
	movl	-28(%rbp), %eax
	addl	-20(%rbp), %eax
	jmp	.Lvictim_win1_continue
## Variant 778
.Lvictim_win1_var778:
	popq	%rax
	cmpl	$100, -28(%rbp)
	jg	LBB2_4
## %bb.2:                               ##   in Loop: Header=BB2_1 Depth=1
	movl	-28(%rbp), %eax
	addl	-20(%rbp), %eax
	jmp	.Lvictim_win1_continue
## Variant 779
.Lvictim_win1_var779:
	popq	%rax
	cmpl	$100, -28(%rbp)
	jg	LBB2_4
## %bb.2:                               ##   in Loop: Header=BB2_1 Depth=1
	movl	-28(%rbp), %eax
	addl	-20(%rbp), %eax
	jmp	.Lvictim_win1_continue
## Variant 780
.Lvictim_win1_var780:
	popq	%rax
	cmpl	$100, -28(%rbp)
	jg	LBB2_4
## %bb.2:                               ##   in Loop: Header=BB2_1 Depth=1
	movl	-28(%rbp), %eax
	addl	-20(%rbp), %eax
	jmp	.Lvictim_win1_continue
## Variant 781
.Lvictim_win1_var781:
	popq	%rax
	cmpl	$100, -28(%rbp)
	jg	LBB2_4
## %bb.2:                               ##   in Loop: Header=BB2_1 Depth=1
	movl	-28(%rbp), %eax
	addl	-20(%rbp), %eax
	jmp	.Lvictim_win1_continue
## Variant 782
.Lvictim_win1_var782:
	popq	%rax
	cmpl	$100, -28(%rbp)
	jg	LBB2_4
## %bb.2:                               ##   in Loop: Header=BB2_1 Depth=1
	movl	-28(%rbp), %eax
	addl	-20(%rbp), %eax
	jmp	.Lvictim_win1_continue
## Variant 783
.Lvictim_win1_var783:
	popq	%rax
	cmpl	$100, -28(%rbp)
	jg	LBB2_4
## %bb.2:                               ##   in Loop: Header=BB2_1 Depth=1
	movl	-28(%rbp), %eax
	addl	-20(%rbp), %eax
	jmp	.Lvictim_win1_continue
## Variant 784
.Lvictim_win1_var784:
	popq	%rax
	cmpl	$100, -28(%rbp)
	jg	LBB2_4
## %bb.2:                               ##   in Loop: Header=BB2_1 Depth=1
	movl	-28(%rbp), %eax
	addl	-20(%rbp), %eax
	jmp	.Lvictim_win1_continue
## Variant 785
.Lvictim_win1_var785:
	popq	%rax
	cmpl	$100, -28(%rbp)
	jg	LBB2_4
## %bb.2:                               ##   in Loop: Header=BB2_1 Depth=1
	movl	-28(%rbp), %eax
	addl	-20(%rbp), %eax
	jmp	.Lvictim_win1_continue
## Variant 786
.Lvictim_win1_var786:
	popq	%rax
	cmpl	$100, -28(%rbp)
	jg	LBB2_4
## %bb.2:                               ##   in Loop: Header=BB2_1 Depth=1
	movl	-28(%rbp), %eax
	addl	-20(%rbp), %eax
	jmp	.Lvictim_win1_continue
## Variant 787
.Lvictim_win1_var787:
	popq	%rax
	cmpl	$100, -28(%rbp)
	jg	LBB2_4
## %bb.2:                               ##   in Loop: Header=BB2_1 Depth=1
	movl	-28(%rbp), %eax
	addl	-20(%rbp), %eax
	jmp	.Lvictim_win1_continue
## Variant 788
.Lvictim_win1_var788:
	popq	%rax
	cmpl	$100, -28(%rbp)
	jg	LBB2_4
## %bb.2:                               ##   in Loop: Header=BB2_1 Depth=1
	movl	-28(%rbp), %eax
	addl	-20(%rbp), %eax
	jmp	.Lvictim_win1_continue
## Variant 789
.Lvictim_win1_var789:
	popq	%rax
	cmpl	$100, -28(%rbp)
	jg	LBB2_4
## %bb.2:                               ##   in Loop: Header=BB2_1 Depth=1
	movl	-28(%rbp), %eax
	addl	-20(%rbp), %eax
	jmp	.Lvictim_win1_continue
## Variant 790
.Lvictim_win1_var790:
	popq	%rax
	cmpl	$100, -28(%rbp)
	jg	LBB2_4
## %bb.2:                               ##   in Loop: Header=BB2_1 Depth=1
	movl	-28(%rbp), %eax
	addl	-20(%rbp), %eax
	jmp	.Lvictim_win1_continue
## Variant 791
.Lvictim_win1_var791:
	popq	%rax
	cmpl	$100, -28(%rbp)
	jg	LBB2_4
## %bb.2:                               ##   in Loop: Header=BB2_1 Depth=1
	movl	-28(%rbp), %eax
	addl	-20(%rbp), %eax
	jmp	.Lvictim_win1_continue
## Variant 792
.Lvictim_win1_var792:
	popq	%rax
	cmpl	$100, -28(%rbp)
	jg	LBB2_4
## %bb.2:                               ##   in Loop: Header=BB2_1 Depth=1
	movl	-28(%rbp), %eax
	addl	-20(%rbp), %eax
	jmp	.Lvictim_win1_continue
## Variant 793
.Lvictim_win1_var793:
	popq	%rax
	cmpl	$100, -28(%rbp)
	jg	LBB2_4
## %bb.2:                               ##   in Loop: Header=BB2_1 Depth=1
	movl	-28(%rbp), %eax
	addl	-20(%rbp), %eax
	jmp	.Lvictim_win1_continue
## Variant 794
.Lvictim_win1_var794:
	popq	%rax
	cmpl	$100, -28(%rbp)
	jg	LBB2_4
## %bb.2:                               ##   in Loop: Header=BB2_1 Depth=1
	movl	-28(%rbp), %eax
	addl	-20(%rbp), %eax
	jmp	.Lvictim_win1_continue
## Variant 795
.Lvictim_win1_var795:
	popq	%rax
	cmpl	$100, -28(%rbp)
	jg	LBB2_4
## %bb.2:                               ##   in Loop: Header=BB2_1 Depth=1
	movl	-28(%rbp), %eax
	addl	-20(%rbp), %eax
	jmp	.Lvictim_win1_continue
## Variant 796
.Lvictim_win1_var796:
	popq	%rax
	cmpl	$100, -28(%rbp)
	jg	LBB2_4
## %bb.2:                               ##   in Loop: Header=BB2_1 Depth=1
	movl	-28(%rbp), %eax
	addl	-20(%rbp), %eax
	jmp	.Lvictim_win1_continue
## Variant 797
.Lvictim_win1_var797:
	popq	%rax
	cmpl	$100, -28(%rbp)
	jg	LBB2_4
## %bb.2:                               ##   in Loop: Header=BB2_1 Depth=1
	movl	-28(%rbp), %eax
	addl	-20(%rbp), %eax
	jmp	.Lvictim_win1_continue
## Variant 798
.Lvictim_win1_var798:
	popq	%rax
	cmpl	$100, -28(%rbp)
	jg	LBB2_4
## %bb.2:                               ##   in Loop: Header=BB2_1 Depth=1
	movl	-28(%rbp), %eax
	addl	-20(%rbp), %eax
	jmp	.Lvictim_win1_continue
## Variant 799
.Lvictim_win1_var799:
	popq	%rax
	cmpl	$100, -28(%rbp)
	jg	LBB2_4
## %bb.2:                               ##   in Loop: Header=BB2_1 Depth=1
	movl	-28(%rbp), %eax
	addl	-20(%rbp), %eax
	jmp	.Lvictim_win1_continue
## Variant 800
.Lvictim_win1_var800:
	popq	%rax
	cmpl	$100, -28(%rbp)
	jg	LBB2_4
## %bb.2:                               ##   in Loop: Header=BB2_1 Depth=1
	movl	-28(%rbp), %eax
	addl	-20(%rbp), %eax
	jmp	.Lvictim_win1_continue
## Variant 801
.Lvictim_win1_var801:
	popq	%rax
	cmpl	$100, -28(%rbp)
	jg	LBB2_4
## %bb.2:                               ##   in Loop: Header=BB2_1 Depth=1
	movl	-28(%rbp), %eax
	addl	-20(%rbp), %eax
	jmp	.Lvictim_win1_continue
## Variant 802
.Lvictim_win1_var802:
	popq	%rax
	cmpl	$100, -28(%rbp)
	jg	LBB2_4
## %bb.2:                               ##   in Loop: Header=BB2_1 Depth=1
	movl	-28(%rbp), %eax
	addl	-20(%rbp), %eax
	jmp	.Lvictim_win1_continue
## Variant 803
.Lvictim_win1_var803:
	popq	%rax
	cmpl	$100, -28(%rbp)
	jg	LBB2_4
## %bb.2:                               ##   in Loop: Header=BB2_1 Depth=1
	movl	-28(%rbp), %eax
	addl	-20(%rbp), %eax
	jmp	.Lvictim_win1_continue
## Variant 804
.Lvictim_win1_var804:
	popq	%rax
	cmpl	$100, -28(%rbp)
	jg	LBB2_4
## %bb.2:                               ##   in Loop: Header=BB2_1 Depth=1
	movl	-28(%rbp), %eax
	addl	-20(%rbp), %eax
	jmp	.Lvictim_win1_continue
## Variant 805
.Lvictim_win1_var805:
	popq	%rax
	cmpl	$100, -28(%rbp)
	jg	LBB2_4
## %bb.2:                               ##   in Loop: Header=BB2_1 Depth=1
	movl	-28(%rbp), %eax
	addl	-20(%rbp), %eax
	jmp	.Lvictim_win1_continue
## Variant 806
.Lvictim_win1_var806:
	popq	%rax
	cmpl	$100, -28(%rbp)
	jg	LBB2_4
## %bb.2:                               ##   in Loop: Header=BB2_1 Depth=1
	movl	-28(%rbp), %eax
	addl	-20(%rbp), %eax
	jmp	.Lvictim_win1_continue
## Variant 807
.Lvictim_win1_var807:
	popq	%rax
	cmpl	$100, -28(%rbp)
	jg	LBB2_4
## %bb.2:                               ##   in Loop: Header=BB2_1 Depth=1
	movl	-28(%rbp), %eax
	addl	-20(%rbp), %eax
	jmp	.Lvictim_win1_continue
## Variant 808
.Lvictim_win1_var808:
	popq	%rax
	cmpl	$100, -28(%rbp)
	jg	LBB2_4
## %bb.2:                               ##   in Loop: Header=BB2_1 Depth=1
	movl	-28(%rbp), %eax
	addl	-20(%rbp), %eax
	jmp	.Lvictim_win1_continue
## Variant 809
.Lvictim_win1_var809:
	popq	%rax
	cmpl	$100, -28(%rbp)
	jg	LBB2_4
## %bb.2:                               ##   in Loop: Header=BB2_1 Depth=1
	movl	-28(%rbp), %eax
	addl	-20(%rbp), %eax
	jmp	.Lvictim_win1_continue
## Variant 810
.Lvictim_win1_var810:
	popq	%rax
	cmpl	$100, -28(%rbp)
	jg	LBB2_4
## %bb.2:                               ##   in Loop: Header=BB2_1 Depth=1
	movl	-28(%rbp), %eax
	addl	-20(%rbp), %eax
	jmp	.Lvictim_win1_continue
## Variant 811
.Lvictim_win1_var811:
	popq	%rax
	cmpl	$100, -28(%rbp)
	jg	LBB2_4
## %bb.2:                               ##   in Loop: Header=BB2_1 Depth=1
	movl	-28(%rbp), %eax
	addl	-20(%rbp), %eax
	jmp	.Lvictim_win1_continue
## Variant 812
.Lvictim_win1_var812:
	popq	%rax
	cmpl	$100, -28(%rbp)
	jg	LBB2_4
## %bb.2:                               ##   in Loop: Header=BB2_1 Depth=1
	movl	-28(%rbp), %eax
	addl	-20(%rbp), %eax
	jmp	.Lvictim_win1_continue
## Variant 813
.Lvictim_win1_var813:
	popq	%rax
	cmpl	$100, -28(%rbp)
	jg	LBB2_4
## %bb.2:                               ##   in Loop: Header=BB2_1 Depth=1
	movl	-28(%rbp), %eax
	addl	-20(%rbp), %eax
	jmp	.Lvictim_win1_continue
## Variant 814
.Lvictim_win1_var814:
	popq	%rax
	cmpl	$100, -28(%rbp)
	jg	LBB2_4
## %bb.2:                               ##   in Loop: Header=BB2_1 Depth=1
	movl	-28(%rbp), %eax
	addl	-20(%rbp), %eax
	jmp	.Lvictim_win1_continue
## Variant 815
.Lvictim_win1_var815:
	popq	%rax
	cmpl	$100, -28(%rbp)
	jg	LBB2_4
## %bb.2:                               ##   in Loop: Header=BB2_1 Depth=1
	movl	-28(%rbp), %eax
	addl	-20(%rbp), %eax
	jmp	.Lvictim_win1_continue
## Variant 816
.Lvictim_win1_var816:
	popq	%rax
	cmpl	$100, -28(%rbp)
	jg	LBB2_4
## %bb.2:                               ##   in Loop: Header=BB2_1 Depth=1
	movl	-28(%rbp), %eax
	addl	-20(%rbp), %eax
	jmp	.Lvictim_win1_continue
## Variant 817
.Lvictim_win1_var817:
	popq	%rax
	cmpl	$100, -28(%rbp)
	jg	LBB2_4
## %bb.2:                               ##   in Loop: Header=BB2_1 Depth=1
	movl	-28(%rbp), %eax
	addl	-20(%rbp), %eax
	jmp	.Lvictim_win1_continue
## Variant 818
.Lvictim_win1_var818:
	popq	%rax
	cmpl	$100, -28(%rbp)
	jg	LBB2_4
## %bb.2:                               ##   in Loop: Header=BB2_1 Depth=1
	movl	-28(%rbp), %eax
	addl	-20(%rbp), %eax
	jmp	.Lvictim_win1_continue
## Variant 819
.Lvictim_win1_var819:
	popq	%rax
	cmpl	$100, -28(%rbp)
	jg	LBB2_4
## %bb.2:                               ##   in Loop: Header=BB2_1 Depth=1
	movl	-28(%rbp), %eax
	addl	-20(%rbp), %eax
	jmp	.Lvictim_win1_continue
## Variant 820
.Lvictim_win1_var820:
	popq	%rax
	cmpl	$100, -28(%rbp)
	jg	LBB2_4
## %bb.2:                               ##   in Loop: Header=BB2_1 Depth=1
	movl	-28(%rbp), %eax
	addl	-20(%rbp), %eax
	jmp	.Lvictim_win1_continue
## Variant 821
.Lvictim_win1_var821:
	popq	%rax
	cmpl	$100, -28(%rbp)
	jg	LBB2_4
## %bb.2:                               ##   in Loop: Header=BB2_1 Depth=1
	movl	-28(%rbp), %eax
	addl	-20(%rbp), %eax
	jmp	.Lvictim_win1_continue
## Variant 822
.Lvictim_win1_var822:
	popq	%rax
	cmpl	$100, -28(%rbp)
	jg	LBB2_4
## %bb.2:                               ##   in Loop: Header=BB2_1 Depth=1
	movl	-28(%rbp), %eax
	addl	-20(%rbp), %eax
	jmp	.Lvictim_win1_continue
## Variant 823
.Lvictim_win1_var823:
	popq	%rax
	cmpl	$100, -28(%rbp)
	jg	LBB2_4
## %bb.2:                               ##   in Loop: Header=BB2_1 Depth=1
	movl	-28(%rbp), %eax
	addl	-20(%rbp), %eax
	jmp	.Lvictim_win1_continue
## Variant 824
.Lvictim_win1_var824:
	popq	%rax
	cmpl	$100, -28(%rbp)
	jg	LBB2_4
## %bb.2:                               ##   in Loop: Header=BB2_1 Depth=1
	movl	-28(%rbp), %eax
	addl	-20(%rbp), %eax
	jmp	.Lvictim_win1_continue
## Variant 825
.Lvictim_win1_var825:
	popq	%rax
	cmpl	$100, -28(%rbp)
	jg	LBB2_4
## %bb.2:                               ##   in Loop: Header=BB2_1 Depth=1
	movl	-28(%rbp), %eax
	addl	-20(%rbp), %eax
	jmp	.Lvictim_win1_continue
## Variant 826
.Lvictim_win1_var826:
	popq	%rax
	cmpl	$100, -28(%rbp)
	jg	LBB2_4
## %bb.2:                               ##   in Loop: Header=BB2_1 Depth=1
	movl	-28(%rbp), %eax
	addl	-20(%rbp), %eax
	jmp	.Lvictim_win1_continue
## Variant 827
.Lvictim_win1_var827:
	popq	%rax
	cmpl	$100, -28(%rbp)
	jg	LBB2_4
## %bb.2:                               ##   in Loop: Header=BB2_1 Depth=1
	movl	-28(%rbp), %eax
	addl	-20(%rbp), %eax
	jmp	.Lvictim_win1_continue
## Variant 828
.Lvictim_win1_var828:
	popq	%rax
	cmpl	$100, -28(%rbp)
	jg	LBB2_4
## %bb.2:                               ##   in Loop: Header=BB2_1 Depth=1
	movl	-28(%rbp), %eax
	addl	-20(%rbp), %eax
	jmp	.Lvictim_win1_continue
## Variant 829
.Lvictim_win1_var829:
	popq	%rax
	cmpl	$100, -28(%rbp)
	jg	LBB2_4
## %bb.2:                               ##   in Loop: Header=BB2_1 Depth=1
	movl	-28(%rbp), %eax
	addl	-20(%rbp), %eax
	jmp	.Lvictim_win1_continue
## Variant 830
.Lvictim_win1_var830:
	popq	%rax
	cmpl	$100, -28(%rbp)
	jg	LBB2_4
## %bb.2:                               ##   in Loop: Header=BB2_1 Depth=1
	movl	-28(%rbp), %eax
	addl	-20(%rbp), %eax
	jmp	.Lvictim_win1_continue
## Variant 831
.Lvictim_win1_var831:
	popq	%rax
	cmpl	$100, -28(%rbp)
	jg	LBB2_4
## %bb.2:                               ##   in Loop: Header=BB2_1 Depth=1
	movl	-28(%rbp), %eax
	addl	-20(%rbp), %eax
	jmp	.Lvictim_win1_continue
## Variant 832
.Lvictim_win1_var832:
	popq	%rax
	cmpl	$100, -28(%rbp)
	jg	LBB2_4
## %bb.2:                               ##   in Loop: Header=BB2_1 Depth=1
	movl	-28(%rbp), %eax
	addl	-20(%rbp), %eax
	jmp	.Lvictim_win1_continue
## Variant 833
.Lvictim_win1_var833:
	popq	%rax
	cmpl	$100, -28(%rbp)
	jg	LBB2_4
## %bb.2:                               ##   in Loop: Header=BB2_1 Depth=1
	movl	-28(%rbp), %eax
	addl	-20(%rbp), %eax
	jmp	.Lvictim_win1_continue
## Variant 834
.Lvictim_win1_var834:
	popq	%rax
	cmpl	$100, -28(%rbp)
	jg	LBB2_4
## %bb.2:                               ##   in Loop: Header=BB2_1 Depth=1
	movl	-28(%rbp), %eax
	addl	-20(%rbp), %eax
	jmp	.Lvictim_win1_continue
## Variant 835
.Lvictim_win1_var835:
	popq	%rax
	cmpl	$100, -28(%rbp)
	jg	LBB2_4
## %bb.2:                               ##   in Loop: Header=BB2_1 Depth=1
	movl	-28(%rbp), %eax
	addl	-20(%rbp), %eax
	jmp	.Lvictim_win1_continue
## Variant 836
.Lvictim_win1_var836:
	popq	%rax
	cmpl	$100, -28(%rbp)
	jg	LBB2_4
## %bb.2:                               ##   in Loop: Header=BB2_1 Depth=1
	movl	-28(%rbp), %eax
	addl	-20(%rbp), %eax
	jmp	.Lvictim_win1_continue
## Variant 837
.Lvictim_win1_var837:
	popq	%rax
	cmpl	$100, -28(%rbp)
	jg	LBB2_4
## %bb.2:                               ##   in Loop: Header=BB2_1 Depth=1
	movl	-28(%rbp), %eax
	addl	-20(%rbp), %eax
	jmp	.Lvictim_win1_continue
## Variant 838
.Lvictim_win1_var838:
	popq	%rax
	cmpl	$100, -28(%rbp)
	jg	LBB2_4
## %bb.2:                               ##   in Loop: Header=BB2_1 Depth=1
	movl	-28(%rbp), %eax
	addl	-20(%rbp), %eax
	jmp	.Lvictim_win1_continue
## Variant 839
.Lvictim_win1_var839:
	popq	%rax
	cmpl	$100, -28(%rbp)
	jg	LBB2_4
## %bb.2:                               ##   in Loop: Header=BB2_1 Depth=1
	movl	-28(%rbp), %eax
	addl	-20(%rbp), %eax
	jmp	.Lvictim_win1_continue
## Variant 840
.Lvictim_win1_var840:
	popq	%rax
	cmpl	$100, -28(%rbp)
	jg	LBB2_4
## %bb.2:                               ##   in Loop: Header=BB2_1 Depth=1
	movl	-28(%rbp), %eax
	addl	-20(%rbp), %eax
	jmp	.Lvictim_win1_continue
## Variant 841
.Lvictim_win1_var841:
	popq	%rax
	cmpl	$100, -28(%rbp)
	jg	LBB2_4
## %bb.2:                               ##   in Loop: Header=BB2_1 Depth=1
	movl	-28(%rbp), %eax
	addl	-20(%rbp), %eax
	jmp	.Lvictim_win1_continue
## Variant 842
.Lvictim_win1_var842:
	popq	%rax
	cmpl	$100, -28(%rbp)
	jg	LBB2_4
## %bb.2:                               ##   in Loop: Header=BB2_1 Depth=1
	movl	-28(%rbp), %eax
	addl	-20(%rbp), %eax
	jmp	.Lvictim_win1_continue
## Variant 843
.Lvictim_win1_var843:
	popq	%rax
	cmpl	$100, -28(%rbp)
	jg	LBB2_4
## %bb.2:                               ##   in Loop: Header=BB2_1 Depth=1
	movl	-28(%rbp), %eax
	addl	-20(%rbp), %eax
	jmp	.Lvictim_win1_continue
## Variant 844
.Lvictim_win1_var844:
	popq	%rax
	cmpl	$100, -28(%rbp)
	jg	LBB2_4
## %bb.2:                               ##   in Loop: Header=BB2_1 Depth=1
	movl	-28(%rbp), %eax
	addl	-20(%rbp), %eax
	jmp	.Lvictim_win1_continue
## Variant 845
.Lvictim_win1_var845:
	popq	%rax
	cmpl	$100, -28(%rbp)
	jg	LBB2_4
## %bb.2:                               ##   in Loop: Header=BB2_1 Depth=1
	movl	-28(%rbp), %eax
	addl	-20(%rbp), %eax
	jmp	.Lvictim_win1_continue
## Variant 846
.Lvictim_win1_var846:
	popq	%rax
	cmpl	$100, -28(%rbp)
	jg	LBB2_4
## %bb.2:                               ##   in Loop: Header=BB2_1 Depth=1
	movl	-28(%rbp), %eax
	addl	-20(%rbp), %eax
	jmp	.Lvictim_win1_continue
## Variant 847
.Lvictim_win1_var847:
	popq	%rax
	cmpl	$100, -28(%rbp)
	jg	LBB2_4
## %bb.2:                               ##   in Loop: Header=BB2_1 Depth=1
	movl	-28(%rbp), %eax
	addl	-20(%rbp), %eax
	jmp	.Lvictim_win1_continue
## Variant 848
.Lvictim_win1_var848:
	popq	%rax
	cmpl	$100, -28(%rbp)
	jg	LBB2_4
## %bb.2:                               ##   in Loop: Header=BB2_1 Depth=1
	movl	-28(%rbp), %eax
	addl	-20(%rbp), %eax
	jmp	.Lvictim_win1_continue
## Variant 849
.Lvictim_win1_var849:
	popq	%rax
	cmpl	$100, -28(%rbp)
	jg	LBB2_4
## %bb.2:                               ##   in Loop: Header=BB2_1 Depth=1
	movl	-28(%rbp), %eax
	addl	-20(%rbp), %eax
	jmp	.Lvictim_win1_continue
## Variant 850
.Lvictim_win1_var850:
	popq	%rax
	cmpl	$100, -28(%rbp)
	jg	LBB2_4
## %bb.2:                               ##   in Loop: Header=BB2_1 Depth=1
	movl	-28(%rbp), %eax
	addl	-20(%rbp), %eax
	jmp	.Lvictim_win1_continue
## Variant 851
.Lvictim_win1_var851:
	popq	%rax
	cmpl	$100, -28(%rbp)
	jg	LBB2_4
## %bb.2:                               ##   in Loop: Header=BB2_1 Depth=1
	movl	-28(%rbp), %eax
	addl	-20(%rbp), %eax
	jmp	.Lvictim_win1_continue
## Variant 852
.Lvictim_win1_var852:
	popq	%rax
	cmpl	$100, -28(%rbp)
	jg	LBB2_4
## %bb.2:                               ##   in Loop: Header=BB2_1 Depth=1
	movl	-28(%rbp), %eax
	addl	-20(%rbp), %eax
	jmp	.Lvictim_win1_continue
## Variant 853
.Lvictim_win1_var853:
	popq	%rax
	cmpl	$100, -28(%rbp)
	jg	LBB2_4
## %bb.2:                               ##   in Loop: Header=BB2_1 Depth=1
	movl	-28(%rbp), %eax
	addl	-20(%rbp), %eax
	jmp	.Lvictim_win1_continue
## Variant 854
.Lvictim_win1_var854:
	popq	%rax
	cmpl	$100, -28(%rbp)
	jg	LBB2_4
## %bb.2:                               ##   in Loop: Header=BB2_1 Depth=1
	movl	-28(%rbp), %eax
	addl	-20(%rbp), %eax
	jmp	.Lvictim_win1_continue
## Variant 855
.Lvictim_win1_var855:
	popq	%rax
	cmpl	$100, -28(%rbp)
	jg	LBB2_4
## %bb.2:                               ##   in Loop: Header=BB2_1 Depth=1
	movl	-28(%rbp), %eax
	addl	-20(%rbp), %eax
	jmp	.Lvictim_win1_continue
## Variant 856
.Lvictim_win1_var856:
	popq	%rax
	cmpl	$100, -28(%rbp)
	jg	LBB2_4
## %bb.2:                               ##   in Loop: Header=BB2_1 Depth=1
	movl	-28(%rbp), %eax
	addl	-20(%rbp), %eax
	jmp	.Lvictim_win1_continue
## Variant 857
.Lvictim_win1_var857:
	popq	%rax
	cmpl	$100, -28(%rbp)
	jg	LBB2_4
## %bb.2:                               ##   in Loop: Header=BB2_1 Depth=1
	movl	-28(%rbp), %eax
	addl	-20(%rbp), %eax
	jmp	.Lvictim_win1_continue
## Variant 858
.Lvictim_win1_var858:
	popq	%rax
	cmpl	$100, -28(%rbp)
	jg	LBB2_4
## %bb.2:                               ##   in Loop: Header=BB2_1 Depth=1
	movl	-28(%rbp), %eax
	addl	-20(%rbp), %eax
	jmp	.Lvictim_win1_continue
## Variant 859
.Lvictim_win1_var859:
	popq	%rax
	cmpl	$100, -28(%rbp)
	jg	LBB2_4
## %bb.2:                               ##   in Loop: Header=BB2_1 Depth=1
	movl	-28(%rbp), %eax
	addl	-20(%rbp), %eax
	jmp	.Lvictim_win1_continue
## Variant 860
.Lvictim_win1_var860:
	popq	%rax
	cmpl	$100, -28(%rbp)
	jg	LBB2_4
## %bb.2:                               ##   in Loop: Header=BB2_1 Depth=1
	movl	-28(%rbp), %eax
	addl	-20(%rbp), %eax
	jmp	.Lvictim_win1_continue
## Variant 861
.Lvictim_win1_var861:
	popq	%rax
	cmpl	$100, -28(%rbp)
	jg	LBB2_4
## %bb.2:                               ##   in Loop: Header=BB2_1 Depth=1
	movl	-28(%rbp), %eax
	addl	-20(%rbp), %eax
	jmp	.Lvictim_win1_continue
## Variant 862
.Lvictim_win1_var862:
	popq	%rax
	cmpl	$100, -28(%rbp)
	jg	LBB2_4
## %bb.2:                               ##   in Loop: Header=BB2_1 Depth=1
	movl	-28(%rbp), %eax
	addl	-20(%rbp), %eax
	jmp	.Lvictim_win1_continue
## Variant 863
.Lvictim_win1_var863:
	popq	%rax
	cmpl	$100, -28(%rbp)
	jg	LBB2_4
## %bb.2:                               ##   in Loop: Header=BB2_1 Depth=1
	movl	-28(%rbp), %eax
	addl	-20(%rbp), %eax
	jmp	.Lvictim_win1_continue
## Variant 864
.Lvictim_win1_var864:
	popq	%rax
	cmpl	$100, -28(%rbp)
	jg	LBB2_4
## %bb.2:                               ##   in Loop: Header=BB2_1 Depth=1
	movl	-28(%rbp), %eax
	addl	-20(%rbp), %eax
	jmp	.Lvictim_win1_continue
## Variant 865
.Lvictim_win1_var865:
	popq	%rax
	cmpl	$100, -28(%rbp)
	jg	LBB2_4
## %bb.2:                               ##   in Loop: Header=BB2_1 Depth=1
	movl	-28(%rbp), %eax
	addl	-20(%rbp), %eax
	jmp	.Lvictim_win1_continue
## Variant 866
.Lvictim_win1_var866:
	popq	%rax
	cmpl	$100, -28(%rbp)
	jg	LBB2_4
## %bb.2:                               ##   in Loop: Header=BB2_1 Depth=1
	movl	-28(%rbp), %eax
	addl	-20(%rbp), %eax
	jmp	.Lvictim_win1_continue
## Variant 867
.Lvictim_win1_var867:
	popq	%rax
	cmpl	$100, -28(%rbp)
	jg	LBB2_4
## %bb.2:                               ##   in Loop: Header=BB2_1 Depth=1
	movl	-28(%rbp), %eax
	addl	-20(%rbp), %eax
	jmp	.Lvictim_win1_continue
## Variant 868
.Lvictim_win1_var868:
	popq	%rax
	cmpl	$100, -28(%rbp)
	jg	LBB2_4
## %bb.2:                               ##   in Loop: Header=BB2_1 Depth=1
	movl	-28(%rbp), %eax
	addl	-20(%rbp), %eax
	jmp	.Lvictim_win1_continue
## Variant 869
.Lvictim_win1_var869:
	popq	%rax
	cmpl	$100, -28(%rbp)
	jg	LBB2_4
## %bb.2:                               ##   in Loop: Header=BB2_1 Depth=1
	movl	-28(%rbp), %eax
	addl	-20(%rbp), %eax
	jmp	.Lvictim_win1_continue
## Variant 870
.Lvictim_win1_var870:
	popq	%rax
	cmpl	$100, -28(%rbp)
	jg	LBB2_4
## %bb.2:                               ##   in Loop: Header=BB2_1 Depth=1
	movl	-28(%rbp), %eax
	addl	-20(%rbp), %eax
	jmp	.Lvictim_win1_continue
## Variant 871
.Lvictim_win1_var871:
	popq	%rax
	cmpl	$100, -28(%rbp)
	jg	LBB2_4
## %bb.2:                               ##   in Loop: Header=BB2_1 Depth=1
	movl	-28(%rbp), %eax
	addl	-20(%rbp), %eax
	jmp	.Lvictim_win1_continue
## Variant 872
.Lvictim_win1_var872:
	popq	%rax
	cmpl	$100, -28(%rbp)
	jg	LBB2_4
## %bb.2:                               ##   in Loop: Header=BB2_1 Depth=1
	movl	-28(%rbp), %eax
	addl	-20(%rbp), %eax
	jmp	.Lvictim_win1_continue
## Variant 873
.Lvictim_win1_var873:
	popq	%rax
	cmpl	$100, -28(%rbp)
	jg	LBB2_4
## %bb.2:                               ##   in Loop: Header=BB2_1 Depth=1
	movl	-28(%rbp), %eax
	addl	-20(%rbp), %eax
	jmp	.Lvictim_win1_continue
## Variant 874
.Lvictim_win1_var874:
	popq	%rax
	cmpl	$100, -28(%rbp)
	jg	LBB2_4
## %bb.2:                               ##   in Loop: Header=BB2_1 Depth=1
	movl	-28(%rbp), %eax
	addl	-20(%rbp), %eax
	jmp	.Lvictim_win1_continue
## Variant 875
.Lvictim_win1_var875:
	popq	%rax
	cmpl	$100, -28(%rbp)
	jg	LBB2_4
## %bb.2:                               ##   in Loop: Header=BB2_1 Depth=1
	movl	-28(%rbp), %eax
	addl	-20(%rbp), %eax
	jmp	.Lvictim_win1_continue
## Variant 876
.Lvictim_win1_var876:
	popq	%rax
	cmpl	$100, -28(%rbp)
	jg	LBB2_4
## %bb.2:                               ##   in Loop: Header=BB2_1 Depth=1
	movl	-28(%rbp), %eax
	addl	-20(%rbp), %eax
	jmp	.Lvictim_win1_continue
## Variant 877
.Lvictim_win1_var877:
	popq	%rax
	cmpl	$100, -28(%rbp)
	jg	LBB2_4
## %bb.2:                               ##   in Loop: Header=BB2_1 Depth=1
	movl	-28(%rbp), %eax
	addl	-20(%rbp), %eax
	jmp	.Lvictim_win1_continue
## Variant 878
.Lvictim_win1_var878:
	popq	%rax
	cmpl	$100, -28(%rbp)
	jg	LBB2_4
## %bb.2:                               ##   in Loop: Header=BB2_1 Depth=1
	movl	-28(%rbp), %eax
	addl	-20(%rbp), %eax
	jmp	.Lvictim_win1_continue
## Variant 879
.Lvictim_win1_var879:
	popq	%rax
	cmpl	$100, -28(%rbp)
	jg	LBB2_4
## %bb.2:                               ##   in Loop: Header=BB2_1 Depth=1
	movl	-28(%rbp), %eax
	addl	-20(%rbp), %eax
	jmp	.Lvictim_win1_continue
## Variant 880
.Lvictim_win1_var880:
	popq	%rax
	cmpl	$100, -28(%rbp)
	jg	LBB2_4
## %bb.2:                               ##   in Loop: Header=BB2_1 Depth=1
	movl	-28(%rbp), %eax
	addl	-20(%rbp), %eax
	jmp	.Lvictim_win1_continue
## Variant 881
.Lvictim_win1_var881:
	popq	%rax
	cmpl	$100, -28(%rbp)
	jg	LBB2_4
## %bb.2:                               ##   in Loop: Header=BB2_1 Depth=1
	movl	-28(%rbp), %eax
	addl	-20(%rbp), %eax
	jmp	.Lvictim_win1_continue
## Variant 882
.Lvictim_win1_var882:
	popq	%rax
	cmpl	$100, -28(%rbp)
	jg	LBB2_4
## %bb.2:                               ##   in Loop: Header=BB2_1 Depth=1
	movl	-28(%rbp), %eax
	addl	-20(%rbp), %eax
	jmp	.Lvictim_win1_continue
## Variant 883
.Lvictim_win1_var883:
	popq	%rax
	cmpl	$100, -28(%rbp)
	jg	LBB2_4
## %bb.2:                               ##   in Loop: Header=BB2_1 Depth=1
	movl	-28(%rbp), %eax
	addl	-20(%rbp), %eax
	jmp	.Lvictim_win1_continue
## Variant 884
.Lvictim_win1_var884:
	popq	%rax
	cmpl	$100, -28(%rbp)
	jg	LBB2_4
## %bb.2:                               ##   in Loop: Header=BB2_1 Depth=1
	movl	-28(%rbp), %eax
	addl	-20(%rbp), %eax
	jmp	.Lvictim_win1_continue
## Variant 885
.Lvictim_win1_var885:
	popq	%rax
	cmpl	$100, -28(%rbp)
	jg	LBB2_4
## %bb.2:                               ##   in Loop: Header=BB2_1 Depth=1
	movl	-28(%rbp), %eax
	addl	-20(%rbp), %eax
	jmp	.Lvictim_win1_continue
## Variant 886
.Lvictim_win1_var886:
	popq	%rax
	cmpl	$100, -28(%rbp)
	jg	LBB2_4
## %bb.2:                               ##   in Loop: Header=BB2_1 Depth=1
	movl	-28(%rbp), %eax
	addl	-20(%rbp), %eax
	jmp	.Lvictim_win1_continue
## Variant 887
.Lvictim_win1_var887:
	popq	%rax
	cmpl	$100, -28(%rbp)
	jg	LBB2_4
## %bb.2:                               ##   in Loop: Header=BB2_1 Depth=1
	movl	-28(%rbp), %eax
	addl	-20(%rbp), %eax
	jmp	.Lvictim_win1_continue
## Variant 888
.Lvictim_win1_var888:
	popq	%rax
	cmpl	$100, -28(%rbp)
	jg	LBB2_4
## %bb.2:                               ##   in Loop: Header=BB2_1 Depth=1
	movl	-28(%rbp), %eax
	addl	-20(%rbp), %eax
	jmp	.Lvictim_win1_continue
## Variant 889
.Lvictim_win1_var889:
	popq	%rax
	cmpl	$100, -28(%rbp)
	jg	LBB2_4
## %bb.2:                               ##   in Loop: Header=BB2_1 Depth=1
	movl	-28(%rbp), %eax
	addl	-20(%rbp), %eax
	jmp	.Lvictim_win1_continue
## Variant 890
.Lvictim_win1_var890:
	popq	%rax
	cmpl	$100, -28(%rbp)
	jg	LBB2_4
## %bb.2:                               ##   in Loop: Header=BB2_1 Depth=1
	movl	-28(%rbp), %eax
	addl	-20(%rbp), %eax
	jmp	.Lvictim_win1_continue
## Variant 891
.Lvictim_win1_var891:
	popq	%rax
	cmpl	$100, -28(%rbp)
	jg	LBB2_4
## %bb.2:                               ##   in Loop: Header=BB2_1 Depth=1
	movl	-28(%rbp), %eax
	addl	-20(%rbp), %eax
	jmp	.Lvictim_win1_continue
## Variant 892
.Lvictim_win1_var892:
	popq	%rax
	cmpl	$100, -28(%rbp)
	jg	LBB2_4
## %bb.2:                               ##   in Loop: Header=BB2_1 Depth=1
	movl	-28(%rbp), %eax
	addl	-20(%rbp), %eax
	jmp	.Lvictim_win1_continue
## Variant 893
.Lvictim_win1_var893:
	popq	%rax
	cmpl	$100, -28(%rbp)
	jg	LBB2_4
## %bb.2:                               ##   in Loop: Header=BB2_1 Depth=1
	movl	-28(%rbp), %eax
	addl	-20(%rbp), %eax
	jmp	.Lvictim_win1_continue
## Variant 894
.Lvictim_win1_var894:
	popq	%rax
	cmpl	$100, -28(%rbp)
	jg	LBB2_4
## %bb.2:                               ##   in Loop: Header=BB2_1 Depth=1
	movl	-28(%rbp), %eax
	addl	-20(%rbp), %eax
	jmp	.Lvictim_win1_continue
## Variant 895
.Lvictim_win1_var895:
	popq	%rax
	cmpl	$100, -28(%rbp)
	jg	LBB2_4
## %bb.2:                               ##   in Loop: Header=BB2_1 Depth=1
	movl	-28(%rbp), %eax
	addl	-20(%rbp), %eax
	jmp	.Lvictim_win1_continue
## Variant 896
.Lvictim_win1_var896:
	popq	%rax
	cmpl	$100, -28(%rbp)
	jg	LBB2_4
## %bb.2:                               ##   in Loop: Header=BB2_1 Depth=1
	movl	-28(%rbp), %eax
	addl	-20(%rbp), %eax
	jmp	.Lvictim_win1_continue
## Variant 897
.Lvictim_win1_var897:
	popq	%rax
	cmpl	$100, -28(%rbp)
	jg	LBB2_4
## %bb.2:                               ##   in Loop: Header=BB2_1 Depth=1
	movl	-28(%rbp), %eax
	addl	-20(%rbp), %eax
	jmp	.Lvictim_win1_continue
## Variant 898
.Lvictim_win1_var898:
	popq	%rax
	cmpl	$100, -28(%rbp)
	jg	LBB2_4
## %bb.2:                               ##   in Loop: Header=BB2_1 Depth=1
	movl	-28(%rbp), %eax
	addl	-20(%rbp), %eax
	jmp	.Lvictim_win1_continue
## Variant 899
.Lvictim_win1_var899:
	popq	%rax
	cmpl	$100, -28(%rbp)
	jg	LBB2_4
## %bb.2:                               ##   in Loop: Header=BB2_1 Depth=1
	movl	-28(%rbp), %eax
	addl	-20(%rbp), %eax
	jmp	.Lvictim_win1_continue
## Variant 900
.Lvictim_win1_var900:
	popq	%rax
	cmpl	$100, -28(%rbp)
	jg	LBB2_4
## %bb.2:                               ##   in Loop: Header=BB2_1 Depth=1
	movl	-28(%rbp), %eax
	addl	-20(%rbp), %eax
	jmp	.Lvictim_win1_continue
## Variant 901
.Lvictim_win1_var901:
	popq	%rax
	cmpl	$100, -28(%rbp)
	jg	LBB2_4
## %bb.2:                               ##   in Loop: Header=BB2_1 Depth=1
	movl	-28(%rbp), %eax
	addl	-20(%rbp), %eax
	jmp	.Lvictim_win1_continue
## Variant 902
.Lvictim_win1_var902:
	popq	%rax
	cmpl	$100, -28(%rbp)
	jg	LBB2_4
## %bb.2:                               ##   in Loop: Header=BB2_1 Depth=1
	movl	-28(%rbp), %eax
	addl	-20(%rbp), %eax
	jmp	.Lvictim_win1_continue
## Variant 903
.Lvictim_win1_var903:
	popq	%rax
	cmpl	$100, -28(%rbp)
	jg	LBB2_4
## %bb.2:                               ##   in Loop: Header=BB2_1 Depth=1
	movl	-28(%rbp), %eax
	addl	-20(%rbp), %eax
	jmp	.Lvictim_win1_continue
## Variant 904
.Lvictim_win1_var904:
	popq	%rax
	cmpl	$100, -28(%rbp)
	jg	LBB2_4
## %bb.2:                               ##   in Loop: Header=BB2_1 Depth=1
	movl	-28(%rbp), %eax
	addl	-20(%rbp), %eax
	jmp	.Lvictim_win1_continue
## Variant 905
.Lvictim_win1_var905:
	popq	%rax
	cmpl	$100, -28(%rbp)
	jg	LBB2_4
## %bb.2:                               ##   in Loop: Header=BB2_1 Depth=1
	movl	-28(%rbp), %eax
	addl	-20(%rbp), %eax
	jmp	.Lvictim_win1_continue
## Variant 906
.Lvictim_win1_var906:
	popq	%rax
	cmpl	$100, -28(%rbp)
	jg	LBB2_4
## %bb.2:                               ##   in Loop: Header=BB2_1 Depth=1
	movl	-28(%rbp), %eax
	addl	-20(%rbp), %eax
	jmp	.Lvictim_win1_continue
## Variant 907
.Lvictim_win1_var907:
	popq	%rax
	cmpl	$100, -28(%rbp)
	jg	LBB2_4
