	.section	__TEXT,__text,regular,pure_instructions
	.build_version macos, 15, 0	sdk_version 26, 1
	.globl	_gadget                         ## -- Begin function gadget
	.p2align	4, 0x90
_gadget:
	.cfi_startproc
## %bb.0:
	pushq	%rbp
	.cfi_def_cfa_offset 16
	.cfi_offset %rbp, -16
	movq	%rsp, %rbp
	.cfi_def_cfa_register %rbp
	movq	%rdi, -8(%rbp)
	movq	-8(%rbp), %rax
	movsbl	(%rax), %eax
	shll	$10, %eax
	movslq	%eax, %rcx
	movq	_channel@GOTPCREL(%rip), %rax
	movzbl	(%rax,%rcx), %eax
	popq	%rbp
	retq
	.cfi_endproc
                                        ## -- End function
	.globl	_safe_target                    ## -- Begin function safe_target
	.p2align	4, 0x90
_safe_target:
	.cfi_startproc
## %bb.0:
	pushq	%rbp
	.cfi_def_cfa_offset 16
	.cfi_offset %rbp, -16
	movq	%rsp, %rbp
	.cfi_def_cfa_register %rbp
	movl	$42, %eax
	popq	%rbp
	retq
	.cfi_endproc
                                        ## -- End function
	.globl	_victim                         ## -- Begin function victim
	.p2align	4, 0x90
_victim:
	.cfi_startproc
## %bb.0:
	pushq	%rbp
	.cfi_def_cfa_offset 16
	.cfi_offset %rbp, -16
	movq	%rsp, %rbp
	.cfi_def_cfa_register %rbp
	pushq	%rbx
	.cfi_offset %rbx, -24
	movq	%rdi, -16(%rbp)
	movl	%esi, -20(%rbp)
	movl	$0, -24(%rbp)
	movl	$1, -28(%rbp)
LBB2_1:                                 ## =>This Inner Loop Header: Depth=1
## RANDOM SELECTOR BLOCK
	pushq	%rax
	pushq	%rcx
	pushq	%rdx
	rdtsc
	xorq	%rdx, %rax
	movl	$500, %ecx
	xorl	%edx, %edx
	divl	%ecx
	movl	%edx, %eax
	popq	%rdx
	popq	%rcx
	cmpl	$0, %eax
	je	.Lvictim_win1_var0
	cmpl	$1, %eax
	je	.Lvictim_win1_var1
	cmpl	$2, %eax
	je	.Lvictim_win1_var2
	cmpl	$3, %eax
	je	.Lvictim_win1_var3
	cmpl	$4, %eax
	je	.Lvictim_win1_var4
	cmpl	$5, %eax
	je	.Lvictim_win1_var5
	cmpl	$6, %eax
	je	.Lvictim_win1_var6
	cmpl	$7, %eax
	je	.Lvictim_win1_var7
	cmpl	$8, %eax
	je	.Lvictim_win1_var8
	cmpl	$9, %eax
	je	.Lvictim_win1_var9
	cmpl	$10, %eax
	je	.Lvictim_win1_var10
	cmpl	$11, %eax
	je	.Lvictim_win1_var11
	cmpl	$12, %eax
	je	.Lvictim_win1_var12
	cmpl	$13, %eax
	je	.Lvictim_win1_var13
	cmpl	$14, %eax
	je	.Lvictim_win1_var14
	cmpl	$15, %eax
	je	.Lvictim_win1_var15
	cmpl	$16, %eax
	je	.Lvictim_win1_var16
	cmpl	$17, %eax
	je	.Lvictim_win1_var17
	cmpl	$18, %eax
	je	.Lvictim_win1_var18
	cmpl	$19, %eax
	je	.Lvictim_win1_var19
	cmpl	$20, %eax
	je	.Lvictim_win1_var20
	cmpl	$21, %eax
	je	.Lvictim_win1_var21
	cmpl	$22, %eax
	je	.Lvictim_win1_var22
	cmpl	$23, %eax
	je	.Lvictim_win1_var23
	cmpl	$24, %eax
	je	.Lvictim_win1_var24
	cmpl	$25, %eax
	je	.Lvictim_win1_var25
	cmpl	$26, %eax
	je	.Lvictim_win1_var26
	cmpl	$27, %eax
	je	.Lvictim_win1_var27
	cmpl	$28, %eax
	je	.Lvictim_win1_var28
	cmpl	$29, %eax
	je	.Lvictim_win1_var29
	cmpl	$30, %eax
	je	.Lvictim_win1_var30
	cmpl	$31, %eax
	je	.Lvictim_win1_var31
	cmpl	$32, %eax
	je	.Lvictim_win1_var32
	cmpl	$33, %eax
	je	.Lvictim_win1_var33
	cmpl	$34, %eax
	je	.Lvictim_win1_var34
	cmpl	$35, %eax
	je	.Lvictim_win1_var35
	cmpl	$36, %eax
	je	.Lvictim_win1_var36
	cmpl	$37, %eax
	je	.Lvictim_win1_var37
	cmpl	$38, %eax
	je	.Lvictim_win1_var38
	cmpl	$39, %eax
	je	.Lvictim_win1_var39
	cmpl	$40, %eax
	je	.Lvictim_win1_var40
	cmpl	$41, %eax
	je	.Lvictim_win1_var41
	cmpl	$42, %eax
	je	.Lvictim_win1_var42
	cmpl	$43, %eax
	je	.Lvictim_win1_var43
	cmpl	$44, %eax
	je	.Lvictim_win1_var44
	cmpl	$45, %eax
	je	.Lvictim_win1_var45
	cmpl	$46, %eax
	je	.Lvictim_win1_var46
	cmpl	$47, %eax
	je	.Lvictim_win1_var47
	cmpl	$48, %eax
	je	.Lvictim_win1_var48
	cmpl	$49, %eax
	je	.Lvictim_win1_var49
	cmpl	$50, %eax
	je	.Lvictim_win1_var50
	cmpl	$51, %eax
	je	.Lvictim_win1_var51
	cmpl	$52, %eax
	je	.Lvictim_win1_var52
	cmpl	$53, %eax
	je	.Lvictim_win1_var53
	cmpl	$54, %eax
	je	.Lvictim_win1_var54
	cmpl	$55, %eax
	je	.Lvictim_win1_var55
	cmpl	$56, %eax
	je	.Lvictim_win1_var56
	cmpl	$57, %eax
	je	.Lvictim_win1_var57
	cmpl	$58, %eax
	je	.Lvictim_win1_var58
	cmpl	$59, %eax
	je	.Lvictim_win1_var59
	cmpl	$60, %eax
	je	.Lvictim_win1_var60
	cmpl	$61, %eax
	je	.Lvictim_win1_var61
	cmpl	$62, %eax
	je	.Lvictim_win1_var62
	cmpl	$63, %eax
	je	.Lvictim_win1_var63
	cmpl	$64, %eax
	je	.Lvictim_win1_var64
	cmpl	$65, %eax
	je	.Lvictim_win1_var65
	cmpl	$66, %eax
	je	.Lvictim_win1_var66
	cmpl	$67, %eax
	je	.Lvictim_win1_var67
	cmpl	$68, %eax
	je	.Lvictim_win1_var68
	cmpl	$69, %eax
	je	.Lvictim_win1_var69
	cmpl	$70, %eax
	je	.Lvictim_win1_var70
	cmpl	$71, %eax
	je	.Lvictim_win1_var71
	cmpl	$72, %eax
	je	.Lvictim_win1_var72
	cmpl	$73, %eax
	je	.Lvictim_win1_var73
	cmpl	$74, %eax
	je	.Lvictim_win1_var74
	cmpl	$75, %eax
	je	.Lvictim_win1_var75
	cmpl	$76, %eax
	je	.Lvictim_win1_var76
	cmpl	$77, %eax
	je	.Lvictim_win1_var77
	cmpl	$78, %eax
	je	.Lvictim_win1_var78
	cmpl	$79, %eax
	je	.Lvictim_win1_var79
	cmpl	$80, %eax
	je	.Lvictim_win1_var80
	cmpl	$81, %eax
	je	.Lvictim_win1_var81
	cmpl	$82, %eax
	je	.Lvictim_win1_var82
	cmpl	$83, %eax
	je	.Lvictim_win1_var83
	cmpl	$84, %eax
	je	.Lvictim_win1_var84
	cmpl	$85, %eax
	je	.Lvictim_win1_var85
	cmpl	$86, %eax
	je	.Lvictim_win1_var86
	cmpl	$87, %eax
	je	.Lvictim_win1_var87
	cmpl	$88, %eax
	je	.Lvictim_win1_var88
	cmpl	$89, %eax
	je	.Lvictim_win1_var89
	cmpl	$90, %eax
	je	.Lvictim_win1_var90
	cmpl	$91, %eax
	je	.Lvictim_win1_var91
	cmpl	$92, %eax
	je	.Lvictim_win1_var92
	cmpl	$93, %eax
	je	.Lvictim_win1_var93
	cmpl	$94, %eax
	je	.Lvictim_win1_var94
	cmpl	$95, %eax
	je	.Lvictim_win1_var95
	cmpl	$96, %eax
	je	.Lvictim_win1_var96
	cmpl	$97, %eax
	je	.Lvictim_win1_var97
	cmpl	$98, %eax
	je	.Lvictim_win1_var98
	cmpl	$99, %eax
	je	.Lvictim_win1_var99
	cmpl	$100, %eax
	je	.Lvictim_win1_var100
	cmpl	$101, %eax
	je	.Lvictim_win1_var101
	cmpl	$102, %eax
	je	.Lvictim_win1_var102
	cmpl	$103, %eax
	je	.Lvictim_win1_var103
	cmpl	$104, %eax
	je	.Lvictim_win1_var104
	cmpl	$105, %eax
	je	.Lvictim_win1_var105
	cmpl	$106, %eax
	je	.Lvictim_win1_var106
	cmpl	$107, %eax
	je	.Lvictim_win1_var107
	cmpl	$108, %eax
	je	.Lvictim_win1_var108
	cmpl	$109, %eax
	je	.Lvictim_win1_var109
	cmpl	$110, %eax
	je	.Lvictim_win1_var110
	cmpl	$111, %eax
	je	.Lvictim_win1_var111
	cmpl	$112, %eax
	je	.Lvictim_win1_var112
	cmpl	$113, %eax
	je	.Lvictim_win1_var113
	cmpl	$114, %eax
	je	.Lvictim_win1_var114
	cmpl	$115, %eax
	je	.Lvictim_win1_var115
	cmpl	$116, %eax
	je	.Lvictim_win1_var116
	cmpl	$117, %eax
	je	.Lvictim_win1_var117
	cmpl	$118, %eax
	je	.Lvictim_win1_var118
	cmpl	$119, %eax
	je	.Lvictim_win1_var119
	cmpl	$120, %eax
	je	.Lvictim_win1_var120
	cmpl	$121, %eax
	je	.Lvictim_win1_var121
	cmpl	$122, %eax
	je	.Lvictim_win1_var122
	cmpl	$123, %eax
	je	.Lvictim_win1_var123
	cmpl	$124, %eax
	je	.Lvictim_win1_var124
	cmpl	$125, %eax
	je	.Lvictim_win1_var125
	cmpl	$126, %eax
	je	.Lvictim_win1_var126
	cmpl	$127, %eax
	je	.Lvictim_win1_var127
	cmpl	$128, %eax
	je	.Lvictim_win1_var128
	cmpl	$129, %eax
	je	.Lvictim_win1_var129
	cmpl	$130, %eax
	je	.Lvictim_win1_var130
	cmpl	$131, %eax
	je	.Lvictim_win1_var131
	cmpl	$132, %eax
	je	.Lvictim_win1_var132
	cmpl	$133, %eax
	je	.Lvictim_win1_var133
	cmpl	$134, %eax
	je	.Lvictim_win1_var134
	cmpl	$135, %eax
	je	.Lvictim_win1_var135
	cmpl	$136, %eax
	je	.Lvictim_win1_var136
	cmpl	$137, %eax
	je	.Lvictim_win1_var137
	cmpl	$138, %eax
	je	.Lvictim_win1_var138
	cmpl	$139, %eax
	je	.Lvictim_win1_var139
	cmpl	$140, %eax
	je	.Lvictim_win1_var140
	cmpl	$141, %eax
	je	.Lvictim_win1_var141
	cmpl	$142, %eax
	je	.Lvictim_win1_var142
	cmpl	$143, %eax
	je	.Lvictim_win1_var143
	cmpl	$144, %eax
	je	.Lvictim_win1_var144
	cmpl	$145, %eax
	je	.Lvictim_win1_var145
	cmpl	$146, %eax
	je	.Lvictim_win1_var146
	cmpl	$147, %eax
	je	.Lvictim_win1_var147
	cmpl	$148, %eax
	je	.Lvictim_win1_var148
	cmpl	$149, %eax
	je	.Lvictim_win1_var149
	cmpl	$150, %eax
	je	.Lvictim_win1_var150
	cmpl	$151, %eax
	je	.Lvictim_win1_var151
	cmpl	$152, %eax
	je	.Lvictim_win1_var152
	cmpl	$153, %eax
	je	.Lvictim_win1_var153
	cmpl	$154, %eax
	je	.Lvictim_win1_var154
	cmpl	$155, %eax
	je	.Lvictim_win1_var155
	cmpl	$156, %eax
	je	.Lvictim_win1_var156
	cmpl	$157, %eax
	je	.Lvictim_win1_var157
	cmpl	$158, %eax
	je	.Lvictim_win1_var158
	cmpl	$159, %eax
	je	.Lvictim_win1_var159
	cmpl	$160, %eax
	je	.Lvictim_win1_var160
	cmpl	$161, %eax
	je	.Lvictim_win1_var161
	cmpl	$162, %eax
	je	.Lvictim_win1_var162
	cmpl	$163, %eax
	je	.Lvictim_win1_var163
	cmpl	$164, %eax
	je	.Lvictim_win1_var164
	cmpl	$165, %eax
	je	.Lvictim_win1_var165
	cmpl	$166, %eax
	je	.Lvictim_win1_var166
	cmpl	$167, %eax
	je	.Lvictim_win1_var167
	cmpl	$168, %eax
	je	.Lvictim_win1_var168
	cmpl	$169, %eax
	je	.Lvictim_win1_var169
	cmpl	$170, %eax
	je	.Lvictim_win1_var170
	cmpl	$171, %eax
	je	.Lvictim_win1_var171
	cmpl	$172, %eax
	je	.Lvictim_win1_var172
	cmpl	$173, %eax
	je	.Lvictim_win1_var173
	cmpl	$174, %eax
	je	.Lvictim_win1_var174
	cmpl	$175, %eax
	je	.Lvictim_win1_var175
	cmpl	$176, %eax
	je	.Lvictim_win1_var176
	cmpl	$177, %eax
	je	.Lvictim_win1_var177
	cmpl	$178, %eax
	je	.Lvictim_win1_var178
	cmpl	$179, %eax
	je	.Lvictim_win1_var179
	cmpl	$180, %eax
	je	.Lvictim_win1_var180
	cmpl	$181, %eax
	je	.Lvictim_win1_var181
	cmpl	$182, %eax
	je	.Lvictim_win1_var182
	cmpl	$183, %eax
	je	.Lvictim_win1_var183
	cmpl	$184, %eax
	je	.Lvictim_win1_var184
	cmpl	$185, %eax
	je	.Lvictim_win1_var185
	cmpl	$186, %eax
	je	.Lvictim_win1_var186
	cmpl	$187, %eax
	je	.Lvictim_win1_var187
	cmpl	$188, %eax
	je	.Lvictim_win1_var188
	cmpl	$189, %eax
	je	.Lvictim_win1_var189
	cmpl	$190, %eax
	je	.Lvictim_win1_var190
	cmpl	$191, %eax
	je	.Lvictim_win1_var191
	cmpl	$192, %eax
	je	.Lvictim_win1_var192
	cmpl	$193, %eax
	je	.Lvictim_win1_var193
	cmpl	$194, %eax
	je	.Lvictim_win1_var194
	cmpl	$195, %eax
	je	.Lvictim_win1_var195
	cmpl	$196, %eax
	je	.Lvictim_win1_var196
	cmpl	$197, %eax
	je	.Lvictim_win1_var197
	cmpl	$198, %eax
	je	.Lvictim_win1_var198
	cmpl	$199, %eax
	je	.Lvictim_win1_var199
	cmpl	$200, %eax
	je	.Lvictim_win1_var200
	cmpl	$201, %eax
	je	.Lvictim_win1_var201
	cmpl	$202, %eax
	je	.Lvictim_win1_var202
	cmpl	$203, %eax
	je	.Lvictim_win1_var203
	cmpl	$204, %eax
	je	.Lvictim_win1_var204
	cmpl	$205, %eax
	je	.Lvictim_win1_var205
	cmpl	$206, %eax
	je	.Lvictim_win1_var206
	cmpl	$207, %eax
	je	.Lvictim_win1_var207
	cmpl	$208, %eax
	je	.Lvictim_win1_var208
	cmpl	$209, %eax
	je	.Lvictim_win1_var209
	cmpl	$210, %eax
	je	.Lvictim_win1_var210
	cmpl	$211, %eax
	je	.Lvictim_win1_var211
	cmpl	$212, %eax
	je	.Lvictim_win1_var212
	cmpl	$213, %eax
	je	.Lvictim_win1_var213
	cmpl	$214, %eax
	je	.Lvictim_win1_var214
	cmpl	$215, %eax
	je	.Lvictim_win1_var215
	cmpl	$216, %eax
	je	.Lvictim_win1_var216
	cmpl	$217, %eax
	je	.Lvictim_win1_var217
	cmpl	$218, %eax
	je	.Lvictim_win1_var218
	cmpl	$219, %eax
	je	.Lvictim_win1_var219
	cmpl	$220, %eax
	je	.Lvictim_win1_var220
	cmpl	$221, %eax
	je	.Lvictim_win1_var221
	cmpl	$222, %eax
	je	.Lvictim_win1_var222
	cmpl	$223, %eax
	je	.Lvictim_win1_var223
	cmpl	$224, %eax
	je	.Lvictim_win1_var224
	cmpl	$225, %eax
	je	.Lvictim_win1_var225
	cmpl	$226, %eax
	je	.Lvictim_win1_var226
	cmpl	$227, %eax
	je	.Lvictim_win1_var227
	cmpl	$228, %eax
	je	.Lvictim_win1_var228
	cmpl	$229, %eax
	je	.Lvictim_win1_var229
	cmpl	$230, %eax
	je	.Lvictim_win1_var230
	cmpl	$231, %eax
	je	.Lvictim_win1_var231
	cmpl	$232, %eax
	je	.Lvictim_win1_var232
	cmpl	$233, %eax
	je	.Lvictim_win1_var233
	cmpl	$234, %eax
	je	.Lvictim_win1_var234
	cmpl	$235, %eax
	je	.Lvictim_win1_var235
	cmpl	$236, %eax
	je	.Lvictim_win1_var236
	cmpl	$237, %eax
	je	.Lvictim_win1_var237
	cmpl	$238, %eax
	je	.Lvictim_win1_var238
	cmpl	$239, %eax
	je	.Lvictim_win1_var239
	cmpl	$240, %eax
	je	.Lvictim_win1_var240
	cmpl	$241, %eax
	je	.Lvictim_win1_var241
	cmpl	$242, %eax
	je	.Lvictim_win1_var242
	cmpl	$243, %eax
	je	.Lvictim_win1_var243
	cmpl	$244, %eax
	je	.Lvictim_win1_var244
	cmpl	$245, %eax
	je	.Lvictim_win1_var245
	cmpl	$246, %eax
	je	.Lvictim_win1_var246
	cmpl	$247, %eax
	je	.Lvictim_win1_var247
	cmpl	$248, %eax
	je	.Lvictim_win1_var248
	cmpl	$249, %eax
	je	.Lvictim_win1_var249
	cmpl	$250, %eax
	je	.Lvictim_win1_var250
	cmpl	$251, %eax
	je	.Lvictim_win1_var251
	cmpl	$252, %eax
	je	.Lvictim_win1_var252
	cmpl	$253, %eax
	je	.Lvictim_win1_var253
	cmpl	$254, %eax
	je	.Lvictim_win1_var254
	cmpl	$255, %eax
	je	.Lvictim_win1_var255
	cmpl	$256, %eax
	je	.Lvictim_win1_var256
	cmpl	$257, %eax
	je	.Lvictim_win1_var257
	cmpl	$258, %eax
	je	.Lvictim_win1_var258
	cmpl	$259, %eax
	je	.Lvictim_win1_var259
	cmpl	$260, %eax
	je	.Lvictim_win1_var260
	cmpl	$261, %eax
	je	.Lvictim_win1_var261
	cmpl	$262, %eax
	je	.Lvictim_win1_var262
	cmpl	$263, %eax
	je	.Lvictim_win1_var263
	cmpl	$264, %eax
	je	.Lvictim_win1_var264
	cmpl	$265, %eax
	je	.Lvictim_win1_var265
	cmpl	$266, %eax
	je	.Lvictim_win1_var266
	cmpl	$267, %eax
	je	.Lvictim_win1_var267
	cmpl	$268, %eax
	je	.Lvictim_win1_var268
	cmpl	$269, %eax
	je	.Lvictim_win1_var269
	cmpl	$270, %eax
	je	.Lvictim_win1_var270
	cmpl	$271, %eax
	je	.Lvictim_win1_var271
	cmpl	$272, %eax
	je	.Lvictim_win1_var272
	cmpl	$273, %eax
	je	.Lvictim_win1_var273
	cmpl	$274, %eax
	je	.Lvictim_win1_var274
	cmpl	$275, %eax
	je	.Lvictim_win1_var275
	cmpl	$276, %eax
	je	.Lvictim_win1_var276
	cmpl	$277, %eax
	je	.Lvictim_win1_var277
	cmpl	$278, %eax
	je	.Lvictim_win1_var278
	cmpl	$279, %eax
	je	.Lvictim_win1_var279
	cmpl	$280, %eax
	je	.Lvictim_win1_var280
	cmpl	$281, %eax
	je	.Lvictim_win1_var281
	cmpl	$282, %eax
	je	.Lvictim_win1_var282
	cmpl	$283, %eax
	je	.Lvictim_win1_var283
	cmpl	$284, %eax
	je	.Lvictim_win1_var284
	cmpl	$285, %eax
	je	.Lvictim_win1_var285
	cmpl	$286, %eax
	je	.Lvictim_win1_var286
	cmpl	$287, %eax
	je	.Lvictim_win1_var287
	cmpl	$288, %eax
	je	.Lvictim_win1_var288
	cmpl	$289, %eax
	je	.Lvictim_win1_var289
	cmpl	$290, %eax
	je	.Lvictim_win1_var290
	cmpl	$291, %eax
	je	.Lvictim_win1_var291
	cmpl	$292, %eax
	je	.Lvictim_win1_var292
	cmpl	$293, %eax
	je	.Lvictim_win1_var293
	cmpl	$294, %eax
	je	.Lvictim_win1_var294
	cmpl	$295, %eax
	je	.Lvictim_win1_var295
	cmpl	$296, %eax
	je	.Lvictim_win1_var296
	cmpl	$297, %eax
	je	.Lvictim_win1_var297
	cmpl	$298, %eax
	je	.Lvictim_win1_var298
	cmpl	$299, %eax
	je	.Lvictim_win1_var299
	cmpl	$300, %eax
	je	.Lvictim_win1_var300
	cmpl	$301, %eax
	je	.Lvictim_win1_var301
	cmpl	$302, %eax
	je	.Lvictim_win1_var302
	cmpl	$303, %eax
	je	.Lvictim_win1_var303
	cmpl	$304, %eax
	je	.Lvictim_win1_var304
	cmpl	$305, %eax
	je	.Lvictim_win1_var305
	cmpl	$306, %eax
	je	.Lvictim_win1_var306
	cmpl	$307, %eax
	je	.Lvictim_win1_var307
	cmpl	$308, %eax
	je	.Lvictim_win1_var308
	cmpl	$309, %eax
	je	.Lvictim_win1_var309
	cmpl	$310, %eax
	je	.Lvictim_win1_var310
	cmpl	$311, %eax
	je	.Lvictim_win1_var311
	cmpl	$312, %eax
	je	.Lvictim_win1_var312
	cmpl	$313, %eax
	je	.Lvictim_win1_var313
	cmpl	$314, %eax
	je	.Lvictim_win1_var314
	cmpl	$315, %eax
	je	.Lvictim_win1_var315
	cmpl	$316, %eax
	je	.Lvictim_win1_var316
	cmpl	$317, %eax
	je	.Lvictim_win1_var317
	cmpl	$318, %eax
	je	.Lvictim_win1_var318
	cmpl	$319, %eax
	je	.Lvictim_win1_var319
	cmpl	$320, %eax
	je	.Lvictim_win1_var320
	cmpl	$321, %eax
	je	.Lvictim_win1_var321
	cmpl	$322, %eax
	je	.Lvictim_win1_var322
	cmpl	$323, %eax
	je	.Lvictim_win1_var323
	cmpl	$324, %eax
	je	.Lvictim_win1_var324
	cmpl	$325, %eax
	je	.Lvictim_win1_var325
	cmpl	$326, %eax
	je	.Lvictim_win1_var326
	cmpl	$327, %eax
	je	.Lvictim_win1_var327
	cmpl	$328, %eax
	je	.Lvictim_win1_var328
	cmpl	$329, %eax
	je	.Lvictim_win1_var329
	cmpl	$330, %eax
	je	.Lvictim_win1_var330
	cmpl	$331, %eax
	je	.Lvictim_win1_var331
	cmpl	$332, %eax
	je	.Lvictim_win1_var332
	cmpl	$333, %eax
	je	.Lvictim_win1_var333
	cmpl	$334, %eax
	je	.Lvictim_win1_var334
	cmpl	$335, %eax
	je	.Lvictim_win1_var335
	cmpl	$336, %eax
	je	.Lvictim_win1_var336
	cmpl	$337, %eax
	je	.Lvictim_win1_var337
	cmpl	$338, %eax
	je	.Lvictim_win1_var338
	cmpl	$339, %eax
	je	.Lvictim_win1_var339
	cmpl	$340, %eax
	je	.Lvictim_win1_var340
	cmpl	$341, %eax
	je	.Lvictim_win1_var341
	cmpl	$342, %eax
	je	.Lvictim_win1_var342
	cmpl	$343, %eax
	je	.Lvictim_win1_var343
	cmpl	$344, %eax
	je	.Lvictim_win1_var344
	cmpl	$345, %eax
	je	.Lvictim_win1_var345
	cmpl	$346, %eax
	je	.Lvictim_win1_var346
	cmpl	$347, %eax
	je	.Lvictim_win1_var347
	cmpl	$348, %eax
	je	.Lvictim_win1_var348
	cmpl	$349, %eax
	je	.Lvictim_win1_var349
	cmpl	$350, %eax
	je	.Lvictim_win1_var350
	cmpl	$351, %eax
	je	.Lvictim_win1_var351
	cmpl	$352, %eax
	je	.Lvictim_win1_var352
	cmpl	$353, %eax
	je	.Lvictim_win1_var353
	cmpl	$354, %eax
	je	.Lvictim_win1_var354
	cmpl	$355, %eax
	je	.Lvictim_win1_var355
	cmpl	$356, %eax
	je	.Lvictim_win1_var356
	cmpl	$357, %eax
	je	.Lvictim_win1_var357
	cmpl	$358, %eax
	je	.Lvictim_win1_var358
	cmpl	$359, %eax
	je	.Lvictim_win1_var359
	cmpl	$360, %eax
	je	.Lvictim_win1_var360
	cmpl	$361, %eax
	je	.Lvictim_win1_var361
	cmpl	$362, %eax
	je	.Lvictim_win1_var362
	cmpl	$363, %eax
	je	.Lvictim_win1_var363
	cmpl	$364, %eax
	je	.Lvictim_win1_var364
	cmpl	$365, %eax
	je	.Lvictim_win1_var365
	cmpl	$366, %eax
	je	.Lvictim_win1_var366
	cmpl	$367, %eax
	je	.Lvictim_win1_var367
	cmpl	$368, %eax
	je	.Lvictim_win1_var368
	cmpl	$369, %eax
	je	.Lvictim_win1_var369
	cmpl	$370, %eax
	je	.Lvictim_win1_var370
	cmpl	$371, %eax
	je	.Lvictim_win1_var371
	cmpl	$372, %eax
	je	.Lvictim_win1_var372
	cmpl	$373, %eax
	je	.Lvictim_win1_var373
	cmpl	$374, %eax
	je	.Lvictim_win1_var374
	cmpl	$375, %eax
	je	.Lvictim_win1_var375
	cmpl	$376, %eax
	je	.Lvictim_win1_var376
	cmpl	$377, %eax
	je	.Lvictim_win1_var377
	cmpl	$378, %eax
	je	.Lvictim_win1_var378
	cmpl	$379, %eax
	je	.Lvictim_win1_var379
	cmpl	$380, %eax
	je	.Lvictim_win1_var380
	cmpl	$381, %eax
	je	.Lvictim_win1_var381
	cmpl	$382, %eax
	je	.Lvictim_win1_var382
	cmpl	$383, %eax
	je	.Lvictim_win1_var383
	cmpl	$384, %eax
	je	.Lvictim_win1_var384
	cmpl	$385, %eax
	je	.Lvictim_win1_var385
	cmpl	$386, %eax
	je	.Lvictim_win1_var386
	cmpl	$387, %eax
	je	.Lvictim_win1_var387
	cmpl	$388, %eax
	je	.Lvictim_win1_var388
	cmpl	$389, %eax
	je	.Lvictim_win1_var389
	cmpl	$390, %eax
	je	.Lvictim_win1_var390
	cmpl	$391, %eax
	je	.Lvictim_win1_var391
	cmpl	$392, %eax
	je	.Lvictim_win1_var392
	cmpl	$393, %eax
	je	.Lvictim_win1_var393
	cmpl	$394, %eax
	je	.Lvictim_win1_var394
	cmpl	$395, %eax
	je	.Lvictim_win1_var395
	cmpl	$396, %eax
	je	.Lvictim_win1_var396
	cmpl	$397, %eax
	je	.Lvictim_win1_var397
	cmpl	$398, %eax
	je	.Lvictim_win1_var398
	cmpl	$399, %eax
	je	.Lvictim_win1_var399
	cmpl	$400, %eax
	je	.Lvictim_win1_var400
	cmpl	$401, %eax
	je	.Lvictim_win1_var401
	cmpl	$402, %eax
	je	.Lvictim_win1_var402
	cmpl	$403, %eax
	je	.Lvictim_win1_var403
	cmpl	$404, %eax
	je	.Lvictim_win1_var404
	cmpl	$405, %eax
	je	.Lvictim_win1_var405
	cmpl	$406, %eax
	je	.Lvictim_win1_var406
	cmpl	$407, %eax
	je	.Lvictim_win1_var407
	cmpl	$408, %eax
	je	.Lvictim_win1_var408
	cmpl	$409, %eax
	je	.Lvictim_win1_var409
	cmpl	$410, %eax
	je	.Lvictim_win1_var410
	cmpl	$411, %eax
	je	.Lvictim_win1_var411
	cmpl	$412, %eax
	je	.Lvictim_win1_var412
	cmpl	$413, %eax
	je	.Lvictim_win1_var413
	cmpl	$414, %eax
	je	.Lvictim_win1_var414
	cmpl	$415, %eax
	je	.Lvictim_win1_var415
	cmpl	$416, %eax
	je	.Lvictim_win1_var416
	cmpl	$417, %eax
	je	.Lvictim_win1_var417
	cmpl	$418, %eax
	je	.Lvictim_win1_var418
	cmpl	$419, %eax
	je	.Lvictim_win1_var419
	cmpl	$420, %eax
	je	.Lvictim_win1_var420
	cmpl	$421, %eax
	je	.Lvictim_win1_var421
	cmpl	$422, %eax
	je	.Lvictim_win1_var422
	cmpl	$423, %eax
	je	.Lvictim_win1_var423
	cmpl	$424, %eax
	je	.Lvictim_win1_var424
	cmpl	$425, %eax
	je	.Lvictim_win1_var425
	cmpl	$426, %eax
	je	.Lvictim_win1_var426
	cmpl	$427, %eax
	je	.Lvictim_win1_var427
	cmpl	$428, %eax
	je	.Lvictim_win1_var428
	cmpl	$429, %eax
	je	.Lvictim_win1_var429
	cmpl	$430, %eax
	je	.Lvictim_win1_var430
	cmpl	$431, %eax
	je	.Lvictim_win1_var431
	cmpl	$432, %eax
	je	.Lvictim_win1_var432
	cmpl	$433, %eax
	je	.Lvictim_win1_var433
	cmpl	$434, %eax
	je	.Lvictim_win1_var434
	cmpl	$435, %eax
	je	.Lvictim_win1_var435
	cmpl	$436, %eax
	je	.Lvictim_win1_var436
	cmpl	$437, %eax
	je	.Lvictim_win1_var437
	cmpl	$438, %eax
	je	.Lvictim_win1_var438
	cmpl	$439, %eax
	je	.Lvictim_win1_var439
	cmpl	$440, %eax
	je	.Lvictim_win1_var440
	cmpl	$441, %eax
	je	.Lvictim_win1_var441
	cmpl	$442, %eax
	je	.Lvictim_win1_var442
	cmpl	$443, %eax
	je	.Lvictim_win1_var443
	cmpl	$444, %eax
	je	.Lvictim_win1_var444
	cmpl	$445, %eax
	je	.Lvictim_win1_var445
	cmpl	$446, %eax
	je	.Lvictim_win1_var446
	cmpl	$447, %eax
	je	.Lvictim_win1_var447
	cmpl	$448, %eax
	je	.Lvictim_win1_var448
	cmpl	$449, %eax
	je	.Lvictim_win1_var449
	cmpl	$450, %eax
	je	.Lvictim_win1_var450
	cmpl	$451, %eax
	je	.Lvictim_win1_var451
	cmpl	$452, %eax
	je	.Lvictim_win1_var452
	cmpl	$453, %eax
	je	.Lvictim_win1_var453
	cmpl	$454, %eax
	je	.Lvictim_win1_var454
	cmpl	$455, %eax
	je	.Lvictim_win1_var455
	cmpl	$456, %eax
	je	.Lvictim_win1_var456
	cmpl	$457, %eax
	je	.Lvictim_win1_var457
	cmpl	$458, %eax
	je	.Lvictim_win1_var458
	cmpl	$459, %eax
	je	.Lvictim_win1_var459
	cmpl	$460, %eax
	je	.Lvictim_win1_var460
	cmpl	$461, %eax
	je	.Lvictim_win1_var461
	cmpl	$462, %eax
	je	.Lvictim_win1_var462
	cmpl	$463, %eax
	je	.Lvictim_win1_var463
	cmpl	$464, %eax
	je	.Lvictim_win1_var464
	cmpl	$465, %eax
	je	.Lvictim_win1_var465
	cmpl	$466, %eax
	je	.Lvictim_win1_var466
	cmpl	$467, %eax
	je	.Lvictim_win1_var467
	cmpl	$468, %eax
	je	.Lvictim_win1_var468
	cmpl	$469, %eax
	je	.Lvictim_win1_var469
	cmpl	$470, %eax
	je	.Lvictim_win1_var470
	cmpl	$471, %eax
	je	.Lvictim_win1_var471
	cmpl	$472, %eax
	je	.Lvictim_win1_var472
	cmpl	$473, %eax
	je	.Lvictim_win1_var473
	cmpl	$474, %eax
	je	.Lvictim_win1_var474
	cmpl	$475, %eax
	je	.Lvictim_win1_var475
	cmpl	$476, %eax
	je	.Lvictim_win1_var476
	cmpl	$477, %eax
	je	.Lvictim_win1_var477
	cmpl	$478, %eax
	je	.Lvictim_win1_var478
	cmpl	$479, %eax
	je	.Lvictim_win1_var479
	cmpl	$480, %eax
	je	.Lvictim_win1_var480
	cmpl	$481, %eax
	je	.Lvictim_win1_var481
	cmpl	$482, %eax
	je	.Lvictim_win1_var482
	cmpl	$483, %eax
	je	.Lvictim_win1_var483
	cmpl	$484, %eax
	je	.Lvictim_win1_var484
	cmpl	$485, %eax
	je	.Lvictim_win1_var485
	cmpl	$486, %eax
	je	.Lvictim_win1_var486
	cmpl	$487, %eax
	je	.Lvictim_win1_var487
	cmpl	$488, %eax
	je	.Lvictim_win1_var488
	cmpl	$489, %eax
	je	.Lvictim_win1_var489
	cmpl	$490, %eax
	je	.Lvictim_win1_var490
	cmpl	$491, %eax
	je	.Lvictim_win1_var491
	cmpl	$492, %eax
	je	.Lvictim_win1_var492
	cmpl	$493, %eax
	je	.Lvictim_win1_var493
	cmpl	$494, %eax
	je	.Lvictim_win1_var494
	cmpl	$495, %eax
	je	.Lvictim_win1_var495
	cmpl	$496, %eax
	je	.Lvictim_win1_var496
	cmpl	$497, %eax
	je	.Lvictim_win1_var497
	cmpl	$498, %eax
	je	.Lvictim_win1_var498
	cmpl	$499, %eax
	je	.Lvictim_win1_var499
	jmp	.Lvictim_win1_var0
## Variant 0
.Lvictim_win1_var0:
	popq	%rax
	cmpl	$100, -28(%rbp)
	jg	LBB2_4
## %bb.2:                               ##   in Loop: Header=BB2_1 Depth=1
	movl	-28(%rbp), %eax
	addl	-20(%rbp), %eax
	jmp	.Lvictim_win1_continue
## Variant 1
.Lvictim_win1_var1:
	popq	%rax
	cmpl	$100, -28(%rbp)
	jg	LBB2_4
## %bb.2:                               ##   in Loop: Header=BB2_1 Depth=1
	movl	-28(%rbp), %eax
	addl	-20(%rbp), %eax
	jmp	.Lvictim_win1_continue
## Variant 2
.Lvictim_win1_var2:
	popq	%rax
	cmpl	$100, -28(%rbp)
	jg	LBB2_4
## %bb.2:                               ##   in Loop: Header=BB2_1 Depth=1
	movl	-28(%rbp), %eax
	addl	-20(%rbp), %eax
	jmp	.Lvictim_win1_continue
## Variant 3
.Lvictim_win1_var3:
	popq	%rax
	cmpl	$100, -28(%rbp)
	jg	LBB2_4
## %bb.2:                               ##   in Loop: Header=BB2_1 Depth=1
	movl	-28(%rbp), %eax
	addl	-20(%rbp), %eax
	jmp	.Lvictim_win1_continue
## Variant 4
.Lvictim_win1_var4:
	popq	%rax
	cmpl	$100, -28(%rbp)
	jg	LBB2_4
## %bb.2:                               ##   in Loop: Header=BB2_1 Depth=1
	movl	-28(%rbp), %eax
	addl	-20(%rbp), %eax
	jmp	.Lvictim_win1_continue
## Variant 5
.Lvictim_win1_var5:
	popq	%rax
	cmpl	$100, -28(%rbp)
	jg	LBB2_4
## %bb.2:                               ##   in Loop: Header=BB2_1 Depth=1
	movl	-28(%rbp), %eax
	addl	-20(%rbp), %eax
	jmp	.Lvictim_win1_continue
## Variant 6
.Lvictim_win1_var6:
	popq	%rax
	cmpl	$100, -28(%rbp)
	jg	LBB2_4
## %bb.2:                               ##   in Loop: Header=BB2_1 Depth=1
	movl	-28(%rbp), %eax
	addl	-20(%rbp), %eax
	jmp	.Lvictim_win1_continue
## Variant 7
.Lvictim_win1_var7:
	popq	%rax
	cmpl	$100, -28(%rbp)
	jg	LBB2_4
## %bb.2:                               ##   in Loop: Header=BB2_1 Depth=1
	movl	-28(%rbp), %eax
	addl	-20(%rbp), %eax
	jmp	.Lvictim_win1_continue
## Variant 8
.Lvictim_win1_var8:
	popq	%rax
	cmpl	$100, -28(%rbp)
	jg	LBB2_4
## %bb.2:                               ##   in Loop: Header=BB2_1 Depth=1
	movl	-28(%rbp), %eax
	addl	-20(%rbp), %eax
	jmp	.Lvictim_win1_continue
## Variant 9
.Lvictim_win1_var9:
	popq	%rax
	cmpl	$100, -28(%rbp)
	jg	LBB2_4
## %bb.2:                               ##   in Loop: Header=BB2_1 Depth=1
	movl	-28(%rbp), %eax
	addl	-20(%rbp), %eax
	jmp	.Lvictim_win1_continue
## Variant 10
.Lvictim_win1_var10:
	popq	%rax
	cmpl	$100, -28(%rbp)
	jg	LBB2_4
## %bb.2:                               ##   in Loop: Header=BB2_1 Depth=1
	movl	-28(%rbp), %eax
	addl	-20(%rbp), %eax
	jmp	.Lvictim_win1_continue
## Variant 11
.Lvictim_win1_var11:
	popq	%rax
	cmpl	$100, -28(%rbp)
	jg	LBB2_4
## %bb.2:                               ##   in Loop: Header=BB2_1 Depth=1
	movl	-28(%rbp), %eax
	addl	-20(%rbp), %eax
	jmp	.Lvictim_win1_continue
## Variant 12
.Lvictim_win1_var12:
	popq	%rax
	cmpl	$100, -28(%rbp)
	jg	LBB2_4
## %bb.2:                               ##   in Loop: Header=BB2_1 Depth=1
	movl	-28(%rbp), %eax
	addl	-20(%rbp), %eax
	jmp	.Lvictim_win1_continue
## Variant 13
.Lvictim_win1_var13:
	popq	%rax
	cmpl	$100, -28(%rbp)
	jg	LBB2_4
## %bb.2:                               ##   in Loop: Header=BB2_1 Depth=1
	movl	-28(%rbp), %eax
	addl	-20(%rbp), %eax
	jmp	.Lvictim_win1_continue
## Variant 14
.Lvictim_win1_var14:
	popq	%rax
	cmpl	$100, -28(%rbp)
	jg	LBB2_4
## %bb.2:                               ##   in Loop: Header=BB2_1 Depth=1
	movl	-28(%rbp), %eax
	addl	-20(%rbp), %eax
	jmp	.Lvictim_win1_continue
## Variant 15
.Lvictim_win1_var15:
	popq	%rax
	cmpl	$100, -28(%rbp)
	jg	LBB2_4
## %bb.2:                               ##   in Loop: Header=BB2_1 Depth=1
	movl	-28(%rbp), %eax
	addl	-20(%rbp), %eax
	jmp	.Lvictim_win1_continue
## Variant 16
.Lvictim_win1_var16:
	popq	%rax
	cmpl	$100, -28(%rbp)
	jg	LBB2_4
## %bb.2:                               ##   in Loop: Header=BB2_1 Depth=1
	movl	-28(%rbp), %eax
	addl	-20(%rbp), %eax
	jmp	.Lvictim_win1_continue
## Variant 17
.Lvictim_win1_var17:
	popq	%rax
	cmpl	$100, -28(%rbp)
	jg	LBB2_4
## %bb.2:                               ##   in Loop: Header=BB2_1 Depth=1
	movl	-28(%rbp), %eax
	addl	-20(%rbp), %eax
	jmp	.Lvictim_win1_continue
## Variant 18
.Lvictim_win1_var18:
	popq	%rax
	cmpl	$100, -28(%rbp)
	jg	LBB2_4
## %bb.2:                               ##   in Loop: Header=BB2_1 Depth=1
	movl	-28(%rbp), %eax
	addl	-20(%rbp), %eax
	jmp	.Lvictim_win1_continue
## Variant 19
.Lvictim_win1_var19:
	popq	%rax
	cmpl	$100, -28(%rbp)
	jg	LBB2_4
## %bb.2:                               ##   in Loop: Header=BB2_1 Depth=1
	movl	-28(%rbp), %eax
	addl	-20(%rbp), %eax
	jmp	.Lvictim_win1_continue
## Variant 20
.Lvictim_win1_var20:
	popq	%rax
	cmpl	$100, -28(%rbp)
	jg	LBB2_4
## %bb.2:                               ##   in Loop: Header=BB2_1 Depth=1
	movl	-28(%rbp), %eax
	addl	-20(%rbp), %eax
	jmp	.Lvictim_win1_continue
## Variant 21
.Lvictim_win1_var21:
	popq	%rax
	cmpl	$100, -28(%rbp)
	jg	LBB2_4
## %bb.2:                               ##   in Loop: Header=BB2_1 Depth=1
	movl	-28(%rbp), %eax
	addl	-20(%rbp), %eax
	jmp	.Lvictim_win1_continue
## Variant 22
.Lvictim_win1_var22:
	popq	%rax
	cmpl	$100, -28(%rbp)
	jg	LBB2_4
## %bb.2:                               ##   in Loop: Header=BB2_1 Depth=1
	movl	-28(%rbp), %eax
	addl	-20(%rbp), %eax
	jmp	.Lvictim_win1_continue
## Variant 23
.Lvictim_win1_var23:
	popq	%rax
	cmpl	$100, -28(%rbp)
	jg	LBB2_4
## %bb.2:                               ##   in Loop: Header=BB2_1 Depth=1
	movl	-28(%rbp), %eax
	addl	-20(%rbp), %eax
	jmp	.Lvictim_win1_continue
## Variant 24
.Lvictim_win1_var24:
	popq	%rax
	cmpl	$100, -28(%rbp)
	jg	LBB2_4
## %bb.2:                               ##   in Loop: Header=BB2_1 Depth=1
	movl	-28(%rbp), %eax
	addl	-20(%rbp), %eax
	jmp	.Lvictim_win1_continue
## Variant 25
.Lvictim_win1_var25:
	popq	%rax
	cmpl	$100, -28(%rbp)
	jg	LBB2_4
## %bb.2:                               ##   in Loop: Header=BB2_1 Depth=1
	movl	-28(%rbp), %eax
	addl	-20(%rbp), %eax
	jmp	.Lvictim_win1_continue
## Variant 26
.Lvictim_win1_var26:
	popq	%rax
	cmpl	$100, -28(%rbp)
	jg	LBB2_4
## %bb.2:                               ##   in Loop: Header=BB2_1 Depth=1
	movl	-28(%rbp), %eax
	addl	-20(%rbp), %eax
	jmp	.Lvictim_win1_continue
## Variant 27
.Lvictim_win1_var27:
	popq	%rax
	cmpl	$100, -28(%rbp)
	jg	LBB2_4
## %bb.2:                               ##   in Loop: Header=BB2_1 Depth=1
	movl	-28(%rbp), %eax
	addl	-20(%rbp), %eax
	jmp	.Lvictim_win1_continue
## Variant 28
.Lvictim_win1_var28:
	popq	%rax
	cmpl	$100, -28(%rbp)
	jg	LBB2_4
## %bb.2:                               ##   in Loop: Header=BB2_1 Depth=1
	movl	-28(%rbp), %eax
	addl	-20(%rbp), %eax
	jmp	.Lvictim_win1_continue
## Variant 29
.Lvictim_win1_var29:
	popq	%rax
	cmpl	$100, -28(%rbp)
	jg	LBB2_4
## %bb.2:                               ##   in Loop: Header=BB2_1 Depth=1
	movl	-28(%rbp), %eax
	addl	-20(%rbp), %eax
	jmp	.Lvictim_win1_continue
## Variant 30
.Lvictim_win1_var30:
	popq	%rax
	cmpl	$100, -28(%rbp)
	jg	LBB2_4
## %bb.2:                               ##   in Loop: Header=BB2_1 Depth=1
	movl	-28(%rbp), %eax
	addl	-20(%rbp), %eax
	jmp	.Lvictim_win1_continue
## Variant 31
.Lvictim_win1_var31:
	popq	%rax
	cmpl	$100, -28(%rbp)
	jg	LBB2_4
## %bb.2:                               ##   in Loop: Header=BB2_1 Depth=1
	movl	-28(%rbp), %eax
	addl	-20(%rbp), %eax
	jmp	.Lvictim_win1_continue
## Variant 32
.Lvictim_win1_var32:
	popq	%rax
	cmpl	$100, -28(%rbp)
	jg	LBB2_4
## %bb.2:                               ##   in Loop: Header=BB2_1 Depth=1
	movl	-28(%rbp), %eax
	addl	-20(%rbp), %eax
	jmp	.Lvictim_win1_continue
## Variant 33
.Lvictim_win1_var33:
	popq	%rax
	cmpl	$100, -28(%rbp)
	jg	LBB2_4
## %bb.2:                               ##   in Loop: Header=BB2_1 Depth=1
	movl	-28(%rbp), %eax
	addl	-20(%rbp), %eax
	jmp	.Lvictim_win1_continue
## Variant 34
.Lvictim_win1_var34:
	popq	%rax
	cmpl	$100, -28(%rbp)
	jg	LBB2_4
## %bb.2:                               ##   in Loop: Header=BB2_1 Depth=1
	movl	-28(%rbp), %eax
	addl	-20(%rbp), %eax
	jmp	.Lvictim_win1_continue
## Variant 35
.Lvictim_win1_var35:
	popq	%rax
	cmpl	$100, -28(%rbp)
	jg	LBB2_4
## %bb.2:                               ##   in Loop: Header=BB2_1 Depth=1
	movl	-28(%rbp), %eax
	addl	-20(%rbp), %eax
	jmp	.Lvictim_win1_continue
## Variant 36
.Lvictim_win1_var36:
	popq	%rax
	cmpl	$100, -28(%rbp)
	jg	LBB2_4
## %bb.2:                               ##   in Loop: Header=BB2_1 Depth=1
	movl	-28(%rbp), %eax
	addl	-20(%rbp), %eax
	jmp	.Lvictim_win1_continue
## Variant 37
.Lvictim_win1_var37:
	popq	%rax
	cmpl	$100, -28(%rbp)
	jg	LBB2_4
## %bb.2:                               ##   in Loop: Header=BB2_1 Depth=1
	movl	-28(%rbp), %eax
	addl	-20(%rbp), %eax
	jmp	.Lvictim_win1_continue
## Variant 38
.Lvictim_win1_var38:
	popq	%rax
	cmpl	$100, -28(%rbp)
	jg	LBB2_4
## %bb.2:                               ##   in Loop: Header=BB2_1 Depth=1
	movl	-28(%rbp), %eax
	addl	-20(%rbp), %eax
	jmp	.Lvictim_win1_continue
## Variant 39
.Lvictim_win1_var39:
	popq	%rax
	cmpl	$100, -28(%rbp)
	jg	LBB2_4
## %bb.2:                               ##   in Loop: Header=BB2_1 Depth=1
	movl	-28(%rbp), %eax
	addl	-20(%rbp), %eax
	jmp	.Lvictim_win1_continue
## Variant 40
.Lvictim_win1_var40:
	popq	%rax
	cmpl	$100, -28(%rbp)
	jg	LBB2_4
## %bb.2:                               ##   in Loop: Header=BB2_1 Depth=1
	movl	-28(%rbp), %eax
	addl	-20(%rbp), %eax
	jmp	.Lvictim_win1_continue
## Variant 41
.Lvictim_win1_var41:
	popq	%rax
	cmpl	$100, -28(%rbp)
	jg	LBB2_4
## %bb.2:                               ##   in Loop: Header=BB2_1 Depth=1
	movl	-28(%rbp), %eax
	addl	-20(%rbp), %eax
	jmp	.Lvictim_win1_continue
## Variant 42
.Lvictim_win1_var42:
	popq	%rax
	cmpl	$100, -28(%rbp)
	jg	LBB2_4
## %bb.2:                               ##   in Loop: Header=BB2_1 Depth=1
	movl	-28(%rbp), %eax
	addl	-20(%rbp), %eax
	jmp	.Lvictim_win1_continue
## Variant 43
.Lvictim_win1_var43:
	popq	%rax
	cmpl	$100, -28(%rbp)
	jg	LBB2_4
## %bb.2:                               ##   in Loop: Header=BB2_1 Depth=1
	movl	-28(%rbp), %eax
	addl	-20(%rbp), %eax
	jmp	.Lvictim_win1_continue
## Variant 44
.Lvictim_win1_var44:
	popq	%rax
	cmpl	$100, -28(%rbp)
	jg	LBB2_4
## %bb.2:                               ##   in Loop: Header=BB2_1 Depth=1
	movl	-28(%rbp), %eax
	addl	-20(%rbp), %eax
	jmp	.Lvictim_win1_continue
## Variant 45
.Lvictim_win1_var45:
	popq	%rax
	cmpl	$100, -28(%rbp)
	jg	LBB2_4
## %bb.2:                               ##   in Loop: Header=BB2_1 Depth=1
	movl	-28(%rbp), %eax
	addl	-20(%rbp), %eax
	jmp	.Lvictim_win1_continue
## Variant 46
.Lvictim_win1_var46:
	popq	%rax
	cmpl	$100, -28(%rbp)
	jg	LBB2_4
## %bb.2:                               ##   in Loop: Header=BB2_1 Depth=1
	movl	-28(%rbp), %eax
	addl	-20(%rbp), %eax
	jmp	.Lvictim_win1_continue
## Variant 47
.Lvictim_win1_var47:
	popq	%rax
	cmpl	$100, -28(%rbp)
	jg	LBB2_4
## %bb.2:                               ##   in Loop: Header=BB2_1 Depth=1
	movl	-28(%rbp), %eax
	addl	-20(%rbp), %eax
	jmp	.Lvictim_win1_continue
## Variant 48
.Lvictim_win1_var48:
	popq	%rax
	cmpl	$100, -28(%rbp)
	jg	LBB2_4
## %bb.2:                               ##   in Loop: Header=BB2_1 Depth=1
	movl	-28(%rbp), %eax
	addl	-20(%rbp), %eax
	jmp	.Lvictim_win1_continue
## Variant 49
.Lvictim_win1_var49:
	popq	%rax
	cmpl	$100, -28(%rbp)
	jg	LBB2_4
## %bb.2:                               ##   in Loop: Header=BB2_1 Depth=1
	movl	-28(%rbp), %eax
	addl	-20(%rbp), %eax
	jmp	.Lvictim_win1_continue
## Variant 50
.Lvictim_win1_var50:
	popq	%rax
	cmpl	$100, -28(%rbp)
	jg	LBB2_4
## %bb.2:                               ##   in Loop: Header=BB2_1 Depth=1
	movl	-28(%rbp), %eax
	addl	-20(%rbp), %eax
	jmp	.Lvictim_win1_continue
## Variant 51
.Lvictim_win1_var51:
	popq	%rax
	cmpl	$100, -28(%rbp)
	jg	LBB2_4
## %bb.2:                               ##   in Loop: Header=BB2_1 Depth=1
	movl	-28(%rbp), %eax
	addl	-20(%rbp), %eax
	jmp	.Lvictim_win1_continue
## Variant 52
.Lvictim_win1_var52:
	popq	%rax
	cmpl	$100, -28(%rbp)
	jg	LBB2_4
## %bb.2:                               ##   in Loop: Header=BB2_1 Depth=1
	movl	-28(%rbp), %eax
	addl	-20(%rbp), %eax
	jmp	.Lvictim_win1_continue
## Variant 53
.Lvictim_win1_var53:
	popq	%rax
	cmpl	$100, -28(%rbp)
	jg	LBB2_4
## %bb.2:                               ##   in Loop: Header=BB2_1 Depth=1
	movl	-28(%rbp), %eax
	addl	-20(%rbp), %eax
	jmp	.Lvictim_win1_continue
## Variant 54
.Lvictim_win1_var54:
	popq	%rax
	cmpl	$100, -28(%rbp)
	jg	LBB2_4
## %bb.2:                               ##   in Loop: Header=BB2_1 Depth=1
	movl	-28(%rbp), %eax
	addl	-20(%rbp), %eax
	jmp	.Lvictim_win1_continue
## Variant 55
.Lvictim_win1_var55:
	popq	%rax
	cmpl	$100, -28(%rbp)
	jg	LBB2_4
## %bb.2:                               ##   in Loop: Header=BB2_1 Depth=1
	movl	-28(%rbp), %eax
	addl	-20(%rbp), %eax
	jmp	.Lvictim_win1_continue
## Variant 56
.Lvictim_win1_var56:
	popq	%rax
	cmpl	$100, -28(%rbp)
	jg	LBB2_4
## %bb.2:                               ##   in Loop: Header=BB2_1 Depth=1
	movl	-28(%rbp), %eax
	addl	-20(%rbp), %eax
	jmp	.Lvictim_win1_continue
## Variant 57
.Lvictim_win1_var57:
	popq	%rax
	cmpl	$100, -28(%rbp)
	jg	LBB2_4
## %bb.2:                               ##   in Loop: Header=BB2_1 Depth=1
	movl	-28(%rbp), %eax
	addl	-20(%rbp), %eax
	jmp	.Lvictim_win1_continue
## Variant 58
.Lvictim_win1_var58:
	popq	%rax
	cmpl	$100, -28(%rbp)
	jg	LBB2_4
## %bb.2:                               ##   in Loop: Header=BB2_1 Depth=1
	movl	-28(%rbp), %eax
	addl	-20(%rbp), %eax
	jmp	.Lvictim_win1_continue
## Variant 59
.Lvictim_win1_var59:
	popq	%rax
	cmpl	$100, -28(%rbp)
	jg	LBB2_4
## %bb.2:                               ##   in Loop: Header=BB2_1 Depth=1
	movl	-28(%rbp), %eax
	addl	-20(%rbp), %eax
	jmp	.Lvictim_win1_continue
## Variant 60
.Lvictim_win1_var60:
	popq	%rax
	cmpl	$100, -28(%rbp)
	jg	LBB2_4
## %bb.2:                               ##   in Loop: Header=BB2_1 Depth=1
	movl	-28(%rbp), %eax
	addl	-20(%rbp), %eax
	jmp	.Lvictim_win1_continue
## Variant 61
.Lvictim_win1_var61:
	popq	%rax
	cmpl	$100, -28(%rbp)
	jg	LBB2_4
## %bb.2:                               ##   in Loop: Header=BB2_1 Depth=1
	movl	-28(%rbp), %eax
	addl	-20(%rbp), %eax
	jmp	.Lvictim_win1_continue
## Variant 62
.Lvictim_win1_var62:
	popq	%rax
	cmpl	$100, -28(%rbp)
	jg	LBB2_4
## %bb.2:                               ##   in Loop: Header=BB2_1 Depth=1
	movl	-28(%rbp), %eax
	addl	-20(%rbp), %eax
	jmp	.Lvictim_win1_continue
## Variant 63
.Lvictim_win1_var63:
	popq	%rax
	cmpl	$100, -28(%rbp)
	jg	LBB2_4
## %bb.2:                               ##   in Loop: Header=BB2_1 Depth=1
	movl	-28(%rbp), %eax
	addl	-20(%rbp), %eax
	jmp	.Lvictim_win1_continue
## Variant 64
.Lvictim_win1_var64:
	popq	%rax
	cmpl	$100, -28(%rbp)
	jg	LBB2_4
## %bb.2:                               ##   in Loop: Header=BB2_1 Depth=1
	movl	-28(%rbp), %eax
	addl	-20(%rbp), %eax
	jmp	.Lvictim_win1_continue
## Variant 65
.Lvictim_win1_var65:
	popq	%rax
	cmpl	$100, -28(%rbp)
	jg	LBB2_4
## %bb.2:                               ##   in Loop: Header=BB2_1 Depth=1
	movl	-28(%rbp), %eax
	addl	-20(%rbp), %eax
	jmp	.Lvictim_win1_continue
## Variant 66
.Lvictim_win1_var66:
	popq	%rax
	cmpl	$100, -28(%rbp)
	jg	LBB2_4
## %bb.2:                               ##   in Loop: Header=BB2_1 Depth=1
	movl	-28(%rbp), %eax
	addl	-20(%rbp), %eax
	jmp	.Lvictim_win1_continue
## Variant 67
.Lvictim_win1_var67:
	popq	%rax
	cmpl	$100, -28(%rbp)
	jg	LBB2_4
## %bb.2:                               ##   in Loop: Header=BB2_1 Depth=1
	movl	-28(%rbp), %eax
	addl	-20(%rbp), %eax
	jmp	.Lvictim_win1_continue
## Variant 68
.Lvictim_win1_var68:
	popq	%rax
	cmpl	$100, -28(%rbp)
	jg	LBB2_4
## %bb.2:                               ##   in Loop: Header=BB2_1 Depth=1
	movl	-28(%rbp), %eax
	addl	-20(%rbp), %eax
	jmp	.Lvictim_win1_continue
## Variant 69
.Lvictim_win1_var69:
	popq	%rax
	cmpl	$100, -28(%rbp)
	jg	LBB2_4
## %bb.2:                               ##   in Loop: Header=BB2_1 Depth=1
	movl	-28(%rbp), %eax
	addl	-20(%rbp), %eax
	jmp	.Lvictim_win1_continue
## Variant 70
.Lvictim_win1_var70:
	popq	%rax
	cmpl	$100, -28(%rbp)
	jg	LBB2_4
## %bb.2:                               ##   in Loop: Header=BB2_1 Depth=1
	movl	-28(%rbp), %eax
	addl	-20(%rbp), %eax
	jmp	.Lvictim_win1_continue
## Variant 71
.Lvictim_win1_var71:
	popq	%rax
	cmpl	$100, -28(%rbp)
	jg	LBB2_4
## %bb.2:                               ##   in Loop: Header=BB2_1 Depth=1
	movl	-28(%rbp), %eax
	addl	-20(%rbp), %eax
	jmp	.Lvictim_win1_continue
## Variant 72
.Lvictim_win1_var72:
	popq	%rax
	cmpl	$100, -28(%rbp)
	jg	LBB2_4
## %bb.2:                               ##   in Loop: Header=BB2_1 Depth=1
	movl	-28(%rbp), %eax
	addl	-20(%rbp), %eax
	jmp	.Lvictim_win1_continue
## Variant 73
.Lvictim_win1_var73:
	popq	%rax
	cmpl	$100, -28(%rbp)
	jg	LBB2_4
## %bb.2:                               ##   in Loop: Header=BB2_1 Depth=1
	movl	-28(%rbp), %eax
	addl	-20(%rbp), %eax
	jmp	.Lvictim_win1_continue
## Variant 74
.Lvictim_win1_var74:
	popq	%rax
	cmpl	$100, -28(%rbp)
	jg	LBB2_4
## %bb.2:                               ##   in Loop: Header=BB2_1 Depth=1
	movl	-28(%rbp), %eax
	addl	-20(%rbp), %eax
	jmp	.Lvictim_win1_continue
## Variant 75
.Lvictim_win1_var75:
	popq	%rax
	cmpl	$100, -28(%rbp)
	jg	LBB2_4
## %bb.2:                               ##   in Loop: Header=BB2_1 Depth=1
	movl	-28(%rbp), %eax
	addl	-20(%rbp), %eax
	jmp	.Lvictim_win1_continue
## Variant 76
.Lvictim_win1_var76:
	popq	%rax
	cmpl	$100, -28(%rbp)
	jg	LBB2_4
## %bb.2:                               ##   in Loop: Header=BB2_1 Depth=1
	movl	-28(%rbp), %eax
	addl	-20(%rbp), %eax
	jmp	.Lvictim_win1_continue
## Variant 77
.Lvictim_win1_var77:
	popq	%rax
	cmpl	$100, -28(%rbp)
	jg	LBB2_4
## %bb.2:                               ##   in Loop: Header=BB2_1 Depth=1
	movl	-28(%rbp), %eax
	addl	-20(%rbp), %eax
	jmp	.Lvictim_win1_continue
## Variant 78
.Lvictim_win1_var78:
	popq	%rax
	cmpl	$100, -28(%rbp)
	jg	LBB2_4
## %bb.2:                               ##   in Loop: Header=BB2_1 Depth=1
	movl	-28(%rbp), %eax
	addl	-20(%rbp), %eax
	jmp	.Lvictim_win1_continue
## Variant 79
.Lvictim_win1_var79:
	popq	%rax
	cmpl	$100, -28(%rbp)
	jg	LBB2_4
## %bb.2:                               ##   in Loop: Header=BB2_1 Depth=1
	movl	-28(%rbp), %eax
	addl	-20(%rbp), %eax
	jmp	.Lvictim_win1_continue
## Variant 80
.Lvictim_win1_var80:
	popq	%rax
	cmpl	$100, -28(%rbp)
	jg	LBB2_4
## %bb.2:                               ##   in Loop: Header=BB2_1 Depth=1
	movl	-28(%rbp), %eax
	addl	-20(%rbp), %eax
	jmp	.Lvictim_win1_continue
## Variant 81
.Lvictim_win1_var81:
	popq	%rax
	cmpl	$100, -28(%rbp)
	jg	LBB2_4
## %bb.2:                               ##   in Loop: Header=BB2_1 Depth=1
	movl	-28(%rbp), %eax
	addl	-20(%rbp), %eax
	jmp	.Lvictim_win1_continue
## Variant 82
.Lvictim_win1_var82:
	popq	%rax
	cmpl	$100, -28(%rbp)
	jg	LBB2_4
## %bb.2:                               ##   in Loop: Header=BB2_1 Depth=1
	movl	-28(%rbp), %eax
	addl	-20(%rbp), %eax
	jmp	.Lvictim_win1_continue
## Variant 83
.Lvictim_win1_var83:
	popq	%rax
	cmpl	$100, -28(%rbp)
	jg	LBB2_4
## %bb.2:                               ##   in Loop: Header=BB2_1 Depth=1
	movl	-28(%rbp), %eax
	addl	-20(%rbp), %eax
	jmp	.Lvictim_win1_continue
## Variant 84
.Lvictim_win1_var84:
	popq	%rax
	cmpl	$100, -28(%rbp)
	jg	LBB2_4
## %bb.2:                               ##   in Loop: Header=BB2_1 Depth=1
	movl	-28(%rbp), %eax
	addl	-20(%rbp), %eax
	jmp	.Lvictim_win1_continue
## Variant 85
.Lvictim_win1_var85:
	popq	%rax
	cmpl	$100, -28(%rbp)
	jg	LBB2_4
## %bb.2:                               ##   in Loop: Header=BB2_1 Depth=1
	movl	-28(%rbp), %eax
	addl	-20(%rbp), %eax
	jmp	.Lvictim_win1_continue
## Variant 86
.Lvictim_win1_var86:
	popq	%rax
	cmpl	$100, -28(%rbp)
	jg	LBB2_4
## %bb.2:                               ##   in Loop: Header=BB2_1 Depth=1
	movl	-28(%rbp), %eax
	addl	-20(%rbp), %eax
	jmp	.Lvictim_win1_continue
## Variant 87
.Lvictim_win1_var87:
	popq	%rax
	cmpl	$100, -28(%rbp)
	jg	LBB2_4
## %bb.2:                               ##   in Loop: Header=BB2_1 Depth=1
	movl	-28(%rbp), %eax
	addl	-20(%rbp), %eax
	jmp	.Lvictim_win1_continue
## Variant 88
.Lvictim_win1_var88:
	popq	%rax
	cmpl	$100, -28(%rbp)
	jg	LBB2_4
## %bb.2:                               ##   in Loop: Header=BB2_1 Depth=1
	movl	-28(%rbp), %eax
	addl	-20(%rbp), %eax
	jmp	.Lvictim_win1_continue
## Variant 89
.Lvictim_win1_var89:
	popq	%rax
	cmpl	$100, -28(%rbp)
	jg	LBB2_4
## %bb.2:                               ##   in Loop: Header=BB2_1 Depth=1
	movl	-28(%rbp), %eax
	addl	-20(%rbp), %eax
	jmp	.Lvictim_win1_continue
## Variant 90
.Lvictim_win1_var90:
	popq	%rax
	cmpl	$100, -28(%rbp)
	jg	LBB2_4
## %bb.2:                               ##   in Loop: Header=BB2_1 Depth=1
	movl	-28(%rbp), %eax
	addl	-20(%rbp), %eax
	jmp	.Lvictim_win1_continue
## Variant 91
.Lvictim_win1_var91:
	popq	%rax
	cmpl	$100, -28(%rbp)
	jg	LBB2_4
## %bb.2:                               ##   in Loop: Header=BB2_1 Depth=1
	movl	-28(%rbp), %eax
	addl	-20(%rbp), %eax
	jmp	.Lvictim_win1_continue
## Variant 92
.Lvictim_win1_var92:
	popq	%rax
	cmpl	$100, -28(%rbp)
	jg	LBB2_4
## %bb.2:                               ##   in Loop: Header=BB2_1 Depth=1
	movl	-28(%rbp), %eax
	addl	-20(%rbp), %eax
	jmp	.Lvictim_win1_continue
## Variant 93
.Lvictim_win1_var93:
	popq	%rax
	cmpl	$100, -28(%rbp)
	jg	LBB2_4
## %bb.2:                               ##   in Loop: Header=BB2_1 Depth=1
	movl	-28(%rbp), %eax
	addl	-20(%rbp), %eax
	jmp	.Lvictim_win1_continue
## Variant 94
.Lvictim_win1_var94:
	popq	%rax
	cmpl	$100, -28(%rbp)
	jg	LBB2_4
## %bb.2:                               ##   in Loop: Header=BB2_1 Depth=1
	movl	-28(%rbp), %eax
	addl	-20(%rbp), %eax
	jmp	.Lvictim_win1_continue
## Variant 95
.Lvictim_win1_var95:
	popq	%rax
	cmpl	$100, -28(%rbp)
	jg	LBB2_4
## %bb.2:                               ##   in Loop: Header=BB2_1 Depth=1
	movl	-28(%rbp), %eax
	addl	-20(%rbp), %eax
	jmp	.Lvictim_win1_continue
## Variant 96
.Lvictim_win1_var96:
	popq	%rax
	cmpl	$100, -28(%rbp)
	jg	LBB2_4
## %bb.2:                               ##   in Loop: Header=BB2_1 Depth=1
	movl	-28(%rbp), %eax
	addl	-20(%rbp), %eax
	jmp	.Lvictim_win1_continue
## Variant 97
.Lvictim_win1_var97:
	popq	%rax
	cmpl	$100, -28(%rbp)
	jg	LBB2_4
## %bb.2:                               ##   in Loop: Header=BB2_1 Depth=1
	movl	-28(%rbp), %eax
	addl	-20(%rbp), %eax
	jmp	.Lvictim_win1_continue
## Variant 98
.Lvictim_win1_var98:
	popq	%rax
	cmpl	$100, -28(%rbp)
	jg	LBB2_4
## %bb.2:                               ##   in Loop: Header=BB2_1 Depth=1
	movl	-28(%rbp), %eax
	addl	-20(%rbp), %eax
	jmp	.Lvictim_win1_continue
## Variant 99
.Lvictim_win1_var99:
	popq	%rax
	cmpl	$100, -28(%rbp)
	jg	LBB2_4
## %bb.2:                               ##   in Loop: Header=BB2_1 Depth=1
	movl	-28(%rbp), %eax
	addl	-20(%rbp), %eax
	jmp	.Lvictim_win1_continue
## Variant 100
.Lvictim_win1_var100:
	popq	%rax
	cmpl	$100, -28(%rbp)
	jg	LBB2_4
## %bb.2:                               ##   in Loop: Header=BB2_1 Depth=1
	movl	-28(%rbp), %eax
	addl	-20(%rbp), %eax
	jmp	.Lvictim_win1_continue
## Variant 101
.Lvictim_win1_var101:
	popq	%rax
	cmpl	$100, -28(%rbp)
	jg	LBB2_4
## %bb.2:                               ##   in Loop: Header=BB2_1 Depth=1
	movl	-28(%rbp), %eax
	addl	-20(%rbp), %eax
	jmp	.Lvictim_win1_continue
## Variant 102
.Lvictim_win1_var102:
	popq	%rax
	cmpl	$100, -28(%rbp)
	jg	LBB2_4
## %bb.2:                               ##   in Loop: Header=BB2_1 Depth=1
	movl	-28(%rbp), %eax
	addl	-20(%rbp), %eax
	jmp	.Lvictim_win1_continue
## Variant 103
.Lvictim_win1_var103:
	popq	%rax
	cmpl	$100, -28(%rbp)
	jg	LBB2_4
## %bb.2:                               ##   in Loop: Header=BB2_1 Depth=1
	movl	-28(%rbp), %eax
	addl	-20(%rbp), %eax
	jmp	.Lvictim_win1_continue
## Variant 104
.Lvictim_win1_var104:
	popq	%rax
	cmpl	$100, -28(%rbp)
	jg	LBB2_4
## %bb.2:                               ##   in Loop: Header=BB2_1 Depth=1
	movl	-28(%rbp), %eax
	addl	-20(%rbp), %eax
	jmp	.Lvictim_win1_continue
## Variant 105
.Lvictim_win1_var105:
	popq	%rax
	cmpl	$100, -28(%rbp)
	jg	LBB2_4
## %bb.2:                               ##   in Loop: Header=BB2_1 Depth=1
	movl	-28(%rbp), %eax
	addl	-20(%rbp), %eax
	jmp	.Lvictim_win1_continue
## Variant 106
.Lvictim_win1_var106:
	popq	%rax
	cmpl	$100, -28(%rbp)
	jg	LBB2_4
## %bb.2:                               ##   in Loop: Header=BB2_1 Depth=1
	movl	-28(%rbp), %eax
	addl	-20(%rbp), %eax
	jmp	.Lvictim_win1_continue
## Variant 107
.Lvictim_win1_var107:
	popq	%rax
	cmpl	$100, -28(%rbp)
	jg	LBB2_4
## %bb.2:                               ##   in Loop: Header=BB2_1 Depth=1
	movl	-28(%rbp), %eax
	addl	-20(%rbp), %eax
	jmp	.Lvictim_win1_continue
## Variant 108
.Lvictim_win1_var108:
	popq	%rax
	cmpl	$100, -28(%rbp)
	jg	LBB2_4
## %bb.2:                               ##   in Loop: Header=BB2_1 Depth=1
	movl	-28(%rbp), %eax
	addl	-20(%rbp), %eax
	jmp	.Lvictim_win1_continue
## Variant 109
.Lvictim_win1_var109:
	popq	%rax
	cmpl	$100, -28(%rbp)
	jg	LBB2_4
## %bb.2:                               ##   in Loop: Header=BB2_1 Depth=1
	movl	-28(%rbp), %eax
	addl	-20(%rbp), %eax
	jmp	.Lvictim_win1_continue
## Variant 110
.Lvictim_win1_var110:
	popq	%rax
	cmpl	$100, -28(%rbp)
	jg	LBB2_4
## %bb.2:                               ##   in Loop: Header=BB2_1 Depth=1
	movl	-28(%rbp), %eax
	addl	-20(%rbp), %eax
	jmp	.Lvictim_win1_continue
## Variant 111
.Lvictim_win1_var111:
	popq	%rax
	cmpl	$100, -28(%rbp)
	jg	LBB2_4
## %bb.2:                               ##   in Loop: Header=BB2_1 Depth=1
	movl	-28(%rbp), %eax
	addl	-20(%rbp), %eax
	jmp	.Lvictim_win1_continue
## Variant 112
.Lvictim_win1_var112:
	popq	%rax
	cmpl	$100, -28(%rbp)
	jg	LBB2_4
## %bb.2:                               ##   in Loop: Header=BB2_1 Depth=1
	movl	-28(%rbp), %eax
	addl	-20(%rbp), %eax
	jmp	.Lvictim_win1_continue
## Variant 113
.Lvictim_win1_var113:
	popq	%rax
	cmpl	$100, -28(%rbp)
	jg	LBB2_4
## %bb.2:                               ##   in Loop: Header=BB2_1 Depth=1
	movl	-28(%rbp), %eax
	addl	-20(%rbp), %eax
	jmp	.Lvictim_win1_continue
## Variant 114
.Lvictim_win1_var114:
	popq	%rax
	cmpl	$100, -28(%rbp)
	jg	LBB2_4
## %bb.2:                               ##   in Loop: Header=BB2_1 Depth=1
	movl	-28(%rbp), %eax
	addl	-20(%rbp), %eax
	jmp	.Lvictim_win1_continue
## Variant 115
.Lvictim_win1_var115:
	popq	%rax
	cmpl	$100, -28(%rbp)
	jg	LBB2_4
## %bb.2:                               ##   in Loop: Header=BB2_1 Depth=1
	movl	-28(%rbp), %eax
	addl	-20(%rbp), %eax
	jmp	.Lvictim_win1_continue
## Variant 116
.Lvictim_win1_var116:
	popq	%rax
	cmpl	$100, -28(%rbp)
	jg	LBB2_4
## %bb.2:                               ##   in Loop: Header=BB2_1 Depth=1
	movl	-28(%rbp), %eax
	addl	-20(%rbp), %eax
	jmp	.Lvictim_win1_continue
## Variant 117
.Lvictim_win1_var117:
	popq	%rax
	cmpl	$100, -28(%rbp)
	jg	LBB2_4
## %bb.2:                               ##   in Loop: Header=BB2_1 Depth=1
	movl	-28(%rbp), %eax
	addl	-20(%rbp), %eax
	jmp	.Lvictim_win1_continue
## Variant 118
.Lvictim_win1_var118:
	popq	%rax
	cmpl	$100, -28(%rbp)
	jg	LBB2_4
## %bb.2:                               ##   in Loop: Header=BB2_1 Depth=1
	movl	-28(%rbp), %eax
	addl	-20(%rbp), %eax
	jmp	.Lvictim_win1_continue
## Variant 119
.Lvictim_win1_var119:
	popq	%rax
	cmpl	$100, -28(%rbp)
	jg	LBB2_4
## %bb.2:                               ##   in Loop: Header=BB2_1 Depth=1
	movl	-28(%rbp), %eax
	addl	-20(%rbp), %eax
	jmp	.Lvictim_win1_continue
## Variant 120
.Lvictim_win1_var120:
	popq	%rax
	cmpl	$100, -28(%rbp)
	jg	LBB2_4
## %bb.2:                               ##   in Loop: Header=BB2_1 Depth=1
	movl	-28(%rbp), %eax
	addl	-20(%rbp), %eax
	jmp	.Lvictim_win1_continue
## Variant 121
.Lvictim_win1_var121:
	popq	%rax
	cmpl	$100, -28(%rbp)
	jg	LBB2_4
## %bb.2:                               ##   in Loop: Header=BB2_1 Depth=1
	movl	-28(%rbp), %eax
	addl	-20(%rbp), %eax
	jmp	.Lvictim_win1_continue
## Variant 122
.Lvictim_win1_var122:
	popq	%rax
	cmpl	$100, -28(%rbp)
	jg	LBB2_4
## %bb.2:                               ##   in Loop: Header=BB2_1 Depth=1
	movl	-28(%rbp), %eax
	addl	-20(%rbp), %eax
	jmp	.Lvictim_win1_continue
## Variant 123
.Lvictim_win1_var123:
	popq	%rax
	cmpl	$100, -28(%rbp)
	jg	LBB2_4
## %bb.2:                               ##   in Loop: Header=BB2_1 Depth=1
	movl	-28(%rbp), %eax
	addl	-20(%rbp), %eax
	jmp	.Lvictim_win1_continue
## Variant 124
.Lvictim_win1_var124:
	popq	%rax
	cmpl	$100, -28(%rbp)
	jg	LBB2_4
## %bb.2:                               ##   in Loop: Header=BB2_1 Depth=1
	movl	-28(%rbp), %eax
	addl	-20(%rbp), %eax
	jmp	.Lvictim_win1_continue
## Variant 125
.Lvictim_win1_var125:
	popq	%rax
	cmpl	$100, -28(%rbp)
	jg	LBB2_4
## %bb.2:                               ##   in Loop: Header=BB2_1 Depth=1
	movl	-28(%rbp), %eax
	addl	-20(%rbp), %eax
	jmp	.Lvictim_win1_continue
## Variant 126
.Lvictim_win1_var126:
	popq	%rax
	cmpl	$100, -28(%rbp)
	jg	LBB2_4
## %bb.2:                               ##   in Loop: Header=BB2_1 Depth=1
	movl	-28(%rbp), %eax
	addl	-20(%rbp), %eax
	jmp	.Lvictim_win1_continue
## Variant 127
.Lvictim_win1_var127:
	popq	%rax
	cmpl	$100, -28(%rbp)
	jg	LBB2_4
## %bb.2:                               ##   in Loop: Header=BB2_1 Depth=1
	movl	-28(%rbp), %eax
	addl	-20(%rbp), %eax
	jmp	.Lvictim_win1_continue
## Variant 128
.Lvictim_win1_var128:
	popq	%rax
	cmpl	$100, -28(%rbp)
	jg	LBB2_4
## %bb.2:                               ##   in Loop: Header=BB2_1 Depth=1
	movl	-28(%rbp), %eax
	addl	-20(%rbp), %eax
	jmp	.Lvictim_win1_continue
## Variant 129
.Lvictim_win1_var129:
	popq	%rax
	cmpl	$100, -28(%rbp)
	jg	LBB2_4
## %bb.2:                               ##   in Loop: Header=BB2_1 Depth=1
	movl	-28(%rbp), %eax
	addl	-20(%rbp), %eax
	jmp	.Lvictim_win1_continue
## Variant 130
.Lvictim_win1_var130:
	popq	%rax
	cmpl	$100, -28(%rbp)
	jg	LBB2_4
## %bb.2:                               ##   in Loop: Header=BB2_1 Depth=1
	movl	-28(%rbp), %eax
	addl	-20(%rbp), %eax
	jmp	.Lvictim_win1_continue
## Variant 131
.Lvictim_win1_var131:
	popq	%rax
	cmpl	$100, -28(%rbp)
	jg	LBB2_4
## %bb.2:                               ##   in Loop: Header=BB2_1 Depth=1
	movl	-28(%rbp), %eax
	addl	-20(%rbp), %eax
	jmp	.Lvictim_win1_continue
## Variant 132
.Lvictim_win1_var132:
	popq	%rax
	cmpl	$100, -28(%rbp)
	jg	LBB2_4
## %bb.2:                               ##   in Loop: Header=BB2_1 Depth=1
	movl	-28(%rbp), %eax
	addl	-20(%rbp), %eax
	jmp	.Lvictim_win1_continue
## Variant 133
.Lvictim_win1_var133:
	popq	%rax
	cmpl	$100, -28(%rbp)
	jg	LBB2_4
## %bb.2:                               ##   in Loop: Header=BB2_1 Depth=1
	movl	-28(%rbp), %eax
	addl	-20(%rbp), %eax
	jmp	.Lvictim_win1_continue
## Variant 134
.Lvictim_win1_var134:
	popq	%rax
	cmpl	$100, -28(%rbp)
	jg	LBB2_4
## %bb.2:                               ##   in Loop: Header=BB2_1 Depth=1
	movl	-28(%rbp), %eax
	addl	-20(%rbp), %eax
	jmp	.Lvictim_win1_continue
## Variant 135
.Lvictim_win1_var135:
	popq	%rax
	cmpl	$100, -28(%rbp)
	jg	LBB2_4
## %bb.2:                               ##   in Loop: Header=BB2_1 Depth=1
	movl	-28(%rbp), %eax
	addl	-20(%rbp), %eax
	jmp	.Lvictim_win1_continue
## Variant 136
.Lvictim_win1_var136:
	popq	%rax
	cmpl	$100, -28(%rbp)
	jg	LBB2_4
## %bb.2:                               ##   in Loop: Header=BB2_1 Depth=1
	movl	-28(%rbp), %eax
	addl	-20(%rbp), %eax
	jmp	.Lvictim_win1_continue
## Variant 137
.Lvictim_win1_var137:
	popq	%rax
	cmpl	$100, -28(%rbp)
	jg	LBB2_4
## %bb.2:                               ##   in Loop: Header=BB2_1 Depth=1
	movl	-28(%rbp), %eax
	addl	-20(%rbp), %eax
	jmp	.Lvictim_win1_continue
## Variant 138
.Lvictim_win1_var138:
	popq	%rax
	cmpl	$100, -28(%rbp)
	jg	LBB2_4
## %bb.2:                               ##   in Loop: Header=BB2_1 Depth=1
	movl	-28(%rbp), %eax
	addl	-20(%rbp), %eax
	jmp	.Lvictim_win1_continue
## Variant 139
.Lvictim_win1_var139:
	popq	%rax
	cmpl	$100, -28(%rbp)
	jg	LBB2_4
## %bb.2:                               ##   in Loop: Header=BB2_1 Depth=1
	movl	-28(%rbp), %eax
	addl	-20(%rbp), %eax
	jmp	.Lvictim_win1_continue
## Variant 140
.Lvictim_win1_var140:
	popq	%rax
	cmpl	$100, -28(%rbp)
	jg	LBB2_4
## %bb.2:                               ##   in Loop: Header=BB2_1 Depth=1
	movl	-28(%rbp), %eax
	addl	-20(%rbp), %eax
	jmp	.Lvictim_win1_continue
## Variant 141
.Lvictim_win1_var141:
	popq	%rax
	cmpl	$100, -28(%rbp)
	jg	LBB2_4
## %bb.2:                               ##   in Loop: Header=BB2_1 Depth=1
	movl	-28(%rbp), %eax
	addl	-20(%rbp), %eax
	jmp	.Lvictim_win1_continue
## Variant 142
.Lvictim_win1_var142:
	popq	%rax
	cmpl	$100, -28(%rbp)
	jg	LBB2_4
## %bb.2:                               ##   in Loop: Header=BB2_1 Depth=1
	movl	-28(%rbp), %eax
	addl	-20(%rbp), %eax
	jmp	.Lvictim_win1_continue
## Variant 143
.Lvictim_win1_var143:
	popq	%rax
	cmpl	$100, -28(%rbp)
	jg	LBB2_4
## %bb.2:                               ##   in Loop: Header=BB2_1 Depth=1
	movl	-28(%rbp), %eax
	addl	-20(%rbp), %eax
	jmp	.Lvictim_win1_continue
## Variant 144
.Lvictim_win1_var144:
	popq	%rax
	cmpl	$100, -28(%rbp)
	jg	LBB2_4
## %bb.2:                               ##   in Loop: Header=BB2_1 Depth=1
	movl	-28(%rbp), %eax
	addl	-20(%rbp), %eax
	jmp	.Lvictim_win1_continue
## Variant 145
.Lvictim_win1_var145:
	popq	%rax
	cmpl	$100, -28(%rbp)
	jg	LBB2_4
## %bb.2:                               ##   in Loop: Header=BB2_1 Depth=1
	movl	-28(%rbp), %eax
	addl	-20(%rbp), %eax
	jmp	.Lvictim_win1_continue
## Variant 146
.Lvictim_win1_var146:
	popq	%rax
	cmpl	$100, -28(%rbp)
	jg	LBB2_4
## %bb.2:                               ##   in Loop: Header=BB2_1 Depth=1
	movl	-28(%rbp), %eax
	addl	-20(%rbp), %eax
	jmp	.Lvictim_win1_continue
## Variant 147
.Lvictim_win1_var147:
	popq	%rax
	cmpl	$100, -28(%rbp)
	jg	LBB2_4
## %bb.2:                               ##   in Loop: Header=BB2_1 Depth=1
	movl	-28(%rbp), %eax
	addl	-20(%rbp), %eax
	jmp	.Lvictim_win1_continue
## Variant 148
.Lvictim_win1_var148:
	popq	%rax
	cmpl	$100, -28(%rbp)
	jg	LBB2_4
## %bb.2:                               ##   in Loop: Header=BB2_1 Depth=1
	movl	-28(%rbp), %eax
	addl	-20(%rbp), %eax
	jmp	.Lvictim_win1_continue
## Variant 149
.Lvictim_win1_var149:
	popq	%rax
	cmpl	$100, -28(%rbp)
	jg	LBB2_4
## %bb.2:                               ##   in Loop: Header=BB2_1 Depth=1
	movl	-28(%rbp), %eax
	addl	-20(%rbp), %eax
	jmp	.Lvictim_win1_continue
## Variant 150
.Lvictim_win1_var150:
	popq	%rax
	cmpl	$100, -28(%rbp)
	jg	LBB2_4
## %bb.2:                               ##   in Loop: Header=BB2_1 Depth=1
	movl	-28(%rbp), %eax
	addl	-20(%rbp), %eax
	jmp	.Lvictim_win1_continue
## Variant 151
.Lvictim_win1_var151:
	popq	%rax
	cmpl	$100, -28(%rbp)
	jg	LBB2_4
## %bb.2:                               ##   in Loop: Header=BB2_1 Depth=1
	movl	-28(%rbp), %eax
	addl	-20(%rbp), %eax
	jmp	.Lvictim_win1_continue
## Variant 152
.Lvictim_win1_var152:
	popq	%rax
	cmpl	$100, -28(%rbp)
	jg	LBB2_4
## %bb.2:                               ##   in Loop: Header=BB2_1 Depth=1
	movl	-28(%rbp), %eax
	addl	-20(%rbp), %eax
	jmp	.Lvictim_win1_continue
## Variant 153
.Lvictim_win1_var153:
	popq	%rax
	cmpl	$100, -28(%rbp)
	jg	LBB2_4
## %bb.2:                               ##   in Loop: Header=BB2_1 Depth=1
	movl	-28(%rbp), %eax
	addl	-20(%rbp), %eax
	jmp	.Lvictim_win1_continue
## Variant 154
.Lvictim_win1_var154:
	popq	%rax
	cmpl	$100, -28(%rbp)
	jg	LBB2_4
## %bb.2:                               ##   in Loop: Header=BB2_1 Depth=1
	movl	-28(%rbp), %eax
	addl	-20(%rbp), %eax
	jmp	.Lvictim_win1_continue
## Variant 155
.Lvictim_win1_var155:
	popq	%rax
	cmpl	$100, -28(%rbp)
	jg	LBB2_4
## %bb.2:                               ##   in Loop: Header=BB2_1 Depth=1
	movl	-28(%rbp), %eax
	addl	-20(%rbp), %eax
	jmp	.Lvictim_win1_continue
## Variant 156
.Lvictim_win1_var156:
	popq	%rax
	cmpl	$100, -28(%rbp)
	jg	LBB2_4
## %bb.2:                               ##   in Loop: Header=BB2_1 Depth=1
	movl	-28(%rbp), %eax
	addl	-20(%rbp), %eax
	jmp	.Lvictim_win1_continue
## Variant 157
.Lvictim_win1_var157:
	popq	%rax
	cmpl	$100, -28(%rbp)
	jg	LBB2_4
## %bb.2:                               ##   in Loop: Header=BB2_1 Depth=1
	movl	-28(%rbp), %eax
	addl	-20(%rbp), %eax
	jmp	.Lvictim_win1_continue
## Variant 158
.Lvictim_win1_var158:
	popq	%rax
	cmpl	$100, -28(%rbp)
	jg	LBB2_4
## %bb.2:                               ##   in Loop: Header=BB2_1 Depth=1
	movl	-28(%rbp), %eax
	addl	-20(%rbp), %eax
	jmp	.Lvictim_win1_continue
## Variant 159
.Lvictim_win1_var159:
	popq	%rax
	cmpl	$100, -28(%rbp)
	jg	LBB2_4
## %bb.2:                               ##   in Loop: Header=BB2_1 Depth=1
	movl	-28(%rbp), %eax
	addl	-20(%rbp), %eax
	jmp	.Lvictim_win1_continue
## Variant 160
.Lvictim_win1_var160:
	popq	%rax
	cmpl	$100, -28(%rbp)
	jg	LBB2_4
## %bb.2:                               ##   in Loop: Header=BB2_1 Depth=1
	movl	-28(%rbp), %eax
	addl	-20(%rbp), %eax
	jmp	.Lvictim_win1_continue
## Variant 161
.Lvictim_win1_var161:
	popq	%rax
	cmpl	$100, -28(%rbp)
	jg	LBB2_4
## %bb.2:                               ##   in Loop: Header=BB2_1 Depth=1
	movl	-28(%rbp), %eax
	addl	-20(%rbp), %eax
	jmp	.Lvictim_win1_continue
## Variant 162
.Lvictim_win1_var162:
	popq	%rax
	cmpl	$100, -28(%rbp)
	jg	LBB2_4
## %bb.2:                               ##   in Loop: Header=BB2_1 Depth=1
	movl	-28(%rbp), %eax
	addl	-20(%rbp), %eax
	jmp	.Lvictim_win1_continue
## Variant 163
.Lvictim_win1_var163:
	popq	%rax
	cmpl	$100, -28(%rbp)
	jg	LBB2_4
## %bb.2:                               ##   in Loop: Header=BB2_1 Depth=1
	movl	-28(%rbp), %eax
	addl	-20(%rbp), %eax
	jmp	.Lvictim_win1_continue
## Variant 164
.Lvictim_win1_var164:
	popq	%rax
	cmpl	$100, -28(%rbp)
	jg	LBB2_4
## %bb.2:                               ##   in Loop: Header=BB2_1 Depth=1
	movl	-28(%rbp), %eax
	addl	-20(%rbp), %eax
	jmp	.Lvictim_win1_continue
## Variant 165
.Lvictim_win1_var165:
	popq	%rax
	cmpl	$100, -28(%rbp)
	jg	LBB2_4
## %bb.2:                               ##   in Loop: Header=BB2_1 Depth=1
	movl	-28(%rbp), %eax
	addl	-20(%rbp), %eax
	jmp	.Lvictim_win1_continue
## Variant 166
.Lvictim_win1_var166:
	popq	%rax
	cmpl	$100, -28(%rbp)
	jg	LBB2_4
## %bb.2:                               ##   in Loop: Header=BB2_1 Depth=1
	movl	-28(%rbp), %eax
	addl	-20(%rbp), %eax
	jmp	.Lvictim_win1_continue
## Variant 167
.Lvictim_win1_var167:
	popq	%rax
	cmpl	$100, -28(%rbp)
	jg	LBB2_4
## %bb.2:                               ##   in Loop: Header=BB2_1 Depth=1
	movl	-28(%rbp), %eax
	addl	-20(%rbp), %eax
	jmp	.Lvictim_win1_continue
## Variant 168
.Lvictim_win1_var168:
	popq	%rax
	cmpl	$100, -28(%rbp)
	jg	LBB2_4
## %bb.2:                               ##   in Loop: Header=BB2_1 Depth=1
	movl	-28(%rbp), %eax
	addl	-20(%rbp), %eax
	jmp	.Lvictim_win1_continue
## Variant 169
.Lvictim_win1_var169:
	popq	%rax
	cmpl	$100, -28(%rbp)
	jg	LBB2_4
## %bb.2:                               ##   in Loop: Header=BB2_1 Depth=1
	movl	-28(%rbp), %eax
	addl	-20(%rbp), %eax
	jmp	.Lvictim_win1_continue
## Variant 170
.Lvictim_win1_var170:
	popq	%rax
	cmpl	$100, -28(%rbp)
	jg	LBB2_4
## %bb.2:                               ##   in Loop: Header=BB2_1 Depth=1
	movl	-28(%rbp), %eax
	addl	-20(%rbp), %eax
	jmp	.Lvictim_win1_continue
## Variant 171
.Lvictim_win1_var171:
	popq	%rax
	cmpl	$100, -28(%rbp)
	jg	LBB2_4
## %bb.2:                               ##   in Loop: Header=BB2_1 Depth=1
	movl	-28(%rbp), %eax
	addl	-20(%rbp), %eax
	jmp	.Lvictim_win1_continue
## Variant 172
.Lvictim_win1_var172:
	popq	%rax
	cmpl	$100, -28(%rbp)
	jg	LBB2_4
## %bb.2:                               ##   in Loop: Header=BB2_1 Depth=1
	movl	-28(%rbp), %eax
	addl	-20(%rbp), %eax
	jmp	.Lvictim_win1_continue
## Variant 173
.Lvictim_win1_var173:
	popq	%rax
	cmpl	$100, -28(%rbp)
	jg	LBB2_4
## %bb.2:                               ##   in Loop: Header=BB2_1 Depth=1
	movl	-28(%rbp), %eax
	addl	-20(%rbp), %eax
	jmp	.Lvictim_win1_continue
## Variant 174
.Lvictim_win1_var174:
	popq	%rax
	cmpl	$100, -28(%rbp)
	jg	LBB2_4
## %bb.2:                               ##   in Loop: Header=BB2_1 Depth=1
	movl	-28(%rbp), %eax
	addl	-20(%rbp), %eax
	jmp	.Lvictim_win1_continue
## Variant 175
.Lvictim_win1_var175:
	popq	%rax
	cmpl	$100, -28(%rbp)
	jg	LBB2_4
## %bb.2:                               ##   in Loop: Header=BB2_1 Depth=1
	movl	-28(%rbp), %eax
	addl	-20(%rbp), %eax
	jmp	.Lvictim_win1_continue
## Variant 176
.Lvictim_win1_var176:
	popq	%rax
	cmpl	$100, -28(%rbp)
	jg	LBB2_4
## %bb.2:                               ##   in Loop: Header=BB2_1 Depth=1
	movl	-28(%rbp), %eax
	addl	-20(%rbp), %eax
	jmp	.Lvictim_win1_continue
## Variant 177
.Lvictim_win1_var177:
	popq	%rax
	cmpl	$100, -28(%rbp)
	jg	LBB2_4
## %bb.2:                               ##   in Loop: Header=BB2_1 Depth=1
	movl	-28(%rbp), %eax
	addl	-20(%rbp), %eax
	jmp	.Lvictim_win1_continue
## Variant 178
.Lvictim_win1_var178:
	popq	%rax
	cmpl	$100, -28(%rbp)
	jg	LBB2_4
## %bb.2:                               ##   in Loop: Header=BB2_1 Depth=1
	movl	-28(%rbp), %eax
	addl	-20(%rbp), %eax
	jmp	.Lvictim_win1_continue
## Variant 179
.Lvictim_win1_var179:
	popq	%rax
	cmpl	$100, -28(%rbp)
	jg	LBB2_4
## %bb.2:                               ##   in Loop: Header=BB2_1 Depth=1
	movl	-28(%rbp), %eax
	addl	-20(%rbp), %eax
	jmp	.Lvictim_win1_continue
## Variant 180
.Lvictim_win1_var180:
	popq	%rax
	cmpl	$100, -28(%rbp)
	jg	LBB2_4
## %bb.2:                               ##   in Loop: Header=BB2_1 Depth=1
	movl	-28(%rbp), %eax
	addl	-20(%rbp), %eax
	jmp	.Lvictim_win1_continue
## Variant 181
.Lvictim_win1_var181:
	popq	%rax
	cmpl	$100, -28(%rbp)
	jg	LBB2_4
## %bb.2:                               ##   in Loop: Header=BB2_1 Depth=1
	movl	-28(%rbp), %eax
	addl	-20(%rbp), %eax
	jmp	.Lvictim_win1_continue
## Variant 182
.Lvictim_win1_var182:
	popq	%rax
	cmpl	$100, -28(%rbp)
	jg	LBB2_4
## %bb.2:                               ##   in Loop: Header=BB2_1 Depth=1
	movl	-28(%rbp), %eax
	addl	-20(%rbp), %eax
	jmp	.Lvictim_win1_continue
## Variant 183
.Lvictim_win1_var183:
	popq	%rax
	cmpl	$100, -28(%rbp)
	jg	LBB2_4
## %bb.2:                               ##   in Loop: Header=BB2_1 Depth=1
	movl	-28(%rbp), %eax
	addl	-20(%rbp), %eax
	jmp	.Lvictim_win1_continue
## Variant 184
.Lvictim_win1_var184:
	popq	%rax
	cmpl	$100, -28(%rbp)
	jg	LBB2_4
## %bb.2:                               ##   in Loop: Header=BB2_1 Depth=1
	movl	-28(%rbp), %eax
	addl	-20(%rbp), %eax
	jmp	.Lvictim_win1_continue
## Variant 185
.Lvictim_win1_var185:
	popq	%rax
	cmpl	$100, -28(%rbp)
	jg	LBB2_4
## %bb.2:                               ##   in Loop: Header=BB2_1 Depth=1
	movl	-28(%rbp), %eax
	addl	-20(%rbp), %eax
	jmp	.Lvictim_win1_continue
## Variant 186
.Lvictim_win1_var186:
	popq	%rax
	cmpl	$100, -28(%rbp)
	jg	LBB2_4
## %bb.2:                               ##   in Loop: Header=BB2_1 Depth=1
	movl	-28(%rbp), %eax
	addl	-20(%rbp), %eax
	jmp	.Lvictim_win1_continue
## Variant 187
.Lvictim_win1_var187:
	popq	%rax
	cmpl	$100, -28(%rbp)
	jg	LBB2_4
## %bb.2:                               ##   in Loop: Header=BB2_1 Depth=1
	movl	-28(%rbp), %eax
	addl	-20(%rbp), %eax
	jmp	.Lvictim_win1_continue
## Variant 188
.Lvictim_win1_var188:
	popq	%rax
	cmpl	$100, -28(%rbp)
	jg	LBB2_4
## %bb.2:                               ##   in Loop: Header=BB2_1 Depth=1
	movl	-28(%rbp), %eax
	addl	-20(%rbp), %eax
	jmp	.Lvictim_win1_continue
## Variant 189
.Lvictim_win1_var189:
	popq	%rax
	cmpl	$100, -28(%rbp)
	jg	LBB2_4
## %bb.2:                               ##   in Loop: Header=BB2_1 Depth=1
	movl	-28(%rbp), %eax
	addl	-20(%rbp), %eax
	jmp	.Lvictim_win1_continue
## Variant 190
.Lvictim_win1_var190:
	popq	%rax
	cmpl	$100, -28(%rbp)
	jg	LBB2_4
## %bb.2:                               ##   in Loop: Header=BB2_1 Depth=1
	movl	-28(%rbp), %eax
	addl	-20(%rbp), %eax
	jmp	.Lvictim_win1_continue
## Variant 191
.Lvictim_win1_var191:
	popq	%rax
	cmpl	$100, -28(%rbp)
	jg	LBB2_4
## %bb.2:                               ##   in Loop: Header=BB2_1 Depth=1
	movl	-28(%rbp), %eax
	addl	-20(%rbp), %eax
	jmp	.Lvictim_win1_continue
## Variant 192
.Lvictim_win1_var192:
	popq	%rax
	cmpl	$100, -28(%rbp)
	jg	LBB2_4
## %bb.2:                               ##   in Loop: Header=BB2_1 Depth=1
	movl	-28(%rbp), %eax
	addl	-20(%rbp), %eax
	jmp	.Lvictim_win1_continue
## Variant 193
.Lvictim_win1_var193:
	popq	%rax
	cmpl	$100, -28(%rbp)
	jg	LBB2_4
## %bb.2:                               ##   in Loop: Header=BB2_1 Depth=1
	movl	-28(%rbp), %eax
	addl	-20(%rbp), %eax
	jmp	.Lvictim_win1_continue
## Variant 194
.Lvictim_win1_var194:
	popq	%rax
	cmpl	$100, -28(%rbp)
	jg	LBB2_4
## %bb.2:                               ##   in Loop: Header=BB2_1 Depth=1
	movl	-28(%rbp), %eax
	addl	-20(%rbp), %eax
	jmp	.Lvictim_win1_continue
## Variant 195
.Lvictim_win1_var195:
	popq	%rax
	cmpl	$100, -28(%rbp)
	jg	LBB2_4
## %bb.2:                               ##   in Loop: Header=BB2_1 Depth=1
	movl	-28(%rbp), %eax
	addl	-20(%rbp), %eax
	jmp	.Lvictim_win1_continue
## Variant 196
.Lvictim_win1_var196:
	popq	%rax
	cmpl	$100, -28(%rbp)
	jg	LBB2_4
## %bb.2:                               ##   in Loop: Header=BB2_1 Depth=1
	movl	-28(%rbp), %eax
	addl	-20(%rbp), %eax
	jmp	.Lvictim_win1_continue
## Variant 197
.Lvictim_win1_var197:
	popq	%rax
	cmpl	$100, -28(%rbp)
	jg	LBB2_4
## %bb.2:                               ##   in Loop: Header=BB2_1 Depth=1
	movl	-28(%rbp), %eax
	addl	-20(%rbp), %eax
	jmp	.Lvictim_win1_continue
## Variant 198
.Lvictim_win1_var198:
	popq	%rax
	cmpl	$100, -28(%rbp)
	jg	LBB2_4
## %bb.2:                               ##   in Loop: Header=BB2_1 Depth=1
	movl	-28(%rbp), %eax
	addl	-20(%rbp), %eax
	jmp	.Lvictim_win1_continue
## Variant 199
.Lvictim_win1_var199:
	popq	%rax
	cmpl	$100, -28(%rbp)
	jg	LBB2_4
## %bb.2:                               ##   in Loop: Header=BB2_1 Depth=1
	movl	-28(%rbp), %eax
	addl	-20(%rbp), %eax
	jmp	.Lvictim_win1_continue
## Variant 200
.Lvictim_win1_var200:
	popq	%rax
	cmpl	$100, -28(%rbp)
	jg	LBB2_4
## %bb.2:                               ##   in Loop: Header=BB2_1 Depth=1
	movl	-28(%rbp), %eax
	addl	-20(%rbp), %eax
	jmp	.Lvictim_win1_continue
## Variant 201
.Lvictim_win1_var201:
	popq	%rax
	cmpl	$100, -28(%rbp)
	jg	LBB2_4
## %bb.2:                               ##   in Loop: Header=BB2_1 Depth=1
	movl	-28(%rbp), %eax
	addl	-20(%rbp), %eax
	jmp	.Lvictim_win1_continue
## Variant 202
.Lvictim_win1_var202:
	popq	%rax
	cmpl	$100, -28(%rbp)
	jg	LBB2_4
## %bb.2:                               ##   in Loop: Header=BB2_1 Depth=1
	movl	-28(%rbp), %eax
	addl	-20(%rbp), %eax
	jmp	.Lvictim_win1_continue
## Variant 203
.Lvictim_win1_var203:
	popq	%rax
	cmpl	$100, -28(%rbp)
	jg	LBB2_4
## %bb.2:                               ##   in Loop: Header=BB2_1 Depth=1
	movl	-28(%rbp), %eax
	addl	-20(%rbp), %eax
	jmp	.Lvictim_win1_continue
## Variant 204
.Lvictim_win1_var204:
	popq	%rax
	cmpl	$100, -28(%rbp)
	jg	LBB2_4
## %bb.2:                               ##   in Loop: Header=BB2_1 Depth=1
	movl	-28(%rbp), %eax
	addl	-20(%rbp), %eax
	jmp	.Lvictim_win1_continue
## Variant 205
.Lvictim_win1_var205:
	popq	%rax
	cmpl	$100, -28(%rbp)
	jg	LBB2_4
## %bb.2:                               ##   in Loop: Header=BB2_1 Depth=1
	movl	-28(%rbp), %eax
	addl	-20(%rbp), %eax
	jmp	.Lvictim_win1_continue
## Variant 206
.Lvictim_win1_var206:
	popq	%rax
	cmpl	$100, -28(%rbp)
	jg	LBB2_4
## %bb.2:                               ##   in Loop: Header=BB2_1 Depth=1
	movl	-28(%rbp), %eax
	addl	-20(%rbp), %eax
	jmp	.Lvictim_win1_continue
## Variant 207
.Lvictim_win1_var207:
	popq	%rax
	cmpl	$100, -28(%rbp)
	jg	LBB2_4
## %bb.2:                               ##   in Loop: Header=BB2_1 Depth=1
	movl	-28(%rbp), %eax
	addl	-20(%rbp), %eax
	jmp	.Lvictim_win1_continue
## Variant 208
.Lvictim_win1_var208:
	popq	%rax
	cmpl	$100, -28(%rbp)
	jg	LBB2_4
## %bb.2:                               ##   in Loop: Header=BB2_1 Depth=1
	movl	-28(%rbp), %eax
	addl	-20(%rbp), %eax
	jmp	.Lvictim_win1_continue
## Variant 209
.Lvictim_win1_var209:
	popq	%rax
	cmpl	$100, -28(%rbp)
	jg	LBB2_4
## %bb.2:                               ##   in Loop: Header=BB2_1 Depth=1
	movl	-28(%rbp), %eax
	addl	-20(%rbp), %eax
	jmp	.Lvictim_win1_continue
## Variant 210
.Lvictim_win1_var210:
	popq	%rax
	cmpl	$100, -28(%rbp)
	jg	LBB2_4
## %bb.2:                               ##   in Loop: Header=BB2_1 Depth=1
	movl	-28(%rbp), %eax
	addl	-20(%rbp), %eax
	jmp	.Lvictim_win1_continue
## Variant 211
.Lvictim_win1_var211:
	popq	%rax
	cmpl	$100, -28(%rbp)
	jg	LBB2_4
## %bb.2:                               ##   in Loop: Header=BB2_1 Depth=1
	movl	-28(%rbp), %eax
	addl	-20(%rbp), %eax
	jmp	.Lvictim_win1_continue
## Variant 212
.Lvictim_win1_var212:
	popq	%rax
	cmpl	$100, -28(%rbp)
	jg	LBB2_4
## %bb.2:                               ##   in Loop: Header=BB2_1 Depth=1
	movl	-28(%rbp), %eax
	addl	-20(%rbp), %eax
	jmp	.Lvictim_win1_continue
## Variant 213
.Lvictim_win1_var213:
	popq	%rax
	cmpl	$100, -28(%rbp)
	jg	LBB2_4
## %bb.2:                               ##   in Loop: Header=BB2_1 Depth=1
	movl	-28(%rbp), %eax
	addl	-20(%rbp), %eax
	jmp	.Lvictim_win1_continue
## Variant 214
.Lvictim_win1_var214:
	popq	%rax
	cmpl	$100, -28(%rbp)
	jg	LBB2_4
## %bb.2:                               ##   in Loop: Header=BB2_1 Depth=1
	movl	-28(%rbp), %eax
	addl	-20(%rbp), %eax
	jmp	.Lvictim_win1_continue
## Variant 215
.Lvictim_win1_var215:
	popq	%rax
	cmpl	$100, -28(%rbp)
	jg	LBB2_4
## %bb.2:                               ##   in Loop: Header=BB2_1 Depth=1
	movl	-28(%rbp), %eax
	addl	-20(%rbp), %eax
	jmp	.Lvictim_win1_continue
## Variant 216
.Lvictim_win1_var216:
	popq	%rax
	cmpl	$100, -28(%rbp)
	jg	LBB2_4
## %bb.2:                               ##   in Loop: Header=BB2_1 Depth=1
	movl	-28(%rbp), %eax
	addl	-20(%rbp), %eax
	jmp	.Lvictim_win1_continue
## Variant 217
.Lvictim_win1_var217:
	popq	%rax
	cmpl	$100, -28(%rbp)
	jg	LBB2_4
## %bb.2:                               ##   in Loop: Header=BB2_1 Depth=1
	movl	-28(%rbp), %eax
	addl	-20(%rbp), %eax
	jmp	.Lvictim_win1_continue
## Variant 218
.Lvictim_win1_var218:
	popq	%rax
	cmpl	$100, -28(%rbp)
	jg	LBB2_4
## %bb.2:                               ##   in Loop: Header=BB2_1 Depth=1
	movl	-28(%rbp), %eax
	addl	-20(%rbp), %eax
	jmp	.Lvictim_win1_continue
## Variant 219
.Lvictim_win1_var219:
	popq	%rax
	cmpl	$100, -28(%rbp)
	jg	LBB2_4
## %bb.2:                               ##   in Loop: Header=BB2_1 Depth=1
	movl	-28(%rbp), %eax
	addl	-20(%rbp), %eax
	jmp	.Lvictim_win1_continue
## Variant 220
.Lvictim_win1_var220:
	popq	%rax
	cmpl	$100, -28(%rbp)
	jg	LBB2_4
## %bb.2:                               ##   in Loop: Header=BB2_1 Depth=1
	movl	-28(%rbp), %eax
	addl	-20(%rbp), %eax
	jmp	.Lvictim_win1_continue
## Variant 221
.Lvictim_win1_var221:
	popq	%rax
	cmpl	$100, -28(%rbp)
	jg	LBB2_4
## %bb.2:                               ##   in Loop: Header=BB2_1 Depth=1
	movl	-28(%rbp), %eax
	addl	-20(%rbp), %eax
	jmp	.Lvictim_win1_continue
## Variant 222
.Lvictim_win1_var222:
	popq	%rax
	cmpl	$100, -28(%rbp)
	jg	LBB2_4
## %bb.2:                               ##   in Loop: Header=BB2_1 Depth=1
	movl	-28(%rbp), %eax
	addl	-20(%rbp), %eax
	jmp	.Lvictim_win1_continue
## Variant 223
.Lvictim_win1_var223:
	popq	%rax
	cmpl	$100, -28(%rbp)
	jg	LBB2_4
## %bb.2:                               ##   in Loop: Header=BB2_1 Depth=1
	movl	-28(%rbp), %eax
	addl	-20(%rbp), %eax
	jmp	.Lvictim_win1_continue
## Variant 224
.Lvictim_win1_var224:
	popq	%rax
	cmpl	$100, -28(%rbp)
	jg	LBB2_4
## %bb.2:                               ##   in Loop: Header=BB2_1 Depth=1
	movl	-28(%rbp), %eax
	addl	-20(%rbp), %eax
	jmp	.Lvictim_win1_continue
## Variant 225
.Lvictim_win1_var225:
	popq	%rax
	cmpl	$100, -28(%rbp)
	jg	LBB2_4
## %bb.2:                               ##   in Loop: Header=BB2_1 Depth=1
	movl	-28(%rbp), %eax
	addl	-20(%rbp), %eax
	jmp	.Lvictim_win1_continue
## Variant 226
.Lvictim_win1_var226:
	popq	%rax
	cmpl	$100, -28(%rbp)
	jg	LBB2_4
## %bb.2:                               ##   in Loop: Header=BB2_1 Depth=1
	movl	-28(%rbp), %eax
	addl	-20(%rbp), %eax
	jmp	.Lvictim_win1_continue
## Variant 227
.Lvictim_win1_var227:
	popq	%rax
	cmpl	$100, -28(%rbp)
	jg	LBB2_4
## %bb.2:                               ##   in Loop: Header=BB2_1 Depth=1
	movl	-28(%rbp), %eax
	addl	-20(%rbp), %eax
	jmp	.Lvictim_win1_continue
## Variant 228
.Lvictim_win1_var228:
	popq	%rax
	cmpl	$100, -28(%rbp)
	jg	LBB2_4
## %bb.2:                               ##   in Loop: Header=BB2_1 Depth=1
	movl	-28(%rbp), %eax
	addl	-20(%rbp), %eax
	jmp	.Lvictim_win1_continue
## Variant 229
.Lvictim_win1_var229:
	popq	%rax
	cmpl	$100, -28(%rbp)
	jg	LBB2_4
## %bb.2:                               ##   in Loop: Header=BB2_1 Depth=1
	movl	-28(%rbp), %eax
	addl	-20(%rbp), %eax
	jmp	.Lvictim_win1_continue
## Variant 230
.Lvictim_win1_var230:
	popq	%rax
	cmpl	$100, -28(%rbp)
	jg	LBB2_4
## %bb.2:                               ##   in Loop: Header=BB2_1 Depth=1
	movl	-28(%rbp), %eax
	addl	-20(%rbp), %eax
	jmp	.Lvictim_win1_continue
## Variant 231
.Lvictim_win1_var231:
	popq	%rax
	cmpl	$100, -28(%rbp)
	jg	LBB2_4
## %bb.2:                               ##   in Loop: Header=BB2_1 Depth=1
	movl	-28(%rbp), %eax
	addl	-20(%rbp), %eax
	jmp	.Lvictim_win1_continue
## Variant 232
.Lvictim_win1_var232:
	popq	%rax
	cmpl	$100, -28(%rbp)
	jg	LBB2_4
## %bb.2:                               ##   in Loop: Header=BB2_1 Depth=1
	movl	-28(%rbp), %eax
	addl	-20(%rbp), %eax
	jmp	.Lvictim_win1_continue
## Variant 233
.Lvictim_win1_var233:
	popq	%rax
	cmpl	$100, -28(%rbp)
	jg	LBB2_4
## %bb.2:                               ##   in Loop: Header=BB2_1 Depth=1
	movl	-28(%rbp), %eax
	addl	-20(%rbp), %eax
	jmp	.Lvictim_win1_continue
## Variant 234
.Lvictim_win1_var234:
	popq	%rax
	cmpl	$100, -28(%rbp)
	jg	LBB2_4
## %bb.2:                               ##   in Loop: Header=BB2_1 Depth=1
	movl	-28(%rbp), %eax
	addl	-20(%rbp), %eax
	jmp	.Lvictim_win1_continue
## Variant 235
.Lvictim_win1_var235:
	popq	%rax
	cmpl	$100, -28(%rbp)
	jg	LBB2_4
## %bb.2:                               ##   in Loop: Header=BB2_1 Depth=1
	movl	-28(%rbp), %eax
	addl	-20(%rbp), %eax
	jmp	.Lvictim_win1_continue
## Variant 236
.Lvictim_win1_var236:
	popq	%rax
	cmpl	$100, -28(%rbp)
	jg	LBB2_4
## %bb.2:                               ##   in Loop: Header=BB2_1 Depth=1
	movl	-28(%rbp), %eax
	addl	-20(%rbp), %eax
	jmp	.Lvictim_win1_continue
## Variant 237
.Lvictim_win1_var237:
	popq	%rax
	cmpl	$100, -28(%rbp)
	jg	LBB2_4
## %bb.2:                               ##   in Loop: Header=BB2_1 Depth=1
	movl	-28(%rbp), %eax
	addl	-20(%rbp), %eax
	jmp	.Lvictim_win1_continue
## Variant 238
.Lvictim_win1_var238:
	popq	%rax
	cmpl	$100, -28(%rbp)
	jg	LBB2_4
## %bb.2:                               ##   in Loop: Header=BB2_1 Depth=1
	movl	-28(%rbp), %eax
	addl	-20(%rbp), %eax
	jmp	.Lvictim_win1_continue
## Variant 239
.Lvictim_win1_var239:
	popq	%rax
	cmpl	$100, -28(%rbp)
	jg	LBB2_4
## %bb.2:                               ##   in Loop: Header=BB2_1 Depth=1
	movl	-28(%rbp), %eax
	addl	-20(%rbp), %eax
	jmp	.Lvictim_win1_continue
## Variant 240
.Lvictim_win1_var240:
	popq	%rax
	cmpl	$100, -28(%rbp)
	jg	LBB2_4
## %bb.2:                               ##   in Loop: Header=BB2_1 Depth=1
	movl	-28(%rbp), %eax
	addl	-20(%rbp), %eax
	jmp	.Lvictim_win1_continue
## Variant 241
.Lvictim_win1_var241:
	popq	%rax
	cmpl	$100, -28(%rbp)
	jg	LBB2_4
## %bb.2:                               ##   in Loop: Header=BB2_1 Depth=1
	movl	-28(%rbp), %eax
	addl	-20(%rbp), %eax
	jmp	.Lvictim_win1_continue
## Variant 242
.Lvictim_win1_var242:
	popq	%rax
	cmpl	$100, -28(%rbp)
	jg	LBB2_4
## %bb.2:                               ##   in Loop: Header=BB2_1 Depth=1
	movl	-28(%rbp), %eax
	addl	-20(%rbp), %eax
	jmp	.Lvictim_win1_continue
## Variant 243
.Lvictim_win1_var243:
	popq	%rax
	cmpl	$100, -28(%rbp)
	jg	LBB2_4
## %bb.2:                               ##   in Loop: Header=BB2_1 Depth=1
	movl	-28(%rbp), %eax
	addl	-20(%rbp), %eax
	jmp	.Lvictim_win1_continue
## Variant 244
.Lvictim_win1_var244:
	popq	%rax
	cmpl	$100, -28(%rbp)
	jg	LBB2_4
## %bb.2:                               ##   in Loop: Header=BB2_1 Depth=1
	movl	-28(%rbp), %eax
	addl	-20(%rbp), %eax
	jmp	.Lvictim_win1_continue
## Variant 245
.Lvictim_win1_var245:
	popq	%rax
	cmpl	$100, -28(%rbp)
	jg	LBB2_4
## %bb.2:                               ##   in Loop: Header=BB2_1 Depth=1
	movl	-28(%rbp), %eax
	addl	-20(%rbp), %eax
	jmp	.Lvictim_win1_continue
## Variant 246
.Lvictim_win1_var246:
	popq	%rax
	cmpl	$100, -28(%rbp)
	jg	LBB2_4
## %bb.2:                               ##   in Loop: Header=BB2_1 Depth=1
	movl	-28(%rbp), %eax
	addl	-20(%rbp), %eax
	jmp	.Lvictim_win1_continue
## Variant 247
.Lvictim_win1_var247:
	popq	%rax
	cmpl	$100, -28(%rbp)
	jg	LBB2_4
## %bb.2:                               ##   in Loop: Header=BB2_1 Depth=1
	movl	-28(%rbp), %eax
	addl	-20(%rbp), %eax
	jmp	.Lvictim_win1_continue
## Variant 248
.Lvictim_win1_var248:
	popq	%rax
	cmpl	$100, -28(%rbp)
	jg	LBB2_4
## %bb.2:                               ##   in Loop: Header=BB2_1 Depth=1
	movl	-28(%rbp), %eax
	addl	-20(%rbp), %eax
	jmp	.Lvictim_win1_continue
## Variant 249
.Lvictim_win1_var249:
	popq	%rax
	cmpl	$100, -28(%rbp)
	jg	LBB2_4
## %bb.2:                               ##   in Loop: Header=BB2_1 Depth=1
	movl	-28(%rbp), %eax
	addl	-20(%rbp), %eax
	jmp	.Lvictim_win1_continue
## Variant 250
.Lvictim_win1_var250:
	popq	%rax
	cmpl	$100, -28(%rbp)
	jg	LBB2_4
## %bb.2:                               ##   in Loop: Header=BB2_1 Depth=1
	movl	-28(%rbp), %eax
	addl	-20(%rbp), %eax
	jmp	.Lvictim_win1_continue
## Variant 251
.Lvictim_win1_var251:
	popq	%rax
	cmpl	$100, -28(%rbp)
	jg	LBB2_4
## %bb.2:                               ##   in Loop: Header=BB2_1 Depth=1
	movl	-28(%rbp), %eax
	addl	-20(%rbp), %eax
	jmp	.Lvictim_win1_continue
## Variant 252
.Lvictim_win1_var252:
	popq	%rax
	cmpl	$100, -28(%rbp)
	jg	LBB2_4
## %bb.2:                               ##   in Loop: Header=BB2_1 Depth=1
	movl	-28(%rbp), %eax
	addl	-20(%rbp), %eax
	jmp	.Lvictim_win1_continue
## Variant 253
.Lvictim_win1_var253:
	popq	%rax
	cmpl	$100, -28(%rbp)
	jg	LBB2_4
## %bb.2:                               ##   in Loop: Header=BB2_1 Depth=1
	movl	-28(%rbp), %eax
	addl	-20(%rbp), %eax
	jmp	.Lvictim_win1_continue
## Variant 254
.Lvictim_win1_var254:
	popq	%rax
	cmpl	$100, -28(%rbp)
	jg	LBB2_4
## %bb.2:                               ##   in Loop: Header=BB2_1 Depth=1
	movl	-28(%rbp), %eax
	addl	-20(%rbp), %eax
	jmp	.Lvictim_win1_continue
## Variant 255
.Lvictim_win1_var255:
	popq	%rax
	cmpl	$100, -28(%rbp)
	jg	LBB2_4
## %bb.2:                               ##   in Loop: Header=BB2_1 Depth=1
	movl	-28(%rbp), %eax
	addl	-20(%rbp), %eax
	jmp	.Lvictim_win1_continue
## Variant 256
.Lvictim_win1_var256:
	popq	%rax
	cmpl	$100, -28(%rbp)
	jg	LBB2_4
## %bb.2:                               ##   in Loop: Header=BB2_1 Depth=1
	movl	-28(%rbp), %eax
	addl	-20(%rbp), %eax
	jmp	.Lvictim_win1_continue
## Variant 257
.Lvictim_win1_var257:
	popq	%rax
	cmpl	$100, -28(%rbp)
	jg	LBB2_4
## %bb.2:                               ##   in Loop: Header=BB2_1 Depth=1
	movl	-28(%rbp), %eax
	addl	-20(%rbp), %eax
	jmp	.Lvictim_win1_continue
## Variant 258
.Lvictim_win1_var258:
	popq	%rax
	cmpl	$100, -28(%rbp)
	jg	LBB2_4
## %bb.2:                               ##   in Loop: Header=BB2_1 Depth=1
	movl	-28(%rbp), %eax
	addl	-20(%rbp), %eax
	jmp	.Lvictim_win1_continue
## Variant 259
.Lvictim_win1_var259:
	popq	%rax
	cmpl	$100, -28(%rbp)
	jg	LBB2_4
## %bb.2:                               ##   in Loop: Header=BB2_1 Depth=1
	movl	-28(%rbp), %eax
	addl	-20(%rbp), %eax
	jmp	.Lvictim_win1_continue
## Variant 260
.Lvictim_win1_var260:
	popq	%rax
	cmpl	$100, -28(%rbp)
	jg	LBB2_4
## %bb.2:                               ##   in Loop: Header=BB2_1 Depth=1
	movl	-28(%rbp), %eax
	addl	-20(%rbp), %eax
	jmp	.Lvictim_win1_continue
## Variant 261
.Lvictim_win1_var261:
	popq	%rax
	cmpl	$100, -28(%rbp)
	jg	LBB2_4
## %bb.2:                               ##   in Loop: Header=BB2_1 Depth=1
	movl	-28(%rbp), %eax
	addl	-20(%rbp), %eax
	jmp	.Lvictim_win1_continue
## Variant 262
.Lvictim_win1_var262:
	popq	%rax
	cmpl	$100, -28(%rbp)
	jg	LBB2_4
## %bb.2:                               ##   in Loop: Header=BB2_1 Depth=1
	movl	-28(%rbp), %eax
	addl	-20(%rbp), %eax
	jmp	.Lvictim_win1_continue
## Variant 263
.Lvictim_win1_var263:
	popq	%rax
	cmpl	$100, -28(%rbp)
	jg	LBB2_4
## %bb.2:                               ##   in Loop: Header=BB2_1 Depth=1
	movl	-28(%rbp), %eax
	addl	-20(%rbp), %eax
	jmp	.Lvictim_win1_continue
## Variant 264
.Lvictim_win1_var264:
	popq	%rax
	cmpl	$100, -28(%rbp)
	jg	LBB2_4
## %bb.2:                               ##   in Loop: Header=BB2_1 Depth=1
	movl	-28(%rbp), %eax
	addl	-20(%rbp), %eax
	jmp	.Lvictim_win1_continue
## Variant 265
.Lvictim_win1_var265:
	popq	%rax
	cmpl	$100, -28(%rbp)
	jg	LBB2_4
## %bb.2:                               ##   in Loop: Header=BB2_1 Depth=1
	movl	-28(%rbp), %eax
	addl	-20(%rbp), %eax
	jmp	.Lvictim_win1_continue
## Variant 266
.Lvictim_win1_var266:
	popq	%rax
	cmpl	$100, -28(%rbp)
	jg	LBB2_4
## %bb.2:                               ##   in Loop: Header=BB2_1 Depth=1
	movl	-28(%rbp), %eax
	addl	-20(%rbp), %eax
	jmp	.Lvictim_win1_continue
## Variant 267
.Lvictim_win1_var267:
	popq	%rax
	cmpl	$100, -28(%rbp)
	jg	LBB2_4
## %bb.2:                               ##   in Loop: Header=BB2_1 Depth=1
	movl	-28(%rbp), %eax
	addl	-20(%rbp), %eax
	jmp	.Lvictim_win1_continue
## Variant 268
.Lvictim_win1_var268:
	popq	%rax
	cmpl	$100, -28(%rbp)
	jg	LBB2_4
## %bb.2:                               ##   in Loop: Header=BB2_1 Depth=1
	movl	-28(%rbp), %eax
	addl	-20(%rbp), %eax
	jmp	.Lvictim_win1_continue
## Variant 269
.Lvictim_win1_var269:
	popq	%rax
	cmpl	$100, -28(%rbp)
	jg	LBB2_4
## %bb.2:                               ##   in Loop: Header=BB2_1 Depth=1
	movl	-28(%rbp), %eax
	addl	-20(%rbp), %eax
	jmp	.Lvictim_win1_continue
## Variant 270
.Lvictim_win1_var270:
	popq	%rax
	cmpl	$100, -28(%rbp)
	jg	LBB2_4
## %bb.2:                               ##   in Loop: Header=BB2_1 Depth=1
	movl	-28(%rbp), %eax
	addl	-20(%rbp), %eax
	jmp	.Lvictim_win1_continue
## Variant 271
.Lvictim_win1_var271:
	popq	%rax
	cmpl	$100, -28(%rbp)
	jg	LBB2_4
## %bb.2:                               ##   in Loop: Header=BB2_1 Depth=1
	movl	-28(%rbp), %eax
	addl	-20(%rbp), %eax
	jmp	.Lvictim_win1_continue
## Variant 272
.Lvictim_win1_var272:
	popq	%rax
	cmpl	$100, -28(%rbp)
	jg	LBB2_4
## %bb.2:                               ##   in Loop: Header=BB2_1 Depth=1
	movl	-28(%rbp), %eax
	addl	-20(%rbp), %eax
	jmp	.Lvictim_win1_continue
## Variant 273
.Lvictim_win1_var273:
	popq	%rax
	cmpl	$100, -28(%rbp)
	jg	LBB2_4
## %bb.2:                               ##   in Loop: Header=BB2_1 Depth=1
	movl	-28(%rbp), %eax
	addl	-20(%rbp), %eax
	jmp	.Lvictim_win1_continue
## Variant 274
.Lvictim_win1_var274:
	popq	%rax
	cmpl	$100, -28(%rbp)
	jg	LBB2_4
## %bb.2:                               ##   in Loop: Header=BB2_1 Depth=1
	movl	-28(%rbp), %eax
	addl	-20(%rbp), %eax
	jmp	.Lvictim_win1_continue
## Variant 275
.Lvictim_win1_var275:
	popq	%rax
	cmpl	$100, -28(%rbp)
	jg	LBB2_4
## %bb.2:                               ##   in Loop: Header=BB2_1 Depth=1
	movl	-28(%rbp), %eax
	addl	-20(%rbp), %eax
	jmp	.Lvictim_win1_continue
## Variant 276
.Lvictim_win1_var276:
	popq	%rax
	cmpl	$100, -28(%rbp)
	jg	LBB2_4
## %bb.2:                               ##   in Loop: Header=BB2_1 Depth=1
	movl	-28(%rbp), %eax
	addl	-20(%rbp), %eax
	jmp	.Lvictim_win1_continue
## Variant 277
.Lvictim_win1_var277:
	popq	%rax
	cmpl	$100, -28(%rbp)
	jg	LBB2_4
## %bb.2:                               ##   in Loop: Header=BB2_1 Depth=1
	movl	-28(%rbp), %eax
	addl	-20(%rbp), %eax
	jmp	.Lvictim_win1_continue
## Variant 278
.Lvictim_win1_var278:
	popq	%rax
	cmpl	$100, -28(%rbp)
	jg	LBB2_4
## %bb.2:                               ##   in Loop: Header=BB2_1 Depth=1
	movl	-28(%rbp), %eax
	addl	-20(%rbp), %eax
	jmp	.Lvictim_win1_continue
## Variant 279
.Lvictim_win1_var279:
	popq	%rax
	cmpl	$100, -28(%rbp)
	jg	LBB2_4
## %bb.2:                               ##   in Loop: Header=BB2_1 Depth=1
	movl	-28(%rbp), %eax
	addl	-20(%rbp), %eax
	jmp	.Lvictim_win1_continue
## Variant 280
.Lvictim_win1_var280:
	popq	%rax
	cmpl	$100, -28(%rbp)
	jg	LBB2_4
## %bb.2:                               ##   in Loop: Header=BB2_1 Depth=1
	movl	-28(%rbp), %eax
	addl	-20(%rbp), %eax
	jmp	.Lvictim_win1_continue
## Variant 281
.Lvictim_win1_var281:
	popq	%rax
	cmpl	$100, -28(%rbp)
	jg	LBB2_4
## %bb.2:                               ##   in Loop: Header=BB2_1 Depth=1
	movl	-28(%rbp), %eax
	addl	-20(%rbp), %eax
	jmp	.Lvictim_win1_continue
## Variant 282
.Lvictim_win1_var282:
	popq	%rax
	cmpl	$100, -28(%rbp)
	jg	LBB2_4
## %bb.2:                               ##   in Loop: Header=BB2_1 Depth=1
	movl	-28(%rbp), %eax
	addl	-20(%rbp), %eax
	jmp	.Lvictim_win1_continue
## Variant 283
.Lvictim_win1_var283:
	popq	%rax
	cmpl	$100, -28(%rbp)
	jg	LBB2_4
## %bb.2:                               ##   in Loop: Header=BB2_1 Depth=1
	movl	-28(%rbp), %eax
	addl	-20(%rbp), %eax
	jmp	.Lvictim_win1_continue
## Variant 284
.Lvictim_win1_var284:
	popq	%rax
	cmpl	$100, -28(%rbp)
	jg	LBB2_4
## %bb.2:                               ##   in Loop: Header=BB2_1 Depth=1
	movl	-28(%rbp), %eax
	addl	-20(%rbp), %eax
	jmp	.Lvictim_win1_continue
## Variant 285
.Lvictim_win1_var285:
	popq	%rax
	cmpl	$100, -28(%rbp)
	jg	LBB2_4
## %bb.2:                               ##   in Loop: Header=BB2_1 Depth=1
	movl	-28(%rbp), %eax
	addl	-20(%rbp), %eax
	jmp	.Lvictim_win1_continue
## Variant 286
.Lvictim_win1_var286:
	popq	%rax
	cmpl	$100, -28(%rbp)
	jg	LBB2_4
## %bb.2:                               ##   in Loop: Header=BB2_1 Depth=1
	movl	-28(%rbp), %eax
	addl	-20(%rbp), %eax
	jmp	.Lvictim_win1_continue
## Variant 287
.Lvictim_win1_var287:
	popq	%rax
	cmpl	$100, -28(%rbp)
	jg	LBB2_4
## %bb.2:                               ##   in Loop: Header=BB2_1 Depth=1
	movl	-28(%rbp), %eax
	addl	-20(%rbp), %eax
	jmp	.Lvictim_win1_continue
## Variant 288
.Lvictim_win1_var288:
	popq	%rax
	cmpl	$100, -28(%rbp)
	jg	LBB2_4
## %bb.2:                               ##   in Loop: Header=BB2_1 Depth=1
	movl	-28(%rbp), %eax
	addl	-20(%rbp), %eax
	jmp	.Lvictim_win1_continue
## Variant 289
.Lvictim_win1_var289:
	popq	%rax
	cmpl	$100, -28(%rbp)
	jg	LBB2_4
## %bb.2:                               ##   in Loop: Header=BB2_1 Depth=1
	movl	-28(%rbp), %eax
	addl	-20(%rbp), %eax
	jmp	.Lvictim_win1_continue
## Variant 290
.Lvictim_win1_var290:
	popq	%rax
	cmpl	$100, -28(%rbp)
	jg	LBB2_4
## %bb.2:                               ##   in Loop: Header=BB2_1 Depth=1
	movl	-28(%rbp), %eax
	addl	-20(%rbp), %eax
	jmp	.Lvictim_win1_continue
## Variant 291
.Lvictim_win1_var291:
	popq	%rax
	cmpl	$100, -28(%rbp)
	jg	LBB2_4
## %bb.2:                               ##   in Loop: Header=BB2_1 Depth=1
	movl	-28(%rbp), %eax
	addl	-20(%rbp), %eax
	jmp	.Lvictim_win1_continue
## Variant 292
.Lvictim_win1_var292:
	popq	%rax
	cmpl	$100, -28(%rbp)
	jg	LBB2_4
## %bb.2:                               ##   in Loop: Header=BB2_1 Depth=1
	movl	-28(%rbp), %eax
	addl	-20(%rbp), %eax
	jmp	.Lvictim_win1_continue
## Variant 293
.Lvictim_win1_var293:
	popq	%rax
	cmpl	$100, -28(%rbp)
	jg	LBB2_4
## %bb.2:                               ##   in Loop: Header=BB2_1 Depth=1
	movl	-28(%rbp), %eax
	addl	-20(%rbp), %eax
	jmp	.Lvictim_win1_continue
## Variant 294
.Lvictim_win1_var294:
	popq	%rax
	cmpl	$100, -28(%rbp)
	jg	LBB2_4
## %bb.2:                               ##   in Loop: Header=BB2_1 Depth=1
	movl	-28(%rbp), %eax
	addl	-20(%rbp), %eax
	jmp	.Lvictim_win1_continue
## Variant 295
.Lvictim_win1_var295:
	popq	%rax
	cmpl	$100, -28(%rbp)
	jg	LBB2_4
## %bb.2:                               ##   in Loop: Header=BB2_1 Depth=1
	movl	-28(%rbp), %eax
	addl	-20(%rbp), %eax
	jmp	.Lvictim_win1_continue
## Variant 296
.Lvictim_win1_var296:
	popq	%rax
	cmpl	$100, -28(%rbp)
	jg	LBB2_4
## %bb.2:                               ##   in Loop: Header=BB2_1 Depth=1
	movl	-28(%rbp), %eax
	addl	-20(%rbp), %eax
	jmp	.Lvictim_win1_continue
## Variant 297
.Lvictim_win1_var297:
	popq	%rax
	cmpl	$100, -28(%rbp)
	jg	LBB2_4
## %bb.2:                               ##   in Loop: Header=BB2_1 Depth=1
	movl	-28(%rbp), %eax
	addl	-20(%rbp), %eax
	jmp	.Lvictim_win1_continue
## Variant 298
.Lvictim_win1_var298:
	popq	%rax
	cmpl	$100, -28(%rbp)
	jg	LBB2_4
## %bb.2:                               ##   in Loop: Header=BB2_1 Depth=1
	movl	-28(%rbp), %eax
	addl	-20(%rbp), %eax
	jmp	.Lvictim_win1_continue
## Variant 299
.Lvictim_win1_var299:
	popq	%rax
	cmpl	$100, -28(%rbp)
	jg	LBB2_4
## %bb.2:                               ##   in Loop: Header=BB2_1 Depth=1
	movl	-28(%rbp), %eax
	addl	-20(%rbp), %eax
	jmp	.Lvictim_win1_continue
## Variant 300
.Lvictim_win1_var300:
	popq	%rax
	cmpl	$100, -28(%rbp)
	jg	LBB2_4
## %bb.2:                               ##   in Loop: Header=BB2_1 Depth=1
	movl	-28(%rbp), %eax
	addl	-20(%rbp), %eax
	jmp	.Lvictim_win1_continue
## Variant 301
.Lvictim_win1_var301:
	popq	%rax
	cmpl	$100, -28(%rbp)
	jg	LBB2_4
## %bb.2:                               ##   in Loop: Header=BB2_1 Depth=1
	movl	-28(%rbp), %eax
	addl	-20(%rbp), %eax
	jmp	.Lvictim_win1_continue
## Variant 302
.Lvictim_win1_var302:
	popq	%rax
	cmpl	$100, -28(%rbp)
	jg	LBB2_4
## %bb.2:                               ##   in Loop: Header=BB2_1 Depth=1
	movl	-28(%rbp), %eax
	addl	-20(%rbp), %eax
	jmp	.Lvictim_win1_continue
## Variant 303
.Lvictim_win1_var303:
	popq	%rax
	cmpl	$100, -28(%rbp)
	jg	LBB2_4
## %bb.2:                               ##   in Loop: Header=BB2_1 Depth=1
	movl	-28(%rbp), %eax
	addl	-20(%rbp), %eax
	jmp	.Lvictim_win1_continue
## Variant 304
.Lvictim_win1_var304:
	popq	%rax
	cmpl	$100, -28(%rbp)
	jg	LBB2_4
## %bb.2:                               ##   in Loop: Header=BB2_1 Depth=1
	movl	-28(%rbp), %eax
	addl	-20(%rbp), %eax
	jmp	.Lvictim_win1_continue
## Variant 305
.Lvictim_win1_var305:
	popq	%rax
	cmpl	$100, -28(%rbp)
	jg	LBB2_4
## %bb.2:                               ##   in Loop: Header=BB2_1 Depth=1
	movl	-28(%rbp), %eax
	addl	-20(%rbp), %eax
	jmp	.Lvictim_win1_continue
## Variant 306
.Lvictim_win1_var306:
	popq	%rax
	cmpl	$100, -28(%rbp)
	jg	LBB2_4
## %bb.2:                               ##   in Loop: Header=BB2_1 Depth=1
	movl	-28(%rbp), %eax
	addl	-20(%rbp), %eax
	jmp	.Lvictim_win1_continue
## Variant 307
.Lvictim_win1_var307:
	popq	%rax
	cmpl	$100, -28(%rbp)
	jg	LBB2_4
## %bb.2:                               ##   in Loop: Header=BB2_1 Depth=1
	movl	-28(%rbp), %eax
	addl	-20(%rbp), %eax
	jmp	.Lvictim_win1_continue
## Variant 308
.Lvictim_win1_var308:
	popq	%rax
	cmpl	$100, -28(%rbp)
	jg	LBB2_4
## %bb.2:                               ##   in Loop: Header=BB2_1 Depth=1
	movl	-28(%rbp), %eax
	addl	-20(%rbp), %eax
	jmp	.Lvictim_win1_continue
## Variant 309
.Lvictim_win1_var309:
	popq	%rax
	cmpl	$100, -28(%rbp)
	jg	LBB2_4
## %bb.2:                               ##   in Loop: Header=BB2_1 Depth=1
	movl	-28(%rbp), %eax
	addl	-20(%rbp), %eax
	jmp	.Lvictim_win1_continue
## Variant 310
.Lvictim_win1_var310:
	popq	%rax
	cmpl	$100, -28(%rbp)
	jg	LBB2_4
## %bb.2:                               ##   in Loop: Header=BB2_1 Depth=1
	movl	-28(%rbp), %eax
	addl	-20(%rbp), %eax
	jmp	.Lvictim_win1_continue
## Variant 311
.Lvictim_win1_var311:
	popq	%rax
	cmpl	$100, -28(%rbp)
	jg	LBB2_4
## %bb.2:                               ##   in Loop: Header=BB2_1 Depth=1
	movl	-28(%rbp), %eax
	addl	-20(%rbp), %eax
	jmp	.Lvictim_win1_continue
## Variant 312
.Lvictim_win1_var312:
	popq	%rax
	cmpl	$100, -28(%rbp)
	jg	LBB2_4
## %bb.2:                               ##   in Loop: Header=BB2_1 Depth=1
	movl	-28(%rbp), %eax
	addl	-20(%rbp), %eax
	jmp	.Lvictim_win1_continue
## Variant 313
.Lvictim_win1_var313:
	popq	%rax
	cmpl	$100, -28(%rbp)
	jg	LBB2_4
## %bb.2:                               ##   in Loop: Header=BB2_1 Depth=1
	movl	-28(%rbp), %eax
	addl	-20(%rbp), %eax
	jmp	.Lvictim_win1_continue
## Variant 314
.Lvictim_win1_var314:
	popq	%rax
	cmpl	$100, -28(%rbp)
	jg	LBB2_4
## %bb.2:                               ##   in Loop: Header=BB2_1 Depth=1
	movl	-28(%rbp), %eax
	addl	-20(%rbp), %eax
	jmp	.Lvictim_win1_continue
## Variant 315
.Lvictim_win1_var315:
	popq	%rax
	cmpl	$100, -28(%rbp)
	jg	LBB2_4
## %bb.2:                               ##   in Loop: Header=BB2_1 Depth=1
	movl	-28(%rbp), %eax
	addl	-20(%rbp), %eax
	jmp	.Lvictim_win1_continue
## Variant 316
.Lvictim_win1_var316:
	popq	%rax
	cmpl	$100, -28(%rbp)
	jg	LBB2_4
## %bb.2:                               ##   in Loop: Header=BB2_1 Depth=1
	movl	-28(%rbp), %eax
	addl	-20(%rbp), %eax
	jmp	.Lvictim_win1_continue
## Variant 317
.Lvictim_win1_var317:
	popq	%rax
	cmpl	$100, -28(%rbp)
	jg	LBB2_4
## %bb.2:                               ##   in Loop: Header=BB2_1 Depth=1
	movl	-28(%rbp), %eax
	addl	-20(%rbp), %eax
	jmp	.Lvictim_win1_continue
## Variant 318
.Lvictim_win1_var318:
	popq	%rax
	cmpl	$100, -28(%rbp)
	jg	LBB2_4
## %bb.2:                               ##   in Loop: Header=BB2_1 Depth=1
	movl	-28(%rbp), %eax
	addl	-20(%rbp), %eax
	jmp	.Lvictim_win1_continue
## Variant 319
.Lvictim_win1_var319:
	popq	%rax
	cmpl	$100, -28(%rbp)
	jg	LBB2_4
## %bb.2:                               ##   in Loop: Header=BB2_1 Depth=1
	movl	-28(%rbp), %eax
	addl	-20(%rbp), %eax
	jmp	.Lvictim_win1_continue
## Variant 320
.Lvictim_win1_var320:
	popq	%rax
	cmpl	$100, -28(%rbp)
	jg	LBB2_4
## %bb.2:                               ##   in Loop: Header=BB2_1 Depth=1
	movl	-28(%rbp), %eax
	addl	-20(%rbp), %eax
	jmp	.Lvictim_win1_continue
## Variant 321
.Lvictim_win1_var321:
	popq	%rax
	cmpl	$100, -28(%rbp)
	jg	LBB2_4
## %bb.2:                               ##   in Loop: Header=BB2_1 Depth=1
	movl	-28(%rbp), %eax
	addl	-20(%rbp), %eax
	jmp	.Lvictim_win1_continue
## Variant 322
.Lvictim_win1_var322:
	popq	%rax
	cmpl	$100, -28(%rbp)
	jg	LBB2_4
## %bb.2:                               ##   in Loop: Header=BB2_1 Depth=1
	movl	-28(%rbp), %eax
	addl	-20(%rbp), %eax
	jmp	.Lvictim_win1_continue
## Variant 323
.Lvictim_win1_var323:
	popq	%rax
	cmpl	$100, -28(%rbp)
	jg	LBB2_4
## %bb.2:                               ##   in Loop: Header=BB2_1 Depth=1
	movl	-28(%rbp), %eax
	addl	-20(%rbp), %eax
	jmp	.Lvictim_win1_continue
## Variant 324
.Lvictim_win1_var324:
	popq	%rax
	cmpl	$100, -28(%rbp)
	jg	LBB2_4
## %bb.2:                               ##   in Loop: Header=BB2_1 Depth=1
	movl	-28(%rbp), %eax
	addl	-20(%rbp), %eax
	jmp	.Lvictim_win1_continue
## Variant 325
.Lvictim_win1_var325:
	popq	%rax
	cmpl	$100, -28(%rbp)
	jg	LBB2_4
## %bb.2:                               ##   in Loop: Header=BB2_1 Depth=1
	movl	-28(%rbp), %eax
	addl	-20(%rbp), %eax
	jmp	.Lvictim_win1_continue
## Variant 326
.Lvictim_win1_var326:
	popq	%rax
	cmpl	$100, -28(%rbp)
	jg	LBB2_4
## %bb.2:                               ##   in Loop: Header=BB2_1 Depth=1
	movl	-28(%rbp), %eax
	addl	-20(%rbp), %eax
	jmp	.Lvictim_win1_continue
## Variant 327
.Lvictim_win1_var327:
	popq	%rax
	cmpl	$100, -28(%rbp)
	jg	LBB2_4
## %bb.2:                               ##   in Loop: Header=BB2_1 Depth=1
	movl	-28(%rbp), %eax
	addl	-20(%rbp), %eax
	jmp	.Lvictim_win1_continue
## Variant 328
.Lvictim_win1_var328:
	popq	%rax
	cmpl	$100, -28(%rbp)
	jg	LBB2_4
## %bb.2:                               ##   in Loop: Header=BB2_1 Depth=1
	movl	-28(%rbp), %eax
	addl	-20(%rbp), %eax
	jmp	.Lvictim_win1_continue
## Variant 329
.Lvictim_win1_var329:
	popq	%rax
	cmpl	$100, -28(%rbp)
	jg	LBB2_4
## %bb.2:                               ##   in Loop: Header=BB2_1 Depth=1
	movl	-28(%rbp), %eax
	addl	-20(%rbp), %eax
	jmp	.Lvictim_win1_continue
## Variant 330
.Lvictim_win1_var330:
	popq	%rax
	cmpl	$100, -28(%rbp)
	jg	LBB2_4
## %bb.2:                               ##   in Loop: Header=BB2_1 Depth=1
	movl	-28(%rbp), %eax
	addl	-20(%rbp), %eax
	jmp	.Lvictim_win1_continue
## Variant 331
.Lvictim_win1_var331:
	popq	%rax
	cmpl	$100, -28(%rbp)
	jg	LBB2_4
## %bb.2:                               ##   in Loop: Header=BB2_1 Depth=1
	movl	-28(%rbp), %eax
	addl	-20(%rbp), %eax
	jmp	.Lvictim_win1_continue
## Variant 332
.Lvictim_win1_var332:
	popq	%rax
	cmpl	$100, -28(%rbp)
	jg	LBB2_4
## %bb.2:                               ##   in Loop: Header=BB2_1 Depth=1
	movl	-28(%rbp), %eax
	addl	-20(%rbp), %eax
	jmp	.Lvictim_win1_continue
## Variant 333
.Lvictim_win1_var333:
	popq	%rax
	cmpl	$100, -28(%rbp)
	jg	LBB2_4
## %bb.2:                               ##   in Loop: Header=BB2_1 Depth=1
	movl	-28(%rbp), %eax
	addl	-20(%rbp), %eax
	jmp	.Lvictim_win1_continue
## Variant 334
.Lvictim_win1_var334:
	popq	%rax
	cmpl	$100, -28(%rbp)
	jg	LBB2_4
## %bb.2:                               ##   in Loop: Header=BB2_1 Depth=1
	movl	-28(%rbp), %eax
	addl	-20(%rbp), %eax
	jmp	.Lvictim_win1_continue
## Variant 335
.Lvictim_win1_var335:
	popq	%rax
	cmpl	$100, -28(%rbp)
	jg	LBB2_4
## %bb.2:                               ##   in Loop: Header=BB2_1 Depth=1
	movl	-28(%rbp), %eax
	addl	-20(%rbp), %eax
	jmp	.Lvictim_win1_continue
## Variant 336
.Lvictim_win1_var336:
	popq	%rax
	cmpl	$100, -28(%rbp)
	jg	LBB2_4
## %bb.2:                               ##   in Loop: Header=BB2_1 Depth=1
	movl	-28(%rbp), %eax
	addl	-20(%rbp), %eax
	jmp	.Lvictim_win1_continue
## Variant 337
.Lvictim_win1_var337:
	popq	%rax
	cmpl	$100, -28(%rbp)
	jg	LBB2_4
## %bb.2:                               ##   in Loop: Header=BB2_1 Depth=1
	movl	-28(%rbp), %eax
	addl	-20(%rbp), %eax
	jmp	.Lvictim_win1_continue
## Variant 338
.Lvictim_win1_var338:
	popq	%rax
	cmpl	$100, -28(%rbp)
	jg	LBB2_4
## %bb.2:                               ##   in Loop: Header=BB2_1 Depth=1
	movl	-28(%rbp), %eax
	addl	-20(%rbp), %eax
	jmp	.Lvictim_win1_continue
## Variant 339
.Lvictim_win1_var339:
	popq	%rax
	cmpl	$100, -28(%rbp)
	jg	LBB2_4
## %bb.2:                               ##   in Loop: Header=BB2_1 Depth=1
	movl	-28(%rbp), %eax
	addl	-20(%rbp), %eax
	jmp	.Lvictim_win1_continue
## Variant 340
.Lvictim_win1_var340:
	popq	%rax
	cmpl	$100, -28(%rbp)
	jg	LBB2_4
## %bb.2:                               ##   in Loop: Header=BB2_1 Depth=1
	movl	-28(%rbp), %eax
	addl	-20(%rbp), %eax
	jmp	.Lvictim_win1_continue
## Variant 341
.Lvictim_win1_var341:
	popq	%rax
	cmpl	$100, -28(%rbp)
	jg	LBB2_4
## %bb.2:                               ##   in Loop: Header=BB2_1 Depth=1
	movl	-28(%rbp), %eax
	addl	-20(%rbp), %eax
	jmp	.Lvictim_win1_continue
## Variant 342
.Lvictim_win1_var342:
	popq	%rax
	cmpl	$100, -28(%rbp)
	jg	LBB2_4
## %bb.2:                               ##   in Loop: Header=BB2_1 Depth=1
	movl	-28(%rbp), %eax
	addl	-20(%rbp), %eax
	jmp	.Lvictim_win1_continue
## Variant 343
.Lvictim_win1_var343:
	popq	%rax
	cmpl	$100, -28(%rbp)
	jg	LBB2_4
## %bb.2:                               ##   in Loop: Header=BB2_1 Depth=1
	movl	-28(%rbp), %eax
	addl	-20(%rbp), %eax
	jmp	.Lvictim_win1_continue
## Variant 344
.Lvictim_win1_var344:
	popq	%rax
	cmpl	$100, -28(%rbp)
	jg	LBB2_4
## %bb.2:                               ##   in Loop: Header=BB2_1 Depth=1
	movl	-28(%rbp), %eax
	addl	-20(%rbp), %eax
	jmp	.Lvictim_win1_continue
## Variant 345
.Lvictim_win1_var345:
	popq	%rax
	cmpl	$100, -28(%rbp)
	jg	LBB2_4
## %bb.2:                               ##   in Loop: Header=BB2_1 Depth=1
	movl	-28(%rbp), %eax
	addl	-20(%rbp), %eax
	jmp	.Lvictim_win1_continue
## Variant 346
.Lvictim_win1_var346:
	popq	%rax
	cmpl	$100, -28(%rbp)
	jg	LBB2_4
## %bb.2:                               ##   in Loop: Header=BB2_1 Depth=1
	movl	-28(%rbp), %eax
	addl	-20(%rbp), %eax
	jmp	.Lvictim_win1_continue
## Variant 347
.Lvictim_win1_var347:
	popq	%rax
	cmpl	$100, -28(%rbp)
	jg	LBB2_4
## %bb.2:                               ##   in Loop: Header=BB2_1 Depth=1
	movl	-28(%rbp), %eax
	addl	-20(%rbp), %eax
	jmp	.Lvictim_win1_continue
## Variant 348
.Lvictim_win1_var348:
	popq	%rax
	cmpl	$100, -28(%rbp)
	jg	LBB2_4
## %bb.2:                               ##   in Loop: Header=BB2_1 Depth=1
	movl	-28(%rbp), %eax
	addl	-20(%rbp), %eax
	jmp	.Lvictim_win1_continue
## Variant 349
.Lvictim_win1_var349:
	popq	%rax
	cmpl	$100, -28(%rbp)
	jg	LBB2_4
## %bb.2:                               ##   in Loop: Header=BB2_1 Depth=1
	movl	-28(%rbp), %eax
	addl	-20(%rbp), %eax
	jmp	.Lvictim_win1_continue
## Variant 350
.Lvictim_win1_var350:
	popq	%rax
	cmpl	$100, -28(%rbp)
	jg	LBB2_4
## %bb.2:                               ##   in Loop: Header=BB2_1 Depth=1
	movl	-28(%rbp), %eax
	addl	-20(%rbp), %eax
	jmp	.Lvictim_win1_continue
## Variant 351
.Lvictim_win1_var351:
	popq	%rax
	cmpl	$100, -28(%rbp)
	jg	LBB2_4
## %bb.2:                               ##   in Loop: Header=BB2_1 Depth=1
	movl	-28(%rbp), %eax
	addl	-20(%rbp), %eax
	jmp	.Lvictim_win1_continue
## Variant 352
.Lvictim_win1_var352:
	popq	%rax
	cmpl	$100, -28(%rbp)
	jg	LBB2_4
## %bb.2:                               ##   in Loop: Header=BB2_1 Depth=1
	movl	-28(%rbp), %eax
	addl	-20(%rbp), %eax
	jmp	.Lvictim_win1_continue
## Variant 353
.Lvictim_win1_var353:
	popq	%rax
	cmpl	$100, -28(%rbp)
	jg	LBB2_4
## %bb.2:                               ##   in Loop: Header=BB2_1 Depth=1
	movl	-28(%rbp), %eax
	addl	-20(%rbp), %eax
	jmp	.Lvictim_win1_continue
## Variant 354
.Lvictim_win1_var354:
	popq	%rax
	cmpl	$100, -28(%rbp)
	jg	LBB2_4
## %bb.2:                               ##   in Loop: Header=BB2_1 Depth=1
	movl	-28(%rbp), %eax
	addl	-20(%rbp), %eax
	jmp	.Lvictim_win1_continue
## Variant 355
.Lvictim_win1_var355:
	popq	%rax
	cmpl	$100, -28(%rbp)
	jg	LBB2_4
## %bb.2:                               ##   in Loop: Header=BB2_1 Depth=1
	movl	-28(%rbp), %eax
	addl	-20(%rbp), %eax
	jmp	.Lvictim_win1_continue
## Variant 356
.Lvictim_win1_var356:
	popq	%rax
	cmpl	$100, -28(%rbp)
	jg	LBB2_4
## %bb.2:                               ##   in Loop: Header=BB2_1 Depth=1
	movl	-28(%rbp), %eax
	addl	-20(%rbp), %eax
	jmp	.Lvictim_win1_continue
## Variant 357
.Lvictim_win1_var357:
	popq	%rax
	cmpl	$100, -28(%rbp)
	jg	LBB2_4
## %bb.2:                               ##   in Loop: Header=BB2_1 Depth=1
	movl	-28(%rbp), %eax
	addl	-20(%rbp), %eax
	jmp	.Lvictim_win1_continue
## Variant 358
.Lvictim_win1_var358:
	popq	%rax
	cmpl	$100, -28(%rbp)
	jg	LBB2_4
## %bb.2:                               ##   in Loop: Header=BB2_1 Depth=1
	movl	-28(%rbp), %eax
	addl	-20(%rbp), %eax
	jmp	.Lvictim_win1_continue
## Variant 359
.Lvictim_win1_var359:
	popq	%rax
	cmpl	$100, -28(%rbp)
	jg	LBB2_4
## %bb.2:                               ##   in Loop: Header=BB2_1 Depth=1
	movl	-28(%rbp), %eax
	addl	-20(%rbp), %eax
	jmp	.Lvictim_win1_continue
## Variant 360
.Lvictim_win1_var360:
	popq	%rax
	cmpl	$100, -28(%rbp)
	jg	LBB2_4
## %bb.2:                               ##   in Loop: Header=BB2_1 Depth=1
	movl	-28(%rbp), %eax
	addl	-20(%rbp), %eax
	jmp	.Lvictim_win1_continue
## Variant 361
.Lvictim_win1_var361:
	popq	%rax
	cmpl	$100, -28(%rbp)
	jg	LBB2_4
## %bb.2:                               ##   in Loop: Header=BB2_1 Depth=1
	movl	-28(%rbp), %eax
	addl	-20(%rbp), %eax
	jmp	.Lvictim_win1_continue
## Variant 362
.Lvictim_win1_var362:
	popq	%rax
	cmpl	$100, -28(%rbp)
	jg	LBB2_4
## %bb.2:                               ##   in Loop: Header=BB2_1 Depth=1
	movl	-28(%rbp), %eax
	addl	-20(%rbp), %eax
	jmp	.Lvictim_win1_continue
## Variant 363
.Lvictim_win1_var363:
	popq	%rax
	cmpl	$100, -28(%rbp)
	jg	LBB2_4
## %bb.2:                               ##   in Loop: Header=BB2_1 Depth=1
	movl	-28(%rbp), %eax
	addl	-20(%rbp), %eax
	jmp	.Lvictim_win1_continue
## Variant 364
.Lvictim_win1_var364:
	popq	%rax
	cmpl	$100, -28(%rbp)
	jg	LBB2_4
## %bb.2:                               ##   in Loop: Header=BB2_1 Depth=1
	movl	-28(%rbp), %eax
	addl	-20(%rbp), %eax
	jmp	.Lvictim_win1_continue
## Variant 365
.Lvictim_win1_var365:
	popq	%rax
	cmpl	$100, -28(%rbp)
	jg	LBB2_4
## %bb.2:                               ##   in Loop: Header=BB2_1 Depth=1
	movl	-28(%rbp), %eax
	addl	-20(%rbp), %eax
	jmp	.Lvictim_win1_continue
## Variant 366
.Lvictim_win1_var366:
	popq	%rax
	cmpl	$100, -28(%rbp)
	jg	LBB2_4
## %bb.2:                               ##   in Loop: Header=BB2_1 Depth=1
	movl	-28(%rbp), %eax
	addl	-20(%rbp), %eax
	jmp	.Lvictim_win1_continue
## Variant 367
.Lvictim_win1_var367:
	popq	%rax
	cmpl	$100, -28(%rbp)
	jg	LBB2_4
## %bb.2:                               ##   in Loop: Header=BB2_1 Depth=1
	movl	-28(%rbp), %eax
	addl	-20(%rbp), %eax
	jmp	.Lvictim_win1_continue
## Variant 368
.Lvictim_win1_var368:
	popq	%rax
	cmpl	$100, -28(%rbp)
	jg	LBB2_4
## %bb.2:                               ##   in Loop: Header=BB2_1 Depth=1
	movl	-28(%rbp), %eax
	addl	-20(%rbp), %eax
	jmp	.Lvictim_win1_continue
## Variant 369
.Lvictim_win1_var369:
	popq	%rax
	cmpl	$100, -28(%rbp)
	jg	LBB2_4
## %bb.2:                               ##   in Loop: Header=BB2_1 Depth=1
	movl	-28(%rbp), %eax
	addl	-20(%rbp), %eax
	jmp	.Lvictim_win1_continue
## Variant 370
.Lvictim_win1_var370:
	popq	%rax
	cmpl	$100, -28(%rbp)
	jg	LBB2_4
## %bb.2:                               ##   in Loop: Header=BB2_1 Depth=1
	movl	-28(%rbp), %eax
	addl	-20(%rbp), %eax
	jmp	.Lvictim_win1_continue
## Variant 371
.Lvictim_win1_var371:
	popq	%rax
	cmpl	$100, -28(%rbp)
	jg	LBB2_4
## %bb.2:                               ##   in Loop: Header=BB2_1 Depth=1
	movl	-28(%rbp), %eax
	addl	-20(%rbp), %eax
	jmp	.Lvictim_win1_continue
## Variant 372
.Lvictim_win1_var372:
	popq	%rax
	cmpl	$100, -28(%rbp)
	jg	LBB2_4
## %bb.2:                               ##   in Loop: Header=BB2_1 Depth=1
	movl	-28(%rbp), %eax
	addl	-20(%rbp), %eax
	jmp	.Lvictim_win1_continue
## Variant 373
.Lvictim_win1_var373:
	popq	%rax
	cmpl	$100, -28(%rbp)
	jg	LBB2_4
## %bb.2:                               ##   in Loop: Header=BB2_1 Depth=1
	movl	-28(%rbp), %eax
	addl	-20(%rbp), %eax
	jmp	.Lvictim_win1_continue
## Variant 374
.Lvictim_win1_var374:
	popq	%rax
	cmpl	$100, -28(%rbp)
	jg	LBB2_4
## %bb.2:                               ##   in Loop: Header=BB2_1 Depth=1
	movl	-28(%rbp), %eax
	addl	-20(%rbp), %eax
	jmp	.Lvictim_win1_continue
## Variant 375
.Lvictim_win1_var375:
	popq	%rax
	cmpl	$100, -28(%rbp)
	jg	LBB2_4
## %bb.2:                               ##   in Loop: Header=BB2_1 Depth=1
	movl	-28(%rbp), %eax
	addl	-20(%rbp), %eax
	jmp	.Lvictim_win1_continue
## Variant 376
.Lvictim_win1_var376:
	popq	%rax
	cmpl	$100, -28(%rbp)
	jg	LBB2_4
## %bb.2:                               ##   in Loop: Header=BB2_1 Depth=1
	movl	-28(%rbp), %eax
	addl	-20(%rbp), %eax
	jmp	.Lvictim_win1_continue
## Variant 377
.Lvictim_win1_var377:
	popq	%rax
	cmpl	$100, -28(%rbp)
	jg	LBB2_4
## %bb.2:                               ##   in Loop: Header=BB2_1 Depth=1
	movl	-28(%rbp), %eax
	addl	-20(%rbp), %eax
	jmp	.Lvictim_win1_continue
## Variant 378
.Lvictim_win1_var378:
	popq	%rax
	cmpl	$100, -28(%rbp)
	jg	LBB2_4
## %bb.2:                               ##   in Loop: Header=BB2_1 Depth=1
	movl	-28(%rbp), %eax
	addl	-20(%rbp), %eax
	jmp	.Lvictim_win1_continue
## Variant 379
.Lvictim_win1_var379:
	popq	%rax
	cmpl	$100, -28(%rbp)
	jg	LBB2_4
## %bb.2:                               ##   in Loop: Header=BB2_1 Depth=1
	movl	-28(%rbp), %eax
	addl	-20(%rbp), %eax
	jmp	.Lvictim_win1_continue
## Variant 380
.Lvictim_win1_var380:
	popq	%rax
	cmpl	$100, -28(%rbp)
	jg	LBB2_4
## %bb.2:                               ##   in Loop: Header=BB2_1 Depth=1
	movl	-28(%rbp), %eax
	addl	-20(%rbp), %eax
	jmp	.Lvictim_win1_continue
## Variant 381
.Lvictim_win1_var381:
	popq	%rax
	cmpl	$100, -28(%rbp)
	jg	LBB2_4
## %bb.2:                               ##   in Loop: Header=BB2_1 Depth=1
	movl	-28(%rbp), %eax
	addl	-20(%rbp), %eax
	jmp	.Lvictim_win1_continue
## Variant 382
.Lvictim_win1_var382:
	popq	%rax
	cmpl	$100, -28(%rbp)
	jg	LBB2_4
## %bb.2:                               ##   in Loop: Header=BB2_1 Depth=1
	movl	-28(%rbp), %eax
	addl	-20(%rbp), %eax
	jmp	.Lvictim_win1_continue
## Variant 383
.Lvictim_win1_var383:
	popq	%rax
	cmpl	$100, -28(%rbp)
	jg	LBB2_4
## %bb.2:                               ##   in Loop: Header=BB2_1 Depth=1
	movl	-28(%rbp), %eax
	addl	-20(%rbp), %eax
	jmp	.Lvictim_win1_continue
## Variant 384
.Lvictim_win1_var384:
	popq	%rax
	cmpl	$100, -28(%rbp)
	jg	LBB2_4
## %bb.2:                               ##   in Loop: Header=BB2_1 Depth=1
	movl	-28(%rbp), %eax
	addl	-20(%rbp), %eax
	jmp	.Lvictim_win1_continue
## Variant 385
.Lvictim_win1_var385:
	popq	%rax
	cmpl	$100, -28(%rbp)
	jg	LBB2_4
## %bb.2:                               ##   in Loop: Header=BB2_1 Depth=1
	movl	-28(%rbp), %eax
	addl	-20(%rbp), %eax
	jmp	.Lvictim_win1_continue
## Variant 386
.Lvictim_win1_var386:
	popq	%rax
	cmpl	$100, -28(%rbp)
	jg	LBB2_4
## %bb.2:                               ##   in Loop: Header=BB2_1 Depth=1
	movl	-28(%rbp), %eax
	addl	-20(%rbp), %eax
	jmp	.Lvictim_win1_continue
## Variant 387
.Lvictim_win1_var387:
	popq	%rax
	cmpl	$100, -28(%rbp)
	jg	LBB2_4
## %bb.2:                               ##   in Loop: Header=BB2_1 Depth=1
	movl	-28(%rbp), %eax
	addl	-20(%rbp), %eax
	jmp	.Lvictim_win1_continue
## Variant 388
.Lvictim_win1_var388:
	popq	%rax
	cmpl	$100, -28(%rbp)
	jg	LBB2_4
## %bb.2:                               ##   in Loop: Header=BB2_1 Depth=1
	movl	-28(%rbp), %eax
	addl	-20(%rbp), %eax
	jmp	.Lvictim_win1_continue
## Variant 389
.Lvictim_win1_var389:
	popq	%rax
	cmpl	$100, -28(%rbp)
	jg	LBB2_4
## %bb.2:                               ##   in Loop: Header=BB2_1 Depth=1
	movl	-28(%rbp), %eax
	addl	-20(%rbp), %eax
	jmp	.Lvictim_win1_continue
## Variant 390
.Lvictim_win1_var390:
	popq	%rax
	cmpl	$100, -28(%rbp)
	jg	LBB2_4
## %bb.2:                               ##   in Loop: Header=BB2_1 Depth=1
	movl	-28(%rbp), %eax
	addl	-20(%rbp), %eax
	jmp	.Lvictim_win1_continue
## Variant 391
.Lvictim_win1_var391:
	popq	%rax
	cmpl	$100, -28(%rbp)
	jg	LBB2_4
## %bb.2:                               ##   in Loop: Header=BB2_1 Depth=1
	movl	-28(%rbp), %eax
	addl	-20(%rbp), %eax
	jmp	.Lvictim_win1_continue
## Variant 392
.Lvictim_win1_var392:
	popq	%rax
	cmpl	$100, -28(%rbp)
	jg	LBB2_4
## %bb.2:                               ##   in Loop: Header=BB2_1 Depth=1
	movl	-28(%rbp), %eax
	addl	-20(%rbp), %eax
	jmp	.Lvictim_win1_continue
## Variant 393
.Lvictim_win1_var393:
	popq	%rax
	cmpl	$100, -28(%rbp)
	jg	LBB2_4
## %bb.2:                               ##   in Loop: Header=BB2_1 Depth=1
	movl	-28(%rbp), %eax
	addl	-20(%rbp), %eax
	jmp	.Lvictim_win1_continue
## Variant 394
.Lvictim_win1_var394:
	popq	%rax
	cmpl	$100, -28(%rbp)
	jg	LBB2_4
## %bb.2:                               ##   in Loop: Header=BB2_1 Depth=1
	movl	-28(%rbp), %eax
	addl	-20(%rbp), %eax
	jmp	.Lvictim_win1_continue
## Variant 395
.Lvictim_win1_var395:
	popq	%rax
	cmpl	$100, -28(%rbp)
	jg	LBB2_4
## %bb.2:                               ##   in Loop: Header=BB2_1 Depth=1
	movl	-28(%rbp), %eax
	addl	-20(%rbp), %eax
	jmp	.Lvictim_win1_continue
## Variant 396
.Lvictim_win1_var396:
	popq	%rax
	cmpl	$100, -28(%rbp)
	jg	LBB2_4
## %bb.2:                               ##   in Loop: Header=BB2_1 Depth=1
	movl	-28(%rbp), %eax
	addl	-20(%rbp), %eax
	jmp	.Lvictim_win1_continue
## Variant 397
.Lvictim_win1_var397:
	popq	%rax
	cmpl	$100, -28(%rbp)
	jg	LBB2_4
## %bb.2:                               ##   in Loop: Header=BB2_1 Depth=1
	movl	-28(%rbp), %eax
	addl	-20(%rbp), %eax
	jmp	.Lvictim_win1_continue
## Variant 398
.Lvictim_win1_var398:
	popq	%rax
	cmpl	$100, -28(%rbp)
	jg	LBB2_4
## %bb.2:                               ##   in Loop: Header=BB2_1 Depth=1
	movl	-28(%rbp), %eax
	addl	-20(%rbp), %eax
	jmp	.Lvictim_win1_continue
## Variant 399
.Lvictim_win1_var399:
	popq	%rax
	cmpl	$100, -28(%rbp)
	jg	LBB2_4
## %bb.2:                               ##   in Loop: Header=BB2_1 Depth=1
	movl	-28(%rbp), %eax
	addl	-20(%rbp), %eax
	jmp	.Lvictim_win1_continue
## Variant 400
.Lvictim_win1_var400:
	popq	%rax
	cmpl	$100, -28(%rbp)
	jg	LBB2_4
## %bb.2:                               ##   in Loop: Header=BB2_1 Depth=1
	movl	-28(%rbp), %eax
	addl	-20(%rbp), %eax
	jmp	.Lvictim_win1_continue
## Variant 401
.Lvictim_win1_var401:
	popq	%rax
	cmpl	$100, -28(%rbp)
	jg	LBB2_4
## %bb.2:                               ##   in Loop: Header=BB2_1 Depth=1
	movl	-28(%rbp), %eax
	addl	-20(%rbp), %eax
	jmp	.Lvictim_win1_continue
## Variant 402
.Lvictim_win1_var402:
	popq	%rax
	cmpl	$100, -28(%rbp)
	jg	LBB2_4
## %bb.2:                               ##   in Loop: Header=BB2_1 Depth=1
	movl	-28(%rbp), %eax
	addl	-20(%rbp), %eax
	jmp	.Lvictim_win1_continue
## Variant 403
.Lvictim_win1_var403:
	popq	%rax
	cmpl	$100, -28(%rbp)
	jg	LBB2_4
## %bb.2:                               ##   in Loop: Header=BB2_1 Depth=1
	movl	-28(%rbp), %eax
	addl	-20(%rbp), %eax
	jmp	.Lvictim_win1_continue
## Variant 404
.Lvictim_win1_var404:
	popq	%rax
	cmpl	$100, -28(%rbp)
	jg	LBB2_4
## %bb.2:                               ##   in Loop: Header=BB2_1 Depth=1
	movl	-28(%rbp), %eax
	addl	-20(%rbp), %eax
	jmp	.Lvictim_win1_continue
## Variant 405
.Lvictim_win1_var405:
	popq	%rax
	cmpl	$100, -28(%rbp)
	jg	LBB2_4
## %bb.2:                               ##   in Loop: Header=BB2_1 Depth=1
	movl	-28(%rbp), %eax
	addl	-20(%rbp), %eax
	jmp	.Lvictim_win1_continue
## Variant 406
.Lvictim_win1_var406:
	popq	%rax
	cmpl	$100, -28(%rbp)
	jg	LBB2_4
## %bb.2:                               ##   in Loop: Header=BB2_1 Depth=1
	movl	-28(%rbp), %eax
	addl	-20(%rbp), %eax
	jmp	.Lvictim_win1_continue
## Variant 407
.Lvictim_win1_var407:
	popq	%rax
	cmpl	$100, -28(%rbp)
	jg	LBB2_4
## %bb.2:                               ##   in Loop: Header=BB2_1 Depth=1
	movl	-28(%rbp), %eax
	addl	-20(%rbp), %eax
	jmp	.Lvictim_win1_continue
## Variant 408
.Lvictim_win1_var408:
	popq	%rax
	cmpl	$100, -28(%rbp)
	jg	LBB2_4
## %bb.2:                               ##   in Loop: Header=BB2_1 Depth=1
	movl	-28(%rbp), %eax
	addl	-20(%rbp), %eax
	jmp	.Lvictim_win1_continue
## Variant 409
.Lvictim_win1_var409:
	popq	%rax
	cmpl	$100, -28(%rbp)
	jg	LBB2_4
## %bb.2:                               ##   in Loop: Header=BB2_1 Depth=1
	movl	-28(%rbp), %eax
	addl	-20(%rbp), %eax
	jmp	.Lvictim_win1_continue
## Variant 410
.Lvictim_win1_var410:
	popq	%rax
	cmpl	$100, -28(%rbp)
	jg	LBB2_4
## %bb.2:                               ##   in Loop: Header=BB2_1 Depth=1
	movl	-28(%rbp), %eax
	addl	-20(%rbp), %eax
	jmp	.Lvictim_win1_continue
## Variant 411
.Lvictim_win1_var411:
	popq	%rax
	cmpl	$100, -28(%rbp)
	jg	LBB2_4
## %bb.2:                               ##   in Loop: Header=BB2_1 Depth=1
	movl	-28(%rbp), %eax
	addl	-20(%rbp), %eax
	jmp	.Lvictim_win1_continue
## Variant 412
.Lvictim_win1_var412:
	popq	%rax
	cmpl	$100, -28(%rbp)
	jg	LBB2_4
## %bb.2:                               ##   in Loop: Header=BB2_1 Depth=1
	movl	-28(%rbp), %eax
	addl	-20(%rbp), %eax
	jmp	.Lvictim_win1_continue
## Variant 413
.Lvictim_win1_var413:
	popq	%rax
	cmpl	$100, -28(%rbp)
	jg	LBB2_4
## %bb.2:                               ##   in Loop: Header=BB2_1 Depth=1
	movl	-28(%rbp), %eax
	addl	-20(%rbp), %eax
	jmp	.Lvictim_win1_continue
## Variant 414
.Lvictim_win1_var414:
	popq	%rax
	cmpl	$100, -28(%rbp)
	jg	LBB2_4
## %bb.2:                               ##   in Loop: Header=BB2_1 Depth=1
	movl	-28(%rbp), %eax
	addl	-20(%rbp), %eax
	jmp	.Lvictim_win1_continue
## Variant 415
.Lvictim_win1_var415:
	popq	%rax
	cmpl	$100, -28(%rbp)
	jg	LBB2_4
## %bb.2:                               ##   in Loop: Header=BB2_1 Depth=1
	movl	-28(%rbp), %eax
	addl	-20(%rbp), %eax
	jmp	.Lvictim_win1_continue
## Variant 416
.Lvictim_win1_var416:
	popq	%rax
	cmpl	$100, -28(%rbp)
	jg	LBB2_4
## %bb.2:                               ##   in Loop: Header=BB2_1 Depth=1
	movl	-28(%rbp), %eax
	addl	-20(%rbp), %eax
	jmp	.Lvictim_win1_continue
## Variant 417
.Lvictim_win1_var417:
	popq	%rax
	cmpl	$100, -28(%rbp)
	jg	LBB2_4
## %bb.2:                               ##   in Loop: Header=BB2_1 Depth=1
	movl	-28(%rbp), %eax
	addl	-20(%rbp), %eax
	jmp	.Lvictim_win1_continue
## Variant 418
.Lvictim_win1_var418:
	popq	%rax
	cmpl	$100, -28(%rbp)
	jg	LBB2_4
## %bb.2:                               ##   in Loop: Header=BB2_1 Depth=1
	movl	-28(%rbp), %eax
	addl	-20(%rbp), %eax
	jmp	.Lvictim_win1_continue
## Variant 419
.Lvictim_win1_var419:
	popq	%rax
	cmpl	$100, -28(%rbp)
	jg	LBB2_4
## %bb.2:                               ##   in Loop: Header=BB2_1 Depth=1
	movl	-28(%rbp), %eax
	addl	-20(%rbp), %eax
	jmp	.Lvictim_win1_continue
## Variant 420
.Lvictim_win1_var420:
	popq	%rax
	cmpl	$100, -28(%rbp)
	jg	LBB2_4
## %bb.2:                               ##   in Loop: Header=BB2_1 Depth=1
	movl	-28(%rbp), %eax
	addl	-20(%rbp), %eax
	jmp	.Lvictim_win1_continue
## Variant 421
.Lvictim_win1_var421:
	popq	%rax
	cmpl	$100, -28(%rbp)
	jg	LBB2_4
## %bb.2:                               ##   in Loop: Header=BB2_1 Depth=1
	movl	-28(%rbp), %eax
	addl	-20(%rbp), %eax
	jmp	.Lvictim_win1_continue
## Variant 422
.Lvictim_win1_var422:
	popq	%rax
	cmpl	$100, -28(%rbp)
	jg	LBB2_4
## %bb.2:                               ##   in Loop: Header=BB2_1 Depth=1
	movl	-28(%rbp), %eax
	addl	-20(%rbp), %eax
	jmp	.Lvictim_win1_continue
## Variant 423
.Lvictim_win1_var423:
	popq	%rax
	cmpl	$100, -28(%rbp)
	jg	LBB2_4
## %bb.2:                               ##   in Loop: Header=BB2_1 Depth=1
	movl	-28(%rbp), %eax
	addl	-20(%rbp), %eax
	jmp	.Lvictim_win1_continue
## Variant 424
.Lvictim_win1_var424:
	popq	%rax
	cmpl	$100, -28(%rbp)
	jg	LBB2_4
## %bb.2:                               ##   in Loop: Header=BB2_1 Depth=1
	movl	-28(%rbp), %eax
	addl	-20(%rbp), %eax
	jmp	.Lvictim_win1_continue
## Variant 425
.Lvictim_win1_var425:
	popq	%rax
	cmpl	$100, -28(%rbp)
	jg	LBB2_4
## %bb.2:                               ##   in Loop: Header=BB2_1 Depth=1
	movl	-28(%rbp), %eax
	addl	-20(%rbp), %eax
	jmp	.Lvictim_win1_continue
## Variant 426
.Lvictim_win1_var426:
	popq	%rax
	cmpl	$100, -28(%rbp)
	jg	LBB2_4
## %bb.2:                               ##   in Loop: Header=BB2_1 Depth=1
	movl	-28(%rbp), %eax
	addl	-20(%rbp), %eax
	jmp	.Lvictim_win1_continue
## Variant 427
.Lvictim_win1_var427:
	popq	%rax
	cmpl	$100, -28(%rbp)
	jg	LBB2_4
## %bb.2:                               ##   in Loop: Header=BB2_1 Depth=1
	movl	-28(%rbp), %eax
	addl	-20(%rbp), %eax
	jmp	.Lvictim_win1_continue
## Variant 428
.Lvictim_win1_var428:
	popq	%rax
	cmpl	$100, -28(%rbp)
	jg	LBB2_4
## %bb.2:                               ##   in Loop: Header=BB2_1 Depth=1
	movl	-28(%rbp), %eax
	addl	-20(%rbp), %eax
	jmp	.Lvictim_win1_continue
## Variant 429
.Lvictim_win1_var429:
	popq	%rax
	cmpl	$100, -28(%rbp)
	jg	LBB2_4
## %bb.2:                               ##   in Loop: Header=BB2_1 Depth=1
	movl	-28(%rbp), %eax
	addl	-20(%rbp), %eax
	jmp	.Lvictim_win1_continue
## Variant 430
.Lvictim_win1_var430:
	popq	%rax
	cmpl	$100, -28(%rbp)
	jg	LBB2_4
## %bb.2:                               ##   in Loop: Header=BB2_1 Depth=1
	movl	-28(%rbp), %eax
	addl	-20(%rbp), %eax
	jmp	.Lvictim_win1_continue
## Variant 431
.Lvictim_win1_var431:
	popq	%rax
	cmpl	$100, -28(%rbp)
	jg	LBB2_4
## %bb.2:                               ##   in Loop: Header=BB2_1 Depth=1
	movl	-28(%rbp), %eax
	addl	-20(%rbp), %eax
	jmp	.Lvictim_win1_continue
## Variant 432
.Lvictim_win1_var432:
	popq	%rax
	cmpl	$100, -28(%rbp)
	jg	LBB2_4
## %bb.2:                               ##   in Loop: Header=BB2_1 Depth=1
	movl	-28(%rbp), %eax
	addl	-20(%rbp), %eax
	jmp	.Lvictim_win1_continue
## Variant 433
.Lvictim_win1_var433:
	popq	%rax
	cmpl	$100, -28(%rbp)
	jg	LBB2_4
## %bb.2:                               ##   in Loop: Header=BB2_1 Depth=1
	movl	-28(%rbp), %eax
	addl	-20(%rbp), %eax
	jmp	.Lvictim_win1_continue
## Variant 434
.Lvictim_win1_var434:
	popq	%rax
	cmpl	$100, -28(%rbp)
	jg	LBB2_4
## %bb.2:                               ##   in Loop: Header=BB2_1 Depth=1
	movl	-28(%rbp), %eax
	addl	-20(%rbp), %eax
	jmp	.Lvictim_win1_continue
## Variant 435
.Lvictim_win1_var435:
	popq	%rax
	cmpl	$100, -28(%rbp)
	jg	LBB2_4
## %bb.2:                               ##   in Loop: Header=BB2_1 Depth=1
	movl	-28(%rbp), %eax
	addl	-20(%rbp), %eax
	jmp	.Lvictim_win1_continue
## Variant 436
.Lvictim_win1_var436:
	popq	%rax
	cmpl	$100, -28(%rbp)
	jg	LBB2_4
## %bb.2:                               ##   in Loop: Header=BB2_1 Depth=1
	movl	-28(%rbp), %eax
	addl	-20(%rbp), %eax
	jmp	.Lvictim_win1_continue
## Variant 437
.Lvictim_win1_var437:
	popq	%rax
	cmpl	$100, -28(%rbp)
	jg	LBB2_4
## %bb.2:                               ##   in Loop: Header=BB2_1 Depth=1
	movl	-28(%rbp), %eax
	addl	-20(%rbp), %eax
	jmp	.Lvictim_win1_continue
## Variant 438
.Lvictim_win1_var438:
	popq	%rax
	cmpl	$100, -28(%rbp)
	jg	LBB2_4
## %bb.2:                               ##   in Loop: Header=BB2_1 Depth=1
	movl	-28(%rbp), %eax
	addl	-20(%rbp), %eax
	jmp	.Lvictim_win1_continue
## Variant 439
.Lvictim_win1_var439:
	popq	%rax
	cmpl	$100, -28(%rbp)
	jg	LBB2_4
## %bb.2:                               ##   in Loop: Header=BB2_1 Depth=1
	movl	-28(%rbp), %eax
	addl	-20(%rbp), %eax
	jmp	.Lvictim_win1_continue
## Variant 440
.Lvictim_win1_var440:
	popq	%rax
	cmpl	$100, -28(%rbp)
	jg	LBB2_4
## %bb.2:                               ##   in Loop: Header=BB2_1 Depth=1
	movl	-28(%rbp), %eax
	addl	-20(%rbp), %eax
	jmp	.Lvictim_win1_continue
## Variant 441
.Lvictim_win1_var441:
	popq	%rax
	cmpl	$100, -28(%rbp)
	jg	LBB2_4
## %bb.2:                               ##   in Loop: Header=BB2_1 Depth=1
	movl	-28(%rbp), %eax
	addl	-20(%rbp), %eax
	jmp	.Lvictim_win1_continue
## Variant 442
.Lvictim_win1_var442:
	popq	%rax
	cmpl	$100, -28(%rbp)
	jg	LBB2_4
## %bb.2:                               ##   in Loop: Header=BB2_1 Depth=1
	movl	-28(%rbp), %eax
	addl	-20(%rbp), %eax
	jmp	.Lvictim_win1_continue
## Variant 443
.Lvictim_win1_var443:
	popq	%rax
	cmpl	$100, -28(%rbp)
	jg	LBB2_4
## %bb.2:                               ##   in Loop: Header=BB2_1 Depth=1
	movl	-28(%rbp), %eax
	addl	-20(%rbp), %eax
	jmp	.Lvictim_win1_continue
## Variant 444
.Lvictim_win1_var444:
	popq	%rax
	cmpl	$100, -28(%rbp)
	jg	LBB2_4
## %bb.2:                               ##   in Loop: Header=BB2_1 Depth=1
	movl	-28(%rbp), %eax
	addl	-20(%rbp), %eax
	jmp	.Lvictim_win1_continue
## Variant 445
.Lvictim_win1_var445:
	popq	%rax
	cmpl	$100, -28(%rbp)
	jg	LBB2_4
## %bb.2:                               ##   in Loop: Header=BB2_1 Depth=1
	movl	-28(%rbp), %eax
	addl	-20(%rbp), %eax
	jmp	.Lvictim_win1_continue
## Variant 446
.Lvictim_win1_var446:
	popq	%rax
	cmpl	$100, -28(%rbp)
	jg	LBB2_4
## %bb.2:                               ##   in Loop: Header=BB2_1 Depth=1
	movl	-28(%rbp), %eax
	addl	-20(%rbp), %eax
	jmp	.Lvictim_win1_continue
## Variant 447
.Lvictim_win1_var447:
	popq	%rax
	cmpl	$100, -28(%rbp)
	jg	LBB2_4
## %bb.2:                               ##   in Loop: Header=BB2_1 Depth=1
	movl	-28(%rbp), %eax
	addl	-20(%rbp), %eax
	jmp	.Lvictim_win1_continue
## Variant 448
.Lvictim_win1_var448:
	popq	%rax
	cmpl	$100, -28(%rbp)
	jg	LBB2_4
## %bb.2:                               ##   in Loop: Header=BB2_1 Depth=1
	movl	-28(%rbp), %eax
	addl	-20(%rbp), %eax
	jmp	.Lvictim_win1_continue
## Variant 449
.Lvictim_win1_var449:
	popq	%rax
	cmpl	$100, -28(%rbp)
	jg	LBB2_4
## %bb.2:                               ##   in Loop: Header=BB2_1 Depth=1
	movl	-28(%rbp), %eax
	addl	-20(%rbp), %eax
	jmp	.Lvictim_win1_continue
## Variant 450
.Lvictim_win1_var450:
	popq	%rax
	cmpl	$100, -28(%rbp)
	jg	LBB2_4
## %bb.2:                               ##   in Loop: Header=BB2_1 Depth=1
	movl	-28(%rbp), %eax
	addl	-20(%rbp), %eax
	jmp	.Lvictim_win1_continue
## Variant 451
.Lvictim_win1_var451:
	popq	%rax
	cmpl	$100, -28(%rbp)
	jg	LBB2_4
## %bb.2:                               ##   in Loop: Header=BB2_1 Depth=1
	movl	-28(%rbp), %eax
	addl	-20(%rbp), %eax
	jmp	.Lvictim_win1_continue
## Variant 452
.Lvictim_win1_var452:
	popq	%rax
	cmpl	$100, -28(%rbp)
	jg	LBB2_4
## %bb.2:                               ##   in Loop: Header=BB2_1 Depth=1
	movl	-28(%rbp), %eax
	addl	-20(%rbp), %eax
	jmp	.Lvictim_win1_continue
## Variant 453
.Lvictim_win1_var453:
	popq	%rax
	cmpl	$100, -28(%rbp)
	jg	LBB2_4
## %bb.2:                               ##   in Loop: Header=BB2_1 Depth=1
	movl	-28(%rbp), %eax
	addl	-20(%rbp), %eax
	jmp	.Lvictim_win1_continue
## Variant 454
.Lvictim_win1_var454:
	popq	%rax
	cmpl	$100, -28(%rbp)
	jg	LBB2_4
## %bb.2:                               ##   in Loop: Header=BB2_1 Depth=1
	movl	-28(%rbp), %eax
	addl	-20(%rbp), %eax
	jmp	.Lvictim_win1_continue
## Variant 455
.Lvictim_win1_var455:
	popq	%rax
	cmpl	$100, -28(%rbp)
	jg	LBB2_4
## %bb.2:                               ##   in Loop: Header=BB2_1 Depth=1
	movl	-28(%rbp), %eax
	addl	-20(%rbp), %eax
	jmp	.Lvictim_win1_continue
## Variant 456
.Lvictim_win1_var456:
	popq	%rax
	cmpl	$100, -28(%rbp)
	jg	LBB2_4
## %bb.2:                               ##   in Loop: Header=BB2_1 Depth=1
	movl	-28(%rbp), %eax
	addl	-20(%rbp), %eax
	jmp	.Lvictim_win1_continue
## Variant 457
.Lvictim_win1_var457:
	popq	%rax
	cmpl	$100, -28(%rbp)
	jg	LBB2_4
## %bb.2:                               ##   in Loop: Header=BB2_1 Depth=1
	movl	-28(%rbp), %eax
	addl	-20(%rbp), %eax
	jmp	.Lvictim_win1_continue
## Variant 458
.Lvictim_win1_var458:
	popq	%rax
	cmpl	$100, -28(%rbp)
	jg	LBB2_4
## %bb.2:                               ##   in Loop: Header=BB2_1 Depth=1
	movl	-28(%rbp), %eax
	addl	-20(%rbp), %eax
	jmp	.Lvictim_win1_continue
## Variant 459
.Lvictim_win1_var459:
	popq	%rax
	cmpl	$100, -28(%rbp)
	jg	LBB2_4
## %bb.2:                               ##   in Loop: Header=BB2_1 Depth=1
	movl	-28(%rbp), %eax
	addl	-20(%rbp), %eax
	jmp	.Lvictim_win1_continue
## Variant 460
.Lvictim_win1_var460:
	popq	%rax
	cmpl	$100, -28(%rbp)
	jg	LBB2_4
## %bb.2:                               ##   in Loop: Header=BB2_1 Depth=1
	movl	-28(%rbp), %eax
	addl	-20(%rbp), %eax
	jmp	.Lvictim_win1_continue
## Variant 461
.Lvictim_win1_var461:
	popq	%rax
	cmpl	$100, -28(%rbp)
	jg	LBB2_4
## %bb.2:                               ##   in Loop: Header=BB2_1 Depth=1
	movl	-28(%rbp), %eax
	addl	-20(%rbp), %eax
	jmp	.Lvictim_win1_continue
## Variant 462
.Lvictim_win1_var462:
	popq	%rax
	cmpl	$100, -28(%rbp)
	jg	LBB2_4
## %bb.2:                               ##   in Loop: Header=BB2_1 Depth=1
	movl	-28(%rbp), %eax
	addl	-20(%rbp), %eax
	jmp	.Lvictim_win1_continue
## Variant 463
.Lvictim_win1_var463:
	popq	%rax
	cmpl	$100, -28(%rbp)
	jg	LBB2_4
## %bb.2:                               ##   in Loop: Header=BB2_1 Depth=1
	movl	-28(%rbp), %eax
	addl	-20(%rbp), %eax
	jmp	.Lvictim_win1_continue
## Variant 464
.Lvictim_win1_var464:
	popq	%rax
	cmpl	$100, -28(%rbp)
	jg	LBB2_4
## %bb.2:                               ##   in Loop: Header=BB2_1 Depth=1
	movl	-28(%rbp), %eax
	addl	-20(%rbp), %eax
	jmp	.Lvictim_win1_continue
## Variant 465
.Lvictim_win1_var465:
	popq	%rax
	cmpl	$100, -28(%rbp)
	jg	LBB2_4
## %bb.2:                               ##   in Loop: Header=BB2_1 Depth=1
	movl	-28(%rbp), %eax
	addl	-20(%rbp), %eax
	jmp	.Lvictim_win1_continue
## Variant 466
.Lvictim_win1_var466:
	popq	%rax
	cmpl	$100, -28(%rbp)
	jg	LBB2_4
## %bb.2:                               ##   in Loop: Header=BB2_1 Depth=1
	movl	-28(%rbp), %eax
	addl	-20(%rbp), %eax
	jmp	.Lvictim_win1_continue
## Variant 467
.Lvictim_win1_var467:
	popq	%rax
	cmpl	$100, -28(%rbp)
	jg	LBB2_4
## %bb.2:                               ##   in Loop: Header=BB2_1 Depth=1
	movl	-28(%rbp), %eax
	addl	-20(%rbp), %eax
	jmp	.Lvictim_win1_continue
## Variant 468
.Lvictim_win1_var468:
	popq	%rax
	cmpl	$100, -28(%rbp)
	jg	LBB2_4
## %bb.2:                               ##   in Loop: Header=BB2_1 Depth=1
	movl	-28(%rbp), %eax
	addl	-20(%rbp), %eax
	jmp	.Lvictim_win1_continue
## Variant 469
.Lvictim_win1_var469:
	popq	%rax
	cmpl	$100, -28(%rbp)
	jg	LBB2_4
## %bb.2:                               ##   in Loop: Header=BB2_1 Depth=1
	movl	-28(%rbp), %eax
	addl	-20(%rbp), %eax
	jmp	.Lvictim_win1_continue
## Variant 470
.Lvictim_win1_var470:
	popq	%rax
	cmpl	$100, -28(%rbp)
	jg	LBB2_4
## %bb.2:                               ##   in Loop: Header=BB2_1 Depth=1
	movl	-28(%rbp), %eax
	addl	-20(%rbp), %eax
	jmp	.Lvictim_win1_continue
## Variant 471
.Lvictim_win1_var471:
	popq	%rax
	cmpl	$100, -28(%rbp)
	jg	LBB2_4
## %bb.2:                               ##   in Loop: Header=BB2_1 Depth=1
	movl	-28(%rbp), %eax
	addl	-20(%rbp), %eax
	jmp	.Lvictim_win1_continue
## Variant 472
.Lvictim_win1_var472:
	popq	%rax
	cmpl	$100, -28(%rbp)
	jg	LBB2_4
## %bb.2:                               ##   in Loop: Header=BB2_1 Depth=1
	movl	-28(%rbp), %eax
	addl	-20(%rbp), %eax
	jmp	.Lvictim_win1_continue
## Variant 473
.Lvictim_win1_var473:
	popq	%rax
	cmpl	$100, -28(%rbp)
	jg	LBB2_4
## %bb.2:                               ##   in Loop: Header=BB2_1 Depth=1
	movl	-28(%rbp), %eax
	addl	-20(%rbp), %eax
	jmp	.Lvictim_win1_continue
## Variant 474
.Lvictim_win1_var474:
	popq	%rax
	cmpl	$100, -28(%rbp)
	jg	LBB2_4
## %bb.2:                               ##   in Loop: Header=BB2_1 Depth=1
	movl	-28(%rbp), %eax
	addl	-20(%rbp), %eax
	jmp	.Lvictim_win1_continue
## Variant 475
.Lvictim_win1_var475:
	popq	%rax
	cmpl	$100, -28(%rbp)
	jg	LBB2_4
## %bb.2:                               ##   in Loop: Header=BB2_1 Depth=1
	movl	-28(%rbp), %eax
	addl	-20(%rbp), %eax
	jmp	.Lvictim_win1_continue
## Variant 476
.Lvictim_win1_var476:
	popq	%rax
	cmpl	$100, -28(%rbp)
	jg	LBB2_4
## %bb.2:                               ##   in Loop: Header=BB2_1 Depth=1
	movl	-28(%rbp), %eax
	addl	-20(%rbp), %eax
	jmp	.Lvictim_win1_continue
## Variant 477
.Lvictim_win1_var477:
	popq	%rax
	cmpl	$100, -28(%rbp)
	jg	LBB2_4
## %bb.2:                               ##   in Loop: Header=BB2_1 Depth=1
	movl	-28(%rbp), %eax
	addl	-20(%rbp), %eax
	jmp	.Lvictim_win1_continue
## Variant 478
.Lvictim_win1_var478:
	popq	%rax
	cmpl	$100, -28(%rbp)
	jg	LBB2_4
## %bb.2:                               ##   in Loop: Header=BB2_1 Depth=1
	movl	-28(%rbp), %eax
	addl	-20(%rbp), %eax
	jmp	.Lvictim_win1_continue
## Variant 479
.Lvictim_win1_var479:
	popq	%rax
	cmpl	$100, -28(%rbp)
	jg	LBB2_4
## %bb.2:                               ##   in Loop: Header=BB2_1 Depth=1
	movl	-28(%rbp), %eax
	addl	-20(%rbp), %eax
	jmp	.Lvictim_win1_continue
## Variant 480
.Lvictim_win1_var480:
	popq	%rax
	cmpl	$100, -28(%rbp)
	jg	LBB2_4
## %bb.2:                               ##   in Loop: Header=BB2_1 Depth=1
	movl	-28(%rbp), %eax
	addl	-20(%rbp), %eax
	jmp	.Lvictim_win1_continue
## Variant 481
.Lvictim_win1_var481:
	popq	%rax
	cmpl	$100, -28(%rbp)
	jg	LBB2_4
## %bb.2:                               ##   in Loop: Header=BB2_1 Depth=1
	movl	-28(%rbp), %eax
	addl	-20(%rbp), %eax
	jmp	.Lvictim_win1_continue
## Variant 482
.Lvictim_win1_var482:
	popq	%rax
	cmpl	$100, -28(%rbp)
	jg	LBB2_4
## %bb.2:                               ##   in Loop: Header=BB2_1 Depth=1
	movl	-28(%rbp), %eax
	addl	-20(%rbp), %eax
	jmp	.Lvictim_win1_continue
## Variant 483
.Lvictim_win1_var483:
	popq	%rax
	cmpl	$100, -28(%rbp)
	jg	LBB2_4
## %bb.2:                               ##   in Loop: Header=BB2_1 Depth=1
	movl	-28(%rbp), %eax
	addl	-20(%rbp), %eax
	jmp	.Lvictim_win1_continue
## Variant 484
.Lvictim_win1_var484:
	popq	%rax
	cmpl	$100, -28(%rbp)
	jg	LBB2_4
## %bb.2:                               ##   in Loop: Header=BB2_1 Depth=1
	movl	-28(%rbp), %eax
	addl	-20(%rbp), %eax
	jmp	.Lvictim_win1_continue
## Variant 485
.Lvictim_win1_var485:
	popq	%rax
	cmpl	$100, -28(%rbp)
	jg	LBB2_4
## %bb.2:                               ##   in Loop: Header=BB2_1 Depth=1
	movl	-28(%rbp), %eax
	addl	-20(%rbp), %eax
	jmp	.Lvictim_win1_continue
## Variant 486
.Lvictim_win1_var486:
	popq	%rax
	cmpl	$100, -28(%rbp)
	jg	LBB2_4
## %bb.2:                               ##   in Loop: Header=BB2_1 Depth=1
	movl	-28(%rbp), %eax
	addl	-20(%rbp), %eax
	jmp	.Lvictim_win1_continue
## Variant 487
.Lvictim_win1_var487:
	popq	%rax
	cmpl	$100, -28(%rbp)
	jg	LBB2_4
## %bb.2:                               ##   in Loop: Header=BB2_1 Depth=1
	movl	-28(%rbp), %eax
	addl	-20(%rbp), %eax
	jmp	.Lvictim_win1_continue
## Variant 488
.Lvictim_win1_var488:
	popq	%rax
	cmpl	$100, -28(%rbp)
	jg	LBB2_4
## %bb.2:                               ##   in Loop: Header=BB2_1 Depth=1
	movl	-28(%rbp), %eax
	addl	-20(%rbp), %eax
	jmp	.Lvictim_win1_continue
## Variant 489
.Lvictim_win1_var489:
	popq	%rax
	cmpl	$100, -28(%rbp)
	jg	LBB2_4
## %bb.2:                               ##   in Loop: Header=BB2_1 Depth=1
	movl	-28(%rbp), %eax
	addl	-20(%rbp), %eax
	jmp	.Lvictim_win1_continue
## Variant 490
.Lvictim_win1_var490:
	popq	%rax
	cmpl	$100, -28(%rbp)
	jg	LBB2_4
## %bb.2:                               ##   in Loop: Header=BB2_1 Depth=1
	movl	-28(%rbp), %eax
	addl	-20(%rbp), %eax
	jmp	.Lvictim_win1_continue
## Variant 491
.Lvictim_win1_var491:
	popq	%rax
	cmpl	$100, -28(%rbp)
	jg	LBB2_4
## %bb.2:                               ##   in Loop: Header=BB2_1 Depth=1
	movl	-28(%rbp), %eax
	addl	-20(%rbp), %eax
	jmp	.Lvictim_win1_continue
## Variant 492
.Lvictim_win1_var492:
	popq	%rax
	cmpl	$100, -28(%rbp)
	jg	LBB2_4
## %bb.2:                               ##   in Loop: Header=BB2_1 Depth=1
	movl	-28(%rbp), %eax
	addl	-20(%rbp), %eax
	jmp	.Lvictim_win1_continue
## Variant 493
.Lvictim_win1_var493:
	popq	%rax
	cmpl	$100, -28(%rbp)
	jg	LBB2_4
## %bb.2:                               ##   in Loop: Header=BB2_1 Depth=1
	movl	-28(%rbp), %eax
	addl	-20(%rbp), %eax
	jmp	.Lvictim_win1_continue
## Variant 494
.Lvictim_win1_var494:
	popq	%rax
	cmpl	$100, -28(%rbp)
	jg	LBB2_4
## %bb.2:                               ##   in Loop: Header=BB2_1 Depth=1
	movl	-28(%rbp), %eax
	addl	-20(%rbp), %eax
	jmp	.Lvictim_win1_continue
## Variant 495
.Lvictim_win1_var495:
	popq	%rax
	cmpl	$100, -28(%rbp)
	jg	LBB2_4
## %bb.2:                               ##   in Loop: Header=BB2_1 Depth=1
	movl	-28(%rbp), %eax
	addl	-20(%rbp), %eax
	jmp	.Lvictim_win1_continue
## Variant 496
.Lvictim_win1_var496:
	popq	%rax
	cmpl	$100, -28(%rbp)
	jg	LBB2_4
## %bb.2:                               ##   in Loop: Header=BB2_1 Depth=1
	movl	-28(%rbp), %eax
	addl	-20(%rbp), %eax
	jmp	.Lvictim_win1_continue
## Variant 497
.Lvictim_win1_var497:
	popq	%rax
	cmpl	$100, -28(%rbp)
	jg	LBB2_4
## %bb.2:                               ##   in Loop: Header=BB2_1 Depth=1
	movl	-28(%rbp), %eax
	addl	-20(%rbp), %eax
	jmp	.Lvictim_win1_continue
## Variant 498
.Lvictim_win1_var498:
	popq	%rax
	cmpl	$100, -28(%rbp)
	jg	LBB2_4
## %bb.2:                               ##   in Loop: Header=BB2_1 Depth=1
	movl	-28(%rbp), %eax
	addl	-20(%rbp), %eax
	jmp	.Lvictim_win1_continue
## Variant 499
.Lvictim_win1_var499:
	popq	%rax
	cmpl	$100, -28(%rbp)
	jg	LBB2_4
## %bb.2:                               ##   in Loop: Header=BB2_1 Depth=1
	movl	-28(%rbp), %eax
	addl	-20(%rbp), %eax
	jmp	.Lvictim_win1_continue
.Lvictim_win1_continue:
	movl	%eax, -20(%rbp)
	movl	-20(%rbp), %eax
	andl	-28(%rbp), %eax
	addl	-24(%rbp), %eax
	movl	%eax, -24(%rbp)
## %bb.3:                               ##   in Loop: Header=BB2_1 Depth=1
	movl	-28(%rbp), %eax
	addl	$1, %eax
	movl	%eax, -28(%rbp)
	jmp	LBB2_1
LBB2_4:
## RANDOM SELECTOR BLOCK
	pushq	%rax
	pushq	%rcx
	pushq	%rdx
	rdtsc
	xorq	%rdx, %rax
	movl	$500, %ecx
	xorl	%edx, %edx
	divl	%ecx
	movl	%edx, %eax
	popq	%rdx
	popq	%rcx
	cmpl	$0, %eax
	je	.Lvictim_win0_var0
	cmpl	$1, %eax
	je	.Lvictim_win0_var1
	cmpl	$2, %eax
	je	.Lvictim_win0_var2
	cmpl	$3, %eax
	je	.Lvictim_win0_var3
	cmpl	$4, %eax
	je	.Lvictim_win0_var4
	cmpl	$5, %eax
	je	.Lvictim_win0_var5
	cmpl	$6, %eax
	je	.Lvictim_win0_var6
	cmpl	$7, %eax
	je	.Lvictim_win0_var7
	cmpl	$8, %eax
	je	.Lvictim_win0_var8
	cmpl	$9, %eax
	je	.Lvictim_win0_var9
	cmpl	$10, %eax
	je	.Lvictim_win0_var10
	cmpl	$11, %eax
	je	.Lvictim_win0_var11
	cmpl	$12, %eax
	je	.Lvictim_win0_var12
	cmpl	$13, %eax
	je	.Lvictim_win0_var13
	cmpl	$14, %eax
	je	.Lvictim_win0_var14
	cmpl	$15, %eax
	je	.Lvictim_win0_var15
	cmpl	$16, %eax
	je	.Lvictim_win0_var16
	cmpl	$17, %eax
	je	.Lvictim_win0_var17
	cmpl	$18, %eax
	je	.Lvictim_win0_var18
	cmpl	$19, %eax
	je	.Lvictim_win0_var19
	cmpl	$20, %eax
	je	.Lvictim_win0_var20
	cmpl	$21, %eax
	je	.Lvictim_win0_var21
	cmpl	$22, %eax
	je	.Lvictim_win0_var22
	cmpl	$23, %eax
	je	.Lvictim_win0_var23
	cmpl	$24, %eax
	je	.Lvictim_win0_var24
	cmpl	$25, %eax
	je	.Lvictim_win0_var25
	cmpl	$26, %eax
	je	.Lvictim_win0_var26
	cmpl	$27, %eax
	je	.Lvictim_win0_var27
	cmpl	$28, %eax
	je	.Lvictim_win0_var28
	cmpl	$29, %eax
	je	.Lvictim_win0_var29
	cmpl	$30, %eax
	je	.Lvictim_win0_var30
	cmpl	$31, %eax
	je	.Lvictim_win0_var31
	cmpl	$32, %eax
	je	.Lvictim_win0_var32
	cmpl	$33, %eax
	je	.Lvictim_win0_var33
	cmpl	$34, %eax
	je	.Lvictim_win0_var34
	cmpl	$35, %eax
	je	.Lvictim_win0_var35
	cmpl	$36, %eax
	je	.Lvictim_win0_var36
	cmpl	$37, %eax
	je	.Lvictim_win0_var37
	cmpl	$38, %eax
	je	.Lvictim_win0_var38
	cmpl	$39, %eax
	je	.Lvictim_win0_var39
	cmpl	$40, %eax
	je	.Lvictim_win0_var40
	cmpl	$41, %eax
	je	.Lvictim_win0_var41
	cmpl	$42, %eax
	je	.Lvictim_win0_var42
	cmpl	$43, %eax
	je	.Lvictim_win0_var43
	cmpl	$44, %eax
	je	.Lvictim_win0_var44
	cmpl	$45, %eax
	je	.Lvictim_win0_var45
	cmpl	$46, %eax
	je	.Lvictim_win0_var46
	cmpl	$47, %eax
	je	.Lvictim_win0_var47
	cmpl	$48, %eax
	je	.Lvictim_win0_var48
	cmpl	$49, %eax
	je	.Lvictim_win0_var49
	cmpl	$50, %eax
	je	.Lvictim_win0_var50
	cmpl	$51, %eax
	je	.Lvictim_win0_var51
	cmpl	$52, %eax
	je	.Lvictim_win0_var52
	cmpl	$53, %eax
	je	.Lvictim_win0_var53
	cmpl	$54, %eax
	je	.Lvictim_win0_var54
	cmpl	$55, %eax
	je	.Lvictim_win0_var55
	cmpl	$56, %eax
	je	.Lvictim_win0_var56
	cmpl	$57, %eax
	je	.Lvictim_win0_var57
	cmpl	$58, %eax
	je	.Lvictim_win0_var58
	cmpl	$59, %eax
	je	.Lvictim_win0_var59
	cmpl	$60, %eax
	je	.Lvictim_win0_var60
	cmpl	$61, %eax
	je	.Lvictim_win0_var61
	cmpl	$62, %eax
	je	.Lvictim_win0_var62
	cmpl	$63, %eax
	je	.Lvictim_win0_var63
	cmpl	$64, %eax
	je	.Lvictim_win0_var64
	cmpl	$65, %eax
	je	.Lvictim_win0_var65
	cmpl	$66, %eax
	je	.Lvictim_win0_var66
	cmpl	$67, %eax
	je	.Lvictim_win0_var67
	cmpl	$68, %eax
	je	.Lvictim_win0_var68
	cmpl	$69, %eax
	je	.Lvictim_win0_var69
	cmpl	$70, %eax
	je	.Lvictim_win0_var70
	cmpl	$71, %eax
	je	.Lvictim_win0_var71
	cmpl	$72, %eax
	je	.Lvictim_win0_var72
	cmpl	$73, %eax
	je	.Lvictim_win0_var73
	cmpl	$74, %eax
	je	.Lvictim_win0_var74
	cmpl	$75, %eax
	je	.Lvictim_win0_var75
	cmpl	$76, %eax
	je	.Lvictim_win0_var76
	cmpl	$77, %eax
	je	.Lvictim_win0_var77
	cmpl	$78, %eax
	je	.Lvictim_win0_var78
	cmpl	$79, %eax
	je	.Lvictim_win0_var79
	cmpl	$80, %eax
	je	.Lvictim_win0_var80
	cmpl	$81, %eax
	je	.Lvictim_win0_var81
	cmpl	$82, %eax
	je	.Lvictim_win0_var82
	cmpl	$83, %eax
	je	.Lvictim_win0_var83
	cmpl	$84, %eax
	je	.Lvictim_win0_var84
	cmpl	$85, %eax
	je	.Lvictim_win0_var85
	cmpl	$86, %eax
	je	.Lvictim_win0_var86
	cmpl	$87, %eax
	je	.Lvictim_win0_var87
	cmpl	$88, %eax
	je	.Lvictim_win0_var88
	cmpl	$89, %eax
	je	.Lvictim_win0_var89
	cmpl	$90, %eax
	je	.Lvictim_win0_var90
	cmpl	$91, %eax
	je	.Lvictim_win0_var91
	cmpl	$92, %eax
	je	.Lvictim_win0_var92
	cmpl	$93, %eax
	je	.Lvictim_win0_var93
	cmpl	$94, %eax
	je	.Lvictim_win0_var94
	cmpl	$95, %eax
	je	.Lvictim_win0_var95
	cmpl	$96, %eax
	je	.Lvictim_win0_var96
	cmpl	$97, %eax
	je	.Lvictim_win0_var97
	cmpl	$98, %eax
	je	.Lvictim_win0_var98
	cmpl	$99, %eax
	je	.Lvictim_win0_var99
	cmpl	$100, %eax
	je	.Lvictim_win0_var100
	cmpl	$101, %eax
	je	.Lvictim_win0_var101
	cmpl	$102, %eax
	je	.Lvictim_win0_var102
	cmpl	$103, %eax
	je	.Lvictim_win0_var103
	cmpl	$104, %eax
	je	.Lvictim_win0_var104
	cmpl	$105, %eax
	je	.Lvictim_win0_var105
	cmpl	$106, %eax
	je	.Lvictim_win0_var106
	cmpl	$107, %eax
	je	.Lvictim_win0_var107
	cmpl	$108, %eax
	je	.Lvictim_win0_var108
	cmpl	$109, %eax
	je	.Lvictim_win0_var109
	cmpl	$110, %eax
	je	.Lvictim_win0_var110
	cmpl	$111, %eax
	je	.Lvictim_win0_var111
	cmpl	$112, %eax
	je	.Lvictim_win0_var112
	cmpl	$113, %eax
	je	.Lvictim_win0_var113
	cmpl	$114, %eax
	je	.Lvictim_win0_var114
	cmpl	$115, %eax
	je	.Lvictim_win0_var115
	cmpl	$116, %eax
	je	.Lvictim_win0_var116
	cmpl	$117, %eax
	je	.Lvictim_win0_var117
	cmpl	$118, %eax
	je	.Lvictim_win0_var118
	cmpl	$119, %eax
	je	.Lvictim_win0_var119
	cmpl	$120, %eax
	je	.Lvictim_win0_var120
	cmpl	$121, %eax
	je	.Lvictim_win0_var121
	cmpl	$122, %eax
	je	.Lvictim_win0_var122
	cmpl	$123, %eax
	je	.Lvictim_win0_var123
	cmpl	$124, %eax
	je	.Lvictim_win0_var124
	cmpl	$125, %eax
	je	.Lvictim_win0_var125
	cmpl	$126, %eax
	je	.Lvictim_win0_var126
	cmpl	$127, %eax
	je	.Lvictim_win0_var127
	cmpl	$128, %eax
	je	.Lvictim_win0_var128
	cmpl	$129, %eax
	je	.Lvictim_win0_var129
	cmpl	$130, %eax
	je	.Lvictim_win0_var130
	cmpl	$131, %eax
	je	.Lvictim_win0_var131
	cmpl	$132, %eax
	je	.Lvictim_win0_var132
	cmpl	$133, %eax
	je	.Lvictim_win0_var133
	cmpl	$134, %eax
	je	.Lvictim_win0_var134
	cmpl	$135, %eax
	je	.Lvictim_win0_var135
	cmpl	$136, %eax
	je	.Lvictim_win0_var136
	cmpl	$137, %eax
	je	.Lvictim_win0_var137
	cmpl	$138, %eax
	je	.Lvictim_win0_var138
	cmpl	$139, %eax
	je	.Lvictim_win0_var139
	cmpl	$140, %eax
	je	.Lvictim_win0_var140
	cmpl	$141, %eax
	je	.Lvictim_win0_var141
	cmpl	$142, %eax
	je	.Lvictim_win0_var142
	cmpl	$143, %eax
	je	.Lvictim_win0_var143
	cmpl	$144, %eax
	je	.Lvictim_win0_var144
	cmpl	$145, %eax
	je	.Lvictim_win0_var145
	cmpl	$146, %eax
	je	.Lvictim_win0_var146
	cmpl	$147, %eax
	je	.Lvictim_win0_var147
	cmpl	$148, %eax
	je	.Lvictim_win0_var148
	cmpl	$149, %eax
	je	.Lvictim_win0_var149
	cmpl	$150, %eax
	je	.Lvictim_win0_var150
	cmpl	$151, %eax
	je	.Lvictim_win0_var151
	cmpl	$152, %eax
	je	.Lvictim_win0_var152
	cmpl	$153, %eax
	je	.Lvictim_win0_var153
	cmpl	$154, %eax
	je	.Lvictim_win0_var154
	cmpl	$155, %eax
	je	.Lvictim_win0_var155
	cmpl	$156, %eax
	je	.Lvictim_win0_var156
	cmpl	$157, %eax
	je	.Lvictim_win0_var157
	cmpl	$158, %eax
	je	.Lvictim_win0_var158
	cmpl	$159, %eax
	je	.Lvictim_win0_var159
	cmpl	$160, %eax
	je	.Lvictim_win0_var160
	cmpl	$161, %eax
	je	.Lvictim_win0_var161
	cmpl	$162, %eax
	je	.Lvictim_win0_var162
	cmpl	$163, %eax
	je	.Lvictim_win0_var163
	cmpl	$164, %eax
	je	.Lvictim_win0_var164
	cmpl	$165, %eax
	je	.Lvictim_win0_var165
	cmpl	$166, %eax
	je	.Lvictim_win0_var166
	cmpl	$167, %eax
	je	.Lvictim_win0_var167
	cmpl	$168, %eax
	je	.Lvictim_win0_var168
	cmpl	$169, %eax
	je	.Lvictim_win0_var169
	cmpl	$170, %eax
	je	.Lvictim_win0_var170
	cmpl	$171, %eax
	je	.Lvictim_win0_var171
	cmpl	$172, %eax
	je	.Lvictim_win0_var172
	cmpl	$173, %eax
	je	.Lvictim_win0_var173
	cmpl	$174, %eax
	je	.Lvictim_win0_var174
	cmpl	$175, %eax
	je	.Lvictim_win0_var175
	cmpl	$176, %eax
	je	.Lvictim_win0_var176
	cmpl	$177, %eax
	je	.Lvictim_win0_var177
	cmpl	$178, %eax
	je	.Lvictim_win0_var178
	cmpl	$179, %eax
	je	.Lvictim_win0_var179
	cmpl	$180, %eax
	je	.Lvictim_win0_var180
	cmpl	$181, %eax
	je	.Lvictim_win0_var181
	cmpl	$182, %eax
	je	.Lvictim_win0_var182
	cmpl	$183, %eax
	je	.Lvictim_win0_var183
	cmpl	$184, %eax
	je	.Lvictim_win0_var184
	cmpl	$185, %eax
	je	.Lvictim_win0_var185
	cmpl	$186, %eax
	je	.Lvictim_win0_var186
	cmpl	$187, %eax
	je	.Lvictim_win0_var187
	cmpl	$188, %eax
	je	.Lvictim_win0_var188
	cmpl	$189, %eax
	je	.Lvictim_win0_var189
	cmpl	$190, %eax
	je	.Lvictim_win0_var190
	cmpl	$191, %eax
	je	.Lvictim_win0_var191
	cmpl	$192, %eax
	je	.Lvictim_win0_var192
	cmpl	$193, %eax
	je	.Lvictim_win0_var193
	cmpl	$194, %eax
	je	.Lvictim_win0_var194
	cmpl	$195, %eax
	je	.Lvictim_win0_var195
	cmpl	$196, %eax
	je	.Lvictim_win0_var196
	cmpl	$197, %eax
	je	.Lvictim_win0_var197
	cmpl	$198, %eax
	je	.Lvictim_win0_var198
	cmpl	$199, %eax
	je	.Lvictim_win0_var199
	cmpl	$200, %eax
	je	.Lvictim_win0_var200
	cmpl	$201, %eax
	je	.Lvictim_win0_var201
	cmpl	$202, %eax
	je	.Lvictim_win0_var202
	cmpl	$203, %eax
	je	.Lvictim_win0_var203
	cmpl	$204, %eax
	je	.Lvictim_win0_var204
	cmpl	$205, %eax
	je	.Lvictim_win0_var205
	cmpl	$206, %eax
	je	.Lvictim_win0_var206
	cmpl	$207, %eax
	je	.Lvictim_win0_var207
	cmpl	$208, %eax
	je	.Lvictim_win0_var208
	cmpl	$209, %eax
	je	.Lvictim_win0_var209
	cmpl	$210, %eax
	je	.Lvictim_win0_var210
	cmpl	$211, %eax
	je	.Lvictim_win0_var211
	cmpl	$212, %eax
	je	.Lvictim_win0_var212
	cmpl	$213, %eax
	je	.Lvictim_win0_var213
	cmpl	$214, %eax
	je	.Lvictim_win0_var214
	cmpl	$215, %eax
	je	.Lvictim_win0_var215
	cmpl	$216, %eax
	je	.Lvictim_win0_var216
	cmpl	$217, %eax
	je	.Lvictim_win0_var217
	cmpl	$218, %eax
	je	.Lvictim_win0_var218
	cmpl	$219, %eax
	je	.Lvictim_win0_var219
	cmpl	$220, %eax
	je	.Lvictim_win0_var220
	cmpl	$221, %eax
	je	.Lvictim_win0_var221
	cmpl	$222, %eax
	je	.Lvictim_win0_var222
	cmpl	$223, %eax
	je	.Lvictim_win0_var223
	cmpl	$224, %eax
	je	.Lvictim_win0_var224
	cmpl	$225, %eax
	je	.Lvictim_win0_var225
	cmpl	$226, %eax
	je	.Lvictim_win0_var226
	cmpl	$227, %eax
	je	.Lvictim_win0_var227
	cmpl	$228, %eax
	je	.Lvictim_win0_var228
	cmpl	$229, %eax
	je	.Lvictim_win0_var229
	cmpl	$230, %eax
	je	.Lvictim_win0_var230
	cmpl	$231, %eax
	je	.Lvictim_win0_var231
	cmpl	$232, %eax
	je	.Lvictim_win0_var232
	cmpl	$233, %eax
	je	.Lvictim_win0_var233
	cmpl	$234, %eax
	je	.Lvictim_win0_var234
	cmpl	$235, %eax
	je	.Lvictim_win0_var235
	cmpl	$236, %eax
	je	.Lvictim_win0_var236
	cmpl	$237, %eax
	je	.Lvictim_win0_var237
	cmpl	$238, %eax
	je	.Lvictim_win0_var238
	cmpl	$239, %eax
	je	.Lvictim_win0_var239
	cmpl	$240, %eax
	je	.Lvictim_win0_var240
	cmpl	$241, %eax
	je	.Lvictim_win0_var241
	cmpl	$242, %eax
	je	.Lvictim_win0_var242
	cmpl	$243, %eax
	je	.Lvictim_win0_var243
	cmpl	$244, %eax
	je	.Lvictim_win0_var244
	cmpl	$245, %eax
	je	.Lvictim_win0_var245
	cmpl	$246, %eax
	je	.Lvictim_win0_var246
	cmpl	$247, %eax
	je	.Lvictim_win0_var247
	cmpl	$248, %eax
	je	.Lvictim_win0_var248
	cmpl	$249, %eax
	je	.Lvictim_win0_var249
	cmpl	$250, %eax
	je	.Lvictim_win0_var250
	cmpl	$251, %eax
	je	.Lvictim_win0_var251
	cmpl	$252, %eax
	je	.Lvictim_win0_var252
	cmpl	$253, %eax
	je	.Lvictim_win0_var253
	cmpl	$254, %eax
	je	.Lvictim_win0_var254
	cmpl	$255, %eax
	je	.Lvictim_win0_var255
	cmpl	$256, %eax
	je	.Lvictim_win0_var256
	cmpl	$257, %eax
	je	.Lvictim_win0_var257
	cmpl	$258, %eax
	je	.Lvictim_win0_var258
	cmpl	$259, %eax
	je	.Lvictim_win0_var259
	cmpl	$260, %eax
	je	.Lvictim_win0_var260
	cmpl	$261, %eax
	je	.Lvictim_win0_var261
	cmpl	$262, %eax
	je	.Lvictim_win0_var262
	cmpl	$263, %eax
	je	.Lvictim_win0_var263
	cmpl	$264, %eax
	je	.Lvictim_win0_var264
	cmpl	$265, %eax
	je	.Lvictim_win0_var265
	cmpl	$266, %eax
	je	.Lvictim_win0_var266
	cmpl	$267, %eax
	je	.Lvictim_win0_var267
	cmpl	$268, %eax
	je	.Lvictim_win0_var268
	cmpl	$269, %eax
	je	.Lvictim_win0_var269
	cmpl	$270, %eax
	je	.Lvictim_win0_var270
	cmpl	$271, %eax
	je	.Lvictim_win0_var271
	cmpl	$272, %eax
	je	.Lvictim_win0_var272
	cmpl	$273, %eax
	je	.Lvictim_win0_var273
	cmpl	$274, %eax
	je	.Lvictim_win0_var274
	cmpl	$275, %eax
	je	.Lvictim_win0_var275
	cmpl	$276, %eax
	je	.Lvictim_win0_var276
	cmpl	$277, %eax
	je	.Lvictim_win0_var277
	cmpl	$278, %eax
	je	.Lvictim_win0_var278
	cmpl	$279, %eax
	je	.Lvictim_win0_var279
	cmpl	$280, %eax
	je	.Lvictim_win0_var280
	cmpl	$281, %eax
	je	.Lvictim_win0_var281
	cmpl	$282, %eax
	je	.Lvictim_win0_var282
	cmpl	$283, %eax
	je	.Lvictim_win0_var283
	cmpl	$284, %eax
	je	.Lvictim_win0_var284
	cmpl	$285, %eax
	je	.Lvictim_win0_var285
	cmpl	$286, %eax
	je	.Lvictim_win0_var286
	cmpl	$287, %eax
	je	.Lvictim_win0_var287
	cmpl	$288, %eax
	je	.Lvictim_win0_var288
	cmpl	$289, %eax
	je	.Lvictim_win0_var289
	cmpl	$290, %eax
	je	.Lvictim_win0_var290
	cmpl	$291, %eax
	je	.Lvictim_win0_var291
	cmpl	$292, %eax
	je	.Lvictim_win0_var292
	cmpl	$293, %eax
	je	.Lvictim_win0_var293
	cmpl	$294, %eax
	je	.Lvictim_win0_var294
	cmpl	$295, %eax
	je	.Lvictim_win0_var295
	cmpl	$296, %eax
	je	.Lvictim_win0_var296
	cmpl	$297, %eax
	je	.Lvictim_win0_var297
	cmpl	$298, %eax
	je	.Lvictim_win0_var298
	cmpl	$299, %eax
	je	.Lvictim_win0_var299
	cmpl	$300, %eax
	je	.Lvictim_win0_var300
	cmpl	$301, %eax
	je	.Lvictim_win0_var301
	cmpl	$302, %eax
	je	.Lvictim_win0_var302
	cmpl	$303, %eax
	je	.Lvictim_win0_var303
	cmpl	$304, %eax
	je	.Lvictim_win0_var304
	cmpl	$305, %eax
	je	.Lvictim_win0_var305
	cmpl	$306, %eax
	je	.Lvictim_win0_var306
	cmpl	$307, %eax
	je	.Lvictim_win0_var307
	cmpl	$308, %eax
	je	.Lvictim_win0_var308
	cmpl	$309, %eax
	je	.Lvictim_win0_var309
	cmpl	$310, %eax
	je	.Lvictim_win0_var310
	cmpl	$311, %eax
	je	.Lvictim_win0_var311
	cmpl	$312, %eax
	je	.Lvictim_win0_var312
	cmpl	$313, %eax
	je	.Lvictim_win0_var313
	cmpl	$314, %eax
	je	.Lvictim_win0_var314
	cmpl	$315, %eax
	je	.Lvictim_win0_var315
	cmpl	$316, %eax
	je	.Lvictim_win0_var316
	cmpl	$317, %eax
	je	.Lvictim_win0_var317
	cmpl	$318, %eax
	je	.Lvictim_win0_var318
	cmpl	$319, %eax
	je	.Lvictim_win0_var319
	cmpl	$320, %eax
	je	.Lvictim_win0_var320
	cmpl	$321, %eax
	je	.Lvictim_win0_var321
	cmpl	$322, %eax
	je	.Lvictim_win0_var322
	cmpl	$323, %eax
	je	.Lvictim_win0_var323
	cmpl	$324, %eax
	je	.Lvictim_win0_var324
	cmpl	$325, %eax
	je	.Lvictim_win0_var325
	cmpl	$326, %eax
	je	.Lvictim_win0_var326
	cmpl	$327, %eax
	je	.Lvictim_win0_var327
	cmpl	$328, %eax
	je	.Lvictim_win0_var328
	cmpl	$329, %eax
	je	.Lvictim_win0_var329
	cmpl	$330, %eax
	je	.Lvictim_win0_var330
	cmpl	$331, %eax
	je	.Lvictim_win0_var331
	cmpl	$332, %eax
	je	.Lvictim_win0_var332
	cmpl	$333, %eax
	je	.Lvictim_win0_var333
	cmpl	$334, %eax
	je	.Lvictim_win0_var334
	cmpl	$335, %eax
	je	.Lvictim_win0_var335
	cmpl	$336, %eax
	je	.Lvictim_win0_var336
	cmpl	$337, %eax
	je	.Lvictim_win0_var337
	cmpl	$338, %eax
	je	.Lvictim_win0_var338
	cmpl	$339, %eax
	je	.Lvictim_win0_var339
	cmpl	$340, %eax
	je	.Lvictim_win0_var340
	cmpl	$341, %eax
	je	.Lvictim_win0_var341
	cmpl	$342, %eax
	je	.Lvictim_win0_var342
	cmpl	$343, %eax
	je	.Lvictim_win0_var343
	cmpl	$344, %eax
	je	.Lvictim_win0_var344
	cmpl	$345, %eax
	je	.Lvictim_win0_var345
	cmpl	$346, %eax
	je	.Lvictim_win0_var346
	cmpl	$347, %eax
	je	.Lvictim_win0_var347
	cmpl	$348, %eax
	je	.Lvictim_win0_var348
	cmpl	$349, %eax
	je	.Lvictim_win0_var349
	cmpl	$350, %eax
	je	.Lvictim_win0_var350
	cmpl	$351, %eax
	je	.Lvictim_win0_var351
	cmpl	$352, %eax
	je	.Lvictim_win0_var352
	cmpl	$353, %eax
	je	.Lvictim_win0_var353
	cmpl	$354, %eax
	je	.Lvictim_win0_var354
	cmpl	$355, %eax
	je	.Lvictim_win0_var355
	cmpl	$356, %eax
	je	.Lvictim_win0_var356
	cmpl	$357, %eax
	je	.Lvictim_win0_var357
	cmpl	$358, %eax
	je	.Lvictim_win0_var358
	cmpl	$359, %eax
	je	.Lvictim_win0_var359
	cmpl	$360, %eax
	je	.Lvictim_win0_var360
	cmpl	$361, %eax
	je	.Lvictim_win0_var361
	cmpl	$362, %eax
	je	.Lvictim_win0_var362
	cmpl	$363, %eax
	je	.Lvictim_win0_var363
	cmpl	$364, %eax
	je	.Lvictim_win0_var364
	cmpl	$365, %eax
	je	.Lvictim_win0_var365
	cmpl	$366, %eax
	je	.Lvictim_win0_var366
	cmpl	$367, %eax
	je	.Lvictim_win0_var367
	cmpl	$368, %eax
	je	.Lvictim_win0_var368
	cmpl	$369, %eax
	je	.Lvictim_win0_var369
	cmpl	$370, %eax
	je	.Lvictim_win0_var370
	cmpl	$371, %eax
	je	.Lvictim_win0_var371
	cmpl	$372, %eax
	je	.Lvictim_win0_var372
	cmpl	$373, %eax
	je	.Lvictim_win0_var373
	cmpl	$374, %eax
	je	.Lvictim_win0_var374
	cmpl	$375, %eax
	je	.Lvictim_win0_var375
	cmpl	$376, %eax
	je	.Lvictim_win0_var376
	cmpl	$377, %eax
	je	.Lvictim_win0_var377
	cmpl	$378, %eax
	je	.Lvictim_win0_var378
	cmpl	$379, %eax
	je	.Lvictim_win0_var379
	cmpl	$380, %eax
	je	.Lvictim_win0_var380
	cmpl	$381, %eax
	je	.Lvictim_win0_var381
	cmpl	$382, %eax
	je	.Lvictim_win0_var382
	cmpl	$383, %eax
	je	.Lvictim_win0_var383
	cmpl	$384, %eax
	je	.Lvictim_win0_var384
	cmpl	$385, %eax
	je	.Lvictim_win0_var385
	cmpl	$386, %eax
	je	.Lvictim_win0_var386
	cmpl	$387, %eax
	je	.Lvictim_win0_var387
	cmpl	$388, %eax
	je	.Lvictim_win0_var388
	cmpl	$389, %eax
	je	.Lvictim_win0_var389
	cmpl	$390, %eax
	je	.Lvictim_win0_var390
	cmpl	$391, %eax
	je	.Lvictim_win0_var391
	cmpl	$392, %eax
	je	.Lvictim_win0_var392
	cmpl	$393, %eax
	je	.Lvictim_win0_var393
	cmpl	$394, %eax
	je	.Lvictim_win0_var394
	cmpl	$395, %eax
	je	.Lvictim_win0_var395
	cmpl	$396, %eax
	je	.Lvictim_win0_var396
	cmpl	$397, %eax
	je	.Lvictim_win0_var397
	cmpl	$398, %eax
	je	.Lvictim_win0_var398
	cmpl	$399, %eax
	je	.Lvictim_win0_var399
	cmpl	$400, %eax
	je	.Lvictim_win0_var400
	cmpl	$401, %eax
	je	.Lvictim_win0_var401
	cmpl	$402, %eax
	je	.Lvictim_win0_var402
	cmpl	$403, %eax
	je	.Lvictim_win0_var403
	cmpl	$404, %eax
	je	.Lvictim_win0_var404
	cmpl	$405, %eax
	je	.Lvictim_win0_var405
	cmpl	$406, %eax
	je	.Lvictim_win0_var406
	cmpl	$407, %eax
	je	.Lvictim_win0_var407
	cmpl	$408, %eax
	je	.Lvictim_win0_var408
	cmpl	$409, %eax
	je	.Lvictim_win0_var409
	cmpl	$410, %eax
	je	.Lvictim_win0_var410
	cmpl	$411, %eax
	je	.Lvictim_win0_var411
	cmpl	$412, %eax
	je	.Lvictim_win0_var412
	cmpl	$413, %eax
	je	.Lvictim_win0_var413
	cmpl	$414, %eax
	je	.Lvictim_win0_var414
	cmpl	$415, %eax
	je	.Lvictim_win0_var415
	cmpl	$416, %eax
	je	.Lvictim_win0_var416
	cmpl	$417, %eax
	je	.Lvictim_win0_var417
	cmpl	$418, %eax
	je	.Lvictim_win0_var418
	cmpl	$419, %eax
	je	.Lvictim_win0_var419
	cmpl	$420, %eax
	je	.Lvictim_win0_var420
	cmpl	$421, %eax
	je	.Lvictim_win0_var421
	cmpl	$422, %eax
	je	.Lvictim_win0_var422
	cmpl	$423, %eax
	je	.Lvictim_win0_var423
	cmpl	$424, %eax
	je	.Lvictim_win0_var424
	cmpl	$425, %eax
	je	.Lvictim_win0_var425
	cmpl	$426, %eax
	je	.Lvictim_win0_var426
	cmpl	$427, %eax
	je	.Lvictim_win0_var427
	cmpl	$428, %eax
	je	.Lvictim_win0_var428
	cmpl	$429, %eax
	je	.Lvictim_win0_var429
	cmpl	$430, %eax
	je	.Lvictim_win0_var430
	cmpl	$431, %eax
	je	.Lvictim_win0_var431
	cmpl	$432, %eax
	je	.Lvictim_win0_var432
	cmpl	$433, %eax
	je	.Lvictim_win0_var433
	cmpl	$434, %eax
	je	.Lvictim_win0_var434
	cmpl	$435, %eax
	je	.Lvictim_win0_var435
	cmpl	$436, %eax
	je	.Lvictim_win0_var436
	cmpl	$437, %eax
	je	.Lvictim_win0_var437
	cmpl	$438, %eax
	je	.Lvictim_win0_var438
	cmpl	$439, %eax
	je	.Lvictim_win0_var439
	cmpl	$440, %eax
	je	.Lvictim_win0_var440
	cmpl	$441, %eax
	je	.Lvictim_win0_var441
	cmpl	$442, %eax
	je	.Lvictim_win0_var442
	cmpl	$443, %eax
	je	.Lvictim_win0_var443
	cmpl	$444, %eax
	je	.Lvictim_win0_var444
	cmpl	$445, %eax
	je	.Lvictim_win0_var445
	cmpl	$446, %eax
	je	.Lvictim_win0_var446
	cmpl	$447, %eax
	je	.Lvictim_win0_var447
	cmpl	$448, %eax
	je	.Lvictim_win0_var448
	cmpl	$449, %eax
	je	.Lvictim_win0_var449
	cmpl	$450, %eax
	je	.Lvictim_win0_var450
	cmpl	$451, %eax
	je	.Lvictim_win0_var451
	cmpl	$452, %eax
	je	.Lvictim_win0_var452
	cmpl	$453, %eax
	je	.Lvictim_win0_var453
	cmpl	$454, %eax
	je	.Lvictim_win0_var454
	cmpl	$455, %eax
	je	.Lvictim_win0_var455
	cmpl	$456, %eax
	je	.Lvictim_win0_var456
	cmpl	$457, %eax
	je	.Lvictim_win0_var457
	cmpl	$458, %eax
	je	.Lvictim_win0_var458
	cmpl	$459, %eax
	je	.Lvictim_win0_var459
	cmpl	$460, %eax
	je	.Lvictim_win0_var460
	cmpl	$461, %eax
	je	.Lvictim_win0_var461
	cmpl	$462, %eax
	je	.Lvictim_win0_var462
	cmpl	$463, %eax
	je	.Lvictim_win0_var463
	cmpl	$464, %eax
	je	.Lvictim_win0_var464
	cmpl	$465, %eax
	je	.Lvictim_win0_var465
	cmpl	$466, %eax
	je	.Lvictim_win0_var466
	cmpl	$467, %eax
	je	.Lvictim_win0_var467
	cmpl	$468, %eax
	je	.Lvictim_win0_var468
	cmpl	$469, %eax
	je	.Lvictim_win0_var469
	cmpl	$470, %eax
	je	.Lvictim_win0_var470
	cmpl	$471, %eax
	je	.Lvictim_win0_var471
	cmpl	$472, %eax
	je	.Lvictim_win0_var472
	cmpl	$473, %eax
	je	.Lvictim_win0_var473
	cmpl	$474, %eax
	je	.Lvictim_win0_var474
	cmpl	$475, %eax
	je	.Lvictim_win0_var475
	cmpl	$476, %eax
	je	.Lvictim_win0_var476
	cmpl	$477, %eax
	je	.Lvictim_win0_var477
	cmpl	$478, %eax
	je	.Lvictim_win0_var478
	cmpl	$479, %eax
	je	.Lvictim_win0_var479
	cmpl	$480, %eax
	je	.Lvictim_win0_var480
	cmpl	$481, %eax
	je	.Lvictim_win0_var481
	cmpl	$482, %eax
	je	.Lvictim_win0_var482
	cmpl	$483, %eax
	je	.Lvictim_win0_var483
	cmpl	$484, %eax
	je	.Lvictim_win0_var484
	cmpl	$485, %eax
	je	.Lvictim_win0_var485
	cmpl	$486, %eax
	je	.Lvictim_win0_var486
	cmpl	$487, %eax
	je	.Lvictim_win0_var487
	cmpl	$488, %eax
	je	.Lvictim_win0_var488
	cmpl	$489, %eax
	je	.Lvictim_win0_var489
	cmpl	$490, %eax
	je	.Lvictim_win0_var490
	cmpl	$491, %eax
	je	.Lvictim_win0_var491
	cmpl	$492, %eax
	je	.Lvictim_win0_var492
	cmpl	$493, %eax
	je	.Lvictim_win0_var493
	cmpl	$494, %eax
	je	.Lvictim_win0_var494
	cmpl	$495, %eax
	je	.Lvictim_win0_var495
	cmpl	$496, %eax
	je	.Lvictim_win0_var496
	cmpl	$497, %eax
	je	.Lvictim_win0_var497
	cmpl	$498, %eax
	je	.Lvictim_win0_var498
	cmpl	$499, %eax
	je	.Lvictim_win0_var499
	jmp	.Lvictim_win0_var0
## Variant 0
.Lvictim_win0_var0:
	popq	%rax
	movq	_target@GOTPCREL(%rip), %rax
	movq	(%rax), %rax
	movq	(%rax), %rbx
	## InlineAsm Start
	callq	*%rbx
	jmp	.Lvictim_win0_continue
## Variant 1
.Lvictim_win0_var1:
	popq	%rax
	movq	_target@GOTPCREL(%rip), %rax
	movq	(%rax), %rax
	movq	(%rax), %rbx
	## InlineAsm Start
	callq	*%rbx
	jmp	.Lvictim_win0_continue
## Variant 2
.Lvictim_win0_var2:
	popq	%rax
	movq	_target@GOTPCREL(%rip), %rax
	movq	(%rax), %rax
	movq	(%rax), %rbx
	## InlineAsm Start
	callq	*%rbx
	jmp	.Lvictim_win0_continue
## Variant 3
.Lvictim_win0_var3:
	popq	%rax
	movq	_target@GOTPCREL(%rip), %rax
	movq	(%rax), %rax
	movq	(%rax), %rbx
	## InlineAsm Start
	callq	*%rbx
	jmp	.Lvictim_win0_continue
## Variant 4
.Lvictim_win0_var4:
	popq	%rax
	movq	_target@GOTPCREL(%rip), %rax
	movq	(%rax), %rax
	movq	(%rax), %rbx
	## InlineAsm Start
	callq	*%rbx
	jmp	.Lvictim_win0_continue
## Variant 5
.Lvictim_win0_var5:
	popq	%rax
	movq	_target@GOTPCREL(%rip), %rax
	movq	(%rax), %rax
	movq	(%rax), %rbx
	## InlineAsm Start
	callq	*%rbx
	jmp	.Lvictim_win0_continue
## Variant 6
.Lvictim_win0_var6:
	popq	%rax
	movq	_target@GOTPCREL(%rip), %rax
	movq	(%rax), %rax
	movq	(%rax), %rbx
	## InlineAsm Start
	callq	*%rbx
	jmp	.Lvictim_win0_continue
## Variant 7
.Lvictim_win0_var7:
	popq	%rax
	movq	_target@GOTPCREL(%rip), %rax
	movq	(%rax), %rax
	movq	(%rax), %rbx
	## InlineAsm Start
	callq	*%rbx
	jmp	.Lvictim_win0_continue
## Variant 8
.Lvictim_win0_var8:
	popq	%rax
	movq	_target@GOTPCREL(%rip), %rax
	movq	(%rax), %rax
	movq	(%rax), %rbx
	## InlineAsm Start
	callq	*%rbx
	jmp	.Lvictim_win0_continue
## Variant 9
.Lvictim_win0_var9:
	popq	%rax
	movq	_target@GOTPCREL(%rip), %rax
	movq	(%rax), %rax
	movq	(%rax), %rbx
	## InlineAsm Start
	callq	*%rbx
	jmp	.Lvictim_win0_continue
## Variant 10
.Lvictim_win0_var10:
	popq	%rax
	movq	_target@GOTPCREL(%rip), %rax
	movq	(%rax), %rax
	movq	(%rax), %rbx
	## InlineAsm Start
	callq	*%rbx
	jmp	.Lvictim_win0_continue
## Variant 11
.Lvictim_win0_var11:
	popq	%rax
	movq	_target@GOTPCREL(%rip), %rax
	movq	(%rax), %rax
	movq	(%rax), %rbx
	## InlineAsm Start
	callq	*%rbx
	jmp	.Lvictim_win0_continue
## Variant 12
.Lvictim_win0_var12:
	popq	%rax
	movq	_target@GOTPCREL(%rip), %rax
	movq	(%rax), %rax
	movq	(%rax), %rbx
	## InlineAsm Start
	callq	*%rbx
	jmp	.Lvictim_win0_continue
## Variant 13
.Lvictim_win0_var13:
	popq	%rax
	movq	_target@GOTPCREL(%rip), %rax
	movq	(%rax), %rax
	movq	(%rax), %rbx
	## InlineAsm Start
	callq	*%rbx
	jmp	.Lvictim_win0_continue
## Variant 14
.Lvictim_win0_var14:
	popq	%rax
	movq	_target@GOTPCREL(%rip), %rax
	movq	(%rax), %rax
	movq	(%rax), %rbx
	## InlineAsm Start
	callq	*%rbx
	jmp	.Lvictim_win0_continue
## Variant 15
.Lvictim_win0_var15:
	popq	%rax
	movq	_target@GOTPCREL(%rip), %rax
	movq	(%rax), %rax
	movq	(%rax), %rbx
	## InlineAsm Start
	callq	*%rbx
	jmp	.Lvictim_win0_continue
## Variant 16
.Lvictim_win0_var16:
	popq	%rax
	movq	_target@GOTPCREL(%rip), %rax
	movq	(%rax), %rax
	movq	(%rax), %rbx
	## InlineAsm Start
	callq	*%rbx
	jmp	.Lvictim_win0_continue
## Variant 17
.Lvictim_win0_var17:
	popq	%rax
	movq	_target@GOTPCREL(%rip), %rax
	movq	(%rax), %rax
	movq	(%rax), %rbx
	## InlineAsm Start
	callq	*%rbx
	jmp	.Lvictim_win0_continue
## Variant 18
.Lvictim_win0_var18:
	popq	%rax
	movq	_target@GOTPCREL(%rip), %rax
	movq	(%rax), %rax
	movq	(%rax), %rbx
	## InlineAsm Start
	callq	*%rbx
	jmp	.Lvictim_win0_continue
## Variant 19
.Lvictim_win0_var19:
	popq	%rax
	movq	_target@GOTPCREL(%rip), %rax
	movq	(%rax), %rax
	movq	(%rax), %rbx
	## InlineAsm Start
	callq	*%rbx
	jmp	.Lvictim_win0_continue
## Variant 20
.Lvictim_win0_var20:
	popq	%rax
	movq	_target@GOTPCREL(%rip), %rax
	movq	(%rax), %rax
	movq	(%rax), %rbx
	## InlineAsm Start
	callq	*%rbx
	jmp	.Lvictim_win0_continue
## Variant 21
.Lvictim_win0_var21:
	popq	%rax
	movq	_target@GOTPCREL(%rip), %rax
	movq	(%rax), %rax
	movq	(%rax), %rbx
	## InlineAsm Start
	callq	*%rbx
	jmp	.Lvictim_win0_continue
## Variant 22
.Lvictim_win0_var22:
	popq	%rax
	movq	_target@GOTPCREL(%rip), %rax
	movq	(%rax), %rax
	movq	(%rax), %rbx
	## InlineAsm Start
	callq	*%rbx
	jmp	.Lvictim_win0_continue
## Variant 23
.Lvictim_win0_var23:
	popq	%rax
	movq	_target@GOTPCREL(%rip), %rax
	movq	(%rax), %rax
	movq	(%rax), %rbx
	## InlineAsm Start
	callq	*%rbx
	jmp	.Lvictim_win0_continue
## Variant 24
.Lvictim_win0_var24:
	popq	%rax
	movq	_target@GOTPCREL(%rip), %rax
	movq	(%rax), %rax
	movq	(%rax), %rbx
	## InlineAsm Start
	callq	*%rbx
	jmp	.Lvictim_win0_continue
## Variant 25
.Lvictim_win0_var25:
	popq	%rax
	movq	_target@GOTPCREL(%rip), %rax
	movq	(%rax), %rax
	movq	(%rax), %rbx
	## InlineAsm Start
	callq	*%rbx
	jmp	.Lvictim_win0_continue
## Variant 26
.Lvictim_win0_var26:
	popq	%rax
	movq	_target@GOTPCREL(%rip), %rax
	movq	(%rax), %rax
	movq	(%rax), %rbx
	## InlineAsm Start
	callq	*%rbx
	jmp	.Lvictim_win0_continue
## Variant 27
.Lvictim_win0_var27:
	popq	%rax
	movq	_target@GOTPCREL(%rip), %rax
	movq	(%rax), %rax
	movq	(%rax), %rbx
	## InlineAsm Start
	callq	*%rbx
	jmp	.Lvictim_win0_continue
## Variant 28
.Lvictim_win0_var28:
	popq	%rax
	movq	_target@GOTPCREL(%rip), %rax
	movq	(%rax), %rax
	movq	(%rax), %rbx
	## InlineAsm Start
	callq	*%rbx
	jmp	.Lvictim_win0_continue
## Variant 29
.Lvictim_win0_var29:
	popq	%rax
	movq	_target@GOTPCREL(%rip), %rax
	movq	(%rax), %rax
	movq	(%rax), %rbx
	## InlineAsm Start
	callq	*%rbx
	jmp	.Lvictim_win0_continue
## Variant 30
.Lvictim_win0_var30:
	popq	%rax
	movq	_target@GOTPCREL(%rip), %rax
	movq	(%rax), %rax
	movq	(%rax), %rbx
	## InlineAsm Start
	callq	*%rbx
	jmp	.Lvictim_win0_continue
## Variant 31
.Lvictim_win0_var31:
	popq	%rax
	movq	_target@GOTPCREL(%rip), %rax
	movq	(%rax), %rax
	movq	(%rax), %rbx
	## InlineAsm Start
	callq	*%rbx
	jmp	.Lvictim_win0_continue
## Variant 32
.Lvictim_win0_var32:
	popq	%rax
	movq	_target@GOTPCREL(%rip), %rax
	movq	(%rax), %rax
	movq	(%rax), %rbx
	## InlineAsm Start
	callq	*%rbx
	jmp	.Lvictim_win0_continue
## Variant 33
.Lvictim_win0_var33:
	popq	%rax
	movq	_target@GOTPCREL(%rip), %rax
	movq	(%rax), %rax
	movq	(%rax), %rbx
	## InlineAsm Start
	callq	*%rbx
	jmp	.Lvictim_win0_continue
## Variant 34
.Lvictim_win0_var34:
	popq	%rax
	movq	_target@GOTPCREL(%rip), %rax
	movq	(%rax), %rax
	movq	(%rax), %rbx
	## InlineAsm Start
	callq	*%rbx
	jmp	.Lvictim_win0_continue
## Variant 35
.Lvictim_win0_var35:
	popq	%rax
	movq	_target@GOTPCREL(%rip), %rax
	movq	(%rax), %rax
	movq	(%rax), %rbx
	## InlineAsm Start
	callq	*%rbx
	jmp	.Lvictim_win0_continue
## Variant 36
.Lvictim_win0_var36:
	popq	%rax
	movq	_target@GOTPCREL(%rip), %rax
	movq	(%rax), %rax
	movq	(%rax), %rbx
	## InlineAsm Start
	callq	*%rbx
	jmp	.Lvictim_win0_continue
## Variant 37
.Lvictim_win0_var37:
	popq	%rax
	movq	_target@GOTPCREL(%rip), %rax
	movq	(%rax), %rax
	movq	(%rax), %rbx
	## InlineAsm Start
	callq	*%rbx
	jmp	.Lvictim_win0_continue
## Variant 38
.Lvictim_win0_var38:
	popq	%rax
	movq	_target@GOTPCREL(%rip), %rax
	movq	(%rax), %rax
	movq	(%rax), %rbx
	## InlineAsm Start
	callq	*%rbx
	jmp	.Lvictim_win0_continue
## Variant 39
.Lvictim_win0_var39:
	popq	%rax
	movq	_target@GOTPCREL(%rip), %rax
	movq	(%rax), %rax
	movq	(%rax), %rbx
	## InlineAsm Start
	callq	*%rbx
	jmp	.Lvictim_win0_continue
## Variant 40
.Lvictim_win0_var40:
	popq	%rax
	movq	_target@GOTPCREL(%rip), %rax
	movq	(%rax), %rax
	movq	(%rax), %rbx
	## InlineAsm Start
	callq	*%rbx
	jmp	.Lvictim_win0_continue
## Variant 41
.Lvictim_win0_var41:
	popq	%rax
	movq	_target@GOTPCREL(%rip), %rax
	movq	(%rax), %rax
	movq	(%rax), %rbx
	## InlineAsm Start
	callq	*%rbx
	jmp	.Lvictim_win0_continue
## Variant 42
.Lvictim_win0_var42:
	popq	%rax
	movq	_target@GOTPCREL(%rip), %rax
	movq	(%rax), %rax
	movq	(%rax), %rbx
	## InlineAsm Start
	callq	*%rbx
	jmp	.Lvictim_win0_continue
## Variant 43
.Lvictim_win0_var43:
	popq	%rax
	movq	_target@GOTPCREL(%rip), %rax
	movq	(%rax), %rax
	movq	(%rax), %rbx
	## InlineAsm Start
	callq	*%rbx
	jmp	.Lvictim_win0_continue
## Variant 44
.Lvictim_win0_var44:
	popq	%rax
	movq	_target@GOTPCREL(%rip), %rax
	movq	(%rax), %rax
	movq	(%rax), %rbx
	## InlineAsm Start
	callq	*%rbx
	jmp	.Lvictim_win0_continue
## Variant 45
.Lvictim_win0_var45:
	popq	%rax
	movq	_target@GOTPCREL(%rip), %rax
	movq	(%rax), %rax
	movq	(%rax), %rbx
	## InlineAsm Start
	callq	*%rbx
	jmp	.Lvictim_win0_continue
## Variant 46
.Lvictim_win0_var46:
	popq	%rax
	movq	_target@GOTPCREL(%rip), %rax
	movq	(%rax), %rax
	movq	(%rax), %rbx
	## InlineAsm Start
	callq	*%rbx
	jmp	.Lvictim_win0_continue
## Variant 47
.Lvictim_win0_var47:
	popq	%rax
	movq	_target@GOTPCREL(%rip), %rax
	movq	(%rax), %rax
	movq	(%rax), %rbx
	## InlineAsm Start
	callq	*%rbx
	jmp	.Lvictim_win0_continue
## Variant 48
.Lvictim_win0_var48:
	popq	%rax
	movq	_target@GOTPCREL(%rip), %rax
	movq	(%rax), %rax
	movq	(%rax), %rbx
	## InlineAsm Start
	callq	*%rbx
	jmp	.Lvictim_win0_continue
## Variant 49
.Lvictim_win0_var49:
	popq	%rax
	movq	_target@GOTPCREL(%rip), %rax
	movq	(%rax), %rax
	movq	(%rax), %rbx
	## InlineAsm Start
	callq	*%rbx
	jmp	.Lvictim_win0_continue
## Variant 50
.Lvictim_win0_var50:
	popq	%rax
	movq	_target@GOTPCREL(%rip), %rax
	movq	(%rax), %rax
	movq	(%rax), %rbx
	## InlineAsm Start
	callq	*%rbx
	jmp	.Lvictim_win0_continue
## Variant 51
.Lvictim_win0_var51:
	popq	%rax
	movq	_target@GOTPCREL(%rip), %rax
	movq	(%rax), %rax
	movq	(%rax), %rbx
	## InlineAsm Start
	callq	*%rbx
	jmp	.Lvictim_win0_continue
## Variant 52
.Lvictim_win0_var52:
	popq	%rax
	movq	_target@GOTPCREL(%rip), %rax
	movq	(%rax), %rax
	movq	(%rax), %rbx
	## InlineAsm Start
	callq	*%rbx
	jmp	.Lvictim_win0_continue
## Variant 53
.Lvictim_win0_var53:
	popq	%rax
	movq	_target@GOTPCREL(%rip), %rax
	movq	(%rax), %rax
	movq	(%rax), %rbx
	## InlineAsm Start
	callq	*%rbx
	jmp	.Lvictim_win0_continue
## Variant 54
.Lvictim_win0_var54:
	popq	%rax
	movq	_target@GOTPCREL(%rip), %rax
	movq	(%rax), %rax
	movq	(%rax), %rbx
	## InlineAsm Start
	callq	*%rbx
	jmp	.Lvictim_win0_continue
## Variant 55
.Lvictim_win0_var55:
	popq	%rax
	movq	_target@GOTPCREL(%rip), %rax
	movq	(%rax), %rax
	movq	(%rax), %rbx
	## InlineAsm Start
	callq	*%rbx
	jmp	.Lvictim_win0_continue
## Variant 56
.Lvictim_win0_var56:
	popq	%rax
	movq	_target@GOTPCREL(%rip), %rax
	movq	(%rax), %rax
	movq	(%rax), %rbx
	## InlineAsm Start
	callq	*%rbx
	jmp	.Lvictim_win0_continue
## Variant 57
.Lvictim_win0_var57:
	popq	%rax
	movq	_target@GOTPCREL(%rip), %rax
	movq	(%rax), %rax
	movq	(%rax), %rbx
	## InlineAsm Start
	callq	*%rbx
	jmp	.Lvictim_win0_continue
## Variant 58
.Lvictim_win0_var58:
	popq	%rax
	movq	_target@GOTPCREL(%rip), %rax
	movq	(%rax), %rax
	movq	(%rax), %rbx
	## InlineAsm Start
	callq	*%rbx
	jmp	.Lvictim_win0_continue
## Variant 59
.Lvictim_win0_var59:
	popq	%rax
	movq	_target@GOTPCREL(%rip), %rax
	movq	(%rax), %rax
	movq	(%rax), %rbx
	## InlineAsm Start
	callq	*%rbx
	jmp	.Lvictim_win0_continue
## Variant 60
.Lvictim_win0_var60:
	popq	%rax
	movq	_target@GOTPCREL(%rip), %rax
	movq	(%rax), %rax
	movq	(%rax), %rbx
	## InlineAsm Start
	callq	*%rbx
	jmp	.Lvictim_win0_continue
## Variant 61
.Lvictim_win0_var61:
	popq	%rax
	movq	_target@GOTPCREL(%rip), %rax
	movq	(%rax), %rax
	movq	(%rax), %rbx
	## InlineAsm Start
	callq	*%rbx
	jmp	.Lvictim_win0_continue
## Variant 62
.Lvictim_win0_var62:
	popq	%rax
	movq	_target@GOTPCREL(%rip), %rax
	movq	(%rax), %rax
	movq	(%rax), %rbx
	## InlineAsm Start
	callq	*%rbx
	jmp	.Lvictim_win0_continue
## Variant 63
.Lvictim_win0_var63:
	popq	%rax
	movq	_target@GOTPCREL(%rip), %rax
	movq	(%rax), %rax
	movq	(%rax), %rbx
	## InlineAsm Start
	callq	*%rbx
	jmp	.Lvictim_win0_continue
## Variant 64
.Lvictim_win0_var64:
	popq	%rax
	movq	_target@GOTPCREL(%rip), %rax
	movq	(%rax), %rax
	movq	(%rax), %rbx
	## InlineAsm Start
	callq	*%rbx
	jmp	.Lvictim_win0_continue
## Variant 65
.Lvictim_win0_var65:
	popq	%rax
	movq	_target@GOTPCREL(%rip), %rax
	movq	(%rax), %rax
	movq	(%rax), %rbx
	## InlineAsm Start
	callq	*%rbx
	jmp	.Lvictim_win0_continue
## Variant 66
.Lvictim_win0_var66:
	popq	%rax
	movq	_target@GOTPCREL(%rip), %rax
	movq	(%rax), %rax
	movq	(%rax), %rbx
	## InlineAsm Start
	callq	*%rbx
	jmp	.Lvictim_win0_continue
## Variant 67
.Lvictim_win0_var67:
	popq	%rax
	movq	_target@GOTPCREL(%rip), %rax
	movq	(%rax), %rax
	movq	(%rax), %rbx
	## InlineAsm Start
	callq	*%rbx
	jmp	.Lvictim_win0_continue
## Variant 68
.Lvictim_win0_var68:
	popq	%rax
	movq	_target@GOTPCREL(%rip), %rax
	movq	(%rax), %rax
	movq	(%rax), %rbx
	## InlineAsm Start
	callq	*%rbx
	jmp	.Lvictim_win0_continue
## Variant 69
.Lvictim_win0_var69:
	popq	%rax
	movq	_target@GOTPCREL(%rip), %rax
	movq	(%rax), %rax
	movq	(%rax), %rbx
	## InlineAsm Start
	callq	*%rbx
	jmp	.Lvictim_win0_continue
## Variant 70
.Lvictim_win0_var70:
	popq	%rax
	movq	_target@GOTPCREL(%rip), %rax
	movq	(%rax), %rax
	movq	(%rax), %rbx
	## InlineAsm Start
	callq	*%rbx
	jmp	.Lvictim_win0_continue
## Variant 71
.Lvictim_win0_var71:
	popq	%rax
	movq	_target@GOTPCREL(%rip), %rax
	movq	(%rax), %rax
	movq	(%rax), %rbx
	## InlineAsm Start
	callq	*%rbx
	jmp	.Lvictim_win0_continue
## Variant 72
.Lvictim_win0_var72:
	popq	%rax
	movq	_target@GOTPCREL(%rip), %rax
	movq	(%rax), %rax
	movq	(%rax), %rbx
	## InlineAsm Start
	callq	*%rbx
	jmp	.Lvictim_win0_continue
## Variant 73
.Lvictim_win0_var73:
	popq	%rax
	movq	_target@GOTPCREL(%rip), %rax
	movq	(%rax), %rax
	movq	(%rax), %rbx
	## InlineAsm Start
	callq	*%rbx
	jmp	.Lvictim_win0_continue
## Variant 74
.Lvictim_win0_var74:
	popq	%rax
	movq	_target@GOTPCREL(%rip), %rax
	movq	(%rax), %rax
	movq	(%rax), %rbx
	## InlineAsm Start
	callq	*%rbx
	jmp	.Lvictim_win0_continue
## Variant 75
.Lvictim_win0_var75:
	popq	%rax
	movq	_target@GOTPCREL(%rip), %rax
	movq	(%rax), %rax
	movq	(%rax), %rbx
	## InlineAsm Start
	callq	*%rbx
	jmp	.Lvictim_win0_continue
## Variant 76
.Lvictim_win0_var76:
	popq	%rax
	movq	_target@GOTPCREL(%rip), %rax
	movq	(%rax), %rax
	movq	(%rax), %rbx
	## InlineAsm Start
	callq	*%rbx
	jmp	.Lvictim_win0_continue
## Variant 77
.Lvictim_win0_var77:
	popq	%rax
	movq	_target@GOTPCREL(%rip), %rax
	movq	(%rax), %rax
	movq	(%rax), %rbx
	## InlineAsm Start
	callq	*%rbx
	jmp	.Lvictim_win0_continue
## Variant 78
.Lvictim_win0_var78:
	popq	%rax
	movq	_target@GOTPCREL(%rip), %rax
	movq	(%rax), %rax
	movq	(%rax), %rbx
	## InlineAsm Start
	callq	*%rbx
	jmp	.Lvictim_win0_continue
## Variant 79
.Lvictim_win0_var79:
	popq	%rax
	movq	_target@GOTPCREL(%rip), %rax
	movq	(%rax), %rax
	movq	(%rax), %rbx
	## InlineAsm Start
	callq	*%rbx
	jmp	.Lvictim_win0_continue
## Variant 80
.Lvictim_win0_var80:
	popq	%rax
	movq	_target@GOTPCREL(%rip), %rax
	movq	(%rax), %rax
	movq	(%rax), %rbx
	## InlineAsm Start
	callq	*%rbx
	jmp	.Lvictim_win0_continue
## Variant 81
.Lvictim_win0_var81:
	popq	%rax
	movq	_target@GOTPCREL(%rip), %rax
	movq	(%rax), %rax
	movq	(%rax), %rbx
	## InlineAsm Start
	callq	*%rbx
	jmp	.Lvictim_win0_continue
## Variant 82
.Lvictim_win0_var82:
	popq	%rax
	movq	_target@GOTPCREL(%rip), %rax
	movq	(%rax), %rax
	movq	(%rax), %rbx
	## InlineAsm Start
	callq	*%rbx
	jmp	.Lvictim_win0_continue
## Variant 83
.Lvictim_win0_var83:
	popq	%rax
	movq	_target@GOTPCREL(%rip), %rax
	movq	(%rax), %rax
	movq	(%rax), %rbx
	## InlineAsm Start
	callq	*%rbx
	jmp	.Lvictim_win0_continue
## Variant 84
.Lvictim_win0_var84:
	popq	%rax
	movq	_target@GOTPCREL(%rip), %rax
	movq	(%rax), %rax
	movq	(%rax), %rbx
	## InlineAsm Start
	callq	*%rbx
	jmp	.Lvictim_win0_continue
## Variant 85
.Lvictim_win0_var85:
	popq	%rax
	movq	_target@GOTPCREL(%rip), %rax
	movq	(%rax), %rax
	movq	(%rax), %rbx
	## InlineAsm Start
	callq	*%rbx
	jmp	.Lvictim_win0_continue
## Variant 86
.Lvictim_win0_var86:
	popq	%rax
	movq	_target@GOTPCREL(%rip), %rax
	movq	(%rax), %rax
	movq	(%rax), %rbx
	## InlineAsm Start
	callq	*%rbx
	jmp	.Lvictim_win0_continue
## Variant 87
.Lvictim_win0_var87:
	popq	%rax
	movq	_target@GOTPCREL(%rip), %rax
	movq	(%rax), %rax
	movq	(%rax), %rbx
	## InlineAsm Start
	callq	*%rbx
	jmp	.Lvictim_win0_continue
## Variant 88
.Lvictim_win0_var88:
	popq	%rax
	movq	_target@GOTPCREL(%rip), %rax
	movq	(%rax), %rax
	movq	(%rax), %rbx
	## InlineAsm Start
	callq	*%rbx
	jmp	.Lvictim_win0_continue
## Variant 89
.Lvictim_win0_var89:
	popq	%rax
	movq	_target@GOTPCREL(%rip), %rax
	movq	(%rax), %rax
	movq	(%rax), %rbx
	## InlineAsm Start
	callq	*%rbx
	jmp	.Lvictim_win0_continue
## Variant 90
.Lvictim_win0_var90:
	popq	%rax
	movq	_target@GOTPCREL(%rip), %rax
	movq	(%rax), %rax
	movq	(%rax), %rbx
	## InlineAsm Start
	callq	*%rbx
	jmp	.Lvictim_win0_continue
## Variant 91
.Lvictim_win0_var91:
	popq	%rax
	movq	_target@GOTPCREL(%rip), %rax
	movq	(%rax), %rax
	movq	(%rax), %rbx
	## InlineAsm Start
	callq	*%rbx
	jmp	.Lvictim_win0_continue
## Variant 92
.Lvictim_win0_var92:
	popq	%rax
	movq	_target@GOTPCREL(%rip), %rax
	movq	(%rax), %rax
	movq	(%rax), %rbx
	## InlineAsm Start
	callq	*%rbx
	jmp	.Lvictim_win0_continue
## Variant 93
.Lvictim_win0_var93:
	popq	%rax
	movq	_target@GOTPCREL(%rip), %rax
	movq	(%rax), %rax
	movq	(%rax), %rbx
	## InlineAsm Start
	callq	*%rbx
	jmp	.Lvictim_win0_continue
## Variant 94
.Lvictim_win0_var94:
	popq	%rax
	movq	_target@GOTPCREL(%rip), %rax
	movq	(%rax), %rax
	movq	(%rax), %rbx
	## InlineAsm Start
	callq	*%rbx
	jmp	.Lvictim_win0_continue
## Variant 95
.Lvictim_win0_var95:
	popq	%rax
	movq	_target@GOTPCREL(%rip), %rax
	movq	(%rax), %rax
	movq	(%rax), %rbx
	## InlineAsm Start
	callq	*%rbx
	jmp	.Lvictim_win0_continue
## Variant 96
.Lvictim_win0_var96:
	popq	%rax
	movq	_target@GOTPCREL(%rip), %rax
	movq	(%rax), %rax
	movq	(%rax), %rbx
	## InlineAsm Start
	callq	*%rbx
	jmp	.Lvictim_win0_continue
## Variant 97
.Lvictim_win0_var97:
	popq	%rax
	movq	_target@GOTPCREL(%rip), %rax
	movq	(%rax), %rax
	movq	(%rax), %rbx
	## InlineAsm Start
	callq	*%rbx
	jmp	.Lvictim_win0_continue
## Variant 98
.Lvictim_win0_var98:
	popq	%rax
	movq	_target@GOTPCREL(%rip), %rax
	movq	(%rax), %rax
	movq	(%rax), %rbx
	## InlineAsm Start
	callq	*%rbx
	jmp	.Lvictim_win0_continue
## Variant 99
.Lvictim_win0_var99:
	popq	%rax
	movq	_target@GOTPCREL(%rip), %rax
	movq	(%rax), %rax
	movq	(%rax), %rbx
	## InlineAsm Start
	callq	*%rbx
	jmp	.Lvictim_win0_continue
## Variant 100
.Lvictim_win0_var100:
	popq	%rax
	movq	_target@GOTPCREL(%rip), %rax
	movq	(%rax), %rax
	movq	(%rax), %rbx
	## InlineAsm Start
	callq	*%rbx
	jmp	.Lvictim_win0_continue
## Variant 101
.Lvictim_win0_var101:
	popq	%rax
	movq	_target@GOTPCREL(%rip), %rax
	movq	(%rax), %rax
	movq	(%rax), %rbx
	## InlineAsm Start
	callq	*%rbx
	jmp	.Lvictim_win0_continue
## Variant 102
.Lvictim_win0_var102:
	popq	%rax
	movq	_target@GOTPCREL(%rip), %rax
	movq	(%rax), %rax
	movq	(%rax), %rbx
	## InlineAsm Start
	callq	*%rbx
	jmp	.Lvictim_win0_continue
## Variant 103
.Lvictim_win0_var103:
	popq	%rax
	movq	_target@GOTPCREL(%rip), %rax
	movq	(%rax), %rax
	movq	(%rax), %rbx
	## InlineAsm Start
	callq	*%rbx
	jmp	.Lvictim_win0_continue
## Variant 104
.Lvictim_win0_var104:
	popq	%rax
	movq	_target@GOTPCREL(%rip), %rax
	movq	(%rax), %rax
	movq	(%rax), %rbx
	## InlineAsm Start
	callq	*%rbx
	jmp	.Lvictim_win0_continue
## Variant 105
.Lvictim_win0_var105:
	popq	%rax
	movq	_target@GOTPCREL(%rip), %rax
	movq	(%rax), %rax
	movq	(%rax), %rbx
	## InlineAsm Start
	callq	*%rbx
	jmp	.Lvictim_win0_continue
## Variant 106
.Lvictim_win0_var106:
	popq	%rax
	movq	_target@GOTPCREL(%rip), %rax
	movq	(%rax), %rax
	movq	(%rax), %rbx
	## InlineAsm Start
	callq	*%rbx
	jmp	.Lvictim_win0_continue
## Variant 107
.Lvictim_win0_var107:
	popq	%rax
	movq	_target@GOTPCREL(%rip), %rax
	movq	(%rax), %rax
	movq	(%rax), %rbx
	## InlineAsm Start
	callq	*%rbx
	jmp	.Lvictim_win0_continue
## Variant 108
.Lvictim_win0_var108:
	popq	%rax
	movq	_target@GOTPCREL(%rip), %rax
	movq	(%rax), %rax
	movq	(%rax), %rbx
	## InlineAsm Start
	callq	*%rbx
	jmp	.Lvictim_win0_continue
## Variant 109
.Lvictim_win0_var109:
	popq	%rax
	movq	_target@GOTPCREL(%rip), %rax
	movq	(%rax), %rax
	movq	(%rax), %rbx
	## InlineAsm Start
	callq	*%rbx
	jmp	.Lvictim_win0_continue
## Variant 110
.Lvictim_win0_var110:
	popq	%rax
	movq	_target@GOTPCREL(%rip), %rax
	movq	(%rax), %rax
	movq	(%rax), %rbx
	## InlineAsm Start
	callq	*%rbx
	jmp	.Lvictim_win0_continue
## Variant 111
.Lvictim_win0_var111:
	popq	%rax
	movq	_target@GOTPCREL(%rip), %rax
	movq	(%rax), %rax
	movq	(%rax), %rbx
	## InlineAsm Start
	callq	*%rbx
	jmp	.Lvictim_win0_continue
## Variant 112
.Lvictim_win0_var112:
	popq	%rax
	movq	_target@GOTPCREL(%rip), %rax
	movq	(%rax), %rax
	movq	(%rax), %rbx
	## InlineAsm Start
	callq	*%rbx
	jmp	.Lvictim_win0_continue
## Variant 113
.Lvictim_win0_var113:
	popq	%rax
	movq	_target@GOTPCREL(%rip), %rax
	movq	(%rax), %rax
	movq	(%rax), %rbx
	## InlineAsm Start
	callq	*%rbx
	jmp	.Lvictim_win0_continue
## Variant 114
.Lvictim_win0_var114:
	popq	%rax
	movq	_target@GOTPCREL(%rip), %rax
	movq	(%rax), %rax
	movq	(%rax), %rbx
	## InlineAsm Start
	callq	*%rbx
	jmp	.Lvictim_win0_continue
## Variant 115
.Lvictim_win0_var115:
	popq	%rax
	movq	_target@GOTPCREL(%rip), %rax
	movq	(%rax), %rax
	movq	(%rax), %rbx
	## InlineAsm Start
	callq	*%rbx
	jmp	.Lvictim_win0_continue
## Variant 116
.Lvictim_win0_var116:
	popq	%rax
	movq	_target@GOTPCREL(%rip), %rax
	movq	(%rax), %rax
	movq	(%rax), %rbx
	## InlineAsm Start
	callq	*%rbx
	jmp	.Lvictim_win0_continue
## Variant 117
.Lvictim_win0_var117:
	popq	%rax
	movq	_target@GOTPCREL(%rip), %rax
	movq	(%rax), %rax
	movq	(%rax), %rbx
	## InlineAsm Start
	callq	*%rbx
	jmp	.Lvictim_win0_continue
## Variant 118
.Lvictim_win0_var118:
	popq	%rax
	movq	_target@GOTPCREL(%rip), %rax
	movq	(%rax), %rax
	movq	(%rax), %rbx
	## InlineAsm Start
	callq	*%rbx
	jmp	.Lvictim_win0_continue
## Variant 119
.Lvictim_win0_var119:
	popq	%rax
	movq	_target@GOTPCREL(%rip), %rax
	movq	(%rax), %rax
	movq	(%rax), %rbx
	## InlineAsm Start
	callq	*%rbx
	jmp	.Lvictim_win0_continue
## Variant 120
.Lvictim_win0_var120:
	popq	%rax
	movq	_target@GOTPCREL(%rip), %rax
	movq	(%rax), %rax
	movq	(%rax), %rbx
	## InlineAsm Start
	callq	*%rbx
	jmp	.Lvictim_win0_continue
## Variant 121
.Lvictim_win0_var121:
	popq	%rax
	movq	_target@GOTPCREL(%rip), %rax
	movq	(%rax), %rax
	movq	(%rax), %rbx
	## InlineAsm Start
	callq	*%rbx
	jmp	.Lvictim_win0_continue
## Variant 122
.Lvictim_win0_var122:
	popq	%rax
	movq	_target@GOTPCREL(%rip), %rax
	movq	(%rax), %rax
	movq	(%rax), %rbx
	## InlineAsm Start
	callq	*%rbx
	jmp	.Lvictim_win0_continue
## Variant 123
.Lvictim_win0_var123:
	popq	%rax
	movq	_target@GOTPCREL(%rip), %rax
	movq	(%rax), %rax
	movq	(%rax), %rbx
	## InlineAsm Start
	callq	*%rbx
	jmp	.Lvictim_win0_continue
## Variant 124
.Lvictim_win0_var124:
	popq	%rax
	movq	_target@GOTPCREL(%rip), %rax
	movq	(%rax), %rax
	movq	(%rax), %rbx
	## InlineAsm Start
	callq	*%rbx
	jmp	.Lvictim_win0_continue
## Variant 125
.Lvictim_win0_var125:
	popq	%rax
	movq	_target@GOTPCREL(%rip), %rax
	movq	(%rax), %rax
	movq	(%rax), %rbx
	## InlineAsm Start
	callq	*%rbx
	jmp	.Lvictim_win0_continue
## Variant 126
.Lvictim_win0_var126:
	popq	%rax
	movq	_target@GOTPCREL(%rip), %rax
	movq	(%rax), %rax
	movq	(%rax), %rbx
	## InlineAsm Start
	callq	*%rbx
	jmp	.Lvictim_win0_continue
## Variant 127
.Lvictim_win0_var127:
	popq	%rax
	movq	_target@GOTPCREL(%rip), %rax
	movq	(%rax), %rax
	movq	(%rax), %rbx
	## InlineAsm Start
	callq	*%rbx
	jmp	.Lvictim_win0_continue
## Variant 128
.Lvictim_win0_var128:
	popq	%rax
	movq	_target@GOTPCREL(%rip), %rax
	movq	(%rax), %rax
	movq	(%rax), %rbx
	## InlineAsm Start
	callq	*%rbx
	jmp	.Lvictim_win0_continue
## Variant 129
.Lvictim_win0_var129:
	popq	%rax
	movq	_target@GOTPCREL(%rip), %rax
	movq	(%rax), %rax
	movq	(%rax), %rbx
	## InlineAsm Start
	callq	*%rbx
	jmp	.Lvictim_win0_continue
## Variant 130
.Lvictim_win0_var130:
	popq	%rax
	movq	_target@GOTPCREL(%rip), %rax
	movq	(%rax), %rax
	movq	(%rax), %rbx
	## InlineAsm Start
	callq	*%rbx
	jmp	.Lvictim_win0_continue
## Variant 131
.Lvictim_win0_var131:
	popq	%rax
	movq	_target@GOTPCREL(%rip), %rax
	movq	(%rax), %rax
	movq	(%rax), %rbx
	## InlineAsm Start
	callq	*%rbx
	jmp	.Lvictim_win0_continue
## Variant 132
.Lvictim_win0_var132:
	popq	%rax
	movq	_target@GOTPCREL(%rip), %rax
	movq	(%rax), %rax
	movq	(%rax), %rbx
	## InlineAsm Start
	callq	*%rbx
	jmp	.Lvictim_win0_continue
## Variant 133
.Lvictim_win0_var133:
	popq	%rax
	movq	_target@GOTPCREL(%rip), %rax
	movq	(%rax), %rax
	movq	(%rax), %rbx
	## InlineAsm Start
	callq	*%rbx
	jmp	.Lvictim_win0_continue
## Variant 134
.Lvictim_win0_var134:
	popq	%rax
	movq	_target@GOTPCREL(%rip), %rax
	movq	(%rax), %rax
	movq	(%rax), %rbx
	## InlineAsm Start
	callq	*%rbx
	jmp	.Lvictim_win0_continue
## Variant 135
.Lvictim_win0_var135:
	popq	%rax
	movq	_target@GOTPCREL(%rip), %rax
	movq	(%rax), %rax
	movq	(%rax), %rbx
	## InlineAsm Start
	callq	*%rbx
	jmp	.Lvictim_win0_continue
## Variant 136
.Lvictim_win0_var136:
	popq	%rax
	movq	_target@GOTPCREL(%rip), %rax
	movq	(%rax), %rax
	movq	(%rax), %rbx
	## InlineAsm Start
	callq	*%rbx
	jmp	.Lvictim_win0_continue
## Variant 137
.Lvictim_win0_var137:
	popq	%rax
	movq	_target@GOTPCREL(%rip), %rax
	movq	(%rax), %rax
	movq	(%rax), %rbx
	## InlineAsm Start
	callq	*%rbx
	jmp	.Lvictim_win0_continue
## Variant 138
.Lvictim_win0_var138:
	popq	%rax
	movq	_target@GOTPCREL(%rip), %rax
	movq	(%rax), %rax
	movq	(%rax), %rbx
	## InlineAsm Start
	callq	*%rbx
	jmp	.Lvictim_win0_continue
## Variant 139
.Lvictim_win0_var139:
	popq	%rax
	movq	_target@GOTPCREL(%rip), %rax
	movq	(%rax), %rax
	movq	(%rax), %rbx
	## InlineAsm Start
	callq	*%rbx
	jmp	.Lvictim_win0_continue
## Variant 140
.Lvictim_win0_var140:
	popq	%rax
	movq	_target@GOTPCREL(%rip), %rax
	movq	(%rax), %rax
	movq	(%rax), %rbx
	## InlineAsm Start
	callq	*%rbx
	jmp	.Lvictim_win0_continue
## Variant 141
.Lvictim_win0_var141:
	popq	%rax
	movq	_target@GOTPCREL(%rip), %rax
	movq	(%rax), %rax
	movq	(%rax), %rbx
	## InlineAsm Start
	callq	*%rbx
	jmp	.Lvictim_win0_continue
## Variant 142
.Lvictim_win0_var142:
	popq	%rax
	movq	_target@GOTPCREL(%rip), %rax
	movq	(%rax), %rax
	movq	(%rax), %rbx
	## InlineAsm Start
	callq	*%rbx
	jmp	.Lvictim_win0_continue
## Variant 143
.Lvictim_win0_var143:
	popq	%rax
	movq	_target@GOTPCREL(%rip), %rax
	movq	(%rax), %rax
	movq	(%rax), %rbx
	## InlineAsm Start
	callq	*%rbx
	jmp	.Lvictim_win0_continue
## Variant 144
.Lvictim_win0_var144:
	popq	%rax
	movq	_target@GOTPCREL(%rip), %rax
	movq	(%rax), %rax
	movq	(%rax), %rbx
	## InlineAsm Start
	callq	*%rbx
	jmp	.Lvictim_win0_continue
## Variant 145
.Lvictim_win0_var145:
	popq	%rax
	movq	_target@GOTPCREL(%rip), %rax
	movq	(%rax), %rax
	movq	(%rax), %rbx
	## InlineAsm Start
	callq	*%rbx
	jmp	.Lvictim_win0_continue
## Variant 146
.Lvictim_win0_var146:
	popq	%rax
	movq	_target@GOTPCREL(%rip), %rax
	movq	(%rax), %rax
	movq	(%rax), %rbx
	## InlineAsm Start
	callq	*%rbx
	jmp	.Lvictim_win0_continue
## Variant 147
.Lvictim_win0_var147:
	popq	%rax
	movq	_target@GOTPCREL(%rip), %rax
	movq	(%rax), %rax
	movq	(%rax), %rbx
	## InlineAsm Start
	callq	*%rbx
	jmp	.Lvictim_win0_continue
## Variant 148
.Lvictim_win0_var148:
	popq	%rax
	movq	_target@GOTPCREL(%rip), %rax
	movq	(%rax), %rax
	movq	(%rax), %rbx
	## InlineAsm Start
	callq	*%rbx
	jmp	.Lvictim_win0_continue
## Variant 149
.Lvictim_win0_var149:
	popq	%rax
	movq	_target@GOTPCREL(%rip), %rax
	movq	(%rax), %rax
	movq	(%rax), %rbx
	## InlineAsm Start
	callq	*%rbx
	jmp	.Lvictim_win0_continue
## Variant 150
.Lvictim_win0_var150:
	popq	%rax
	movq	_target@GOTPCREL(%rip), %rax
	movq	(%rax), %rax
	movq	(%rax), %rbx
	## InlineAsm Start
	callq	*%rbx
	jmp	.Lvictim_win0_continue
## Variant 151
.Lvictim_win0_var151:
	popq	%rax
	movq	_target@GOTPCREL(%rip), %rax
	movq	(%rax), %rax
	movq	(%rax), %rbx
	## InlineAsm Start
	callq	*%rbx
	jmp	.Lvictim_win0_continue
## Variant 152
.Lvictim_win0_var152:
	popq	%rax
	movq	_target@GOTPCREL(%rip), %rax
	movq	(%rax), %rax
	movq	(%rax), %rbx
	## InlineAsm Start
	callq	*%rbx
	jmp	.Lvictim_win0_continue
## Variant 153
.Lvictim_win0_var153:
	popq	%rax
	movq	_target@GOTPCREL(%rip), %rax
	movq	(%rax), %rax
	movq	(%rax), %rbx
	## InlineAsm Start
	callq	*%rbx
	jmp	.Lvictim_win0_continue
## Variant 154
.Lvictim_win0_var154:
	popq	%rax
	movq	_target@GOTPCREL(%rip), %rax
	movq	(%rax), %rax
	movq	(%rax), %rbx
	## InlineAsm Start
	callq	*%rbx
	jmp	.Lvictim_win0_continue
## Variant 155
.Lvictim_win0_var155:
	popq	%rax
	movq	_target@GOTPCREL(%rip), %rax
	movq	(%rax), %rax
	movq	(%rax), %rbx
	## InlineAsm Start
	callq	*%rbx
	jmp	.Lvictim_win0_continue
## Variant 156
.Lvictim_win0_var156:
	popq	%rax
	movq	_target@GOTPCREL(%rip), %rax
	movq	(%rax), %rax
	movq	(%rax), %rbx
	## InlineAsm Start
	callq	*%rbx
	jmp	.Lvictim_win0_continue
## Variant 157
.Lvictim_win0_var157:
	popq	%rax
	movq	_target@GOTPCREL(%rip), %rax
	movq	(%rax), %rax
	movq	(%rax), %rbx
	## InlineAsm Start
	callq	*%rbx
	jmp	.Lvictim_win0_continue
## Variant 158
.Lvictim_win0_var158:
	popq	%rax
	movq	_target@GOTPCREL(%rip), %rax
	movq	(%rax), %rax
	movq	(%rax), %rbx
	## InlineAsm Start
	callq	*%rbx
	jmp	.Lvictim_win0_continue
## Variant 159
.Lvictim_win0_var159:
	popq	%rax
	movq	_target@GOTPCREL(%rip), %rax
	movq	(%rax), %rax
	movq	(%rax), %rbx
	## InlineAsm Start
	callq	*%rbx
	jmp	.Lvictim_win0_continue
## Variant 160
.Lvictim_win0_var160:
	popq	%rax
	movq	_target@GOTPCREL(%rip), %rax
	movq	(%rax), %rax
	movq	(%rax), %rbx
	## InlineAsm Start
	callq	*%rbx
	jmp	.Lvictim_win0_continue
## Variant 161
.Lvictim_win0_var161:
	popq	%rax
	movq	_target@GOTPCREL(%rip), %rax
	movq	(%rax), %rax
	movq	(%rax), %rbx
	## InlineAsm Start
	callq	*%rbx
	jmp	.Lvictim_win0_continue
## Variant 162
.Lvictim_win0_var162:
	popq	%rax
	movq	_target@GOTPCREL(%rip), %rax
	movq	(%rax), %rax
	movq	(%rax), %rbx
	## InlineAsm Start
	callq	*%rbx
	jmp	.Lvictim_win0_continue
## Variant 163
.Lvictim_win0_var163:
	popq	%rax
	movq	_target@GOTPCREL(%rip), %rax
	movq	(%rax), %rax
	movq	(%rax), %rbx
	## InlineAsm Start
	callq	*%rbx
	jmp	.Lvictim_win0_continue
## Variant 164
.Lvictim_win0_var164:
	popq	%rax
	movq	_target@GOTPCREL(%rip), %rax
	movq	(%rax), %rax
	movq	(%rax), %rbx
	## InlineAsm Start
	callq	*%rbx
	jmp	.Lvictim_win0_continue
## Variant 165
.Lvictim_win0_var165:
	popq	%rax
	movq	_target@GOTPCREL(%rip), %rax
	movq	(%rax), %rax
	movq	(%rax), %rbx
	## InlineAsm Start
	callq	*%rbx
	jmp	.Lvictim_win0_continue
## Variant 166
.Lvictim_win0_var166:
	popq	%rax
	movq	_target@GOTPCREL(%rip), %rax
	movq	(%rax), %rax
	movq	(%rax), %rbx
	## InlineAsm Start
	callq	*%rbx
	jmp	.Lvictim_win0_continue
## Variant 167
.Lvictim_win0_var167:
	popq	%rax
	movq	_target@GOTPCREL(%rip), %rax
	movq	(%rax), %rax
	movq	(%rax), %rbx
	## InlineAsm Start
	callq	*%rbx
	jmp	.Lvictim_win0_continue
## Variant 168
.Lvictim_win0_var168:
	popq	%rax
	movq	_target@GOTPCREL(%rip), %rax
	movq	(%rax), %rax
	movq	(%rax), %rbx
	## InlineAsm Start
	callq	*%rbx
	jmp	.Lvictim_win0_continue
## Variant 169
.Lvictim_win0_var169:
	popq	%rax
	movq	_target@GOTPCREL(%rip), %rax
	movq	(%rax), %rax
	movq	(%rax), %rbx
	## InlineAsm Start
	callq	*%rbx
	jmp	.Lvictim_win0_continue
## Variant 170
.Lvictim_win0_var170:
	popq	%rax
	movq	_target@GOTPCREL(%rip), %rax
	movq	(%rax), %rax
	movq	(%rax), %rbx
	## InlineAsm Start
	callq	*%rbx
	jmp	.Lvictim_win0_continue
## Variant 171
.Lvictim_win0_var171:
	popq	%rax
	movq	_target@GOTPCREL(%rip), %rax
	movq	(%rax), %rax
	movq	(%rax), %rbx
	## InlineAsm Start
	callq	*%rbx
	jmp	.Lvictim_win0_continue
## Variant 172
.Lvictim_win0_var172:
	popq	%rax
	movq	_target@GOTPCREL(%rip), %rax
	movq	(%rax), %rax
	movq	(%rax), %rbx
	## InlineAsm Start
	callq	*%rbx
	jmp	.Lvictim_win0_continue
## Variant 173
.Lvictim_win0_var173:
	popq	%rax
	movq	_target@GOTPCREL(%rip), %rax
	movq	(%rax), %rax
	movq	(%rax), %rbx
	## InlineAsm Start
	callq	*%rbx
	jmp	.Lvictim_win0_continue
## Variant 174
.Lvictim_win0_var174:
	popq	%rax
	movq	_target@GOTPCREL(%rip), %rax
	movq	(%rax), %rax
	movq	(%rax), %rbx
	## InlineAsm Start
	callq	*%rbx
	jmp	.Lvictim_win0_continue
## Variant 175
.Lvictim_win0_var175:
	popq	%rax
	movq	_target@GOTPCREL(%rip), %rax
	movq	(%rax), %rax
	movq	(%rax), %rbx
	## InlineAsm Start
	callq	*%rbx
	jmp	.Lvictim_win0_continue
## Variant 176
.Lvictim_win0_var176:
	popq	%rax
	movq	_target@GOTPCREL(%rip), %rax
	movq	(%rax), %rax
	movq	(%rax), %rbx
	## InlineAsm Start
	callq	*%rbx
	jmp	.Lvictim_win0_continue
## Variant 177
.Lvictim_win0_var177:
	popq	%rax
	movq	_target@GOTPCREL(%rip), %rax
	movq	(%rax), %rax
	movq	(%rax), %rbx
	## InlineAsm Start
	callq	*%rbx
	jmp	.Lvictim_win0_continue
## Variant 178
.Lvictim_win0_var178:
	popq	%rax
	movq	_target@GOTPCREL(%rip), %rax
	movq	(%rax), %rax
	movq	(%rax), %rbx
	## InlineAsm Start
	callq	*%rbx
	jmp	.Lvictim_win0_continue
## Variant 179
.Lvictim_win0_var179:
	popq	%rax
	movq	_target@GOTPCREL(%rip), %rax
	movq	(%rax), %rax
	movq	(%rax), %rbx
	## InlineAsm Start
	callq	*%rbx
	jmp	.Lvictim_win0_continue
## Variant 180
.Lvictim_win0_var180:
	popq	%rax
	movq	_target@GOTPCREL(%rip), %rax
	movq	(%rax), %rax
	movq	(%rax), %rbx
	## InlineAsm Start
	callq	*%rbx
	jmp	.Lvictim_win0_continue
## Variant 181
.Lvictim_win0_var181:
	popq	%rax
	movq	_target@GOTPCREL(%rip), %rax
	movq	(%rax), %rax
	movq	(%rax), %rbx
	## InlineAsm Start
	callq	*%rbx
	jmp	.Lvictim_win0_continue
## Variant 182
.Lvictim_win0_var182:
	popq	%rax
	movq	_target@GOTPCREL(%rip), %rax
	movq	(%rax), %rax
	movq	(%rax), %rbx
	## InlineAsm Start
	callq	*%rbx
	jmp	.Lvictim_win0_continue
## Variant 183
.Lvictim_win0_var183:
	popq	%rax
	movq	_target@GOTPCREL(%rip), %rax
	movq	(%rax), %rax
	movq	(%rax), %rbx
	## InlineAsm Start
	callq	*%rbx
	jmp	.Lvictim_win0_continue
## Variant 184
.Lvictim_win0_var184:
	popq	%rax
	movq	_target@GOTPCREL(%rip), %rax
	movq	(%rax), %rax
	movq	(%rax), %rbx
	## InlineAsm Start
	callq	*%rbx
	jmp	.Lvictim_win0_continue
## Variant 185
.Lvictim_win0_var185:
	popq	%rax
	movq	_target@GOTPCREL(%rip), %rax
	movq	(%rax), %rax
	movq	(%rax), %rbx
	## InlineAsm Start
	callq	*%rbx
	jmp	.Lvictim_win0_continue
## Variant 186
.Lvictim_win0_var186:
	popq	%rax
	movq	_target@GOTPCREL(%rip), %rax
	movq	(%rax), %rax
	movq	(%rax), %rbx
	## InlineAsm Start
	callq	*%rbx
	jmp	.Lvictim_win0_continue
## Variant 187
.Lvictim_win0_var187:
	popq	%rax
	movq	_target@GOTPCREL(%rip), %rax
	movq	(%rax), %rax
	movq	(%rax), %rbx
	## InlineAsm Start
	callq	*%rbx
	jmp	.Lvictim_win0_continue
## Variant 188
.Lvictim_win0_var188:
	popq	%rax
	movq	_target@GOTPCREL(%rip), %rax
	movq	(%rax), %rax
	movq	(%rax), %rbx
	## InlineAsm Start
	callq	*%rbx
	jmp	.Lvictim_win0_continue
## Variant 189
.Lvictim_win0_var189:
	popq	%rax
	movq	_target@GOTPCREL(%rip), %rax
	movq	(%rax), %rax
	movq	(%rax), %rbx
	## InlineAsm Start
	callq	*%rbx
	jmp	.Lvictim_win0_continue
## Variant 190
.Lvictim_win0_var190:
	popq	%rax
	movq	_target@GOTPCREL(%rip), %rax
	movq	(%rax), %rax
	movq	(%rax), %rbx
	## InlineAsm Start
	callq	*%rbx
	jmp	.Lvictim_win0_continue
## Variant 191
.Lvictim_win0_var191:
	popq	%rax
	movq	_target@GOTPCREL(%rip), %rax
	movq	(%rax), %rax
	movq	(%rax), %rbx
	## InlineAsm Start
	callq	*%rbx
	jmp	.Lvictim_win0_continue
## Variant 192
.Lvictim_win0_var192:
	popq	%rax
	movq	_target@GOTPCREL(%rip), %rax
	movq	(%rax), %rax
	movq	(%rax), %rbx
	## InlineAsm Start
	callq	*%rbx
	jmp	.Lvictim_win0_continue
## Variant 193
.Lvictim_win0_var193:
	popq	%rax
	movq	_target@GOTPCREL(%rip), %rax
	movq	(%rax), %rax
	movq	(%rax), %rbx
	## InlineAsm Start
	callq	*%rbx
	jmp	.Lvictim_win0_continue
## Variant 194
.Lvictim_win0_var194:
	popq	%rax
	movq	_target@GOTPCREL(%rip), %rax
	movq	(%rax), %rax
	movq	(%rax), %rbx
	## InlineAsm Start
	callq	*%rbx
	jmp	.Lvictim_win0_continue
## Variant 195
.Lvictim_win0_var195:
	popq	%rax
	movq	_target@GOTPCREL(%rip), %rax
	movq	(%rax), %rax
	movq	(%rax), %rbx
	## InlineAsm Start
	callq	*%rbx
	jmp	.Lvictim_win0_continue
## Variant 196
.Lvictim_win0_var196:
	popq	%rax
	movq	_target@GOTPCREL(%rip), %rax
	movq	(%rax), %rax
	movq	(%rax), %rbx
	## InlineAsm Start
	callq	*%rbx
	jmp	.Lvictim_win0_continue
## Variant 197
.Lvictim_win0_var197:
	popq	%rax
	movq	_target@GOTPCREL(%rip), %rax
	movq	(%rax), %rax
	movq	(%rax), %rbx
	## InlineAsm Start
	callq	*%rbx
	jmp	.Lvictim_win0_continue
## Variant 198
.Lvictim_win0_var198:
	popq	%rax
	movq	_target@GOTPCREL(%rip), %rax
	movq	(%rax), %rax
	movq	(%rax), %rbx
	## InlineAsm Start
	callq	*%rbx
	jmp	.Lvictim_win0_continue
## Variant 199
.Lvictim_win0_var199:
	popq	%rax
	movq	_target@GOTPCREL(%rip), %rax
	movq	(%rax), %rax
	movq	(%rax), %rbx
	## InlineAsm Start
	callq	*%rbx
	jmp	.Lvictim_win0_continue
## Variant 200
.Lvictim_win0_var200:
	popq	%rax
	movq	_target@GOTPCREL(%rip), %rax
	movq	(%rax), %rax
	movq	(%rax), %rbx
	## InlineAsm Start
	callq	*%rbx
	jmp	.Lvictim_win0_continue
## Variant 201
.Lvictim_win0_var201:
	popq	%rax
	movq	_target@GOTPCREL(%rip), %rax
	movq	(%rax), %rax
	movq	(%rax), %rbx
	## InlineAsm Start
	callq	*%rbx
	jmp	.Lvictim_win0_continue
## Variant 202
.Lvictim_win0_var202:
	popq	%rax
	movq	_target@GOTPCREL(%rip), %rax
	movq	(%rax), %rax
	movq	(%rax), %rbx
	## InlineAsm Start
	callq	*%rbx
	jmp	.Lvictim_win0_continue
## Variant 203
.Lvictim_win0_var203:
	popq	%rax
	movq	_target@GOTPCREL(%rip), %rax
	movq	(%rax), %rax
	movq	(%rax), %rbx
	## InlineAsm Start
	callq	*%rbx
	jmp	.Lvictim_win0_continue
## Variant 204
.Lvictim_win0_var204:
	popq	%rax
	movq	_target@GOTPCREL(%rip), %rax
	movq	(%rax), %rax
	movq	(%rax), %rbx
	## InlineAsm Start
	callq	*%rbx
	jmp	.Lvictim_win0_continue
## Variant 205
.Lvictim_win0_var205:
	popq	%rax
	movq	_target@GOTPCREL(%rip), %rax
	movq	(%rax), %rax
	movq	(%rax), %rbx
	## InlineAsm Start
	callq	*%rbx
	jmp	.Lvictim_win0_continue
## Variant 206
.Lvictim_win0_var206:
	popq	%rax
	movq	_target@GOTPCREL(%rip), %rax
	movq	(%rax), %rax
	movq	(%rax), %rbx
	## InlineAsm Start
	callq	*%rbx
	jmp	.Lvictim_win0_continue
## Variant 207
.Lvictim_win0_var207:
	popq	%rax
	movq	_target@GOTPCREL(%rip), %rax
	movq	(%rax), %rax
	movq	(%rax), %rbx
	## InlineAsm Start
	callq	*%rbx
	jmp	.Lvictim_win0_continue
## Variant 208
.Lvictim_win0_var208:
	popq	%rax
	movq	_target@GOTPCREL(%rip), %rax
	movq	(%rax), %rax
	movq	(%rax), %rbx
	## InlineAsm Start
	callq	*%rbx
	jmp	.Lvictim_win0_continue
## Variant 209
.Lvictim_win0_var209:
	popq	%rax
	movq	_target@GOTPCREL(%rip), %rax
	movq	(%rax), %rax
	movq	(%rax), %rbx
	## InlineAsm Start
	callq	*%rbx
	jmp	.Lvictim_win0_continue
## Variant 210
.Lvictim_win0_var210:
	popq	%rax
	movq	_target@GOTPCREL(%rip), %rax
	movq	(%rax), %rax
	movq	(%rax), %rbx
	## InlineAsm Start
	callq	*%rbx
	jmp	.Lvictim_win0_continue
## Variant 211
.Lvictim_win0_var211:
	popq	%rax
	movq	_target@GOTPCREL(%rip), %rax
	movq	(%rax), %rax
	movq	(%rax), %rbx
	## InlineAsm Start
	callq	*%rbx
	jmp	.Lvictim_win0_continue
## Variant 212
.Lvictim_win0_var212:
	popq	%rax
	movq	_target@GOTPCREL(%rip), %rax
	movq	(%rax), %rax
	movq	(%rax), %rbx
	## InlineAsm Start
	callq	*%rbx
	jmp	.Lvictim_win0_continue
## Variant 213
.Lvictim_win0_var213:
	popq	%rax
	movq	_target@GOTPCREL(%rip), %rax
	movq	(%rax), %rax
	movq	(%rax), %rbx
	## InlineAsm Start
	callq	*%rbx
	jmp	.Lvictim_win0_continue
## Variant 214
.Lvictim_win0_var214:
	popq	%rax
	movq	_target@GOTPCREL(%rip), %rax
	movq	(%rax), %rax
	movq	(%rax), %rbx
	## InlineAsm Start
	callq	*%rbx
	jmp	.Lvictim_win0_continue
## Variant 215
.Lvictim_win0_var215:
	popq	%rax
	movq	_target@GOTPCREL(%rip), %rax
	movq	(%rax), %rax
	movq	(%rax), %rbx
	## InlineAsm Start
	callq	*%rbx
	jmp	.Lvictim_win0_continue
## Variant 216
.Lvictim_win0_var216:
	popq	%rax
	movq	_target@GOTPCREL(%rip), %rax
	movq	(%rax), %rax
	movq	(%rax), %rbx
	## InlineAsm Start
	callq	*%rbx
	jmp	.Lvictim_win0_continue
## Variant 217
.Lvictim_win0_var217:
	popq	%rax
	movq	_target@GOTPCREL(%rip), %rax
	movq	(%rax), %rax
	movq	(%rax), %rbx
	## InlineAsm Start
	callq	*%rbx
	jmp	.Lvictim_win0_continue
## Variant 218
.Lvictim_win0_var218:
	popq	%rax
	movq	_target@GOTPCREL(%rip), %rax
	movq	(%rax), %rax
	movq	(%rax), %rbx
	## InlineAsm Start
	callq	*%rbx
	jmp	.Lvictim_win0_continue
## Variant 219
.Lvictim_win0_var219:
	popq	%rax
	movq	_target@GOTPCREL(%rip), %rax
	movq	(%rax), %rax
	movq	(%rax), %rbx
	## InlineAsm Start
	callq	*%rbx
	jmp	.Lvictim_win0_continue
## Variant 220
.Lvictim_win0_var220:
	popq	%rax
	movq	_target@GOTPCREL(%rip), %rax
	movq	(%rax), %rax
	movq	(%rax), %rbx
	## InlineAsm Start
	callq	*%rbx
	jmp	.Lvictim_win0_continue
## Variant 221
.Lvictim_win0_var221:
	popq	%rax
	movq	_target@GOTPCREL(%rip), %rax
	movq	(%rax), %rax
	movq	(%rax), %rbx
	## InlineAsm Start
	callq	*%rbx
	jmp	.Lvictim_win0_continue
## Variant 222
.Lvictim_win0_var222:
	popq	%rax
	movq	_target@GOTPCREL(%rip), %rax
	movq	(%rax), %rax
	movq	(%rax), %rbx
	## InlineAsm Start
	callq	*%rbx
	jmp	.Lvictim_win0_continue
## Variant 223
.Lvictim_win0_var223:
	popq	%rax
	movq	_target@GOTPCREL(%rip), %rax
	movq	(%rax), %rax
	movq	(%rax), %rbx
	## InlineAsm Start
	callq	*%rbx
	jmp	.Lvictim_win0_continue
## Variant 224
.Lvictim_win0_var224:
	popq	%rax
	movq	_target@GOTPCREL(%rip), %rax
	movq	(%rax), %rax
	movq	(%rax), %rbx
	## InlineAsm Start
	callq	*%rbx
	jmp	.Lvictim_win0_continue
## Variant 225
.Lvictim_win0_var225:
	popq	%rax
	movq	_target@GOTPCREL(%rip), %rax
	movq	(%rax), %rax
	movq	(%rax), %rbx
	## InlineAsm Start
	callq	*%rbx
	jmp	.Lvictim_win0_continue
## Variant 226
.Lvictim_win0_var226:
	popq	%rax
	movq	_target@GOTPCREL(%rip), %rax
	movq	(%rax), %rax
	movq	(%rax), %rbx
	## InlineAsm Start
	callq	*%rbx
	jmp	.Lvictim_win0_continue
## Variant 227
.Lvictim_win0_var227:
	popq	%rax
	movq	_target@GOTPCREL(%rip), %rax
	movq	(%rax), %rax
	movq	(%rax), %rbx
	## InlineAsm Start
	callq	*%rbx
	jmp	.Lvictim_win0_continue
## Variant 228
.Lvictim_win0_var228:
	popq	%rax
	movq	_target@GOTPCREL(%rip), %rax
	movq	(%rax), %rax
	movq	(%rax), %rbx
	## InlineAsm Start
	callq	*%rbx
	jmp	.Lvictim_win0_continue
## Variant 229
.Lvictim_win0_var229:
	popq	%rax
	movq	_target@GOTPCREL(%rip), %rax
	movq	(%rax), %rax
	movq	(%rax), %rbx
	## InlineAsm Start
	callq	*%rbx
	jmp	.Lvictim_win0_continue
## Variant 230
.Lvictim_win0_var230:
	popq	%rax
	movq	_target@GOTPCREL(%rip), %rax
	movq	(%rax), %rax
	movq	(%rax), %rbx
	## InlineAsm Start
	callq	*%rbx
	jmp	.Lvictim_win0_continue
## Variant 231
.Lvictim_win0_var231:
	popq	%rax
	movq	_target@GOTPCREL(%rip), %rax
	movq	(%rax), %rax
	movq	(%rax), %rbx
	## InlineAsm Start
	callq	*%rbx
	jmp	.Lvictim_win0_continue
## Variant 232
.Lvictim_win0_var232:
	popq	%rax
	movq	_target@GOTPCREL(%rip), %rax
	movq	(%rax), %rax
	movq	(%rax), %rbx
	## InlineAsm Start
	callq	*%rbx
	jmp	.Lvictim_win0_continue
## Variant 233
.Lvictim_win0_var233:
	popq	%rax
	movq	_target@GOTPCREL(%rip), %rax
	movq	(%rax), %rax
	movq	(%rax), %rbx
	## InlineAsm Start
	callq	*%rbx
	jmp	.Lvictim_win0_continue
## Variant 234
.Lvictim_win0_var234:
	popq	%rax
	movq	_target@GOTPCREL(%rip), %rax
	movq	(%rax), %rax
	movq	(%rax), %rbx
	## InlineAsm Start
	callq	*%rbx
	jmp	.Lvictim_win0_continue
## Variant 235
.Lvictim_win0_var235:
	popq	%rax
	movq	_target@GOTPCREL(%rip), %rax
	movq	(%rax), %rax
	movq	(%rax), %rbx
	## InlineAsm Start
	callq	*%rbx
	jmp	.Lvictim_win0_continue
## Variant 236
.Lvictim_win0_var236:
	popq	%rax
	movq	_target@GOTPCREL(%rip), %rax
	movq	(%rax), %rax
	movq	(%rax), %rbx
	## InlineAsm Start
	callq	*%rbx
	jmp	.Lvictim_win0_continue
## Variant 237
.Lvictim_win0_var237:
	popq	%rax
	movq	_target@GOTPCREL(%rip), %rax
	movq	(%rax), %rax
	movq	(%rax), %rbx
	## InlineAsm Start
	callq	*%rbx
	jmp	.Lvictim_win0_continue
## Variant 238
.Lvictim_win0_var238:
	popq	%rax
	movq	_target@GOTPCREL(%rip), %rax
	movq	(%rax), %rax
	movq	(%rax), %rbx
	## InlineAsm Start
	callq	*%rbx
	jmp	.Lvictim_win0_continue
## Variant 239
.Lvictim_win0_var239:
	popq	%rax
	movq	_target@GOTPCREL(%rip), %rax
	movq	(%rax), %rax
	movq	(%rax), %rbx
	## InlineAsm Start
	callq	*%rbx
	jmp	.Lvictim_win0_continue
## Variant 240
.Lvictim_win0_var240:
	popq	%rax
	movq	_target@GOTPCREL(%rip), %rax
	movq	(%rax), %rax
	movq	(%rax), %rbx
	## InlineAsm Start
	callq	*%rbx
	jmp	.Lvictim_win0_continue
## Variant 241
.Lvictim_win0_var241:
	popq	%rax
	movq	_target@GOTPCREL(%rip), %rax
	movq	(%rax), %rax
	movq	(%rax), %rbx
	## InlineAsm Start
	callq	*%rbx
	jmp	.Lvictim_win0_continue
## Variant 242
.Lvictim_win0_var242:
	popq	%rax
	movq	_target@GOTPCREL(%rip), %rax
	movq	(%rax), %rax
	movq	(%rax), %rbx
	## InlineAsm Start
	callq	*%rbx
	jmp	.Lvictim_win0_continue
## Variant 243
.Lvictim_win0_var243:
	popq	%rax
	movq	_target@GOTPCREL(%rip), %rax
	movq	(%rax), %rax
	movq	(%rax), %rbx
	## InlineAsm Start
	callq	*%rbx
	jmp	.Lvictim_win0_continue
## Variant 244
.Lvictim_win0_var244:
	popq	%rax
	movq	_target@GOTPCREL(%rip), %rax
	movq	(%rax), %rax
	movq	(%rax), %rbx
	## InlineAsm Start
	callq	*%rbx
	jmp	.Lvictim_win0_continue
## Variant 245
.Lvictim_win0_var245:
	popq	%rax
	movq	_target@GOTPCREL(%rip), %rax
	movq	(%rax), %rax
	movq	(%rax), %rbx
	## InlineAsm Start
	callq	*%rbx
	jmp	.Lvictim_win0_continue
## Variant 246
.Lvictim_win0_var246:
	popq	%rax
	movq	_target@GOTPCREL(%rip), %rax
	movq	(%rax), %rax
	movq	(%rax), %rbx
	## InlineAsm Start
	callq	*%rbx
	jmp	.Lvictim_win0_continue
## Variant 247
.Lvictim_win0_var247:
	popq	%rax
	movq	_target@GOTPCREL(%rip), %rax
	movq	(%rax), %rax
	movq	(%rax), %rbx
	## InlineAsm Start
	callq	*%rbx
	jmp	.Lvictim_win0_continue
## Variant 248
.Lvictim_win0_var248:
	popq	%rax
	movq	_target@GOTPCREL(%rip), %rax
	movq	(%rax), %rax
	movq	(%rax), %rbx
	## InlineAsm Start
	callq	*%rbx
	jmp	.Lvictim_win0_continue
## Variant 249
.Lvictim_win0_var249:
	popq	%rax
	movq	_target@GOTPCREL(%rip), %rax
	movq	(%rax), %rax
	movq	(%rax), %rbx
	## InlineAsm Start
	callq	*%rbx
	jmp	.Lvictim_win0_continue
## Variant 250
.Lvictim_win0_var250:
	popq	%rax
	movq	_target@GOTPCREL(%rip), %rax
	movq	(%rax), %rax
	movq	(%rax), %rbx
	## InlineAsm Start
	callq	*%rbx
	jmp	.Lvictim_win0_continue
## Variant 251
.Lvictim_win0_var251:
	popq	%rax
	movq	_target@GOTPCREL(%rip), %rax
	movq	(%rax), %rax
	movq	(%rax), %rbx
	## InlineAsm Start
	callq	*%rbx
	jmp	.Lvictim_win0_continue
## Variant 252
.Lvictim_win0_var252:
	popq	%rax
	movq	_target@GOTPCREL(%rip), %rax
	movq	(%rax), %rax
	movq	(%rax), %rbx
	## InlineAsm Start
	callq	*%rbx
	jmp	.Lvictim_win0_continue
## Variant 253
.Lvictim_win0_var253:
	popq	%rax
	movq	_target@GOTPCREL(%rip), %rax
	movq	(%rax), %rax
	movq	(%rax), %rbx
	## InlineAsm Start
	callq	*%rbx
	jmp	.Lvictim_win0_continue
## Variant 254
.Lvictim_win0_var254:
	popq	%rax
	movq	_target@GOTPCREL(%rip), %rax
	movq	(%rax), %rax
	movq	(%rax), %rbx
	## InlineAsm Start
	callq	*%rbx
	jmp	.Lvictim_win0_continue
## Variant 255
.Lvictim_win0_var255:
	popq	%rax
	movq	_target@GOTPCREL(%rip), %rax
	movq	(%rax), %rax
	movq	(%rax), %rbx
	## InlineAsm Start
	callq	*%rbx
	jmp	.Lvictim_win0_continue
## Variant 256
.Lvictim_win0_var256:
	popq	%rax
	movq	_target@GOTPCREL(%rip), %rax
	movq	(%rax), %rax
	movq	(%rax), %rbx
	## InlineAsm Start
	callq	*%rbx
	jmp	.Lvictim_win0_continue
## Variant 257
.Lvictim_win0_var257:
	popq	%rax
	movq	_target@GOTPCREL(%rip), %rax
	movq	(%rax), %rax
	movq	(%rax), %rbx
	## InlineAsm Start
	callq	*%rbx
	jmp	.Lvictim_win0_continue
## Variant 258
.Lvictim_win0_var258:
	popq	%rax
	movq	_target@GOTPCREL(%rip), %rax
	movq	(%rax), %rax
	movq	(%rax), %rbx
	## InlineAsm Start
	callq	*%rbx
	jmp	.Lvictim_win0_continue
## Variant 259
.Lvictim_win0_var259:
	popq	%rax
	movq	_target@GOTPCREL(%rip), %rax
	movq	(%rax), %rax
	movq	(%rax), %rbx
	## InlineAsm Start
	callq	*%rbx
	jmp	.Lvictim_win0_continue
## Variant 260
.Lvictim_win0_var260:
	popq	%rax
	movq	_target@GOTPCREL(%rip), %rax
	movq	(%rax), %rax
	movq	(%rax), %rbx
	## InlineAsm Start
	callq	*%rbx
	jmp	.Lvictim_win0_continue
## Variant 261
.Lvictim_win0_var261:
	popq	%rax
	movq	_target@GOTPCREL(%rip), %rax
	movq	(%rax), %rax
	movq	(%rax), %rbx
	## InlineAsm Start
	callq	*%rbx
	jmp	.Lvictim_win0_continue
## Variant 262
.Lvictim_win0_var262:
	popq	%rax
	movq	_target@GOTPCREL(%rip), %rax
	movq	(%rax), %rax
	movq	(%rax), %rbx
	## InlineAsm Start
	callq	*%rbx
	jmp	.Lvictim_win0_continue
## Variant 263
.Lvictim_win0_var263:
	popq	%rax
	movq	_target@GOTPCREL(%rip), %rax
	movq	(%rax), %rax
	movq	(%rax), %rbx
	## InlineAsm Start
	callq	*%rbx
	jmp	.Lvictim_win0_continue
## Variant 264
.Lvictim_win0_var264:
	popq	%rax
	movq	_target@GOTPCREL(%rip), %rax
	movq	(%rax), %rax
	movq	(%rax), %rbx
	## InlineAsm Start
	callq	*%rbx
	jmp	.Lvictim_win0_continue
## Variant 265
.Lvictim_win0_var265:
	popq	%rax
	movq	_target@GOTPCREL(%rip), %rax
	movq	(%rax), %rax
	movq	(%rax), %rbx
	## InlineAsm Start
	callq	*%rbx
	jmp	.Lvictim_win0_continue
## Variant 266
.Lvictim_win0_var266:
	popq	%rax
	movq	_target@GOTPCREL(%rip), %rax
	movq	(%rax), %rax
	movq	(%rax), %rbx
	## InlineAsm Start
	callq	*%rbx
	jmp	.Lvictim_win0_continue
## Variant 267
.Lvictim_win0_var267:
	popq	%rax
	movq	_target@GOTPCREL(%rip), %rax
	movq	(%rax), %rax
	movq	(%rax), %rbx
	## InlineAsm Start
	callq	*%rbx
	jmp	.Lvictim_win0_continue
## Variant 268
.Lvictim_win0_var268:
	popq	%rax
	movq	_target@GOTPCREL(%rip), %rax
	movq	(%rax), %rax
	movq	(%rax), %rbx
	## InlineAsm Start
	callq	*%rbx
	jmp	.Lvictim_win0_continue
## Variant 269
.Lvictim_win0_var269:
	popq	%rax
	movq	_target@GOTPCREL(%rip), %rax
	movq	(%rax), %rax
	movq	(%rax), %rbx
	## InlineAsm Start
	callq	*%rbx
	jmp	.Lvictim_win0_continue
## Variant 270
.Lvictim_win0_var270:
	popq	%rax
	movq	_target@GOTPCREL(%rip), %rax
	movq	(%rax), %rax
	movq	(%rax), %rbx
	## InlineAsm Start
	callq	*%rbx
	jmp	.Lvictim_win0_continue
## Variant 271
.Lvictim_win0_var271:
	popq	%rax
	movq	_target@GOTPCREL(%rip), %rax
	movq	(%rax), %rax
	movq	(%rax), %rbx
	## InlineAsm Start
	callq	*%rbx
	jmp	.Lvictim_win0_continue
## Variant 272
.Lvictim_win0_var272:
	popq	%rax
	movq	_target@GOTPCREL(%rip), %rax
	movq	(%rax), %rax
	movq	(%rax), %rbx
	## InlineAsm Start
	callq	*%rbx
	jmp	.Lvictim_win0_continue
## Variant 273
.Lvictim_win0_var273:
	popq	%rax
	movq	_target@GOTPCREL(%rip), %rax
	movq	(%rax), %rax
	movq	(%rax), %rbx
	## InlineAsm Start
	callq	*%rbx
	jmp	.Lvictim_win0_continue
## Variant 274
.Lvictim_win0_var274:
	popq	%rax
	movq	_target@GOTPCREL(%rip), %rax
	movq	(%rax), %rax
	movq	(%rax), %rbx
	## InlineAsm Start
	callq	*%rbx
	jmp	.Lvictim_win0_continue
## Variant 275
.Lvictim_win0_var275:
	popq	%rax
	movq	_target@GOTPCREL(%rip), %rax
	movq	(%rax), %rax
	movq	(%rax), %rbx
	## InlineAsm Start
	callq	*%rbx
	jmp	.Lvictim_win0_continue
## Variant 276
.Lvictim_win0_var276:
	popq	%rax
	movq	_target@GOTPCREL(%rip), %rax
	movq	(%rax), %rax
	movq	(%rax), %rbx
	## InlineAsm Start
	callq	*%rbx
	jmp	.Lvictim_win0_continue
## Variant 277
.Lvictim_win0_var277:
	popq	%rax
	movq	_target@GOTPCREL(%rip), %rax
	movq	(%rax), %rax
	movq	(%rax), %rbx
	## InlineAsm Start
	callq	*%rbx
	jmp	.Lvictim_win0_continue
## Variant 278
.Lvictim_win0_var278:
	popq	%rax
	movq	_target@GOTPCREL(%rip), %rax
	movq	(%rax), %rax
	movq	(%rax), %rbx
	## InlineAsm Start
	callq	*%rbx
	jmp	.Lvictim_win0_continue
## Variant 279
.Lvictim_win0_var279:
	popq	%rax
	movq	_target@GOTPCREL(%rip), %rax
	movq	(%rax), %rax
	movq	(%rax), %rbx
	## InlineAsm Start
	callq	*%rbx
	jmp	.Lvictim_win0_continue
## Variant 280
.Lvictim_win0_var280:
	popq	%rax
	movq	_target@GOTPCREL(%rip), %rax
	movq	(%rax), %rax
	movq	(%rax), %rbx
	## InlineAsm Start
	callq	*%rbx
	jmp	.Lvictim_win0_continue
## Variant 281
.Lvictim_win0_var281:
	popq	%rax
	movq	_target@GOTPCREL(%rip), %rax
	movq	(%rax), %rax
	movq	(%rax), %rbx
	## InlineAsm Start
	callq	*%rbx
	jmp	.Lvictim_win0_continue
## Variant 282
.Lvictim_win0_var282:
	popq	%rax
	movq	_target@GOTPCREL(%rip), %rax
	movq	(%rax), %rax
	movq	(%rax), %rbx
	## InlineAsm Start
	callq	*%rbx
	jmp	.Lvictim_win0_continue
## Variant 283
.Lvictim_win0_var283:
	popq	%rax
	movq	_target@GOTPCREL(%rip), %rax
	movq	(%rax), %rax
	movq	(%rax), %rbx
	## InlineAsm Start
	callq	*%rbx
	jmp	.Lvictim_win0_continue
## Variant 284
.Lvictim_win0_var284:
	popq	%rax
	movq	_target@GOTPCREL(%rip), %rax
	movq	(%rax), %rax
	movq	(%rax), %rbx
	## InlineAsm Start
	callq	*%rbx
	jmp	.Lvictim_win0_continue
## Variant 285
.Lvictim_win0_var285:
	popq	%rax
	movq	_target@GOTPCREL(%rip), %rax
	movq	(%rax), %rax
	movq	(%rax), %rbx
	## InlineAsm Start
	callq	*%rbx
	jmp	.Lvictim_win0_continue
## Variant 286
.Lvictim_win0_var286:
	popq	%rax
	movq	_target@GOTPCREL(%rip), %rax
	movq	(%rax), %rax
	movq	(%rax), %rbx
	## InlineAsm Start
	callq	*%rbx
	jmp	.Lvictim_win0_continue
## Variant 287
.Lvictim_win0_var287:
	popq	%rax
	movq	_target@GOTPCREL(%rip), %rax
	movq	(%rax), %rax
	movq	(%rax), %rbx
	## InlineAsm Start
	callq	*%rbx
	jmp	.Lvictim_win0_continue
## Variant 288
.Lvictim_win0_var288:
	popq	%rax
	movq	_target@GOTPCREL(%rip), %rax
	movq	(%rax), %rax
	movq	(%rax), %rbx
	## InlineAsm Start
	callq	*%rbx
	jmp	.Lvictim_win0_continue
## Variant 289
.Lvictim_win0_var289:
	popq	%rax
	movq	_target@GOTPCREL(%rip), %rax
	movq	(%rax), %rax
	movq	(%rax), %rbx
	## InlineAsm Start
	callq	*%rbx
	jmp	.Lvictim_win0_continue
## Variant 290
.Lvictim_win0_var290:
	popq	%rax
	movq	_target@GOTPCREL(%rip), %rax
	movq	(%rax), %rax
	movq	(%rax), %rbx
	## InlineAsm Start
	callq	*%rbx
	jmp	.Lvictim_win0_continue
## Variant 291
.Lvictim_win0_var291:
	popq	%rax
	movq	_target@GOTPCREL(%rip), %rax
	movq	(%rax), %rax
	movq	(%rax), %rbx
	## InlineAsm Start
	callq	*%rbx
	jmp	.Lvictim_win0_continue
## Variant 292
.Lvictim_win0_var292:
	popq	%rax
	movq	_target@GOTPCREL(%rip), %rax
	movq	(%rax), %rax
	movq	(%rax), %rbx
	## InlineAsm Start
	callq	*%rbx
	jmp	.Lvictim_win0_continue
## Variant 293
.Lvictim_win0_var293:
	popq	%rax
	movq	_target@GOTPCREL(%rip), %rax
	movq	(%rax), %rax
	movq	(%rax), %rbx
	## InlineAsm Start
	callq	*%rbx
	jmp	.Lvictim_win0_continue
## Variant 294
.Lvictim_win0_var294:
	popq	%rax
	movq	_target@GOTPCREL(%rip), %rax
	movq	(%rax), %rax
	movq	(%rax), %rbx
	## InlineAsm Start
	callq	*%rbx
	jmp	.Lvictim_win0_continue
## Variant 295
.Lvictim_win0_var295:
	popq	%rax
	movq	_target@GOTPCREL(%rip), %rax
	movq	(%rax), %rax
	movq	(%rax), %rbx
	## InlineAsm Start
	callq	*%rbx
	jmp	.Lvictim_win0_continue
## Variant 296
.Lvictim_win0_var296:
	popq	%rax
	movq	_target@GOTPCREL(%rip), %rax
	movq	(%rax), %rax
	movq	(%rax), %rbx
	## InlineAsm Start
	callq	*%rbx
	jmp	.Lvictim_win0_continue
## Variant 297
.Lvictim_win0_var297:
	popq	%rax
	movq	_target@GOTPCREL(%rip), %rax
	movq	(%rax), %rax
	movq	(%rax), %rbx
	## InlineAsm Start
	callq	*%rbx
	jmp	.Lvictim_win0_continue
## Variant 298
.Lvictim_win0_var298:
	popq	%rax
	movq	_target@GOTPCREL(%rip), %rax
	movq	(%rax), %rax
	movq	(%rax), %rbx
	## InlineAsm Start
	callq	*%rbx
	jmp	.Lvictim_win0_continue
## Variant 299
.Lvictim_win0_var299:
	popq	%rax
	movq	_target@GOTPCREL(%rip), %rax
	movq	(%rax), %rax
	movq	(%rax), %rbx
	## InlineAsm Start
	callq	*%rbx
	jmp	.Lvictim_win0_continue
## Variant 300
.Lvictim_win0_var300:
	popq	%rax
	movq	_target@GOTPCREL(%rip), %rax
	movq	(%rax), %rax
	movq	(%rax), %rbx
	## InlineAsm Start
	callq	*%rbx
	jmp	.Lvictim_win0_continue
## Variant 301
.Lvictim_win0_var301:
	popq	%rax
	movq	_target@GOTPCREL(%rip), %rax
	movq	(%rax), %rax
	movq	(%rax), %rbx
	## InlineAsm Start
	callq	*%rbx
	jmp	.Lvictim_win0_continue
## Variant 302
.Lvictim_win0_var302:
	popq	%rax
	movq	_target@GOTPCREL(%rip), %rax
	movq	(%rax), %rax
	movq	(%rax), %rbx
	## InlineAsm Start
	callq	*%rbx
	jmp	.Lvictim_win0_continue
## Variant 303
.Lvictim_win0_var303:
	popq	%rax
	movq	_target@GOTPCREL(%rip), %rax
	movq	(%rax), %rax
	movq	(%rax), %rbx
	## InlineAsm Start
	callq	*%rbx
	jmp	.Lvictim_win0_continue
## Variant 304
.Lvictim_win0_var304:
	popq	%rax
	movq	_target@GOTPCREL(%rip), %rax
	movq	(%rax), %rax
	movq	(%rax), %rbx
	## InlineAsm Start
	callq	*%rbx
	jmp	.Lvictim_win0_continue
## Variant 305
.Lvictim_win0_var305:
	popq	%rax
	movq	_target@GOTPCREL(%rip), %rax
	movq	(%rax), %rax
	movq	(%rax), %rbx
	## InlineAsm Start
	callq	*%rbx
	jmp	.Lvictim_win0_continue
## Variant 306
.Lvictim_win0_var306:
	popq	%rax
	movq	_target@GOTPCREL(%rip), %rax
	movq	(%rax), %rax
	movq	(%rax), %rbx
	## InlineAsm Start
	callq	*%rbx
	jmp	.Lvictim_win0_continue
## Variant 307
.Lvictim_win0_var307:
	popq	%rax
	movq	_target@GOTPCREL(%rip), %rax
	movq	(%rax), %rax
	movq	(%rax), %rbx
	## InlineAsm Start
	callq	*%rbx
	jmp	.Lvictim_win0_continue
## Variant 308
.Lvictim_win0_var308:
	popq	%rax
	movq	_target@GOTPCREL(%rip), %rax
	movq	(%rax), %rax
	movq	(%rax), %rbx
	## InlineAsm Start
	callq	*%rbx
	jmp	.Lvictim_win0_continue
## Variant 309
.Lvictim_win0_var309:
	popq	%rax
	movq	_target@GOTPCREL(%rip), %rax
	movq	(%rax), %rax
	movq	(%rax), %rbx
	## InlineAsm Start
	callq	*%rbx
	jmp	.Lvictim_win0_continue
## Variant 310
.Lvictim_win0_var310:
	popq	%rax
	movq	_target@GOTPCREL(%rip), %rax
	movq	(%rax), %rax
	movq	(%rax), %rbx
	## InlineAsm Start
	callq	*%rbx
	jmp	.Lvictim_win0_continue
## Variant 311
.Lvictim_win0_var311:
	popq	%rax
	movq	_target@GOTPCREL(%rip), %rax
	movq	(%rax), %rax
	movq	(%rax), %rbx
	## InlineAsm Start
	callq	*%rbx
	jmp	.Lvictim_win0_continue
## Variant 312
.Lvictim_win0_var312:
	popq	%rax
	movq	_target@GOTPCREL(%rip), %rax
	movq	(%rax), %rax
	movq	(%rax), %rbx
	## InlineAsm Start
	callq	*%rbx
	jmp	.Lvictim_win0_continue
## Variant 313
.Lvictim_win0_var313:
	popq	%rax
	movq	_target@GOTPCREL(%rip), %rax
	movq	(%rax), %rax
	movq	(%rax), %rbx
	## InlineAsm Start
	callq	*%rbx
	jmp	.Lvictim_win0_continue
## Variant 314
.Lvictim_win0_var314:
	popq	%rax
	movq	_target@GOTPCREL(%rip), %rax
	movq	(%rax), %rax
	movq	(%rax), %rbx
	## InlineAsm Start
	callq	*%rbx
	jmp	.Lvictim_win0_continue
## Variant 315
.Lvictim_win0_var315:
	popq	%rax
	movq	_target@GOTPCREL(%rip), %rax
	movq	(%rax), %rax
	movq	(%rax), %rbx
	## InlineAsm Start
	callq	*%rbx
	jmp	.Lvictim_win0_continue
## Variant 316
.Lvictim_win0_var316:
	popq	%rax
	movq	_target@GOTPCREL(%rip), %rax
	movq	(%rax), %rax
	movq	(%rax), %rbx
	## InlineAsm Start
	callq	*%rbx
	jmp	.Lvictim_win0_continue
## Variant 317
.Lvictim_win0_var317:
	popq	%rax
	movq	_target@GOTPCREL(%rip), %rax
	movq	(%rax), %rax
	movq	(%rax), %rbx
	## InlineAsm Start
	callq	*%rbx
	jmp	.Lvictim_win0_continue
## Variant 318
.Lvictim_win0_var318:
	popq	%rax
	movq	_target@GOTPCREL(%rip), %rax
	movq	(%rax), %rax
	movq	(%rax), %rbx
	## InlineAsm Start
	callq	*%rbx
	jmp	.Lvictim_win0_continue
## Variant 319
.Lvictim_win0_var319:
	popq	%rax
	movq	_target@GOTPCREL(%rip), %rax
	movq	(%rax), %rax
	movq	(%rax), %rbx
	## InlineAsm Start
	callq	*%rbx
	jmp	.Lvictim_win0_continue
## Variant 320
.Lvictim_win0_var320:
	popq	%rax
	movq	_target@GOTPCREL(%rip), %rax
	movq	(%rax), %rax
	movq	(%rax), %rbx
	## InlineAsm Start
	callq	*%rbx
	jmp	.Lvictim_win0_continue
## Variant 321
.Lvictim_win0_var321:
	popq	%rax
	movq	_target@GOTPCREL(%rip), %rax
	movq	(%rax), %rax
	movq	(%rax), %rbx
	## InlineAsm Start
	callq	*%rbx
	jmp	.Lvictim_win0_continue
## Variant 322
.Lvictim_win0_var322:
	popq	%rax
	movq	_target@GOTPCREL(%rip), %rax
	movq	(%rax), %rax
	movq	(%rax), %rbx
	## InlineAsm Start
	callq	*%rbx
	jmp	.Lvictim_win0_continue
## Variant 323
.Lvictim_win0_var323:
	popq	%rax
	movq	_target@GOTPCREL(%rip), %rax
	movq	(%rax), %rax
	movq	(%rax), %rbx
	## InlineAsm Start
	callq	*%rbx
	jmp	.Lvictim_win0_continue
## Variant 324
.Lvictim_win0_var324:
	popq	%rax
	movq	_target@GOTPCREL(%rip), %rax
	movq	(%rax), %rax
	movq	(%rax), %rbx
	## InlineAsm Start
	callq	*%rbx
	jmp	.Lvictim_win0_continue
## Variant 325
.Lvictim_win0_var325:
	popq	%rax
	movq	_target@GOTPCREL(%rip), %rax
	movq	(%rax), %rax
	movq	(%rax), %rbx
	## InlineAsm Start
	callq	*%rbx
	jmp	.Lvictim_win0_continue
## Variant 326
.Lvictim_win0_var326:
	popq	%rax
	movq	_target@GOTPCREL(%rip), %rax
	movq	(%rax), %rax
	movq	(%rax), %rbx
	## InlineAsm Start
	callq	*%rbx
	jmp	.Lvictim_win0_continue
## Variant 327
.Lvictim_win0_var327:
	popq	%rax
	movq	_target@GOTPCREL(%rip), %rax
	movq	(%rax), %rax
	movq	(%rax), %rbx
	## InlineAsm Start
	callq	*%rbx
	jmp	.Lvictim_win0_continue
## Variant 328
.Lvictim_win0_var328:
	popq	%rax
	movq	_target@GOTPCREL(%rip), %rax
	movq	(%rax), %rax
	movq	(%rax), %rbx
	## InlineAsm Start
	callq	*%rbx
	jmp	.Lvictim_win0_continue
## Variant 329
.Lvictim_win0_var329:
	popq	%rax
	movq	_target@GOTPCREL(%rip), %rax
	movq	(%rax), %rax
	movq	(%rax), %rbx
	## InlineAsm Start
	callq	*%rbx
	jmp	.Lvictim_win0_continue
## Variant 330
.Lvictim_win0_var330:
	popq	%rax
	movq	_target@GOTPCREL(%rip), %rax
	movq	(%rax), %rax
	movq	(%rax), %rbx
	## InlineAsm Start
	callq	*%rbx
	jmp	.Lvictim_win0_continue
## Variant 331
.Lvictim_win0_var331:
	popq	%rax
	movq	_target@GOTPCREL(%rip), %rax
	movq	(%rax), %rax
	movq	(%rax), %rbx
	## InlineAsm Start
	callq	*%rbx
	jmp	.Lvictim_win0_continue
## Variant 332
.Lvictim_win0_var332:
	popq	%rax
	movq	_target@GOTPCREL(%rip), %rax
	movq	(%rax), %rax
	movq	(%rax), %rbx
	## InlineAsm Start
	callq	*%rbx
	jmp	.Lvictim_win0_continue
## Variant 333
.Lvictim_win0_var333:
	popq	%rax
	movq	_target@GOTPCREL(%rip), %rax
	movq	(%rax), %rax
	movq	(%rax), %rbx
	## InlineAsm Start
	callq	*%rbx
	jmp	.Lvictim_win0_continue
## Variant 334
.Lvictim_win0_var334:
	popq	%rax
	movq	_target@GOTPCREL(%rip), %rax
	movq	(%rax), %rax
	movq	(%rax), %rbx
	## InlineAsm Start
	callq	*%rbx
	jmp	.Lvictim_win0_continue
## Variant 335
.Lvictim_win0_var335:
	popq	%rax
	movq	_target@GOTPCREL(%rip), %rax
	movq	(%rax), %rax
	movq	(%rax), %rbx
	## InlineAsm Start
	callq	*%rbx
	jmp	.Lvictim_win0_continue
## Variant 336
.Lvictim_win0_var336:
	popq	%rax
	movq	_target@GOTPCREL(%rip), %rax
	movq	(%rax), %rax
	movq	(%rax), %rbx
	## InlineAsm Start
	callq	*%rbx
	jmp	.Lvictim_win0_continue
## Variant 337
.Lvictim_win0_var337:
	popq	%rax
	movq	_target@GOTPCREL(%rip), %rax
	movq	(%rax), %rax
	movq	(%rax), %rbx
	## InlineAsm Start
	callq	*%rbx
	jmp	.Lvictim_win0_continue
## Variant 338
.Lvictim_win0_var338:
	popq	%rax
	movq	_target@GOTPCREL(%rip), %rax
	movq	(%rax), %rax
	movq	(%rax), %rbx
	## InlineAsm Start
	callq	*%rbx
	jmp	.Lvictim_win0_continue
## Variant 339
.Lvictim_win0_var339:
	popq	%rax
	movq	_target@GOTPCREL(%rip), %rax
	movq	(%rax), %rax
	movq	(%rax), %rbx
	## InlineAsm Start
	callq	*%rbx
	jmp	.Lvictim_win0_continue
## Variant 340
.Lvictim_win0_var340:
	popq	%rax
	movq	_target@GOTPCREL(%rip), %rax
	movq	(%rax), %rax
	movq	(%rax), %rbx
	## InlineAsm Start
	callq	*%rbx
	jmp	.Lvictim_win0_continue
## Variant 341
.Lvictim_win0_var341:
	popq	%rax
	movq	_target@GOTPCREL(%rip), %rax
	movq	(%rax), %rax
	movq	(%rax), %rbx
	## InlineAsm Start
	callq	*%rbx
	jmp	.Lvictim_win0_continue
## Variant 342
.Lvictim_win0_var342:
	popq	%rax
	movq	_target@GOTPCREL(%rip), %rax
	movq	(%rax), %rax
	movq	(%rax), %rbx
	## InlineAsm Start
	callq	*%rbx
	jmp	.Lvictim_win0_continue
## Variant 343
.Lvictim_win0_var343:
	popq	%rax
	movq	_target@GOTPCREL(%rip), %rax
	movq	(%rax), %rax
	movq	(%rax), %rbx
	## InlineAsm Start
	callq	*%rbx
	jmp	.Lvictim_win0_continue
## Variant 344
.Lvictim_win0_var344:
	popq	%rax
	movq	_target@GOTPCREL(%rip), %rax
	movq	(%rax), %rax
	movq	(%rax), %rbx
	## InlineAsm Start
	callq	*%rbx
	jmp	.Lvictim_win0_continue
## Variant 345
.Lvictim_win0_var345:
	popq	%rax
	movq	_target@GOTPCREL(%rip), %rax
	movq	(%rax), %rax
	movq	(%rax), %rbx
	## InlineAsm Start
	callq	*%rbx
	jmp	.Lvictim_win0_continue
## Variant 346
.Lvictim_win0_var346:
	popq	%rax
	movq	_target@GOTPCREL(%rip), %rax
	movq	(%rax), %rax
	movq	(%rax), %rbx
	## InlineAsm Start
	callq	*%rbx
	jmp	.Lvictim_win0_continue
## Variant 347
.Lvictim_win0_var347:
	popq	%rax
	movq	_target@GOTPCREL(%rip), %rax
	movq	(%rax), %rax
	movq	(%rax), %rbx
	## InlineAsm Start
	callq	*%rbx
	jmp	.Lvictim_win0_continue
## Variant 348
.Lvictim_win0_var348:
	popq	%rax
	movq	_target@GOTPCREL(%rip), %rax
	movq	(%rax), %rax
	movq	(%rax), %rbx
	## InlineAsm Start
	callq	*%rbx
	jmp	.Lvictim_win0_continue
## Variant 349
.Lvictim_win0_var349:
	popq	%rax
	movq	_target@GOTPCREL(%rip), %rax
	movq	(%rax), %rax
	movq	(%rax), %rbx
	## InlineAsm Start
	callq	*%rbx
	jmp	.Lvictim_win0_continue
## Variant 350
.Lvictim_win0_var350:
	popq	%rax
	movq	_target@GOTPCREL(%rip), %rax
	movq	(%rax), %rax
	movq	(%rax), %rbx
	## InlineAsm Start
	callq	*%rbx
	jmp	.Lvictim_win0_continue
## Variant 351
.Lvictim_win0_var351:
	popq	%rax
	movq	_target@GOTPCREL(%rip), %rax
	movq	(%rax), %rax
	movq	(%rax), %rbx
	## InlineAsm Start
	callq	*%rbx
	jmp	.Lvictim_win0_continue
## Variant 352
.Lvictim_win0_var352:
	popq	%rax
	movq	_target@GOTPCREL(%rip), %rax
	movq	(%rax), %rax
	movq	(%rax), %rbx
	## InlineAsm Start
	callq	*%rbx
	jmp	.Lvictim_win0_continue
## Variant 353
.Lvictim_win0_var353:
	popq	%rax
	movq	_target@GOTPCREL(%rip), %rax
	movq	(%rax), %rax
	movq	(%rax), %rbx
	## InlineAsm Start
	callq	*%rbx
	jmp	.Lvictim_win0_continue
## Variant 354
.Lvictim_win0_var354:
	popq	%rax
	movq	_target@GOTPCREL(%rip), %rax
	movq	(%rax), %rax
	movq	(%rax), %rbx
	## InlineAsm Start
	callq	*%rbx
	jmp	.Lvictim_win0_continue
## Variant 355
.Lvictim_win0_var355:
	popq	%rax
	movq	_target@GOTPCREL(%rip), %rax
	movq	(%rax), %rax
	movq	(%rax), %rbx
	## InlineAsm Start
	callq	*%rbx
	jmp	.Lvictim_win0_continue
## Variant 356
.Lvictim_win0_var356:
	popq	%rax
	movq	_target@GOTPCREL(%rip), %rax
	movq	(%rax), %rax
	movq	(%rax), %rbx
	## InlineAsm Start
	callq	*%rbx
	jmp	.Lvictim_win0_continue
## Variant 357
.Lvictim_win0_var357:
	popq	%rax
	movq	_target@GOTPCREL(%rip), %rax
	movq	(%rax), %rax
	movq	(%rax), %rbx
	## InlineAsm Start
	callq	*%rbx
	jmp	.Lvictim_win0_continue
## Variant 358
.Lvictim_win0_var358:
	popq	%rax
	movq	_target@GOTPCREL(%rip), %rax
	movq	(%rax), %rax
	movq	(%rax), %rbx
	## InlineAsm Start
	callq	*%rbx
	jmp	.Lvictim_win0_continue
## Variant 359
.Lvictim_win0_var359:
	popq	%rax
	movq	_target@GOTPCREL(%rip), %rax
	movq	(%rax), %rax
	movq	(%rax), %rbx
	## InlineAsm Start
	callq	*%rbx
	jmp	.Lvictim_win0_continue
## Variant 360
.Lvictim_win0_var360:
	popq	%rax
	movq	_target@GOTPCREL(%rip), %rax
	movq	(%rax), %rax
	movq	(%rax), %rbx
	## InlineAsm Start
	callq	*%rbx
	jmp	.Lvictim_win0_continue
## Variant 361
.Lvictim_win0_var361:
	popq	%rax
	movq	_target@GOTPCREL(%rip), %rax
	movq	(%rax), %rax
	movq	(%rax), %rbx
	## InlineAsm Start
	callq	*%rbx
	jmp	.Lvictim_win0_continue
## Variant 362
.Lvictim_win0_var362:
	popq	%rax
	movq	_target@GOTPCREL(%rip), %rax
	movq	(%rax), %rax
	movq	(%rax), %rbx
	## InlineAsm Start
	callq	*%rbx
	jmp	.Lvictim_win0_continue
## Variant 363
.Lvictim_win0_var363:
	popq	%rax
	movq	_target@GOTPCREL(%rip), %rax
	movq	(%rax), %rax
	movq	(%rax), %rbx
	## InlineAsm Start
	callq	*%rbx
	jmp	.Lvictim_win0_continue
## Variant 364
.Lvictim_win0_var364:
	popq	%rax
	movq	_target@GOTPCREL(%rip), %rax
	movq	(%rax), %rax
	movq	(%rax), %rbx
	## InlineAsm Start
	callq	*%rbx
	jmp	.Lvictim_win0_continue
## Variant 365
.Lvictim_win0_var365:
	popq	%rax
	movq	_target@GOTPCREL(%rip), %rax
	movq	(%rax), %rax
	movq	(%rax), %rbx
	## InlineAsm Start
	callq	*%rbx
	jmp	.Lvictim_win0_continue
## Variant 366
.Lvictim_win0_var366:
	popq	%rax
	movq	_target@GOTPCREL(%rip), %rax
	movq	(%rax), %rax
	movq	(%rax), %rbx
	## InlineAsm Start
	callq	*%rbx
	jmp	.Lvictim_win0_continue
## Variant 367
.Lvictim_win0_var367:
	popq	%rax
	movq	_target@GOTPCREL(%rip), %rax
	movq	(%rax), %rax
	movq	(%rax), %rbx
	## InlineAsm Start
	callq	*%rbx
	jmp	.Lvictim_win0_continue
## Variant 368
.Lvictim_win0_var368:
	popq	%rax
	movq	_target@GOTPCREL(%rip), %rax
	movq	(%rax), %rax
	movq	(%rax), %rbx
	## InlineAsm Start
	callq	*%rbx
	jmp	.Lvictim_win0_continue
## Variant 369
.Lvictim_win0_var369:
	popq	%rax
	movq	_target@GOTPCREL(%rip), %rax
	movq	(%rax), %rax
	movq	(%rax), %rbx
	## InlineAsm Start
	callq	*%rbx
	jmp	.Lvictim_win0_continue
## Variant 370
.Lvictim_win0_var370:
	popq	%rax
	movq	_target@GOTPCREL(%rip), %rax
	movq	(%rax), %rax
	movq	(%rax), %rbx
	## InlineAsm Start
	callq	*%rbx
	jmp	.Lvictim_win0_continue
## Variant 371
.Lvictim_win0_var371:
	popq	%rax
	movq	_target@GOTPCREL(%rip), %rax
	movq	(%rax), %rax
	movq	(%rax), %rbx
	## InlineAsm Start
	callq	*%rbx
	jmp	.Lvictim_win0_continue
## Variant 372
.Lvictim_win0_var372:
	popq	%rax
	movq	_target@GOTPCREL(%rip), %rax
	movq	(%rax), %rax
	movq	(%rax), %rbx
	## InlineAsm Start
	callq	*%rbx
	jmp	.Lvictim_win0_continue
## Variant 373
.Lvictim_win0_var373:
	popq	%rax
	movq	_target@GOTPCREL(%rip), %rax
	movq	(%rax), %rax
	movq	(%rax), %rbx
	## InlineAsm Start
	callq	*%rbx
	jmp	.Lvictim_win0_continue
## Variant 374
.Lvictim_win0_var374:
	popq	%rax
	movq	_target@GOTPCREL(%rip), %rax
	movq	(%rax), %rax
	movq	(%rax), %rbx
	## InlineAsm Start
	callq	*%rbx
	jmp	.Lvictim_win0_continue
## Variant 375
.Lvictim_win0_var375:
	popq	%rax
	movq	_target@GOTPCREL(%rip), %rax
	movq	(%rax), %rax
	movq	(%rax), %rbx
	## InlineAsm Start
	callq	*%rbx
	jmp	.Lvictim_win0_continue
## Variant 376
.Lvictim_win0_var376:
	popq	%rax
	movq	_target@GOTPCREL(%rip), %rax
	movq	(%rax), %rax
	movq	(%rax), %rbx
	## InlineAsm Start
	callq	*%rbx
	jmp	.Lvictim_win0_continue
## Variant 377
.Lvictim_win0_var377:
	popq	%rax
	movq	_target@GOTPCREL(%rip), %rax
	movq	(%rax), %rax
	movq	(%rax), %rbx
	## InlineAsm Start
	callq	*%rbx
	jmp	.Lvictim_win0_continue
## Variant 378
.Lvictim_win0_var378:
	popq	%rax
	movq	_target@GOTPCREL(%rip), %rax
	movq	(%rax), %rax
	movq	(%rax), %rbx
	## InlineAsm Start
	callq	*%rbx
	jmp	.Lvictim_win0_continue
## Variant 379
.Lvictim_win0_var379:
	popq	%rax
	movq	_target@GOTPCREL(%rip), %rax
	movq	(%rax), %rax
	movq	(%rax), %rbx
	## InlineAsm Start
	callq	*%rbx
	jmp	.Lvictim_win0_continue
## Variant 380
.Lvictim_win0_var380:
	popq	%rax
	movq	_target@GOTPCREL(%rip), %rax
	movq	(%rax), %rax
	movq	(%rax), %rbx
	## InlineAsm Start
	callq	*%rbx
	jmp	.Lvictim_win0_continue
## Variant 381
.Lvictim_win0_var381:
	popq	%rax
	movq	_target@GOTPCREL(%rip), %rax
	movq	(%rax), %rax
	movq	(%rax), %rbx
	## InlineAsm Start
	callq	*%rbx
	jmp	.Lvictim_win0_continue
## Variant 382
.Lvictim_win0_var382:
	popq	%rax
	movq	_target@GOTPCREL(%rip), %rax
	movq	(%rax), %rax
	movq	(%rax), %rbx
	## InlineAsm Start
	callq	*%rbx
	jmp	.Lvictim_win0_continue
## Variant 383
.Lvictim_win0_var383:
	popq	%rax
	movq	_target@GOTPCREL(%rip), %rax
	movq	(%rax), %rax
	movq	(%rax), %rbx
	## InlineAsm Start
	callq	*%rbx
	jmp	.Lvictim_win0_continue
## Variant 384
.Lvictim_win0_var384:
	popq	%rax
	movq	_target@GOTPCREL(%rip), %rax
	movq	(%rax), %rax
	movq	(%rax), %rbx
	## InlineAsm Start
	callq	*%rbx
	jmp	.Lvictim_win0_continue
## Variant 385
.Lvictim_win0_var385:
	popq	%rax
	movq	_target@GOTPCREL(%rip), %rax
	movq	(%rax), %rax
	movq	(%rax), %rbx
	## InlineAsm Start
	callq	*%rbx
	jmp	.Lvictim_win0_continue
## Variant 386
.Lvictim_win0_var386:
	popq	%rax
	movq	_target@GOTPCREL(%rip), %rax
	movq	(%rax), %rax
	movq	(%rax), %rbx
	## InlineAsm Start
	callq	*%rbx
	jmp	.Lvictim_win0_continue
## Variant 387
.Lvictim_win0_var387:
	popq	%rax
	movq	_target@GOTPCREL(%rip), %rax
	movq	(%rax), %rax
	movq	(%rax), %rbx
	## InlineAsm Start
	callq	*%rbx
	jmp	.Lvictim_win0_continue
## Variant 388
.Lvictim_win0_var388:
	popq	%rax
	movq	_target@GOTPCREL(%rip), %rax
	movq	(%rax), %rax
	movq	(%rax), %rbx
	## InlineAsm Start
	callq	*%rbx
	jmp	.Lvictim_win0_continue
## Variant 389
.Lvictim_win0_var389:
	popq	%rax
	movq	_target@GOTPCREL(%rip), %rax
	movq	(%rax), %rax
	movq	(%rax), %rbx
	## InlineAsm Start
	callq	*%rbx
	jmp	.Lvictim_win0_continue
## Variant 390
.Lvictim_win0_var390:
	popq	%rax
	movq	_target@GOTPCREL(%rip), %rax
	movq	(%rax), %rax
	movq	(%rax), %rbx
	## InlineAsm Start
	callq	*%rbx
	jmp	.Lvictim_win0_continue
## Variant 391
.Lvictim_win0_var391:
	popq	%rax
	movq	_target@GOTPCREL(%rip), %rax
	movq	(%rax), %rax
	movq	(%rax), %rbx
	## InlineAsm Start
	callq	*%rbx
	jmp	.Lvictim_win0_continue
## Variant 392
.Lvictim_win0_var392:
	popq	%rax
	movq	_target@GOTPCREL(%rip), %rax
	movq	(%rax), %rax
	movq	(%rax), %rbx
	## InlineAsm Start
	callq	*%rbx
	jmp	.Lvictim_win0_continue
## Variant 393
.Lvictim_win0_var393:
	popq	%rax
	movq	_target@GOTPCREL(%rip), %rax
	movq	(%rax), %rax
	movq	(%rax), %rbx
	## InlineAsm Start
	callq	*%rbx
	jmp	.Lvictim_win0_continue
## Variant 394
.Lvictim_win0_var394:
	popq	%rax
	movq	_target@GOTPCREL(%rip), %rax
	movq	(%rax), %rax
	movq	(%rax), %rbx
	## InlineAsm Start
	callq	*%rbx
	jmp	.Lvictim_win0_continue
## Variant 395
.Lvictim_win0_var395:
	popq	%rax
	movq	_target@GOTPCREL(%rip), %rax
	movq	(%rax), %rax
	movq	(%rax), %rbx
	## InlineAsm Start
	callq	*%rbx
	jmp	.Lvictim_win0_continue
## Variant 396
.Lvictim_win0_var396:
	popq	%rax
	movq	_target@GOTPCREL(%rip), %rax
	movq	(%rax), %rax
	movq	(%rax), %rbx
	## InlineAsm Start
	callq	*%rbx
	jmp	.Lvictim_win0_continue
## Variant 397
.Lvictim_win0_var397:
	popq	%rax
	movq	_target@GOTPCREL(%rip), %rax
	movq	(%rax), %rax
	movq	(%rax), %rbx
	## InlineAsm Start
	callq	*%rbx
	jmp	.Lvictim_win0_continue
## Variant 398
.Lvictim_win0_var398:
	popq	%rax
	movq	_target@GOTPCREL(%rip), %rax
	movq	(%rax), %rax
	movq	(%rax), %rbx
	## InlineAsm Start
	callq	*%rbx
	jmp	.Lvictim_win0_continue
## Variant 399
.Lvictim_win0_var399:
	popq	%rax
	movq	_target@GOTPCREL(%rip), %rax
	movq	(%rax), %rax
	movq	(%rax), %rbx
	## InlineAsm Start
	callq	*%rbx
	jmp	.Lvictim_win0_continue
## Variant 400
.Lvictim_win0_var400:
	popq	%rax
	movq	_target@GOTPCREL(%rip), %rax
	movq	(%rax), %rax
	movq	(%rax), %rbx
	## InlineAsm Start
	callq	*%rbx
	jmp	.Lvictim_win0_continue
## Variant 401
.Lvictim_win0_var401:
	popq	%rax
	movq	_target@GOTPCREL(%rip), %rax
	movq	(%rax), %rax
	movq	(%rax), %rbx
	## InlineAsm Start
	callq	*%rbx
	jmp	.Lvictim_win0_continue
## Variant 402
.Lvictim_win0_var402:
	popq	%rax
	movq	_target@GOTPCREL(%rip), %rax
	movq	(%rax), %rax
	movq	(%rax), %rbx
	## InlineAsm Start
	callq	*%rbx
	jmp	.Lvictim_win0_continue
## Variant 403
.Lvictim_win0_var403:
	popq	%rax
	movq	_target@GOTPCREL(%rip), %rax
	movq	(%rax), %rax
	movq	(%rax), %rbx
	## InlineAsm Start
	callq	*%rbx
	jmp	.Lvictim_win0_continue
## Variant 404
.Lvictim_win0_var404:
	popq	%rax
	movq	_target@GOTPCREL(%rip), %rax
	movq	(%rax), %rax
	movq	(%rax), %rbx
	## InlineAsm Start
	callq	*%rbx
	jmp	.Lvictim_win0_continue
## Variant 405
.Lvictim_win0_var405:
	popq	%rax
	movq	_target@GOTPCREL(%rip), %rax
	movq	(%rax), %rax
	movq	(%rax), %rbx
	## InlineAsm Start
	callq	*%rbx
	jmp	.Lvictim_win0_continue
## Variant 406
.Lvictim_win0_var406:
	popq	%rax
	movq	_target@GOTPCREL(%rip), %rax
	movq	(%rax), %rax
	movq	(%rax), %rbx
	## InlineAsm Start
	callq	*%rbx
	jmp	.Lvictim_win0_continue
## Variant 407
.Lvictim_win0_var407:
	popq	%rax
	movq	_target@GOTPCREL(%rip), %rax
	movq	(%rax), %rax
	movq	(%rax), %rbx
	## InlineAsm Start
	callq	*%rbx
	jmp	.Lvictim_win0_continue
## Variant 408
.Lvictim_win0_var408:
	popq	%rax
	movq	_target@GOTPCREL(%rip), %rax
	movq	(%rax), %rax
	movq	(%rax), %rbx
	## InlineAsm Start
	callq	*%rbx
	jmp	.Lvictim_win0_continue
## Variant 409
.Lvictim_win0_var409:
	popq	%rax
	movq	_target@GOTPCREL(%rip), %rax
	movq	(%rax), %rax
	movq	(%rax), %rbx
	## InlineAsm Start
	callq	*%rbx
	jmp	.Lvictim_win0_continue
## Variant 410
.Lvictim_win0_var410:
	popq	%rax
	movq	_target@GOTPCREL(%rip), %rax
	movq	(%rax), %rax
	movq	(%rax), %rbx
	## InlineAsm Start
	callq	*%rbx
	jmp	.Lvictim_win0_continue
## Variant 411
.Lvictim_win0_var411:
	popq	%rax
	movq	_target@GOTPCREL(%rip), %rax
	movq	(%rax), %rax
	movq	(%rax), %rbx
	## InlineAsm Start
	callq	*%rbx
	jmp	.Lvictim_win0_continue
## Variant 412
.Lvictim_win0_var412:
	popq	%rax
	movq	_target@GOTPCREL(%rip), %rax
	movq	(%rax), %rax
	movq	(%rax), %rbx
	## InlineAsm Start
	callq	*%rbx
	jmp	.Lvictim_win0_continue
## Variant 413
.Lvictim_win0_var413:
	popq	%rax
	movq	_target@GOTPCREL(%rip), %rax
	movq	(%rax), %rax
	movq	(%rax), %rbx
	## InlineAsm Start
	callq	*%rbx
	jmp	.Lvictim_win0_continue
## Variant 414
.Lvictim_win0_var414:
	popq	%rax
	movq	_target@GOTPCREL(%rip), %rax
	movq	(%rax), %rax
	movq	(%rax), %rbx
	## InlineAsm Start
	callq	*%rbx
	jmp	.Lvictim_win0_continue
## Variant 415
.Lvictim_win0_var415:
	popq	%rax
	movq	_target@GOTPCREL(%rip), %rax
	movq	(%rax), %rax
	movq	(%rax), %rbx
	## InlineAsm Start
	callq	*%rbx
	jmp	.Lvictim_win0_continue
## Variant 416
.Lvictim_win0_var416:
	popq	%rax
	movq	_target@GOTPCREL(%rip), %rax
	movq	(%rax), %rax
	movq	(%rax), %rbx
	## InlineAsm Start
	callq	*%rbx
	jmp	.Lvictim_win0_continue
## Variant 417
.Lvictim_win0_var417:
	popq	%rax
	movq	_target@GOTPCREL(%rip), %rax
	movq	(%rax), %rax
	movq	(%rax), %rbx
	## InlineAsm Start
	callq	*%rbx
	jmp	.Lvictim_win0_continue
## Variant 418
.Lvictim_win0_var418:
	popq	%rax
	movq	_target@GOTPCREL(%rip), %rax
	movq	(%rax), %rax
	movq	(%rax), %rbx
	## InlineAsm Start
	callq	*%rbx
	jmp	.Lvictim_win0_continue
## Variant 419
.Lvictim_win0_var419:
	popq	%rax
	movq	_target@GOTPCREL(%rip), %rax
	movq	(%rax), %rax
	movq	(%rax), %rbx
	## InlineAsm Start
	callq	*%rbx
	jmp	.Lvictim_win0_continue
## Variant 420
.Lvictim_win0_var420:
	popq	%rax
	movq	_target@GOTPCREL(%rip), %rax
	movq	(%rax), %rax
	movq	(%rax), %rbx
	## InlineAsm Start
	callq	*%rbx
	jmp	.Lvictim_win0_continue
## Variant 421
.Lvictim_win0_var421:
	popq	%rax
	movq	_target@GOTPCREL(%rip), %rax
	movq	(%rax), %rax
	movq	(%rax), %rbx
	## InlineAsm Start
	callq	*%rbx
	jmp	.Lvictim_win0_continue
## Variant 422
.Lvictim_win0_var422:
	popq	%rax
	movq	_target@GOTPCREL(%rip), %rax
	movq	(%rax), %rax
	movq	(%rax), %rbx
	## InlineAsm Start
	callq	*%rbx
	jmp	.Lvictim_win0_continue
## Variant 423
.Lvictim_win0_var423:
	popq	%rax
	movq	_target@GOTPCREL(%rip), %rax
	movq	(%rax), %rax
	movq	(%rax), %rbx
	## InlineAsm Start
	callq	*%rbx
	jmp	.Lvictim_win0_continue
## Variant 424
.Lvictim_win0_var424:
	popq	%rax
	movq	_target@GOTPCREL(%rip), %rax
	movq	(%rax), %rax
	movq	(%rax), %rbx
	## InlineAsm Start
	callq	*%rbx
	jmp	.Lvictim_win0_continue
## Variant 425
.Lvictim_win0_var425:
	popq	%rax
	movq	_target@GOTPCREL(%rip), %rax
	movq	(%rax), %rax
	movq	(%rax), %rbx
	## InlineAsm Start
	callq	*%rbx
	jmp	.Lvictim_win0_continue
## Variant 426
.Lvictim_win0_var426:
	popq	%rax
	movq	_target@GOTPCREL(%rip), %rax
	movq	(%rax), %rax
	movq	(%rax), %rbx
	## InlineAsm Start
	callq	*%rbx
	jmp	.Lvictim_win0_continue
## Variant 427
.Lvictim_win0_var427:
	popq	%rax
	movq	_target@GOTPCREL(%rip), %rax
	movq	(%rax), %rax
	movq	(%rax), %rbx
	## InlineAsm Start
	callq	*%rbx
	jmp	.Lvictim_win0_continue
## Variant 428
.Lvictim_win0_var428:
	popq	%rax
	movq	_target@GOTPCREL(%rip), %rax
	movq	(%rax), %rax
	movq	(%rax), %rbx
	## InlineAsm Start
	callq	*%rbx
	jmp	.Lvictim_win0_continue
## Variant 429
.Lvictim_win0_var429:
	popq	%rax
	movq	_target@GOTPCREL(%rip), %rax
	movq	(%rax), %rax
	movq	(%rax), %rbx
	## InlineAsm Start
	callq	*%rbx
	jmp	.Lvictim_win0_continue
## Variant 430
.Lvictim_win0_var430:
	popq	%rax
	movq	_target@GOTPCREL(%rip), %rax
	movq	(%rax), %rax
	movq	(%rax), %rbx
	## InlineAsm Start
	callq	*%rbx
	jmp	.Lvictim_win0_continue
## Variant 431
.Lvictim_win0_var431:
	popq	%rax
	movq	_target@GOTPCREL(%rip), %rax
	movq	(%rax), %rax
	movq	(%rax), %rbx
	## InlineAsm Start
	callq	*%rbx
	jmp	.Lvictim_win0_continue
## Variant 432
.Lvictim_win0_var432:
	popq	%rax
	movq	_target@GOTPCREL(%rip), %rax
	movq	(%rax), %rax
	movq	(%rax), %rbx
	## InlineAsm Start
	callq	*%rbx
	jmp	.Lvictim_win0_continue
## Variant 433
.Lvictim_win0_var433:
	popq	%rax
	movq	_target@GOTPCREL(%rip), %rax
	movq	(%rax), %rax
	movq	(%rax), %rbx
	## InlineAsm Start
	callq	*%rbx
	jmp	.Lvictim_win0_continue
## Variant 434
.Lvictim_win0_var434:
	popq	%rax
	movq	_target@GOTPCREL(%rip), %rax
	movq	(%rax), %rax
	movq	(%rax), %rbx
	## InlineAsm Start
	callq	*%rbx
	jmp	.Lvictim_win0_continue
## Variant 435
.Lvictim_win0_var435:
	popq	%rax
	movq	_target@GOTPCREL(%rip), %rax
	movq	(%rax), %rax
	movq	(%rax), %rbx
	## InlineAsm Start
	callq	*%rbx
	jmp	.Lvictim_win0_continue
## Variant 436
.Lvictim_win0_var436:
	popq	%rax
	movq	_target@GOTPCREL(%rip), %rax
	movq	(%rax), %rax
	movq	(%rax), %rbx
	## InlineAsm Start
	callq	*%rbx
	jmp	.Lvictim_win0_continue
## Variant 437
.Lvictim_win0_var437:
	popq	%rax
	movq	_target@GOTPCREL(%rip), %rax
	movq	(%rax), %rax
	movq	(%rax), %rbx
	## InlineAsm Start
	callq	*%rbx
	jmp	.Lvictim_win0_continue
## Variant 438
.Lvictim_win0_var438:
	popq	%rax
	movq	_target@GOTPCREL(%rip), %rax
	movq	(%rax), %rax
	movq	(%rax), %rbx
	## InlineAsm Start
	callq	*%rbx
	jmp	.Lvictim_win0_continue
## Variant 439
.Lvictim_win0_var439:
	popq	%rax
	movq	_target@GOTPCREL(%rip), %rax
	movq	(%rax), %rax
	movq	(%rax), %rbx
	## InlineAsm Start
	callq	*%rbx
	jmp	.Lvictim_win0_continue
## Variant 440
.Lvictim_win0_var440:
	popq	%rax
	movq	_target@GOTPCREL(%rip), %rax
	movq	(%rax), %rax
	movq	(%rax), %rbx
	## InlineAsm Start
	callq	*%rbx
	jmp	.Lvictim_win0_continue
## Variant 441
.Lvictim_win0_var441:
	popq	%rax
	movq	_target@GOTPCREL(%rip), %rax
	movq	(%rax), %rax
	movq	(%rax), %rbx
	## InlineAsm Start
	callq	*%rbx
	jmp	.Lvictim_win0_continue
## Variant 442
.Lvictim_win0_var442:
	popq	%rax
	movq	_target@GOTPCREL(%rip), %rax
	movq	(%rax), %rax
	movq	(%rax), %rbx
	## InlineAsm Start
	callq	*%rbx
	jmp	.Lvictim_win0_continue
## Variant 443
.Lvictim_win0_var443:
	popq	%rax
	movq	_target@GOTPCREL(%rip), %rax
	movq	(%rax), %rax
	movq	(%rax), %rbx
	## InlineAsm Start
	callq	*%rbx
	jmp	.Lvictim_win0_continue
## Variant 444
.Lvictim_win0_var444:
	popq	%rax
	movq	_target@GOTPCREL(%rip), %rax
	movq	(%rax), %rax
	movq	(%rax), %rbx
	## InlineAsm Start
	callq	*%rbx
	jmp	.Lvictim_win0_continue
## Variant 445
.Lvictim_win0_var445:
	popq	%rax
	movq	_target@GOTPCREL(%rip), %rax
	movq	(%rax), %rax
	movq	(%rax), %rbx
	## InlineAsm Start
	callq	*%rbx
	jmp	.Lvictim_win0_continue
## Variant 446
.Lvictim_win0_var446:
	popq	%rax
	movq	_target@GOTPCREL(%rip), %rax
	movq	(%rax), %rax
	movq	(%rax), %rbx
	## InlineAsm Start
	callq	*%rbx
	jmp	.Lvictim_win0_continue
## Variant 447
.Lvictim_win0_var447:
	popq	%rax
	movq	_target@GOTPCREL(%rip), %rax
	movq	(%rax), %rax
	movq	(%rax), %rbx
	## InlineAsm Start
	callq	*%rbx
	jmp	.Lvictim_win0_continue
## Variant 448
.Lvictim_win0_var448:
	popq	%rax
	movq	_target@GOTPCREL(%rip), %rax
	movq	(%rax), %rax
	movq	(%rax), %rbx
	## InlineAsm Start
	callq	*%rbx
	jmp	.Lvictim_win0_continue
## Variant 449
.Lvictim_win0_var449:
	popq	%rax
	movq	_target@GOTPCREL(%rip), %rax
	movq	(%rax), %rax
	movq	(%rax), %rbx
	## InlineAsm Start
	callq	*%rbx
	jmp	.Lvictim_win0_continue
## Variant 450
.Lvictim_win0_var450:
	popq	%rax
	movq	_target@GOTPCREL(%rip), %rax
	movq	(%rax), %rax
	movq	(%rax), %rbx
	## InlineAsm Start
	callq	*%rbx
	jmp	.Lvictim_win0_continue
## Variant 451
.Lvictim_win0_var451:
	popq	%rax
	movq	_target@GOTPCREL(%rip), %rax
	movq	(%rax), %rax
	movq	(%rax), %rbx
	## InlineAsm Start
	callq	*%rbx
	jmp	.Lvictim_win0_continue
## Variant 452
.Lvictim_win0_var452:
	popq	%rax
	movq	_target@GOTPCREL(%rip), %rax
	movq	(%rax), %rax
	movq	(%rax), %rbx
	## InlineAsm Start
	callq	*%rbx
	jmp	.Lvictim_win0_continue
## Variant 453
.Lvictim_win0_var453:
	popq	%rax
	movq	_target@GOTPCREL(%rip), %rax
	movq	(%rax), %rax
	movq	(%rax), %rbx
	## InlineAsm Start
	callq	*%rbx
	jmp	.Lvictim_win0_continue
## Variant 454
.Lvictim_win0_var454:
	popq	%rax
	movq	_target@GOTPCREL(%rip), %rax
	movq	(%rax), %rax
	movq	(%rax), %rbx
	## InlineAsm Start
	callq	*%rbx
	jmp	.Lvictim_win0_continue
## Variant 455
.Lvictim_win0_var455:
	popq	%rax
	movq	_target@GOTPCREL(%rip), %rax
	movq	(%rax), %rax
	movq	(%rax), %rbx
	## InlineAsm Start
	callq	*%rbx
	jmp	.Lvictim_win0_continue
## Variant 456
.Lvictim_win0_var456:
	popq	%rax
	movq	_target@GOTPCREL(%rip), %rax
	movq	(%rax), %rax
	movq	(%rax), %rbx
	## InlineAsm Start
	callq	*%rbx
	jmp	.Lvictim_win0_continue
## Variant 457
.Lvictim_win0_var457:
	popq	%rax
	movq	_target@GOTPCREL(%rip), %rax
	movq	(%rax), %rax
	movq	(%rax), %rbx
	## InlineAsm Start
	callq	*%rbx
	jmp	.Lvictim_win0_continue
## Variant 458
.Lvictim_win0_var458:
	popq	%rax
	movq	_target@GOTPCREL(%rip), %rax
	movq	(%rax), %rax
	movq	(%rax), %rbx
	## InlineAsm Start
	callq	*%rbx
	jmp	.Lvictim_win0_continue
## Variant 459
.Lvictim_win0_var459:
	popq	%rax
	movq	_target@GOTPCREL(%rip), %rax
	movq	(%rax), %rax
	movq	(%rax), %rbx
	## InlineAsm Start
	callq	*%rbx
	jmp	.Lvictim_win0_continue
## Variant 460
.Lvictim_win0_var460:
	popq	%rax
	movq	_target@GOTPCREL(%rip), %rax
	movq	(%rax), %rax
	movq	(%rax), %rbx
	## InlineAsm Start
	callq	*%rbx
	jmp	.Lvictim_win0_continue
## Variant 461
.Lvictim_win0_var461:
	popq	%rax
	movq	_target@GOTPCREL(%rip), %rax
	movq	(%rax), %rax
	movq	(%rax), %rbx
	## InlineAsm Start
	callq	*%rbx
	jmp	.Lvictim_win0_continue
## Variant 462
.Lvictim_win0_var462:
	popq	%rax
	movq	_target@GOTPCREL(%rip), %rax
	movq	(%rax), %rax
	movq	(%rax), %rbx
	## InlineAsm Start
	callq	*%rbx
	jmp	.Lvictim_win0_continue
## Variant 463
.Lvictim_win0_var463:
	popq	%rax
	movq	_target@GOTPCREL(%rip), %rax
	movq	(%rax), %rax
	movq	(%rax), %rbx
	## InlineAsm Start
	callq	*%rbx
	jmp	.Lvictim_win0_continue
## Variant 464
.Lvictim_win0_var464:
	popq	%rax
	movq	_target@GOTPCREL(%rip), %rax
	movq	(%rax), %rax
	movq	(%rax), %rbx
	## InlineAsm Start
	callq	*%rbx
	jmp	.Lvictim_win0_continue
## Variant 465
.Lvictim_win0_var465:
	popq	%rax
	movq	_target@GOTPCREL(%rip), %rax
	movq	(%rax), %rax
	movq	(%rax), %rbx
	## InlineAsm Start
	callq	*%rbx
	jmp	.Lvictim_win0_continue
## Variant 466
.Lvictim_win0_var466:
	popq	%rax
	movq	_target@GOTPCREL(%rip), %rax
	movq	(%rax), %rax
	movq	(%rax), %rbx
	## InlineAsm Start
	callq	*%rbx
	jmp	.Lvictim_win0_continue
## Variant 467
.Lvictim_win0_var467:
	popq	%rax
	movq	_target@GOTPCREL(%rip), %rax
	movq	(%rax), %rax
	movq	(%rax), %rbx
	## InlineAsm Start
	callq	*%rbx
	jmp	.Lvictim_win0_continue
## Variant 468
.Lvictim_win0_var468:
	popq	%rax
	movq	_target@GOTPCREL(%rip), %rax
	movq	(%rax), %rax
	movq	(%rax), %rbx
	## InlineAsm Start
	callq	*%rbx
	jmp	.Lvictim_win0_continue
## Variant 469
.Lvictim_win0_var469:
	popq	%rax
	movq	_target@GOTPCREL(%rip), %rax
	movq	(%rax), %rax
	movq	(%rax), %rbx
	## InlineAsm Start
	callq	*%rbx
	jmp	.Lvictim_win0_continue
## Variant 470
.Lvictim_win0_var470:
	popq	%rax
	movq	_target@GOTPCREL(%rip), %rax
	movq	(%rax), %rax
	movq	(%rax), %rbx
	## InlineAsm Start
	callq	*%rbx
	jmp	.Lvictim_win0_continue
## Variant 471
.Lvictim_win0_var471:
	popq	%rax
	movq	_target@GOTPCREL(%rip), %rax
	movq	(%rax), %rax
	movq	(%rax), %rbx
	## InlineAsm Start
	callq	*%rbx
	jmp	.Lvictim_win0_continue
## Variant 472
.Lvictim_win0_var472:
	popq	%rax
	movq	_target@GOTPCREL(%rip), %rax
	movq	(%rax), %rax
	movq	(%rax), %rbx
	## InlineAsm Start
	callq	*%rbx
	jmp	.Lvictim_win0_continue
## Variant 473
.Lvictim_win0_var473:
	popq	%rax
	movq	_target@GOTPCREL(%rip), %rax
	movq	(%rax), %rax
	movq	(%rax), %rbx
	## InlineAsm Start
	callq	*%rbx
	jmp	.Lvictim_win0_continue
## Variant 474
.Lvictim_win0_var474:
	popq	%rax
	movq	_target@GOTPCREL(%rip), %rax
	movq	(%rax), %rax
	movq	(%rax), %rbx
	## InlineAsm Start
	callq	*%rbx
	jmp	.Lvictim_win0_continue
## Variant 475
.Lvictim_win0_var475:
	popq	%rax
	movq	_target@GOTPCREL(%rip), %rax
	movq	(%rax), %rax
	movq	(%rax), %rbx
	## InlineAsm Start
	callq	*%rbx
	jmp	.Lvictim_win0_continue
## Variant 476
.Lvictim_win0_var476:
	popq	%rax
	movq	_target@GOTPCREL(%rip), %rax
	movq	(%rax), %rax
	movq	(%rax), %rbx
	## InlineAsm Start
	callq	*%rbx
	jmp	.Lvictim_win0_continue
## Variant 477
.Lvictim_win0_var477:
	popq	%rax
	movq	_target@GOTPCREL(%rip), %rax
	movq	(%rax), %rax
	movq	(%rax), %rbx
	## InlineAsm Start
	callq	*%rbx
	jmp	.Lvictim_win0_continue
## Variant 478
.Lvictim_win0_var478:
	popq	%rax
	movq	_target@GOTPCREL(%rip), %rax
	movq	(%rax), %rax
	movq	(%rax), %rbx
	## InlineAsm Start
	callq	*%rbx
	jmp	.Lvictim_win0_continue
## Variant 479
.Lvictim_win0_var479:
	popq	%rax
	movq	_target@GOTPCREL(%rip), %rax
	movq	(%rax), %rax
	movq	(%rax), %rbx
	## InlineAsm Start
	callq	*%rbx
	jmp	.Lvictim_win0_continue
## Variant 480
.Lvictim_win0_var480:
	popq	%rax
	movq	_target@GOTPCREL(%rip), %rax
	movq	(%rax), %rax
	movq	(%rax), %rbx
	## InlineAsm Start
	callq	*%rbx
	jmp	.Lvictim_win0_continue
## Variant 481
.Lvictim_win0_var481:
	popq	%rax
	movq	_target@GOTPCREL(%rip), %rax
	movq	(%rax), %rax
	movq	(%rax), %rbx
	## InlineAsm Start
	callq	*%rbx
	jmp	.Lvictim_win0_continue
## Variant 482
.Lvictim_win0_var482:
	popq	%rax
	movq	_target@GOTPCREL(%rip), %rax
	movq	(%rax), %rax
	movq	(%rax), %rbx
	## InlineAsm Start
	callq	*%rbx
	jmp	.Lvictim_win0_continue
## Variant 483
.Lvictim_win0_var483:
	popq	%rax
	movq	_target@GOTPCREL(%rip), %rax
	movq	(%rax), %rax
	movq	(%rax), %rbx
	## InlineAsm Start
	callq	*%rbx
	jmp	.Lvictim_win0_continue
## Variant 484
.Lvictim_win0_var484:
	popq	%rax
	movq	_target@GOTPCREL(%rip), %rax
	movq	(%rax), %rax
	movq	(%rax), %rbx
	## InlineAsm Start
	callq	*%rbx
	jmp	.Lvictim_win0_continue
## Variant 485
.Lvictim_win0_var485:
	popq	%rax
	movq	_target@GOTPCREL(%rip), %rax
	movq	(%rax), %rax
	movq	(%rax), %rbx
	## InlineAsm Start
	callq	*%rbx
	jmp	.Lvictim_win0_continue
## Variant 486
.Lvictim_win0_var486:
	popq	%rax
	movq	_target@GOTPCREL(%rip), %rax
	movq	(%rax), %rax
	movq	(%rax), %rbx
	## InlineAsm Start
	callq	*%rbx
	jmp	.Lvictim_win0_continue
## Variant 487
.Lvictim_win0_var487:
	popq	%rax
	movq	_target@GOTPCREL(%rip), %rax
	movq	(%rax), %rax
	movq	(%rax), %rbx
	## InlineAsm Start
	callq	*%rbx
	jmp	.Lvictim_win0_continue
## Variant 488
.Lvictim_win0_var488:
	popq	%rax
	movq	_target@GOTPCREL(%rip), %rax
	movq	(%rax), %rax
	movq	(%rax), %rbx
	## InlineAsm Start
	callq	*%rbx
	jmp	.Lvictim_win0_continue
## Variant 489
.Lvictim_win0_var489:
	popq	%rax
	movq	_target@GOTPCREL(%rip), %rax
	movq	(%rax), %rax
	movq	(%rax), %rbx
	## InlineAsm Start
	callq	*%rbx
	jmp	.Lvictim_win0_continue
## Variant 490
.Lvictim_win0_var490:
	popq	%rax
	movq	_target@GOTPCREL(%rip), %rax
	movq	(%rax), %rax
	movq	(%rax), %rbx
	## InlineAsm Start
	callq	*%rbx
	jmp	.Lvictim_win0_continue
## Variant 491
.Lvictim_win0_var491:
	popq	%rax
	movq	_target@GOTPCREL(%rip), %rax
	movq	(%rax), %rax
	movq	(%rax), %rbx
	## InlineAsm Start
	callq	*%rbx
	jmp	.Lvictim_win0_continue
## Variant 492
.Lvictim_win0_var492:
	popq	%rax
	movq	_target@GOTPCREL(%rip), %rax
	movq	(%rax), %rax
	movq	(%rax), %rbx
	## InlineAsm Start
	callq	*%rbx
	jmp	.Lvictim_win0_continue
## Variant 493
.Lvictim_win0_var493:
	popq	%rax
	movq	_target@GOTPCREL(%rip), %rax
	movq	(%rax), %rax
	movq	(%rax), %rbx
	## InlineAsm Start
	callq	*%rbx
	jmp	.Lvictim_win0_continue
## Variant 494
.Lvictim_win0_var494:
	popq	%rax
	movq	_target@GOTPCREL(%rip), %rax
	movq	(%rax), %rax
	movq	(%rax), %rbx
	## InlineAsm Start
	callq	*%rbx
	jmp	.Lvictim_win0_continue
## Variant 495
.Lvictim_win0_var495:
	popq	%rax
	movq	_target@GOTPCREL(%rip), %rax
	movq	(%rax), %rax
	movq	(%rax), %rbx
	## InlineAsm Start
	callq	*%rbx
	jmp	.Lvictim_win0_continue
## Variant 496
.Lvictim_win0_var496:
	popq	%rax
	movq	_target@GOTPCREL(%rip), %rax
	movq	(%rax), %rax
	movq	(%rax), %rbx
	## InlineAsm Start
	callq	*%rbx
	jmp	.Lvictim_win0_continue
## Variant 497
.Lvictim_win0_var497:
	popq	%rax
	movq	_target@GOTPCREL(%rip), %rax
	movq	(%rax), %rax
	movq	(%rax), %rbx
	## InlineAsm Start
	callq	*%rbx
	jmp	.Lvictim_win0_continue
## Variant 498
.Lvictim_win0_var498:
	popq	%rax
	movq	_target@GOTPCREL(%rip), %rax
	movq	(%rax), %rax
	movq	(%rax), %rbx
	## InlineAsm Start
	callq	*%rbx
	jmp	.Lvictim_win0_continue
## Variant 499
.Lvictim_win0_var499:
	popq	%rax
	movq	_target@GOTPCREL(%rip), %rax
	movq	(%rax), %rax
	movq	(%rax), %rbx
	## InlineAsm Start
	callq	*%rbx
	jmp	.Lvictim_win0_continue
.Lvictim_win0_continue:
	movl	%eax, %ebx
	## InlineAsm End
	movl	%ebx, -36(%rbp)    # # 4-byte Spill
	movl	-36(%rbp), %eax    # # 4-byte Reload
	movl	%eax, -32(%rbp)
	movl	-32(%rbp), %eax
	andl	-24(%rbp), %eax
	popq	%rbx
	popq	%rbp
	retq
	.cfi_endproc
                                        ## -- End function
	.globl	_readByte                       ## -- Begin function readByte
	.p2align	4, 0x90
_readByte:
	.cfi_startproc
## %bb.0:
	pushq	%rbp
	.cfi_def_cfa_offset 16
	.cfi_offset %rbp, -16
	movq	%rsp, %rbp
	.cfi_def_cfa_register %rbp
	subq	$1120, %rsp    # # imm = 0x460
	movq	___stack_chk_guard@GOTPCREL(%rip), %rax
	movq	(%rax), %rax
	movq	%rax, -8(%rbp)
	movq	%rdi, -1048(%rbp)
	movq	%rsi, -1056(%rbp)
	movq	%rdx, -1064(%rbp)
	movl	$0, -1088(%rbp)
	movb	$36, -1113(%rbp)
	movl	$0, -1072(%rbp)
LBB3_1:                                 ## =>This Inner Loop Header: Depth=1
## RANDOM SELECTOR BLOCK
	pushq	%rax
	pushq	%rcx
	pushq	%rdx
	rdtsc
	xorq	%rdx, %rax
	movl	$500, %ecx
	xorl	%edx, %edx
	divl	%ecx
	movl	%edx, %eax
	popq	%rdx
	popq	%rcx
	cmpl	$0, %eax
	je	.LreadByte_win8_var0
	cmpl	$1, %eax
	je	.LreadByte_win8_var1
	cmpl	$2, %eax
	je	.LreadByte_win8_var2
	cmpl	$3, %eax
	je	.LreadByte_win8_var3
	cmpl	$4, %eax
	je	.LreadByte_win8_var4
	cmpl	$5, %eax
	je	.LreadByte_win8_var5
	cmpl	$6, %eax
	je	.LreadByte_win8_var6
	cmpl	$7, %eax
	je	.LreadByte_win8_var7
	cmpl	$8, %eax
	je	.LreadByte_win8_var8
	cmpl	$9, %eax
	je	.LreadByte_win8_var9
	cmpl	$10, %eax
	je	.LreadByte_win8_var10
	cmpl	$11, %eax
	je	.LreadByte_win8_var11
	cmpl	$12, %eax
	je	.LreadByte_win8_var12
	cmpl	$13, %eax
	je	.LreadByte_win8_var13
	cmpl	$14, %eax
	je	.LreadByte_win8_var14
	cmpl	$15, %eax
	je	.LreadByte_win8_var15
	cmpl	$16, %eax
	je	.LreadByte_win8_var16
	cmpl	$17, %eax
	je	.LreadByte_win8_var17
	cmpl	$18, %eax
	je	.LreadByte_win8_var18
	cmpl	$19, %eax
	je	.LreadByte_win8_var19
